; ModuleID = './machine_learning/k_nearest_neighbors.cpp'
source_filename = "./machine_learning/k_nearest_neighbors.cpp"
target datalayout = "e-m:e-p270:32:32-p271:32:32-p272:64:64-i64:64-f80:128-n8:16:32:64-S128"
target triple = "x86_64-pc-linux-gnu"

%"class.std::ios_base::Init" = type { i8 }
%"class.std::basic_ostream" = type { ptr, %"class.std::basic_ios" }
%"class.std::basic_ios" = type { %"class.std::ios_base", ptr, i8, i8, ptr, ptr, ptr, ptr }
%"class.std::ios_base" = type { ptr, i64, i64, i32, i32, i32, ptr, %"struct.std::ios_base::_Words", [8 x %"struct.std::ios_base::_Words"], i32, ptr, %"class.std::locale" }
%"struct.std::ios_base::_Words" = type { ptr, i64 }
%"class.std::locale" = type { ptr }
%"struct.std::piecewise_construct_t" = type { i8 }
%"class.std::vector" = type { %"struct.std::_Vector_base" }
%"struct.std::_Vector_base" = type { %"struct.std::_Vector_base<std::vector<double>, std::allocator<std::vector<double>>>::_Vector_impl" }
%"struct.std::_Vector_base<std::vector<double>, std::allocator<std::vector<double>>>::_Vector_impl" = type { %"struct.std::_Vector_base<std::vector<double>, std::allocator<std::vector<double>>>::_Vector_impl_data" }
%"struct.std::_Vector_base<std::vector<double>, std::allocator<std::vector<double>>>::_Vector_impl_data" = type { ptr, ptr, ptr }
%"class.std::initializer_list" = type { ptr, i64 }
%"class.std::vector.0" = type { %"struct.std::_Vector_base.1" }
%"struct.std::_Vector_base.1" = type { %"struct.std::_Vector_base<double, std::allocator<double>>::_Vector_impl" }
%"struct.std::_Vector_base<double, std::allocator<double>>::_Vector_impl" = type { %"struct.std::_Vector_base<double, std::allocator<double>>::_Vector_impl_data" }
%"struct.std::_Vector_base<double, std::allocator<double>>::_Vector_impl_data" = type { ptr, ptr, ptr }
%"class.std::initializer_list.5" = type { ptr, i64 }
%"class.std::allocator.2" = type { i8 }
%"class.std::allocator" = type { i8 }
%"class.std::vector.6" = type { %"struct.std::_Vector_base.7" }
%"struct.std::_Vector_base.7" = type { %"struct.std::_Vector_base<int, std::allocator<int>>::_Vector_impl" }
%"struct.std::_Vector_base<int, std::allocator<int>>::_Vector_impl" = type { %"struct.std::_Vector_base<int, std::allocator<int>>::_Vector_impl_data" }
%"struct.std::_Vector_base<int, std::allocator<int>>::_Vector_impl_data" = type { ptr, ptr, ptr }
%"class.std::initializer_list.11" = type { ptr, i64 }
%"class.std::allocator.8" = type { i8 }
%"class.machine_learning::k_nearest_neighbors::Knn" = type { %"class.std::vector", %"class.std::vector.6" }
%"struct.std::forward_iterator_tag" = type { i8 }
%"struct.std::random_access_iterator_tag" = type { i8 }
%"class.std::vector.14" = type { %"struct.std::_Vector_base.15" }
%"struct.std::_Vector_base.15" = type { %"struct.std::_Vector_base<std::pair<double, int>, std::allocator<std::pair<double, int>>>::_Vector_impl" }
%"struct.std::_Vector_base<std::pair<double, int>, std::allocator<std::pair<double, int>>>::_Vector_impl" = type { %"struct.std::_Vector_base<std::pair<double, int>, std::allocator<std::pair<double, int>>>::_Vector_impl_data" }
%"struct.std::_Vector_base<std::pair<double, int>, std::allocator<std::pair<double, int>>>::_Vector_impl_data" = type { ptr, ptr, ptr }
%"class.__gnu_cxx::__normal_iterator.19" = type { ptr }
%"class.std::unordered_map" = type { %"class.std::_Hashtable" }
%"class.std::_Hashtable" = type { ptr, i64, %"struct.std::__detail::_Hash_node_base", i64, %"struct.std::__detail::_Prime_rehash_policy", ptr }
%"struct.std::__detail::_Hash_node_base" = type { ptr }
%"struct.std::__detail::_Prime_rehash_policy" = type { float, i64 }
%"class.__gnu_cxx::__normal_iterator.25" = type { ptr }
%"struct.std::pair.26" = type { i32, i32 }
%"struct.std::__detail::_Node_iterator" = type { %"struct.std::__detail::_Node_iterator_base" }
%"struct.std::__detail::_Node_iterator_base" = type { ptr }
%"struct.std::pair" = type <{ double, i32, [4 x i8] }>
%"struct.std::pair.29" = type { i32, i32 }
%"class.__gnu_cxx::__normal_iterator" = type { ptr }
%"class.__gnu_cxx::__normal_iterator.12" = type { ptr }
%"class.__gnu_cxx::__normal_iterator.13" = type { ptr }
%"class.std::back_insert_iterator" = type { ptr }
%class.anon = type { i8 }
%"class.__gnu_cxx::__normal_iterator.32" = type { ptr }
%"struct.__gnu_cxx::__ops::_Iter_less_iter" = type { i8 }
%"struct.std::integral_constant" = type { i8 }
%"class.std::move_iterator" = type { %"class.__gnu_cxx::__normal_iterator.32" }
%"struct.std::integral_constant.33" = type { i8 }
%"struct.__gnu_cxx::__ops::_Iter_less_val" = type { i8 }
%"struct.__gnu_cxx::__ops::_Val_less_iter" = type { i8 }
%"struct.std::_Hashtable<int, std::pair<const int, int>, std::allocator<std::pair<const int, int>>, std::__detail::_Select1st, std::equal_to<int>, std::hash<int>, std::__detail::_Mod_range_hashing, std::__detail::_Default_ranged_hash, std::__detail::_Prime_rehash_policy, std::__detail::_Hashtable_traits<false, false, true>>::_Scoped_node" = type { ptr, ptr }
%"class.std::tuple" = type { %"struct.std::_Tuple_impl" }
%"struct.std::_Tuple_impl" = type { %"struct.std::_Head_base" }
%"struct.std::_Head_base" = type { ptr }
%"class.std::tuple.34" = type { i8 }
%"struct.std::pair.36" = type { i8, i64 }
%"struct.std::__detail::_Mod_range_hashing" = type { i8 }
%"struct.std::__detail::_Select1st" = type { i8 }
%"struct.std::__detail::_Hash_node_value_base" = type { %"struct.__gnu_cxx::__aligned_buffer" }
%"struct.__gnu_cxx::__aligned_buffer" = type { %"union.std::aligned_storage<8, 4>::type" }
%"union.std::aligned_storage<8, 4>::type" = type { [8 x i8] }
%"struct.std::_Index_tuple" = type { i8 }
%"struct.std::_Index_tuple.35" = type { i8 }
%"class.std::allocator.39" = type { i8 }

$_ZNSaIdEC2Ev = comdat any

$_ZNSt6vectorIdSaIdEEC2ESt16initializer_listIdERKS0_ = comdat any

$_ZNSaISt6vectorIdSaIdEEEC2Ev = comdat any

$_ZNSt6vectorIS_IdSaIdEESaIS1_EEC2ESt16initializer_listIS1_ERKS2_ = comdat any

$_ZNSaISt6vectorIdSaIdEEED2Ev = comdat any

$_ZNSt6vectorIdSaIdEED2Ev = comdat any

$_ZNSaIdED2Ev = comdat any

$_ZNSaIiEC2Ev = comdat any

$_ZNSt6vectorIiSaIiEEC2ESt16initializer_listIiERKS0_ = comdat any

$_ZNSaIiED2Ev = comdat any

$_ZN16machine_learning19k_nearest_neighbors3KnnC2ERSt6vectorIS2_IdSaIdEESaIS4_EERS2_IiSaIiEE = comdat any

$_ZN16machine_learning19k_nearest_neighbors3Knn7predictERSt6vectorIdSaIdEEi = comdat any

$_ZN16machine_learning19k_nearest_neighbors3KnnD2Ev = comdat any

$_ZNSt6vectorIiSaIiEED2Ev = comdat any

$_ZNSt6vectorIS_IdSaIdEESaIS1_EED2Ev = comdat any

$_ZNSt15__new_allocatorIdEC2Ev = comdat any

$_ZNSt12_Vector_baseIdSaIdEEC2ERKS0_ = comdat any

$_ZNSt6vectorIdSaIdEE19_M_range_initializeIPKdEEvT_S5_St20forward_iterator_tag = comdat any

$_ZNKSt16initializer_listIdE5beginEv = comdat any

$_ZNKSt16initializer_listIdE3endEv = comdat any

$_ZNSt12_Vector_baseIdSaIdEED2Ev = comdat any

$_ZNSt12_Vector_baseIdSaIdEE12_Vector_implC2ERKS0_ = comdat any

$_ZNSt15__new_allocatorIdEC2ERKS0_ = comdat any

$_ZSt8distanceIPKdENSt15iterator_traitsIT_E15difference_typeES3_S3_ = comdat any

$_ZNSt12_Vector_baseIdSaIdEE11_M_allocateEm = comdat any

$_ZNSt6vectorIdSaIdEE17_S_check_init_lenEmRKS0_ = comdat any

$_ZNSt12_Vector_baseIdSaIdEE19_M_get_Tp_allocatorEv = comdat any

$_ZSt22__uninitialized_copy_aIPKdPddET0_T_S4_S3_RSaIT1_E = comdat any

$_ZSt10__distanceIPKdENSt15iterator_traitsIT_E15difference_typeES3_S3_St26random_access_iterator_tag = comdat any

$_ZSt19__iterator_categoryIPKdENSt15iterator_traitsIT_E17iterator_categoryERKS3_ = comdat any

$_ZNSt16allocator_traitsISaIdEE8allocateERS0_m = comdat any

$_ZNSt15__new_allocatorIdE8allocateEmPKv = comdat any

$_ZNKSt15__new_allocatorIdE11_M_max_sizeEv = comdat any

$_ZNSt6vectorIdSaIdEE11_S_max_sizeERKS0_ = comdat any

$_ZNSaIdEC2ERKS_ = comdat any

$_ZNSt16allocator_traitsISaIdEE8max_sizeERKS0_ = comdat any

$_ZSt3minImERKT_S2_S2_ = comdat any

$__clang_call_terminate = comdat any

$_ZNKSt15__new_allocatorIdE8max_sizeEv = comdat any

$_ZSt18uninitialized_copyIPKdPdET0_T_S4_S3_ = comdat any

$_ZNSt20__uninitialized_copyILb1EE13__uninit_copyIPKdPdEET0_T_S6_S5_ = comdat any

$_ZSt4copyIPKdPdET0_T_S4_S3_ = comdat any

$_ZSt13__copy_move_aILb0EPKdPdET1_T0_S4_S3_ = comdat any

$_ZSt12__miter_baseIPKdET_S2_ = comdat any

$_ZSt12__niter_wrapIPdET_RKS1_S1_ = comdat any

$_ZSt14__copy_move_a1ILb0EPKdPdET1_T0_S4_S3_ = comdat any

$_ZSt12__niter_baseIPKdET_S2_ = comdat any

$_ZSt12__niter_baseIPdET_S1_ = comdat any

$_ZSt14__copy_move_a2ILb0EPKdPdET1_T0_S4_S3_ = comdat any

$_ZNSt11__copy_moveILb0ELb1ESt26random_access_iterator_tagE8__copy_mIdEEPT_PKS3_S6_S4_ = comdat any

$_ZNKSt16initializer_listIdE4sizeEv = comdat any

$_ZNSt12_Vector_baseIdSaIdEE13_M_deallocateEPdm = comdat any

$_ZNSt12_Vector_baseIdSaIdEE12_Vector_implD2Ev = comdat any

$_ZNSt16allocator_traitsISaIdEE10deallocateERS0_Pdm = comdat any

$_ZNSt15__new_allocatorIdE10deallocateEPdm = comdat any

$_ZNSt15__new_allocatorIdED2Ev = comdat any

$_ZNSt15__new_allocatorISt6vectorIdSaIdEEEC2Ev = comdat any

$_ZNSt12_Vector_baseISt6vectorIdSaIdEESaIS2_EEC2ERKS3_ = comdat any

$_ZNSt6vectorIS_IdSaIdEESaIS1_EE19_M_range_initializeIPKS1_EEvT_S7_St20forward_iterator_tag = comdat any

$_ZNKSt16initializer_listISt6vectorIdSaIdEEE5beginEv = comdat any

$_ZNKSt16initializer_listISt6vectorIdSaIdEEE3endEv = comdat any

$_ZNSt12_Vector_baseISt6vectorIdSaIdEESaIS2_EED2Ev = comdat any

$_ZNSt12_Vector_baseISt6vectorIdSaIdEESaIS2_EE12_Vector_implC2ERKS3_ = comdat any

$_ZNSt12_Vector_baseISt6vectorIdSaIdEESaIS2_EE17_Vector_impl_dataC2Ev = comdat any

$_ZNSt15__new_allocatorISt6vectorIdSaIdEEEC2ERKS3_ = comdat any

$_ZSt8distanceIPKSt6vectorIdSaIdEEENSt15iterator_traitsIT_E15difference_typeES6_S6_ = comdat any

$_ZNSt12_Vector_baseISt6vectorIdSaIdEESaIS2_EE11_M_allocateEm = comdat any

$_ZNSt6vectorIS_IdSaIdEESaIS1_EE17_S_check_init_lenEmRKS2_ = comdat any

$_ZNSt12_Vector_baseISt6vectorIdSaIdEESaIS2_EE19_M_get_Tp_allocatorEv = comdat any

$_ZSt22__uninitialized_copy_aIPKSt6vectorIdSaIdEEPS2_S2_ET0_T_S7_S6_RSaIT1_E = comdat any

$_ZSt10__distanceIPKSt6vectorIdSaIdEEENSt15iterator_traitsIT_E15difference_typeES6_S6_St26random_access_iterator_tag = comdat any

$_ZSt19__iterator_categoryIPKSt6vectorIdSaIdEEENSt15iterator_traitsIT_E17iterator_categoryERKS6_ = comdat any

$_ZNSt16allocator_traitsISaISt6vectorIdSaIdEEEE8allocateERS3_m = comdat any

$_ZNSt15__new_allocatorISt6vectorIdSaIdEEE8allocateEmPKv = comdat any

$_ZNKSt15__new_allocatorISt6vectorIdSaIdEEE11_M_max_sizeEv = comdat any

$_ZNSt6vectorIS_IdSaIdEESaIS1_EE11_S_max_sizeERKS2_ = comdat any

$_ZNSaISt6vectorIdSaIdEEEC2ERKS2_ = comdat any

$_ZNSt16allocator_traitsISaISt6vectorIdSaIdEEEE8max_sizeERKS3_ = comdat any

$_ZNKSt15__new_allocatorISt6vectorIdSaIdEEE8max_sizeEv = comdat any

$_ZSt18uninitialized_copyIPKSt6vectorIdSaIdEEPS2_ET0_T_S7_S6_ = comdat any

$_ZNSt20__uninitialized_copyILb0EE13__uninit_copyIPKSt6vectorIdSaIdEEPS4_EET0_T_S9_S8_ = comdat any

$_ZSt16__do_uninit_copyIPKSt6vectorIdSaIdEEPS2_ET0_T_S7_S6_ = comdat any

$_ZSt10_ConstructISt6vectorIdSaIdEEJRKS2_EEvPT_DpOT0_ = comdat any

$_ZSt8_DestroyIPSt6vectorIdSaIdEEEvT_S4_ = comdat any

$_ZNSt6vectorIdSaIdEEC2ERKS1_ = comdat any

$_ZNKSt6vectorIdSaIdEE4sizeEv = comdat any

$_ZN9__gnu_cxx14__alloc_traitsISaIdEdE17_S_select_on_copyERKS1_ = comdat any

$_ZNKSt12_Vector_baseIdSaIdEE19_M_get_Tp_allocatorEv = comdat any

$_ZNSt12_Vector_baseIdSaIdEEC2EmRKS0_ = comdat any

$_ZSt22__uninitialized_copy_aIN9__gnu_cxx17__normal_iteratorIPKdSt6vectorIdSaIdEEEEPddET0_T_SA_S9_RSaIT1_E = comdat any

$_ZNKSt6vectorIdSaIdEE5beginEv = comdat any

$_ZNKSt6vectorIdSaIdEE3endEv = comdat any

$_ZNSt16allocator_traitsISaIdEE37select_on_container_copy_constructionERKS0_ = comdat any

$_ZNSt12_Vector_baseIdSaIdEE17_M_create_storageEm = comdat any

$_ZSt18uninitialized_copyIN9__gnu_cxx17__normal_iteratorIPKdSt6vectorIdSaIdEEEEPdET0_T_SA_S9_ = comdat any

$_ZNSt20__uninitialized_copyILb1EE13__uninit_copyIN9__gnu_cxx17__normal_iteratorIPKdSt6vectorIdSaIdEEEEPdEET0_T_SC_SB_ = comdat any

$_ZSt4copyIN9__gnu_cxx17__normal_iteratorIPKdSt6vectorIdSaIdEEEEPdET0_T_SA_S9_ = comdat any

$_ZSt13__copy_move_aILb0EN9__gnu_cxx17__normal_iteratorIPKdSt6vectorIdSaIdEEEEPdET1_T0_SA_S9_ = comdat any

$_ZSt12__miter_baseIN9__gnu_cxx17__normal_iteratorIPKdSt6vectorIdSaIdEEEEET_S8_ = comdat any

$_ZSt12__niter_baseIPKdSt6vectorIdSaIdEEET_N9__gnu_cxx17__normal_iteratorIS5_T0_EE = comdat any

$_ZNK9__gnu_cxx17__normal_iteratorIPKdSt6vectorIdSaIdEEE4baseEv = comdat any

$_ZN9__gnu_cxx17__normal_iteratorIPKdSt6vectorIdSaIdEEEC2ERKS2_ = comdat any

$_ZNSt12_Destroy_auxILb0EE9__destroyIPSt6vectorIdSaIdEEEEvT_S6_ = comdat any

$_ZSt8_DestroyISt6vectorIdSaIdEEEvPT_ = comdat any

$_ZNKSt16initializer_listISt6vectorIdSaIdEEE4sizeEv = comdat any

$_ZNSt12_Vector_baseISt6vectorIdSaIdEESaIS2_EE13_M_deallocateEPS2_m = comdat any

$_ZNSt12_Vector_baseISt6vectorIdSaIdEESaIS2_EE12_Vector_implD2Ev = comdat any

$_ZNSt16allocator_traitsISaISt6vectorIdSaIdEEEE10deallocateERS3_PS2_m = comdat any

$_ZNSt15__new_allocatorISt6vectorIdSaIdEEE10deallocateEPS2_m = comdat any

$_ZNSt15__new_allocatorISt6vectorIdSaIdEEED2Ev = comdat any

$_ZSt8_DestroyIPddEvT_S1_RSaIT0_E = comdat any

$_ZSt8_DestroyIPdEvT_S1_ = comdat any

$_ZNSt12_Destroy_auxILb1EE9__destroyIPdEEvT_S3_ = comdat any

$_ZNSt15__new_allocatorIiEC2Ev = comdat any

$_ZNSt12_Vector_baseIiSaIiEEC2ERKS0_ = comdat any

$_ZNSt6vectorIiSaIiEE19_M_range_initializeIPKiEEvT_S5_St20forward_iterator_tag = comdat any

$_ZNKSt16initializer_listIiE5beginEv = comdat any

$_ZNKSt16initializer_listIiE3endEv = comdat any

$_ZNSt12_Vector_baseIiSaIiEED2Ev = comdat any

$_ZNSt12_Vector_baseIiSaIiEE12_Vector_implC2ERKS0_ = comdat any

$_ZNSt12_Vector_baseIiSaIiEE17_Vector_impl_dataC2Ev = comdat any

$_ZNSt15__new_allocatorIiEC2ERKS0_ = comdat any

$_ZSt8distanceIPKiENSt15iterator_traitsIT_E15difference_typeES3_S3_ = comdat any

$_ZNSt12_Vector_baseIiSaIiEE11_M_allocateEm = comdat any

$_ZNSt6vectorIiSaIiEE17_S_check_init_lenEmRKS0_ = comdat any

$_ZNSt12_Vector_baseIiSaIiEE19_M_get_Tp_allocatorEv = comdat any

$_ZSt22__uninitialized_copy_aIPKiPiiET0_T_S4_S3_RSaIT1_E = comdat any

$_ZSt10__distanceIPKiENSt15iterator_traitsIT_E15difference_typeES3_S3_St26random_access_iterator_tag = comdat any

$_ZSt19__iterator_categoryIPKiENSt15iterator_traitsIT_E17iterator_categoryERKS3_ = comdat any

$_ZNSt16allocator_traitsISaIiEE8allocateERS0_m = comdat any

$_ZNSt15__new_allocatorIiE8allocateEmPKv = comdat any

$_ZNKSt15__new_allocatorIiE11_M_max_sizeEv = comdat any

$_ZNSt6vectorIiSaIiEE11_S_max_sizeERKS0_ = comdat any

$_ZNSaIiEC2ERKS_ = comdat any

$_ZNSt16allocator_traitsISaIiEE8max_sizeERKS0_ = comdat any

$_ZNKSt15__new_allocatorIiE8max_sizeEv = comdat any

$_ZSt18uninitialized_copyIPKiPiET0_T_S4_S3_ = comdat any

$_ZNSt20__uninitialized_copyILb1EE13__uninit_copyIPKiPiEET0_T_S6_S5_ = comdat any

$_ZSt4copyIPKiPiET0_T_S4_S3_ = comdat any

$_ZSt13__copy_move_aILb0EPKiPiET1_T0_S4_S3_ = comdat any

$_ZSt12__miter_baseIPKiET_S2_ = comdat any

$_ZSt12__niter_wrapIPiET_RKS1_S1_ = comdat any

$_ZSt14__copy_move_a1ILb0EPKiPiET1_T0_S4_S3_ = comdat any

$_ZSt12__niter_baseIPKiET_S2_ = comdat any

$_ZSt12__niter_baseIPiET_S1_ = comdat any

$_ZSt14__copy_move_a2ILb0EPKiPiET1_T0_S4_S3_ = comdat any

$_ZNSt11__copy_moveILb0ELb1ESt26random_access_iterator_tagE8__copy_mIiEEPT_PKS3_S6_S4_ = comdat any

$_ZNKSt16initializer_listIiE4sizeEv = comdat any

$_ZNSt12_Vector_baseIiSaIiEE13_M_deallocateEPim = comdat any

$_ZNSt12_Vector_baseIiSaIiEE12_Vector_implD2Ev = comdat any

$_ZNSt16allocator_traitsISaIiEE10deallocateERS0_Pim = comdat any

$_ZNSt15__new_allocatorIiE10deallocateEPim = comdat any

$_ZNSt15__new_allocatorIiED2Ev = comdat any

$_ZNSt6vectorIS_IdSaIdEESaIS1_EEC2ERKS3_ = comdat any

$_ZNSt6vectorIiSaIiEEC2ERKS1_ = comdat any

$_ZNKSt6vectorIS_IdSaIdEESaIS1_EE4sizeEv = comdat any

$_ZN9__gnu_cxx14__alloc_traitsISaISt6vectorIdSaIdEEES3_E17_S_select_on_copyERKS4_ = comdat any

$_ZNKSt12_Vector_baseISt6vectorIdSaIdEESaIS2_EE19_M_get_Tp_allocatorEv = comdat any

$_ZNSt12_Vector_baseISt6vectorIdSaIdEESaIS2_EEC2EmRKS3_ = comdat any

$_ZSt22__uninitialized_copy_aIN9__gnu_cxx17__normal_iteratorIPKSt6vectorIdSaIdEES2_IS4_SaIS4_EEEEPS4_S4_ET0_T_SC_SB_RSaIT1_E = comdat any

$_ZNKSt6vectorIS_IdSaIdEESaIS1_EE5beginEv = comdat any

$_ZNKSt6vectorIS_IdSaIdEESaIS1_EE3endEv = comdat any

$_ZNSt16allocator_traitsISaISt6vectorIdSaIdEEEE37select_on_container_copy_constructionERKS3_ = comdat any

$_ZNSt12_Vector_baseISt6vectorIdSaIdEESaIS2_EE17_M_create_storageEm = comdat any

$_ZSt18uninitialized_copyIN9__gnu_cxx17__normal_iteratorIPKSt6vectorIdSaIdEES2_IS4_SaIS4_EEEEPS4_ET0_T_SC_SB_ = comdat any

$_ZNSt20__uninitialized_copyILb0EE13__uninit_copyIN9__gnu_cxx17__normal_iteratorIPKSt6vectorIdSaIdEES4_IS6_SaIS6_EEEEPS6_EET0_T_SE_SD_ = comdat any

$_ZSt16__do_uninit_copyIN9__gnu_cxx17__normal_iteratorIPKSt6vectorIdSaIdEES2_IS4_SaIS4_EEEEPS4_ET0_T_SC_SB_ = comdat any

$_ZN9__gnu_cxxneIPKSt6vectorIdSaIdEES1_IS3_SaIS3_EEEEbRKNS_17__normal_iteratorIT_T0_EESD_ = comdat any

$_ZNK9__gnu_cxx17__normal_iteratorIPKSt6vectorIdSaIdEES1_IS3_SaIS3_EEEdeEv = comdat any

$_ZN9__gnu_cxx17__normal_iteratorIPKSt6vectorIdSaIdEES1_IS3_SaIS3_EEEppEv = comdat any

$_ZNK9__gnu_cxx17__normal_iteratorIPKSt6vectorIdSaIdEES1_IS3_SaIS3_EEE4baseEv = comdat any

$_ZN9__gnu_cxx17__normal_iteratorIPKSt6vectorIdSaIdEES1_IS3_SaIS3_EEEC2ERKS5_ = comdat any

$_ZNKSt6vectorIiSaIiEE4sizeEv = comdat any

$_ZN9__gnu_cxx14__alloc_traitsISaIiEiE17_S_select_on_copyERKS1_ = comdat any

$_ZNKSt12_Vector_baseIiSaIiEE19_M_get_Tp_allocatorEv = comdat any

$_ZNSt12_Vector_baseIiSaIiEEC2EmRKS0_ = comdat any

$_ZSt22__uninitialized_copy_aIN9__gnu_cxx17__normal_iteratorIPKiSt6vectorIiSaIiEEEEPiiET0_T_SA_S9_RSaIT1_E = comdat any

$_ZNKSt6vectorIiSaIiEE5beginEv = comdat any

$_ZNKSt6vectorIiSaIiEE3endEv = comdat any

$_ZNSt16allocator_traitsISaIiEE37select_on_container_copy_constructionERKS0_ = comdat any

$_ZNSt12_Vector_baseIiSaIiEE17_M_create_storageEm = comdat any

$_ZSt18uninitialized_copyIN9__gnu_cxx17__normal_iteratorIPKiSt6vectorIiSaIiEEEEPiET0_T_SA_S9_ = comdat any

$_ZNSt20__uninitialized_copyILb1EE13__uninit_copyIN9__gnu_cxx17__normal_iteratorIPKiSt6vectorIiSaIiEEEEPiEET0_T_SC_SB_ = comdat any

$_ZSt4copyIN9__gnu_cxx17__normal_iteratorIPKiSt6vectorIiSaIiEEEEPiET0_T_SA_S9_ = comdat any

$_ZSt13__copy_move_aILb0EN9__gnu_cxx17__normal_iteratorIPKiSt6vectorIiSaIiEEEEPiET1_T0_SA_S9_ = comdat any

$_ZSt12__miter_baseIN9__gnu_cxx17__normal_iteratorIPKiSt6vectorIiSaIiEEEEET_S8_ = comdat any

$_ZSt12__niter_baseIPKiSt6vectorIiSaIiEEET_N9__gnu_cxx17__normal_iteratorIS5_T0_EE = comdat any

$_ZNK9__gnu_cxx17__normal_iteratorIPKiSt6vectorIiSaIiEEE4baseEv = comdat any

$_ZN9__gnu_cxx17__normal_iteratorIPKiSt6vectorIiSaIiEEEC2ERKS2_ = comdat any

$_ZNSt6vectorIiSaIiEEC2Ev = comdat any

$_ZNSt6vectorISt4pairIdiESaIS1_EEC2Ev = comdat any

$_ZNSt6vectorIS_IdSaIdEESaIS1_EE2atEm = comdat any

$_ZNSt6vectorIiSaIiEE2atEm = comdat any

$_ZN16machine_learning19k_nearest_neighbors18euclidean_distanceIdEEdRKSt6vectorIT_SaIS3_EES7_ = comdat any

$_ZNSt6vectorISt4pairIdiESaIS1_EE12emplace_backIJRdRiEEEvDpOT_ = comdat any

$_ZSt4sortIN9__gnu_cxx17__normal_iteratorIPSt4pairIdiESt6vectorIS3_SaIS3_EEEEEvT_S9_ = comdat any

$_ZNSt6vectorISt4pairIdiESaIS1_EE5beginEv = comdat any

$_ZNSt6vectorISt4pairIdiESaIS1_EE3endEv = comdat any

$_ZNSt6vectorISt4pairIdiESaIS1_EE2atEm = comdat any

$_ZNSt6vectorIiSaIiEE9push_backERKi = comdat any

$_ZNSt13unordered_mapIiiSt4hashIiESt8equal_toIiESaISt4pairIKiiEEEC2Ev = comdat any

$_ZNSt6vectorIiSaIiEE5beginEv = comdat any

$_ZNSt6vectorIiSaIiEE3endEv = comdat any

$_ZN9__gnu_cxxneIPiSt6vectorIiSaIiEEEEbRKNS_17__normal_iteratorIT_T0_EESA_ = comdat any

$_ZNK9__gnu_cxx17__normal_iteratorIPiSt6vectorIiSaIiEEEdeEv = comdat any

$_ZNSt13unordered_mapIiiSt4hashIiESt8equal_toIiESaISt4pairIKiiEEEixERS5_ = comdat any

$_ZN9__gnu_cxx17__normal_iteratorIPiSt6vectorIiSaIiEEEppEv = comdat any

$_ZNSt4pairIiiEC2IiiLb1EEEv = comdat any

$_ZNSt13unordered_mapIiiSt4hashIiESt8equal_toIiESaISt4pairIKiiEEE5beginEv = comdat any

$_ZNSt13unordered_mapIiiSt4hashIiESt8equal_toIiESaISt4pairIKiiEEE3endEv = comdat any

$_ZNSt8__detailneERKNS_19_Node_iterator_baseISt4pairIKiiELb0EEES6_ = comdat any

$_ZNKSt8__detail14_Node_iteratorISt4pairIKiiELb0ELb0EEdeEv = comdat any

$_ZNSt8__detail14_Node_iteratorISt4pairIKiiELb0ELb0EEppEv = comdat any

$_ZNSt13unordered_mapIiiSt4hashIiESt8equal_toIiESaISt4pairIKiiEEED2Ev = comdat any

$_ZNSt6vectorISt4pairIdiESaIS1_EED2Ev = comdat any

$_ZNSt12_Vector_baseIiSaIiEEC2Ev = comdat any

$_ZNSt12_Vector_baseIiSaIiEE12_Vector_implC2Ev = comdat any

$_ZNSt12_Vector_baseISt4pairIdiESaIS1_EEC2Ev = comdat any

$_ZNSt12_Vector_baseISt4pairIdiESaIS1_EE12_Vector_implC2Ev = comdat any

$_ZNSaISt4pairIdiEEC2Ev = comdat any

$_ZNSt12_Vector_baseISt4pairIdiESaIS1_EE17_Vector_impl_dataC2Ev = comdat any

$_ZNSt15__new_allocatorISt4pairIdiEEC2Ev = comdat any

$_ZNKSt6vectorIS_IdSaIdEESaIS1_EE14_M_range_checkEm = comdat any

$_ZNSt6vectorIS_IdSaIdEESaIS1_EEixEm = comdat any

$_ZNKSt6vectorIiSaIiEE14_M_range_checkEm = comdat any

$_ZNSt6vectorIiSaIiEEixEm = comdat any

$_ZNSt6vectorIdSaIdEEC2Ev = comdat any

$_ZSt9transformIN9__gnu_cxx17__normal_iteratorIPKdSt6vectorIdSaIdEEEES7_St20back_insert_iteratorIS6_EZN16machine_learning19k_nearest_neighbors18euclidean_distanceIdEEdRKS4_IT_SaISD_EESH_EUlddE_ET1_SD_SD_T0_SJ_T2_ = comdat any

$_ZSt13back_inserterISt6vectorIdSaIdEEESt20back_insert_iteratorIT_ERS4_ = comdat any

$_ZNSt6vectorIdSaIdEE13shrink_to_fitEv = comdat any

$_ZSt10accumulateIN9__gnu_cxx17__normal_iteratorIPdSt6vectorIdSaIdEEEEdET0_T_S8_S7_ = comdat any

$_ZNSt6vectorIdSaIdEE5beginEv = comdat any

$_ZNSt6vectorIdSaIdEE3endEv = comdat any

$_ZNSt12_Vector_baseIdSaIdEEC2Ev = comdat any

$_ZNSt12_Vector_baseIdSaIdEE12_Vector_implC2Ev = comdat any

$_ZN9__gnu_cxxneIPKdSt6vectorIdSaIdEEEEbRKNS_17__normal_iteratorIT_T0_EESB_ = comdat any

$_ZZN16machine_learning19k_nearest_neighbors18euclidean_distanceIdEEdRKSt6vectorIT_SaIS3_EES7_ENKUlddE_clEdd = comdat any

$_ZNK9__gnu_cxx17__normal_iteratorIPKdSt6vectorIdSaIdEEEdeEv = comdat any

$_ZNSt20back_insert_iteratorISt6vectorIdSaIdEEEdeEv = comdat any

$_ZNSt20back_insert_iteratorISt6vectorIdSaIdEEEaSEOd = comdat any

$_ZN9__gnu_cxx17__normal_iteratorIPKdSt6vectorIdSaIdEEEppEv = comdat any

$_ZNSt20back_insert_iteratorISt6vectorIdSaIdEEEppEv = comdat any

$_ZSt3powIdiEN9__gnu_cxx11__promote_2IT_T0_NS0_9__promoteIS2_Xsr3std12__is_integerIS2_EE7__valueEE6__typeENS4_IS3_Xsr3std12__is_integerIS3_EE7__valueEE6__typeEE6__typeES2_S3_ = comdat any

$_ZNSt6vectorIdSaIdEE9push_backEOd = comdat any

$_ZNSt6vectorIdSaIdEE12emplace_backIJdEEEvDpOT_ = comdat any

$_ZNSt16allocator_traitsISaIdEE9constructIdJdEEEvRS0_PT_DpOT0_ = comdat any

$_ZNSt6vectorIdSaIdEE17_M_realloc_insertIJdEEEvN9__gnu_cxx17__normal_iteratorIPdS1_EEDpOT_ = comdat any

$_ZNSt15__new_allocatorIdE9constructIdJdEEEvPT_DpOT0_ = comdat any

$_ZNKSt6vectorIdSaIdEE12_M_check_lenEmPKc = comdat any

$_ZN9__gnu_cxxmiIPdSt6vectorIdSaIdEEEENS_17__normal_iteratorIT_T0_E15difference_typeERKS8_SB_ = comdat any

$_ZNSt6vectorIdSaIdEE11_S_relocateEPdS2_S2_RS0_ = comdat any

$_ZNK9__gnu_cxx17__normal_iteratorIPdSt6vectorIdSaIdEEE4baseEv = comdat any

$_ZNKSt6vectorIdSaIdEE8max_sizeEv = comdat any

$_ZSt3maxImERKT_S2_S2_ = comdat any

$_ZNSt6vectorIdSaIdEE14_S_do_relocateEPdS2_S2_RS0_St17integral_constantIbLb1EE = comdat any

$_ZSt12__relocate_aIPdS0_SaIdEET0_T_S3_S2_RT1_ = comdat any

$_ZSt14__relocate_a_1IddENSt9enable_ifIXsr3std24__is_bitwise_relocatableIT_EE5valueEPS1_E4typeES2_S2_S2_RSaIT0_E = comdat any

$_ZNSt20back_insert_iteratorISt6vectorIdSaIdEEEC2ERS2_ = comdat any

$_ZNSt6vectorIdSaIdEE16_M_shrink_to_fitEv = comdat any

$_ZNKSt6vectorIdSaIdEE8capacityEv = comdat any

$_ZNSt19__shrink_to_fit_auxISt6vectorIdSaIdEELb1EE8_S_do_itERS2_ = comdat any

$_ZSt32__make_move_if_noexcept_iteratorIN9__gnu_cxx17__normal_iteratorIPdSt6vectorIdSaIdEEEESt13move_iteratorIS6_EET0_T_ = comdat any

$_ZNKSt12_Vector_baseIdSaIdEE13get_allocatorEv = comdat any

$_ZNSt6vectorIdSaIdEEC2ISt13move_iteratorIN9__gnu_cxx17__normal_iteratorIPdS1_EEEvEET_S9_RKS0_ = comdat any

$_ZNSt6vectorIdSaIdEE4swapERS1_ = comdat any

$_ZNSt13move_iteratorIN9__gnu_cxx17__normal_iteratorIPdSt6vectorIdSaIdEEEEEC2ES6_ = comdat any

$_ZNSt6vectorIdSaIdEE19_M_range_initializeISt13move_iteratorIN9__gnu_cxx17__normal_iteratorIPdS1_EEEEEvT_S9_St20forward_iterator_tag = comdat any

$_ZSt19__iterator_categoryISt13move_iteratorIN9__gnu_cxx17__normal_iteratorIPdSt6vectorIdSaIdEEEEEENSt15iterator_traitsIT_E17iterator_categoryERKSA_ = comdat any

$_ZSt8distanceISt13move_iteratorIN9__gnu_cxx17__normal_iteratorIPdSt6vectorIdSaIdEEEEEENSt15iterator_traitsIT_E15difference_typeESA_SA_ = comdat any

$_ZSt22__uninitialized_copy_aISt13move_iteratorIN9__gnu_cxx17__normal_iteratorIPdSt6vectorIdSaIdEEEEES3_dET0_T_SA_S9_RSaIT1_E = comdat any

$_ZSt10__distanceISt13move_iteratorIN9__gnu_cxx17__normal_iteratorIPdSt6vectorIdSaIdEEEEEENSt15iterator_traitsIT_E15difference_typeESA_SA_St26random_access_iterator_tag = comdat any

$_ZStmiIN9__gnu_cxx17__normal_iteratorIPdSt6vectorIdSaIdEEEES6_EDTmicldtfp_4baseEcldtfp0_4baseEERKSt13move_iteratorIT_ERKS8_IT0_E = comdat any

$_ZNKSt13move_iteratorIN9__gnu_cxx17__normal_iteratorIPdSt6vectorIdSaIdEEEEE4baseEv = comdat any

$_ZSt18uninitialized_copyISt13move_iteratorIN9__gnu_cxx17__normal_iteratorIPdSt6vectorIdSaIdEEEEES3_ET0_T_SA_S9_ = comdat any

$_ZNSt20__uninitialized_copyILb1EE13__uninit_copyISt13move_iteratorIN9__gnu_cxx17__normal_iteratorIPdSt6vectorIdSaIdEEEEES5_EET0_T_SC_SB_ = comdat any

$_ZSt4copyISt13move_iteratorIN9__gnu_cxx17__normal_iteratorIPdSt6vectorIdSaIdEEEEES3_ET0_T_SA_S9_ = comdat any

$_ZSt13__copy_move_aILb1EN9__gnu_cxx17__normal_iteratorIPdSt6vectorIdSaIdEEEES2_ET1_T0_S8_S7_ = comdat any

$_ZSt12__miter_baseIN9__gnu_cxx17__normal_iteratorIPdSt6vectorIdSaIdEEEEEDTcl12__miter_basecldtfp_4baseEEESt13move_iteratorIT_E = comdat any

$_ZSt14__copy_move_a1ILb1EPdS0_ET1_T0_S2_S1_ = comdat any

$_ZSt12__niter_baseIPdSt6vectorIdSaIdEEET_N9__gnu_cxx17__normal_iteratorIS4_T0_EE = comdat any

$_ZSt14__copy_move_a2ILb1EPdS0_ET1_T0_S2_S1_ = comdat any

$_ZNSt11__copy_moveILb1ELb1ESt26random_access_iterator_tagE8__copy_mIdEEPT_PKS3_S6_S4_ = comdat any

$_ZSt12__miter_baseIN9__gnu_cxx17__normal_iteratorIPdSt6vectorIdSaIdEEEEET_S7_ = comdat any

$_ZNSt12_Vector_baseIdSaIdEE17_Vector_impl_data12_M_swap_dataERS2_ = comdat any

$_ZN9__gnu_cxx14__alloc_traitsISaIdEdE10_S_on_swapERS1_S3_ = comdat any

$_ZNSt12_Vector_baseIdSaIdEE17_Vector_impl_dataC2Ev = comdat any

$_ZNSt12_Vector_baseIdSaIdEE17_Vector_impl_data12_M_copy_dataERKS2_ = comdat any

$_ZSt15__alloc_on_swapISaIdEEvRT_S2_ = comdat any

$_ZSt18__do_alloc_on_swapISaIdEEvRT_S2_St17integral_constantIbLb0EE = comdat any

$_ZN9__gnu_cxxneIPdSt6vectorIdSaIdEEEEbRKNS_17__normal_iteratorIT_T0_EESA_ = comdat any

$_ZNK9__gnu_cxx17__normal_iteratorIPdSt6vectorIdSaIdEEEdeEv = comdat any

$_ZN9__gnu_cxx17__normal_iteratorIPdSt6vectorIdSaIdEEEppEv = comdat any

$_ZN9__gnu_cxx17__normal_iteratorIPdSt6vectorIdSaIdEEEC2ERKS1_ = comdat any

$_ZNSt16allocator_traitsISaISt4pairIdiEEE9constructIS1_JRdRiEEEvRS2_PT_DpOT0_ = comdat any

$_ZNSt6vectorISt4pairIdiESaIS1_EE17_M_realloc_insertIJRdRiEEEvN9__gnu_cxx17__normal_iteratorIPS1_S3_EEDpOT_ = comdat any

$_ZNSt15__new_allocatorISt4pairIdiEE9constructIS1_JRdRiEEEvPT_DpOT0_ = comdat any

$_ZNSt4pairIdiEC2IRdRiLb1EEEOT_OT0_ = comdat any

$_ZNKSt6vectorISt4pairIdiESaIS1_EE12_M_check_lenEmPKc = comdat any

$_ZN9__gnu_cxxmiIPSt4pairIdiESt6vectorIS2_SaIS2_EEEENS_17__normal_iteratorIT_T0_E15difference_typeERKSA_SD_ = comdat any

$_ZNSt12_Vector_baseISt4pairIdiESaIS1_EE11_M_allocateEm = comdat any

$_ZNSt6vectorISt4pairIdiESaIS1_EE11_S_relocateEPS1_S4_S4_RS2_ = comdat any

$_ZNK9__gnu_cxx17__normal_iteratorIPSt4pairIdiESt6vectorIS2_SaIS2_EEE4baseEv = comdat any

$_ZNSt12_Vector_baseISt4pairIdiESaIS1_EE19_M_get_Tp_allocatorEv = comdat any

$_ZNSt16allocator_traitsISaISt4pairIdiEEE7destroyIS1_EEvRS2_PT_ = comdat any

$_ZSt8_DestroyIPSt4pairIdiES1_EvT_S3_RSaIT0_E = comdat any

$_ZNSt12_Vector_baseISt4pairIdiESaIS1_EE13_M_deallocateEPS1_m = comdat any

$_ZNKSt6vectorISt4pairIdiESaIS1_EE8max_sizeEv = comdat any

$_ZNKSt6vectorISt4pairIdiESaIS1_EE4sizeEv = comdat any

$_ZNSt6vectorISt4pairIdiESaIS1_EE11_S_max_sizeERKS2_ = comdat any

$_ZNKSt12_Vector_baseISt4pairIdiESaIS1_EE19_M_get_Tp_allocatorEv = comdat any

$_ZNSt16allocator_traitsISaISt4pairIdiEEE8max_sizeERKS2_ = comdat any

$_ZNKSt15__new_allocatorISt4pairIdiEE8max_sizeEv = comdat any

$_ZNKSt15__new_allocatorISt4pairIdiEE11_M_max_sizeEv = comdat any

$_ZNSt16allocator_traitsISaISt4pairIdiEEE8allocateERS2_m = comdat any

$_ZNSt15__new_allocatorISt4pairIdiEE8allocateEmPKv = comdat any

$_ZNSt6vectorISt4pairIdiESaIS1_EE14_S_do_relocateEPS1_S4_S4_RS2_St17integral_constantIbLb1EE = comdat any

$_ZSt12__relocate_aIPSt4pairIdiES2_SaIS1_EET0_T_S5_S4_RT1_ = comdat any

$_ZSt14__relocate_a_1IPSt4pairIdiES2_SaIS1_EET0_T_S5_S4_RT1_ = comdat any

$_ZSt12__niter_baseIPSt4pairIdiEET_S3_ = comdat any

$_ZSt19__relocate_object_aISt4pairIdiES1_SaIS1_EEvPT_PT0_RT1_ = comdat any

$_ZNSt16allocator_traitsISaISt4pairIdiEEE9constructIS1_JS1_EEEvRS2_PT_DpOT0_ = comdat any

$_ZNSt15__new_allocatorISt4pairIdiEE9constructIS1_JS1_EEEvPT_DpOT0_ = comdat any

$_ZNSt15__new_allocatorISt4pairIdiEE7destroyIS1_EEvPT_ = comdat any

$_ZSt8_DestroyIPSt4pairIdiEEvT_S3_ = comdat any

$_ZNSt12_Destroy_auxILb1EE9__destroyIPSt4pairIdiEEEvT_S5_ = comdat any

$_ZNSt16allocator_traitsISaISt4pairIdiEEE10deallocateERS2_PS1_m = comdat any

$_ZNSt15__new_allocatorISt4pairIdiEE10deallocateEPS1_m = comdat any

$_ZSt6__sortIN9__gnu_cxx17__normal_iteratorIPSt4pairIdiESt6vectorIS3_SaIS3_EEEENS0_5__ops15_Iter_less_iterEEvT_SB_T0_ = comdat any

$_ZN9__gnu_cxx5__ops16__iter_less_iterEv = comdat any

$_ZN9__gnu_cxxneIPSt4pairIdiESt6vectorIS2_SaIS2_EEEEbRKNS_17__normal_iteratorIT_T0_EESC_ = comdat any

$_ZSt16__introsort_loopIN9__gnu_cxx17__normal_iteratorIPSt4pairIdiESt6vectorIS3_SaIS3_EEEElNS0_5__ops15_Iter_less_iterEEvT_SB_T0_T1_ = comdat any

$_ZSt4__lgl = comdat any

$_ZSt22__final_insertion_sortIN9__gnu_cxx17__normal_iteratorIPSt4pairIdiESt6vectorIS3_SaIS3_EEEENS0_5__ops15_Iter_less_iterEEvT_SB_T0_ = comdat any

$_ZSt14__partial_sortIN9__gnu_cxx17__normal_iteratorIPSt4pairIdiESt6vectorIS3_SaIS3_EEEENS0_5__ops15_Iter_less_iterEEvT_SB_SB_T0_ = comdat any

$_ZSt27__unguarded_partition_pivotIN9__gnu_cxx17__normal_iteratorIPSt4pairIdiESt6vectorIS3_SaIS3_EEEENS0_5__ops15_Iter_less_iterEET_SB_SB_T0_ = comdat any

$_ZSt13__heap_selectIN9__gnu_cxx17__normal_iteratorIPSt4pairIdiESt6vectorIS3_SaIS3_EEEENS0_5__ops15_Iter_less_iterEEvT_SB_SB_T0_ = comdat any

$_ZSt11__sort_heapIN9__gnu_cxx17__normal_iteratorIPSt4pairIdiESt6vectorIS3_SaIS3_EEEENS0_5__ops15_Iter_less_iterEEvT_SB_RT0_ = comdat any

$_ZSt11__make_heapIN9__gnu_cxx17__normal_iteratorIPSt4pairIdiESt6vectorIS3_SaIS3_EEEENS0_5__ops15_Iter_less_iterEEvT_SB_RT0_ = comdat any

$_ZN9__gnu_cxxltIPSt4pairIdiESt6vectorIS2_SaIS2_EEEEbRKNS_17__normal_iteratorIT_T0_EESC_ = comdat any

$_ZNK9__gnu_cxx5__ops15_Iter_less_iterclINS_17__normal_iteratorIPSt4pairIdiESt6vectorIS5_SaIS5_EEEESA_EEbT_T0_ = comdat any

$_ZSt10__pop_heapIN9__gnu_cxx17__normal_iteratorIPSt4pairIdiESt6vectorIS3_SaIS3_EEEENS0_5__ops15_Iter_less_iterEEvT_SB_SB_RT0_ = comdat any

$_ZN9__gnu_cxx17__normal_iteratorIPSt4pairIdiESt6vectorIS2_SaIS2_EEEppEv = comdat any

$_ZNK9__gnu_cxx17__normal_iteratorIPSt4pairIdiESt6vectorIS2_SaIS2_EEEplEl = comdat any

$_ZNK9__gnu_cxx17__normal_iteratorIPSt4pairIdiESt6vectorIS2_SaIS2_EEEdeEv = comdat any

$_ZSt13__adjust_heapIN9__gnu_cxx17__normal_iteratorIPSt4pairIdiESt6vectorIS3_SaIS3_EEEElS3_NS0_5__ops15_Iter_less_iterEEvT_T0_SC_T1_T2_ = comdat any

$_ZN9__gnu_cxx17__normal_iteratorIPSt4pairIdiESt6vectorIS2_SaIS2_EEEC2ERKS3_ = comdat any

$_ZNSt4pairIdiEaSEOS0_ = comdat any

$_ZN9__gnu_cxx5__ops14_Iter_less_valC2ENS0_15_Iter_less_iterE = comdat any

$_ZSt11__push_heapIN9__gnu_cxx17__normal_iteratorIPSt4pairIdiESt6vectorIS3_SaIS3_EEEElS3_NS0_5__ops14_Iter_less_valEEvT_T0_SC_T1_RT2_ = comdat any

$_ZNK9__gnu_cxx5__ops14_Iter_less_valclINS_17__normal_iteratorIPSt4pairIdiESt6vectorIS5_SaIS5_EEEES5_EEbT_RT0_ = comdat any

$_ZStltIdiEbRKSt4pairIT_T0_ES5_ = comdat any

$_ZN9__gnu_cxx17__normal_iteratorIPSt4pairIdiESt6vectorIS2_SaIS2_EEEmmEv = comdat any

$_ZSt22__move_median_to_firstIN9__gnu_cxx17__normal_iteratorIPSt4pairIdiESt6vectorIS3_SaIS3_EEEENS0_5__ops15_Iter_less_iterEEvT_SB_SB_SB_T0_ = comdat any

$_ZNK9__gnu_cxx17__normal_iteratorIPSt4pairIdiESt6vectorIS2_SaIS2_EEEmiEl = comdat any

$_ZSt21__unguarded_partitionIN9__gnu_cxx17__normal_iteratorIPSt4pairIdiESt6vectorIS3_SaIS3_EEEENS0_5__ops15_Iter_less_iterEET_SB_SB_SB_T0_ = comdat any

$_ZSt9iter_swapIN9__gnu_cxx17__normal_iteratorIPSt4pairIdiESt6vectorIS3_SaIS3_EEEES8_EvT_T0_ = comdat any

$_ZSt4swapIdiENSt9enable_ifIXsr6__and_ISt14__is_swappableIT_ES1_IT0_EEE5valueEvE4typeERSt4pairIS2_S4_ESA_ = comdat any

$_ZNSt4pairIdiE4swapERS0_ = comdat any

$_ZSt4swapIdENSt9enable_ifIXsr6__and_ISt6__not_ISt15__is_tuple_likeIT_EESt21is_move_constructibleIS3_ESt18is_move_assignableIS3_EEE5valueEvE4typeERS3_SC_ = comdat any

$_ZSt4swapIiENSt9enable_ifIXsr6__and_ISt6__not_ISt15__is_tuple_likeIT_EESt21is_move_constructibleIS3_ESt18is_move_assignableIS3_EEE5valueEvE4typeERS3_SC_ = comdat any

$_ZSt16__insertion_sortIN9__gnu_cxx17__normal_iteratorIPSt4pairIdiESt6vectorIS3_SaIS3_EEEENS0_5__ops15_Iter_less_iterEEvT_SB_T0_ = comdat any

$_ZSt26__unguarded_insertion_sortIN9__gnu_cxx17__normal_iteratorIPSt4pairIdiESt6vectorIS3_SaIS3_EEEENS0_5__ops15_Iter_less_iterEEvT_SB_T0_ = comdat any

$_ZN9__gnu_cxxeqIPSt4pairIdiESt6vectorIS2_SaIS2_EEEEbRKNS_17__normal_iteratorIT_T0_EESC_ = comdat any

$_ZSt13move_backwardIN9__gnu_cxx17__normal_iteratorIPSt4pairIdiESt6vectorIS3_SaIS3_EEEES8_ET0_T_SA_S9_ = comdat any

$_ZSt25__unguarded_linear_insertIN9__gnu_cxx17__normal_iteratorIPSt4pairIdiESt6vectorIS3_SaIS3_EEEENS0_5__ops14_Val_less_iterEEvT_T0_ = comdat any

$_ZN9__gnu_cxx5__ops15__val_comp_iterENS0_15_Iter_less_iterE = comdat any

$_ZSt22__copy_move_backward_aILb1EN9__gnu_cxx17__normal_iteratorIPSt4pairIdiESt6vectorIS3_SaIS3_EEEES8_ET1_T0_SA_S9_ = comdat any

$_ZSt12__miter_baseIN9__gnu_cxx17__normal_iteratorIPSt4pairIdiESt6vectorIS3_SaIS3_EEEEET_S9_ = comdat any

$_ZSt12__niter_wrapIN9__gnu_cxx17__normal_iteratorIPSt4pairIdiESt6vectorIS3_SaIS3_EEEES4_ET_S9_T0_ = comdat any

$_ZSt23__copy_move_backward_a1ILb1EPSt4pairIdiES2_ET1_T0_S4_S3_ = comdat any

$_ZSt12__niter_baseIPSt4pairIdiESt6vectorIS1_SaIS1_EEET_N9__gnu_cxx17__normal_iteratorIS6_T0_EE = comdat any

$_ZSt23__copy_move_backward_a2ILb1EPSt4pairIdiES2_ET1_T0_S4_S3_ = comdat any

$_ZNSt20__copy_move_backwardILb1ELb0ESt26random_access_iterator_tagE13__copy_move_bIPSt4pairIdiES5_EET0_T_S7_S6_ = comdat any

$_ZNK9__gnu_cxx5__ops14_Val_less_iterclISt4pairIdiENS_17__normal_iteratorIPS4_St6vectorIS4_SaIS4_EEEEEEbRT_T0_ = comdat any

$_ZNKSt6vectorISt4pairIdiESaIS1_EE14_M_range_checkEm = comdat any

$_ZNSt6vectorISt4pairIdiESaIS1_EEixEm = comdat any

$_ZNSt16allocator_traitsISaIiEE9constructIiJRKiEEEvRS0_PT_DpOT0_ = comdat any

$_ZNSt6vectorIiSaIiEE17_M_realloc_insertIJRKiEEEvN9__gnu_cxx17__normal_iteratorIPiS1_EEDpOT_ = comdat any

$_ZNSt15__new_allocatorIiE9constructIiJRKiEEEvPT_DpOT0_ = comdat any

$_ZNKSt6vectorIiSaIiEE12_M_check_lenEmPKc = comdat any

$_ZN9__gnu_cxxmiIPiSt6vectorIiSaIiEEEENS_17__normal_iteratorIT_T0_E15difference_typeERKS8_SB_ = comdat any

$_ZNSt6vectorIiSaIiEE11_S_relocateEPiS2_S2_RS0_ = comdat any

$_ZNK9__gnu_cxx17__normal_iteratorIPiSt6vectorIiSaIiEEE4baseEv = comdat any

$_ZNKSt6vectorIiSaIiEE8max_sizeEv = comdat any

$_ZNSt6vectorIiSaIiEE14_S_do_relocateEPiS2_S2_RS0_St17integral_constantIbLb1EE = comdat any

$_ZSt12__relocate_aIPiS0_SaIiEET0_T_S3_S2_RT1_ = comdat any

$_ZSt14__relocate_a_1IiiENSt9enable_ifIXsr3std24__is_bitwise_relocatableIT_EE5valueEPS1_E4typeES2_S2_S2_RSaIT0_E = comdat any

$_ZNSt10_HashtableIiSt4pairIKiiESaIS2_ENSt8__detail10_Select1stESt8equal_toIiESt4hashIiENS4_18_Mod_range_hashingENS4_20_Default_ranged_hashENS4_20_Prime_rehash_policyENS4_17_Hashtable_traitsILb0ELb0ELb1EEEEC2Ev = comdat any

$_ZNSt8__detail15_Hashtable_baseIiSt4pairIKiiENS_10_Select1stESt8equal_toIiESt4hashIiENS_18_Mod_range_hashingENS_20_Default_ranged_hashENS_17_Hashtable_traitsILb0ELb0ELb1EEEEC2Ev = comdat any

$_ZNSt8__detail16_Hashtable_allocISaINS_10_Hash_nodeISt4pairIKiiELb0EEEEEC2Ev = comdat any

$_ZNSt8__detail15_Hash_node_baseC2Ev = comdat any

$_ZNSt8__detail20_Prime_rehash_policyC2Ef = comdat any

$_ZNSt8__detail15_Hash_code_baseIiSt4pairIKiiENS_10_Select1stESt4hashIiENS_18_Mod_range_hashingENS_20_Default_ranged_hashELb0EEC2Ev = comdat any

$_ZNSt8__detail21_Hashtable_ebo_helperILi0ESt8equal_toIiELb1EEC2Ev = comdat any

$_ZNSt8__detail21_Hashtable_ebo_helperILi1ESt4hashIiELb1EEC2Ev = comdat any

$_ZNSt8__detail21_Hashtable_ebo_helperILi0ESaINS_10_Hash_nodeISt4pairIKiiELb0EEEELb1EEC2Ev = comdat any

$_ZNSaINSt8__detail10_Hash_nodeISt4pairIKiiELb0EEEEC2Ev = comdat any

$_ZNSt15__new_allocatorINSt8__detail10_Hash_nodeISt4pairIKiiELb0EEEEC2Ev = comdat any

$_ZN9__gnu_cxx17__normal_iteratorIPiSt6vectorIiSaIiEEEC2ERKS1_ = comdat any

$_ZNSt8__detail9_Map_baseIiSt4pairIKiiESaIS3_ENS_10_Select1stESt8equal_toIiESt4hashIiENS_18_Mod_range_hashingENS_20_Default_ranged_hashENS_20_Prime_rehash_policyENS_17_Hashtable_traitsILb0ELb0ELb1EEELb1EEixERS2_ = comdat any

$_ZNKSt8__detail15_Hash_code_baseIiSt4pairIKiiENS_10_Select1stESt4hashIiENS_18_Mod_range_hashingENS_20_Default_ranged_hashELb0EE12_M_hash_codeERS2_ = comdat any

$_ZNKSt10_HashtableIiSt4pairIKiiESaIS2_ENSt8__detail10_Select1stESt8equal_toIiESt4hashIiENS4_18_Mod_range_hashingENS4_20_Default_ranged_hashENS4_20_Prime_rehash_policyENS4_17_Hashtable_traitsILb0ELb0ELb1EEEE15_M_bucket_indexEm = comdat any

$_ZNKSt10_HashtableIiSt4pairIKiiESaIS2_ENSt8__detail10_Select1stESt8equal_toIiESt4hashIiENS4_18_Mod_range_hashingENS4_20_Default_ranged_hashENS4_20_Prime_rehash_policyENS4_17_Hashtable_traitsILb0ELb0ELb1EEEE12_M_find_nodeEmRS1_m = comdat any

$_ZNSt8__detail21_Hash_node_value_baseISt4pairIKiiEE4_M_vEv = comdat any

$_ZNSt5tupleIJRKiEEC2ILb1ELb1EEES1_ = comdat any

$_ZNSt10_HashtableIiSt4pairIKiiESaIS2_ENSt8__detail10_Select1stESt8equal_toIiESt4hashIiENS4_18_Mod_range_hashingENS4_20_Default_ranged_hashENS4_20_Prime_rehash_policyENS4_17_Hashtable_traitsILb0ELb0ELb1EEEE12_Scoped_nodeC2IJRKSt21piecewise_construct_tSt5tupleIJRS1_EESL_IJEEEEEPNS4_16_Hashtable_allocISaINS4_10_Hash_nodeIS2_Lb0EEEEEEDpOT_ = comdat any

$_ZNSt10_HashtableIiSt4pairIKiiESaIS2_ENSt8__detail10_Select1stESt8equal_toIiESt4hashIiENS4_18_Mod_range_hashingENS4_20_Default_ranged_hashENS4_20_Prime_rehash_policyENS4_17_Hashtable_traitsILb0ELb0ELb1EEEE21_M_insert_unique_nodeEmmPNS4_10_Hash_nodeIS2_Lb0EEEm = comdat any

$_ZNKSt8__detail14_Node_iteratorISt4pairIKiiELb0ELb0EEptEv = comdat any

$_ZNSt10_HashtableIiSt4pairIKiiESaIS2_ENSt8__detail10_Select1stESt8equal_toIiESt4hashIiENS4_18_Mod_range_hashingENS4_20_Default_ranged_hashENS4_20_Prime_rehash_policyENS4_17_Hashtable_traitsILb0ELb0ELb1EEEE12_Scoped_nodeD2Ev = comdat any

$_ZNKSt8__detail15_Hash_code_baseIiSt4pairIKiiENS_10_Select1stESt4hashIiENS_18_Mod_range_hashingENS_20_Default_ranged_hashELb0EE7_M_hashEv = comdat any

$_ZNKSt4hashIiEclEi = comdat any

$_ZNKSt8__detail21_Hashtable_ebo_helperILi1ESt4hashIiELb1EE7_M_cgetEv = comdat any

$_ZNKSt8__detail15_Hash_code_baseIiSt4pairIKiiENS_10_Select1stESt4hashIiENS_18_Mod_range_hashingENS_20_Default_ranged_hashELb0EE15_M_bucket_indexEmm = comdat any

$_ZNKSt8__detail18_Mod_range_hashingclEmm = comdat any

$_ZNKSt10_HashtableIiSt4pairIKiiESaIS2_ENSt8__detail10_Select1stESt8equal_toIiESt4hashIiENS4_18_Mod_range_hashingENS4_20_Default_ranged_hashENS4_20_Prime_rehash_policyENS4_17_Hashtable_traitsILb0ELb0ELb1EEEE19_M_find_before_nodeEmRS1_m = comdat any

$_ZNKSt8__detail15_Hashtable_baseIiSt4pairIKiiENS_10_Select1stESt8equal_toIiESt4hashIiENS_18_Mod_range_hashingENS_20_Default_ranged_hashENS_17_Hashtable_traitsILb0ELb0ELb1EEEE9_M_equalsERS2_mRKNS_16_Hash_node_valueIS3_Lb0EEE = comdat any

$_ZNKSt10_HashtableIiSt4pairIKiiESaIS2_ENSt8__detail10_Select1stESt8equal_toIiESt4hashIiENS4_18_Mod_range_hashingENS4_20_Default_ranged_hashENS4_20_Prime_rehash_policyENS4_17_Hashtable_traitsILb0ELb0ELb1EEEE15_M_bucket_indexERKNS4_16_Hash_node_valueIS2_Lb0EEE = comdat any

$_ZNKSt8__detail10_Hash_nodeISt4pairIKiiELb0EE7_M_nextEv = comdat any

$_ZNSt8__detail15_Hashtable_baseIiSt4pairIKiiENS_10_Select1stESt8equal_toIiESt4hashIiENS_18_Mod_range_hashingENS_20_Default_ranged_hashENS_17_Hashtable_traitsILb0ELb0ELb1EEEE9_S_equalsEmRKNS_21_Hash_node_code_cacheILb0EEE = comdat any

$_ZNKSt8__detail15_Hashtable_baseIiSt4pairIKiiENS_10_Select1stESt8equal_toIiESt4hashIiENS_18_Mod_range_hashingENS_20_Default_ranged_hashENS_17_Hashtable_traitsILb0ELb0ELb1EEEE13_M_key_equalsERS2_RKNS_16_Hash_node_valueIS3_Lb0EEE = comdat any

$_ZNKSt8__detail15_Hashtable_baseIiSt4pairIKiiENS_10_Select1stESt8equal_toIiESt4hashIiENS_18_Mod_range_hashingENS_20_Default_ranged_hashENS_17_Hashtable_traitsILb0ELb0ELb1EEEE5_M_eqEv = comdat any

$_ZNKSt8equal_toIiEclERKiS2_ = comdat any

$_ZNKSt8__detail10_Select1stclIRKSt4pairIKiiEEEONS0_10__1st_typeIT_E4typeEOS8_ = comdat any

$_ZNKSt8__detail21_Hash_node_value_baseISt4pairIKiiEE4_M_vEv = comdat any

$_ZNKSt8__detail21_Hashtable_ebo_helperILi0ESt8equal_toIiELb1EE7_M_cgetEv = comdat any

$_ZNKSt8__detail21_Hash_node_value_baseISt4pairIKiiEE9_M_valptrEv = comdat any

$_ZNK9__gnu_cxx16__aligned_bufferISt4pairIKiiEE6_M_ptrEv = comdat any

$_ZNK9__gnu_cxx16__aligned_bufferISt4pairIKiiEE7_M_addrEv = comdat any

$_ZNKSt8__detail15_Hash_code_baseIiSt4pairIKiiENS_10_Select1stESt4hashIiENS_18_Mod_range_hashingENS_20_Default_ranged_hashELb0EE15_M_bucket_indexERKNS_16_Hash_node_valueIS3_Lb0EEEm = comdat any

$_ZNSt8__detail21_Hash_node_value_baseISt4pairIKiiEE9_M_valptrEv = comdat any

$_ZN9__gnu_cxx16__aligned_bufferISt4pairIKiiEE6_M_ptrEv = comdat any

$_ZN9__gnu_cxx16__aligned_bufferISt4pairIKiiEE7_M_addrEv = comdat any

$_ZNSt11_Tuple_implILm0EJRKiEEC2ES1_ = comdat any

$_ZNSt10_Head_baseILm0ERKiLb0EEC2ES1_ = comdat any

$_ZNSt8__detail16_Hashtable_allocISaINS_10_Hash_nodeISt4pairIKiiELb0EEEEE16_M_allocate_nodeIJRKSt21piecewise_construct_tSt5tupleIJRS3_EESC_IJEEEEEPS5_DpOT_ = comdat any

$_ZNSt16allocator_traitsISaINSt8__detail10_Hash_nodeISt4pairIKiiELb0EEEEE8allocateERS6_m = comdat any

$_ZNSt8__detail16_Hashtable_allocISaINS_10_Hash_nodeISt4pairIKiiELb0EEEEE17_M_node_allocatorEv = comdat any

$_ZSt12__to_addressINSt8__detail10_Hash_nodeISt4pairIKiiELb0EEEEPT_S7_ = comdat any

$_ZNSt8__detail10_Hash_nodeISt4pairIKiiELb0EEC2Ev = comdat any

$_ZNSt16allocator_traitsISaINSt8__detail10_Hash_nodeISt4pairIKiiELb0EEEEE9constructIS4_JRKSt21piecewise_construct_tSt5tupleIJRS3_EESC_IJEEEEEvRS6_PT_DpOT0_ = comdat any

$_ZNSt16allocator_traitsISaINSt8__detail10_Hash_nodeISt4pairIKiiELb0EEEEE10deallocateERS6_PS5_m = comdat any

$_ZNSt15__new_allocatorINSt8__detail10_Hash_nodeISt4pairIKiiELb0EEEE8allocateEmPKv = comdat any

$_ZNKSt15__new_allocatorINSt8__detail10_Hash_nodeISt4pairIKiiELb0EEEE11_M_max_sizeEv = comdat any

$_ZNSt8__detail21_Hashtable_ebo_helperILi0ESaINS_10_Hash_nodeISt4pairIKiiELb0EEEELb1EE6_M_getEv = comdat any

$_ZNSt15__new_allocatorINSt8__detail10_Hash_nodeISt4pairIKiiELb0EEEE9constructIS4_JRKSt21piecewise_construct_tSt5tupleIJRS3_EESB_IJEEEEEvPT_DpOT0_ = comdat any

$_ZNSt5tupleIJRKiEEC2EOS2_ = comdat any

$_ZNSt4pairIKiiEC2IJRS0_EJEEESt21piecewise_construct_tSt5tupleIJDpT_EES5_IJDpT0_EE = comdat any

$_ZNSt11_Tuple_implILm0EJRKiEEC2EOS2_ = comdat any

$_ZNSt4pairIKiiEC2IJRS0_EJLm0EEJEJEEERSt5tupleIJDpT_EERS4_IJDpT1_EESt12_Index_tupleIJXspT0_EEESD_IJXspT2_EEE = comdat any

$_ZSt3getILm0EJRKiEERNSt13tuple_elementIXT_ESt5tupleIJDpT0_EEE4typeERS6_ = comdat any

$_ZSt12__get_helperILm0ERKiJEERT0_RSt11_Tuple_implIXT_EJS2_DpT1_EE = comdat any

$_ZNSt11_Tuple_implILm0EJRKiEE7_M_headERS2_ = comdat any

$_ZNSt10_Head_baseILm0ERKiLb0EE7_M_headERS2_ = comdat any

$_ZNSt15__new_allocatorINSt8__detail10_Hash_nodeISt4pairIKiiELb0EEEE10deallocateEPS5_m = comdat any

$_ZNKSt8__detail20_Prime_rehash_policy8_M_stateEv = comdat any

$_ZNSt10_HashtableIiSt4pairIKiiESaIS2_ENSt8__detail10_Select1stESt8equal_toIiESt4hashIiENS4_18_Mod_range_hashingENS4_20_Default_ranged_hashENS4_20_Prime_rehash_policyENS4_17_Hashtable_traitsILb0ELb0ELb1EEEE9_M_rehashEmRKm = comdat any

$_ZNKSt8__detail15_Hash_code_baseIiSt4pairIKiiENS_10_Select1stESt4hashIiENS_18_Mod_range_hashingENS_20_Default_ranged_hashELb0EE13_M_store_codeERNS_21_Hash_node_code_cacheILb0EEEm = comdat any

$_ZNSt10_HashtableIiSt4pairIKiiESaIS2_ENSt8__detail10_Select1stESt8equal_toIiESt4hashIiENS4_18_Mod_range_hashingENS4_20_Default_ranged_hashENS4_20_Prime_rehash_policyENS4_17_Hashtable_traitsILb0ELb0ELb1EEEE22_M_insert_bucket_beginEmPNS4_10_Hash_nodeIS2_Lb0EEE = comdat any

$_ZNSt8__detail14_Node_iteratorISt4pairIKiiELb0ELb0EEC2EPNS_10_Hash_nodeIS3_Lb0EEE = comdat any

$_ZNSt10_HashtableIiSt4pairIKiiESaIS2_ENSt8__detail10_Select1stESt8equal_toIiESt4hashIiENS4_18_Mod_range_hashingENS4_20_Default_ranged_hashENS4_20_Prime_rehash_policyENS4_17_Hashtable_traitsILb0ELb0ELb1EEEE13_M_rehash_auxEmSt17integral_constantIbLb1EE = comdat any

$_ZNSt8__detail20_Prime_rehash_policy8_M_resetEm = comdat any

$_ZNSt10_HashtableIiSt4pairIKiiESaIS2_ENSt8__detail10_Select1stESt8equal_toIiESt4hashIiENS4_18_Mod_range_hashingENS4_20_Default_ranged_hashENS4_20_Prime_rehash_policyENS4_17_Hashtable_traitsILb0ELb0ELb1EEEE19_M_allocate_bucketsEm = comdat any

$_ZNKSt10_HashtableIiSt4pairIKiiESaIS2_ENSt8__detail10_Select1stESt8equal_toIiESt4hashIiENS4_18_Mod_range_hashingENS4_20_Default_ranged_hashENS4_20_Prime_rehash_policyENS4_17_Hashtable_traitsILb0ELb0ELb1EEEE8_M_beginEv = comdat any

$_ZNSt10_HashtableIiSt4pairIKiiESaIS2_ENSt8__detail10_Select1stESt8equal_toIiESt4hashIiENS4_18_Mod_range_hashingENS4_20_Default_ranged_hashENS4_20_Prime_rehash_policyENS4_17_Hashtable_traitsILb0ELb0ELb1EEEE21_M_deallocate_bucketsEv = comdat any

$_ZNSt8__detail16_Hashtable_allocISaINS_10_Hash_nodeISt4pairIKiiELb0EEEEE19_M_allocate_bucketsEm = comdat any

$_ZNSaIPNSt8__detail15_Hash_node_baseEEC2INS_10_Hash_nodeISt4pairIKiiELb0EEEEERKSaIT_E = comdat any

$_ZNSt16allocator_traitsISaIPNSt8__detail15_Hash_node_baseEEE8allocateERS3_m = comdat any

$_ZSt12__to_addressIPNSt8__detail15_Hash_node_baseEEPT_S4_ = comdat any

$_ZNSaIPNSt8__detail15_Hash_node_baseEED2Ev = comdat any

$_ZNSt15__new_allocatorIPNSt8__detail15_Hash_node_baseEEC2Ev = comdat any

$_ZNSt15__new_allocatorIPNSt8__detail15_Hash_node_baseEE8allocateEmPKv = comdat any

$_ZNKSt15__new_allocatorIPNSt8__detail15_Hash_node_baseEE11_M_max_sizeEv = comdat any

$_ZNSt15__new_allocatorIPNSt8__detail15_Hash_node_baseEED2Ev = comdat any

$_ZNSt10_HashtableIiSt4pairIKiiESaIS2_ENSt8__detail10_Select1stESt8equal_toIiESt4hashIiENS4_18_Mod_range_hashingENS4_20_Default_ranged_hashENS4_20_Prime_rehash_policyENS4_17_Hashtable_traitsILb0ELb0ELb1EEEE21_M_deallocate_bucketsEPPNS4_15_Hash_node_baseEm = comdat any

$_ZNKSt10_HashtableIiSt4pairIKiiESaIS2_ENSt8__detail10_Select1stESt8equal_toIiESt4hashIiENS4_18_Mod_range_hashingENS4_20_Default_ranged_hashENS4_20_Prime_rehash_policyENS4_17_Hashtable_traitsILb0ELb0ELb1EEEE21_M_uses_single_bucketEPPNS4_15_Hash_node_baseE = comdat any

$_ZNSt8__detail16_Hashtable_allocISaINS_10_Hash_nodeISt4pairIKiiELb0EEEEE21_M_deallocate_bucketsEPPNS_15_Hash_node_baseEm = comdat any

$_ZNSt19__ptr_traits_ptr_toIPPNSt8__detail15_Hash_node_baseES2_Lb0EE10pointer_toERS2_ = comdat any

$_ZNSt16allocator_traitsISaIPNSt8__detail15_Hash_node_baseEEE10deallocateERS3_PS2_m = comdat any

$_ZNSt15__new_allocatorIPNSt8__detail15_Hash_node_baseEE10deallocateEPS2_m = comdat any

$_ZNSt8__detail19_Node_iterator_baseISt4pairIKiiELb0EEC2EPNS_10_Hash_nodeIS3_Lb0EEE = comdat any

$_ZNSt8__detail16_Hashtable_allocISaINS_10_Hash_nodeISt4pairIKiiELb0EEEEE18_M_deallocate_nodeEPS5_ = comdat any

$_ZNSt16allocator_traitsISaINSt8__detail10_Hash_nodeISt4pairIKiiELb0EEEEE7destroyIS4_EEvRS6_PT_ = comdat any

$_ZNSt8__detail16_Hashtable_allocISaINS_10_Hash_nodeISt4pairIKiiELb0EEEEE22_M_deallocate_node_ptrEPS5_ = comdat any

$_ZNSt15__new_allocatorINSt8__detail10_Hash_nodeISt4pairIKiiELb0EEEE7destroyIS4_EEvPT_ = comdat any

$_ZNSt19__ptr_traits_ptr_toIPNSt8__detail10_Hash_nodeISt4pairIKiiELb0EEES5_Lb0EE10pointer_toERS5_ = comdat any

$_ZNSt10_HashtableIiSt4pairIKiiESaIS2_ENSt8__detail10_Select1stESt8equal_toIiESt4hashIiENS4_18_Mod_range_hashingENS4_20_Default_ranged_hashENS4_20_Prime_rehash_policyENS4_17_Hashtable_traitsILb0ELb0ELb1EEEE5beginEv = comdat any

$_ZNSt10_HashtableIiSt4pairIKiiESaIS2_ENSt8__detail10_Select1stESt8equal_toIiESt4hashIiENS4_18_Mod_range_hashingENS4_20_Default_ranged_hashENS4_20_Prime_rehash_policyENS4_17_Hashtable_traitsILb0ELb0ELb1EEEE3endEv = comdat any

$_ZNSt8__detail19_Node_iterator_baseISt4pairIKiiELb0EE7_M_incrEv = comdat any

$_ZNSt10_HashtableIiSt4pairIKiiESaIS2_ENSt8__detail10_Select1stESt8equal_toIiESt4hashIiENS4_18_Mod_range_hashingENS4_20_Default_ranged_hashENS4_20_Prime_rehash_policyENS4_17_Hashtable_traitsILb0ELb0ELb1EEEED2Ev = comdat any

$_ZNSt10_HashtableIiSt4pairIKiiESaIS2_ENSt8__detail10_Select1stESt8equal_toIiESt4hashIiENS4_18_Mod_range_hashingENS4_20_Default_ranged_hashENS4_20_Prime_rehash_policyENS4_17_Hashtable_traitsILb0ELb0ELb1EEEE5clearEv = comdat any

$_ZNSt8__detail16_Hashtable_allocISaINS_10_Hash_nodeISt4pairIKiiELb0EEEEED2Ev = comdat any

$_ZNSt8__detail16_Hashtable_allocISaINS_10_Hash_nodeISt4pairIKiiELb0EEEEE19_M_deallocate_nodesEPS5_ = comdat any

$_ZNSt8__detail21_Hashtable_ebo_helperILi0ESaINS_10_Hash_nodeISt4pairIKiiELb0EEEELb1EED2Ev = comdat any

$_ZNSaINSt8__detail10_Hash_nodeISt4pairIKiiELb0EEEED2Ev = comdat any

$_ZNSt15__new_allocatorINSt8__detail10_Hash_nodeISt4pairIKiiELb0EEEED2Ev = comdat any

$_ZNSt12_Vector_baseISt4pairIdiESaIS1_EED2Ev = comdat any

$_ZNSt12_Vector_baseISt4pairIdiESaIS1_EE12_Vector_implD2Ev = comdat any

$_ZNSaISt4pairIdiEED2Ev = comdat any

$_ZNSt15__new_allocatorISt4pairIdiEED2Ev = comdat any

$_ZSt8_DestroyIPiiEvT_S1_RSaIT0_E = comdat any

$_ZSt8_DestroyIPiEvT_S1_ = comdat any

$_ZNSt12_Destroy_auxILb1EE9__destroyIPiEEvT_S3_ = comdat any

$_ZSt8_DestroyIPSt6vectorIdSaIdEES2_EvT_S4_RSaIT0_E = comdat any

@_ZStL8__ioinit = internal global %"class.std::ios_base::Init" zeroinitializer, align 1
@__dso_handle = external hidden global i8
@_ZSt4cout = external global %"class.std::basic_ostream", align 8
@.str = private unnamed_addr constant [23 x i8] c"------- Test 1 -------\00", align 1
@constinit = private constant [6 x i32] [i32 1, i32 1, i32 1, i32 1, i32 2, i32 2], align 4
@.str.1 = private unnamed_addr constant [32 x i8] c"model1.predict(sample1, 2) == 2\00", align 1
@.str.2 = private unnamed_addr constant [43 x i8] c"./machine_learning/k_nearest_neighbors.cpp\00", align 1
@__PRETTY_FUNCTION__._ZL4testv = private unnamed_addr constant [12 x i8] c"void test()\00", align 1
@.str.3 = private unnamed_addr constant [32 x i8] c"model1.predict(sample2, 2) == 1\00", align 1
@.str.4 = private unnamed_addr constant [32 x i8] c"model1.predict(sample3, 2) == 1\00", align 1
@.str.5 = private unnamed_addr constant [32 x i8] c"model1.predict(sample4, 2) == 2\00", align 1
@.str.6 = private unnamed_addr constant [11 x i8] c"... Passed\00", align 1
@.str.7 = private unnamed_addr constant [23 x i8] c"------- Test 2 -------\00", align 1
@constinit.8 = private constant [3 x double] zeroinitializer, align 8
@constinit.9 = private constant [3 x double] [double 2.500000e-01, double 2.500000e-01, double 0.000000e+00], align 8
@constinit.10 = private constant [3 x double] [double 0.000000e+00, double 5.000000e-01, double 0.000000e+00], align 8
@constinit.11 = private constant [3 x double] [double 5.000000e-01, double 5.000000e-01, double 0.000000e+00], align 8
@constinit.12 = private constant [3 x double] [double 1.000000e+00, double 5.000000e-01, double 0.000000e+00], align 8
@constinit.13 = private constant [3 x double] [double 1.000000e+00, double 1.000000e+00, double 0.000000e+00], align 8
@constinit.14 = private constant [3 x double] [double 1.000000e+00, double 1.000000e+00, double 1.000000e+00], align 8
@constinit.15 = private constant [3 x double] [double 1.500000e+00, double 1.500000e+00, double 1.000000e+00], align 8
@constinit.16 = private constant [8 x i32] [i32 1, i32 1, i32 1, i32 1, i32 2, i32 2, i32 3, i32 3], align 4
@constinit.17 = private constant [3 x double] [double 1.200000e+00, double 1.200000e+00, double 0.000000e+00], align 8
@constinit.18 = private constant [3 x double] [double 1.000000e-01, double 1.000000e-01, double 0.000000e+00], align 8
@constinit.19 = private constant [3 x double] [double 1.000000e-01, double 5.000000e-01, double 0.000000e+00], align 8
@constinit.20 = private constant [3 x double] [double 1.000000e+00, double 7.500000e-01, double 1.000000e+00], align 8
@.str.21 = private unnamed_addr constant [32 x i8] c"model2.predict(sample5, 2) == 2\00", align 1
@.str.22 = private unnamed_addr constant [32 x i8] c"model2.predict(sample6, 2) == 1\00", align 1
@.str.23 = private unnamed_addr constant [32 x i8] c"model2.predict(sample7, 2) == 1\00", align 1
@.str.24 = private unnamed_addr constant [32 x i8] c"model2.predict(sample8, 2) == 3\00", align 1
@.str.25 = private unnamed_addr constant [23 x i8] c"------- Test 3 -------\00", align 1
@constinit.26 = private constant [8 x i32] [i32 1, i32 1, i32 1, i32 1, i32 2, i32 2, i32 2, i32 2], align 4
@.str.27 = private unnamed_addr constant [32 x i8] c"model3.predict(sample9, 3) == 1\00", align 1
@.str.28 = private unnamed_addr constant [33 x i8] c"model3.predict(sample10, 3) == 1\00", align 1
@.str.29 = private unnamed_addr constant [33 x i8] c"model3.predict(sample11, 3) == 2\00", align 1
@.str.30 = private unnamed_addr constant [33 x i8] c"model3.predict(sample12, 3) == 2\00", align 1
@.str.31 = private unnamed_addr constant [49 x i8] c"cannot create std::vector larger than max_size()\00", align 1
@.str.32 = private unnamed_addr constant [74 x i8] c"vector::_M_range_check: __n (which is %zu) >= this->size() (which is %zu)\00", align 1
@.str.33 = private unnamed_addr constant [26 x i8] c"vector::_M_realloc_insert\00", align 1
@_ZStL19piecewise_construct = internal constant %"struct.std::piecewise_construct_t" undef, align 1
@llvm.global_ctors = appending global [1 x { i32, ptr, ptr }] [{ i32, ptr, ptr } { i32 65535, ptr @_GLOBAL__sub_I_k_nearest_neighbors.cpp, ptr null }]

; Function Attrs: noinline uwtable
define internal void @__cxx_global_var_init() #0 section ".text.startup" {
  call void @_ZNSt8ios_base4InitC1Ev(ptr noundef nonnull align 1 dereferenceable(1) @_ZStL8__ioinit)
  %1 = call i32 @__cxa_atexit(ptr @_ZNSt8ios_base4InitD1Ev, ptr @_ZStL8__ioinit, ptr @__dso_handle) #3
  ret void
}

declare void @_ZNSt8ios_base4InitC1Ev(ptr noundef nonnull align 1 dereferenceable(1)) unnamed_addr #1

; Function Attrs: nounwind
declare void @_ZNSt8ios_base4InitD1Ev(ptr noundef nonnull align 1 dereferenceable(1)) unnamed_addr #2

; Function Attrs: nounwind
declare i32 @__cxa_atexit(ptr, ptr, ptr) #3

; Function Attrs: mustprogress noinline norecurse optnone uwtable
define dso_local noundef i32 @main(i32 noundef %0, ptr noundef %1) #4 {
  %3 = alloca i32, align 4
  %4 = alloca i32, align 4
  %5 = alloca ptr, align 8
  store i32 0, ptr %3, align 4
  store i32 %0, ptr %4, align 4
  store ptr %1, ptr %5, align 8
  call void @_ZL4testv()
  ret i32 0
}

; Function Attrs: mustprogress noinline optnone uwtable
define internal void @_ZL4testv() #5 personality ptr @__gxx_personality_v0 {
  %1 = alloca %"class.std::vector", align 8
  %2 = alloca %"class.std::initializer_list", align 8
  %3 = alloca [6 x %"class.std::vector.0"], align 8
  %4 = alloca ptr, align 8
  %5 = alloca %"class.std::initializer_list.5", align 8
  %6 = alloca [2 x double], align 8
  %7 = alloca %"class.std::allocator.2", align 1
  %8 = alloca ptr, align 8
  %9 = alloca i32, align 4
  %10 = alloca %"class.std::initializer_list.5", align 8
  %11 = alloca [2 x double], align 8
  %12 = alloca %"class.std::allocator.2", align 1
  %13 = alloca %"class.std::initializer_list.5", align 8
  %14 = alloca [2 x double], align 8
  %15 = alloca %"class.std::allocator.2", align 1
  %16 = alloca %"class.std::initializer_list.5", align 8
  %17 = alloca [2 x double], align 8
  %18 = alloca %"class.std::allocator.2", align 1
  %19 = alloca %"class.std::initializer_list.5", align 8
  %20 = alloca [2 x double], align 8
  %21 = alloca %"class.std::allocator.2", align 1
  %22 = alloca %"class.std::initializer_list.5", align 8
  %23 = alloca [2 x double], align 8
  %24 = alloca %"class.std::allocator.2", align 1
  %25 = alloca i1, align 1
  %26 = alloca %"class.std::allocator", align 1
  %27 = alloca %"class.std::vector.6", align 8
  %28 = alloca %"class.std::initializer_list.11", align 8
  %29 = alloca [6 x i32], align 4
  %30 = alloca %"class.std::allocator.8", align 1
  %31 = alloca %"class.machine_learning::k_nearest_neighbors::Knn", align 8
  %32 = alloca %"class.std::vector.0", align 8
  %33 = alloca %"class.std::initializer_list.5", align 8
  %34 = alloca [2 x double], align 8
  %35 = alloca %"class.std::allocator.2", align 1
  %36 = alloca %"class.std::vector.0", align 8
  %37 = alloca %"class.std::initializer_list.5", align 8
  %38 = alloca [2 x double], align 8
  %39 = alloca %"class.std::allocator.2", align 1
  %40 = alloca %"class.std::vector.0", align 8
  %41 = alloca %"class.std::initializer_list.5", align 8
  %42 = alloca [2 x double], align 8
  %43 = alloca %"class.std::allocator.2", align 1
  %44 = alloca %"class.std::vector.0", align 8
  %45 = alloca %"class.std::initializer_list.5", align 8
  %46 = alloca [2 x double], align 8
  %47 = alloca %"class.std::allocator.2", align 1
  %48 = alloca %"class.std::vector", align 8
  %49 = alloca %"class.std::initializer_list", align 8
  %50 = alloca [8 x %"class.std::vector.0"], align 8
  %51 = alloca ptr, align 8
  %52 = alloca %"class.std::initializer_list.5", align 8
  %53 = alloca [3 x double], align 8
  %54 = alloca %"class.std::allocator.2", align 1
  %55 = alloca %"class.std::initializer_list.5", align 8
  %56 = alloca [3 x double], align 8
  %57 = alloca %"class.std::allocator.2", align 1
  %58 = alloca %"class.std::initializer_list.5", align 8
  %59 = alloca [3 x double], align 8
  %60 = alloca %"class.std::allocator.2", align 1
  %61 = alloca %"class.std::initializer_list.5", align 8
  %62 = alloca [3 x double], align 8
  %63 = alloca %"class.std::allocator.2", align 1
  %64 = alloca %"class.std::initializer_list.5", align 8
  %65 = alloca [3 x double], align 8
  %66 = alloca %"class.std::allocator.2", align 1
  %67 = alloca %"class.std::initializer_list.5", align 8
  %68 = alloca [3 x double], align 8
  %69 = alloca %"class.std::allocator.2", align 1
  %70 = alloca %"class.std::initializer_list.5", align 8
  %71 = alloca [3 x double], align 8
  %72 = alloca %"class.std::allocator.2", align 1
  %73 = alloca %"class.std::initializer_list.5", align 8
  %74 = alloca [3 x double], align 8
  %75 = alloca %"class.std::allocator.2", align 1
  %76 = alloca i1, align 1
  %77 = alloca %"class.std::allocator", align 1
  %78 = alloca %"class.std::vector.6", align 8
  %79 = alloca %"class.std::initializer_list.11", align 8
  %80 = alloca [8 x i32], align 4
  %81 = alloca %"class.std::allocator.8", align 1
  %82 = alloca %"class.machine_learning::k_nearest_neighbors::Knn", align 8
  %83 = alloca %"class.std::vector.0", align 8
  %84 = alloca %"class.std::initializer_list.5", align 8
  %85 = alloca [3 x double], align 8
  %86 = alloca %"class.std::allocator.2", align 1
  %87 = alloca %"class.std::vector.0", align 8
  %88 = alloca %"class.std::initializer_list.5", align 8
  %89 = alloca [3 x double], align 8
  %90 = alloca %"class.std::allocator.2", align 1
  %91 = alloca %"class.std::vector.0", align 8
  %92 = alloca %"class.std::initializer_list.5", align 8
  %93 = alloca [3 x double], align 8
  %94 = alloca %"class.std::allocator.2", align 1
  %95 = alloca %"class.std::vector.0", align 8
  %96 = alloca %"class.std::initializer_list.5", align 8
  %97 = alloca [3 x double], align 8
  %98 = alloca %"class.std::allocator.2", align 1
  %99 = alloca %"class.std::vector", align 8
  %100 = alloca %"class.std::initializer_list", align 8
  %101 = alloca [8 x %"class.std::vector.0"], align 8
  %102 = alloca ptr, align 8
  %103 = alloca %"class.std::initializer_list.5", align 8
  %104 = alloca [1 x double], align 8
  %105 = alloca %"class.std::allocator.2", align 1
  %106 = alloca %"class.std::initializer_list.5", align 8
  %107 = alloca [1 x double], align 8
  %108 = alloca %"class.std::allocator.2", align 1
  %109 = alloca %"class.std::initializer_list.5", align 8
  %110 = alloca [1 x double], align 8
  %111 = alloca %"class.std::allocator.2", align 1
  %112 = alloca %"class.std::initializer_list.5", align 8
  %113 = alloca [1 x double], align 8
  %114 = alloca %"class.std::allocator.2", align 1
  %115 = alloca %"class.std::initializer_list.5", align 8
  %116 = alloca [1 x double], align 8
  %117 = alloca %"class.std::allocator.2", align 1
  %118 = alloca %"class.std::initializer_list.5", align 8
  %119 = alloca [1 x double], align 8
  %120 = alloca %"class.std::allocator.2", align 1
  %121 = alloca %"class.std::initializer_list.5", align 8
  %122 = alloca [1 x double], align 8
  %123 = alloca %"class.std::allocator.2", align 1
  %124 = alloca %"class.std::initializer_list.5", align 8
  %125 = alloca [1 x double], align 8
  %126 = alloca %"class.std::allocator.2", align 1
  %127 = alloca i1, align 1
  %128 = alloca %"class.std::allocator", align 1
  %129 = alloca %"class.std::vector.6", align 8
  %130 = alloca %"class.std::initializer_list.11", align 8
  %131 = alloca [8 x i32], align 4
  %132 = alloca %"class.std::allocator.8", align 1
  %133 = alloca %"class.machine_learning::k_nearest_neighbors::Knn", align 8
  %134 = alloca %"class.std::vector.0", align 8
  %135 = alloca %"class.std::initializer_list.5", align 8
  %136 = alloca [1 x double], align 8
  %137 = alloca %"class.std::allocator.2", align 1
  %138 = alloca %"class.std::vector.0", align 8
  %139 = alloca %"class.std::initializer_list.5", align 8
  %140 = alloca [1 x double], align 8
  %141 = alloca %"class.std::allocator.2", align 1
  %142 = alloca %"class.std::vector.0", align 8
  %143 = alloca %"class.std::initializer_list.5", align 8
  %144 = alloca [1 x double], align 8
  %145 = alloca %"class.std::allocator.2", align 1
  %146 = alloca %"class.std::vector.0", align 8
  %147 = alloca %"class.std::initializer_list.5", align 8
  %148 = alloca [1 x double], align 8
  %149 = alloca %"class.std::allocator.2", align 1
  %150 = call noundef nonnull align 8 dereferenceable(8) ptr @_ZStlsISt11char_traitsIcEERSt13basic_ostreamIcT_ES5_PKc(ptr noundef nonnull align 8 dereferenceable(8) @_ZSt4cout, ptr noundef @.str)
  %151 = call noundef nonnull align 8 dereferenceable(8) ptr @_ZNSolsEPFRSoS_E(ptr noundef nonnull align 8 dereferenceable(8) %150, ptr noundef @_ZSt4endlIcSt11char_traitsIcEERSt13basic_ostreamIT_T0_ES6_)
  %152 = getelementptr inbounds [6 x %"class.std::vector.0"], ptr %3, i64 0, i64 0
  store i1 true, ptr %25, align 1
  store ptr %152, ptr %4, align 8
  %153 = getelementptr inbounds [2 x double], ptr %6, i64 0, i64 0
  store double 0.000000e+00, ptr %153, align 8
  %154 = getelementptr inbounds double, ptr %153, i64 1
  store double 0.000000e+00, ptr %154, align 8
  %155 = getelementptr inbounds %"class.std::initializer_list.5", ptr %5, i32 0, i32 0
  %156 = getelementptr inbounds [2 x double], ptr %6, i64 0, i64 0
  store ptr %156, ptr %155, align 8
  %157 = getelementptr inbounds %"class.std::initializer_list.5", ptr %5, i32 0, i32 1
  store i64 2, ptr %157, align 8
  call void @_ZNSaIdEC2Ev(ptr noundef nonnull align 1 dereferenceable(1) %7) #3
  %158 = getelementptr inbounds { ptr, i64 }, ptr %5, i32 0, i32 0
  %159 = load ptr, ptr %158, align 8
  %160 = getelementptr inbounds { ptr, i64 }, ptr %5, i32 0, i32 1
  %161 = load i64, ptr %160, align 8
  invoke void @_ZNSt6vectorIdSaIdEEC2ESt16initializer_listIdERKS0_(ptr noundef nonnull align 8 dereferenceable(24) %152, ptr %159, i64 %161, ptr noundef nonnull align 1 dereferenceable(1) %7)
          to label %162 unwind label %288

162:                                              ; preds = %0
  %163 = getelementptr inbounds %"class.std::vector.0", ptr %152, i64 1
  store ptr %163, ptr %4, align 8
  %164 = getelementptr inbounds [2 x double], ptr %11, i64 0, i64 0
  store double 2.500000e-01, ptr %164, align 8
  %165 = getelementptr inbounds double, ptr %164, i64 1
  store double 2.500000e-01, ptr %165, align 8
  %166 = getelementptr inbounds %"class.std::initializer_list.5", ptr %10, i32 0, i32 0
  %167 = getelementptr inbounds [2 x double], ptr %11, i64 0, i64 0
  store ptr %167, ptr %166, align 8
  %168 = getelementptr inbounds %"class.std::initializer_list.5", ptr %10, i32 0, i32 1
  store i64 2, ptr %168, align 8
  call void @_ZNSaIdEC2Ev(ptr noundef nonnull align 1 dereferenceable(1) %12) #3
  %169 = getelementptr inbounds { ptr, i64 }, ptr %10, i32 0, i32 0
  %170 = load ptr, ptr %169, align 8
  %171 = getelementptr inbounds { ptr, i64 }, ptr %10, i32 0, i32 1
  %172 = load i64, ptr %171, align 8
  invoke void @_ZNSt6vectorIdSaIdEEC2ESt16initializer_listIdERKS0_(ptr noundef nonnull align 8 dereferenceable(24) %163, ptr %170, i64 %172, ptr noundef nonnull align 1 dereferenceable(1) %12)
          to label %173 unwind label %292

173:                                              ; preds = %162
  %174 = getelementptr inbounds %"class.std::vector.0", ptr %163, i64 1
  store ptr %174, ptr %4, align 8
  %175 = getelementptr inbounds [2 x double], ptr %14, i64 0, i64 0
  store double 0.000000e+00, ptr %175, align 8
  %176 = getelementptr inbounds double, ptr %175, i64 1
  store double 5.000000e-01, ptr %176, align 8
  %177 = getelementptr inbounds %"class.std::initializer_list.5", ptr %13, i32 0, i32 0
  %178 = getelementptr inbounds [2 x double], ptr %14, i64 0, i64 0
  store ptr %178, ptr %177, align 8
  %179 = getelementptr inbounds %"class.std::initializer_list.5", ptr %13, i32 0, i32 1
  store i64 2, ptr %179, align 8
  call void @_ZNSaIdEC2Ev(ptr noundef nonnull align 1 dereferenceable(1) %15) #3
  %180 = getelementptr inbounds { ptr, i64 }, ptr %13, i32 0, i32 0
  %181 = load ptr, ptr %180, align 8
  %182 = getelementptr inbounds { ptr, i64 }, ptr %13, i32 0, i32 1
  %183 = load i64, ptr %182, align 8
  invoke void @_ZNSt6vectorIdSaIdEEC2ESt16initializer_listIdERKS0_(ptr noundef nonnull align 8 dereferenceable(24) %174, ptr %181, i64 %183, ptr noundef nonnull align 1 dereferenceable(1) %15)
          to label %184 unwind label %296

184:                                              ; preds = %173
  %185 = getelementptr inbounds %"class.std::vector.0", ptr %174, i64 1
  store ptr %185, ptr %4, align 8
  %186 = getelementptr inbounds [2 x double], ptr %17, i64 0, i64 0
  store double 5.000000e-01, ptr %186, align 8
  %187 = getelementptr inbounds double, ptr %186, i64 1
  store double 5.000000e-01, ptr %187, align 8
  %188 = getelementptr inbounds %"class.std::initializer_list.5", ptr %16, i32 0, i32 0
  %189 = getelementptr inbounds [2 x double], ptr %17, i64 0, i64 0
  store ptr %189, ptr %188, align 8
  %190 = getelementptr inbounds %"class.std::initializer_list.5", ptr %16, i32 0, i32 1
  store i64 2, ptr %190, align 8
  call void @_ZNSaIdEC2Ev(ptr noundef nonnull align 1 dereferenceable(1) %18) #3
  %191 = getelementptr inbounds { ptr, i64 }, ptr %16, i32 0, i32 0
  %192 = load ptr, ptr %191, align 8
  %193 = getelementptr inbounds { ptr, i64 }, ptr %16, i32 0, i32 1
  %194 = load i64, ptr %193, align 8
  invoke void @_ZNSt6vectorIdSaIdEEC2ESt16initializer_listIdERKS0_(ptr noundef nonnull align 8 dereferenceable(24) %185, ptr %192, i64 %194, ptr noundef nonnull align 1 dereferenceable(1) %18)
          to label %195 unwind label %300

195:                                              ; preds = %184
  %196 = getelementptr inbounds %"class.std::vector.0", ptr %185, i64 1
  store ptr %196, ptr %4, align 8
  %197 = getelementptr inbounds [2 x double], ptr %20, i64 0, i64 0
  store double 1.000000e+00, ptr %197, align 8
  %198 = getelementptr inbounds double, ptr %197, i64 1
  store double 5.000000e-01, ptr %198, align 8
  %199 = getelementptr inbounds %"class.std::initializer_list.5", ptr %19, i32 0, i32 0
  %200 = getelementptr inbounds [2 x double], ptr %20, i64 0, i64 0
  store ptr %200, ptr %199, align 8
  %201 = getelementptr inbounds %"class.std::initializer_list.5", ptr %19, i32 0, i32 1
  store i64 2, ptr %201, align 8
  call void @_ZNSaIdEC2Ev(ptr noundef nonnull align 1 dereferenceable(1) %21) #3
  %202 = getelementptr inbounds { ptr, i64 }, ptr %19, i32 0, i32 0
  %203 = load ptr, ptr %202, align 8
  %204 = getelementptr inbounds { ptr, i64 }, ptr %19, i32 0, i32 1
  %205 = load i64, ptr %204, align 8
  invoke void @_ZNSt6vectorIdSaIdEEC2ESt16initializer_listIdERKS0_(ptr noundef nonnull align 8 dereferenceable(24) %196, ptr %203, i64 %205, ptr noundef nonnull align 1 dereferenceable(1) %21)
          to label %206 unwind label %304

206:                                              ; preds = %195
  %207 = getelementptr inbounds %"class.std::vector.0", ptr %196, i64 1
  store ptr %207, ptr %4, align 8
  %208 = getelementptr inbounds [2 x double], ptr %23, i64 0, i64 0
  store double 1.000000e+00, ptr %208, align 8
  %209 = getelementptr inbounds double, ptr %208, i64 1
  store double 1.000000e+00, ptr %209, align 8
  %210 = getelementptr inbounds %"class.std::initializer_list.5", ptr %22, i32 0, i32 0
  %211 = getelementptr inbounds [2 x double], ptr %23, i64 0, i64 0
  store ptr %211, ptr %210, align 8
  %212 = getelementptr inbounds %"class.std::initializer_list.5", ptr %22, i32 0, i32 1
  store i64 2, ptr %212, align 8
  call void @_ZNSaIdEC2Ev(ptr noundef nonnull align 1 dereferenceable(1) %24) #3
  %213 = getelementptr inbounds { ptr, i64 }, ptr %22, i32 0, i32 0
  %214 = load ptr, ptr %213, align 8
  %215 = getelementptr inbounds { ptr, i64 }, ptr %22, i32 0, i32 1
  %216 = load i64, ptr %215, align 8
  invoke void @_ZNSt6vectorIdSaIdEEC2ESt16initializer_listIdERKS0_(ptr noundef nonnull align 8 dereferenceable(24) %207, ptr %214, i64 %216, ptr noundef nonnull align 1 dereferenceable(1) %24)
          to label %217 unwind label %308

217:                                              ; preds = %206
  store i1 false, ptr %25, align 1
  %218 = getelementptr inbounds %"class.std::initializer_list", ptr %2, i32 0, i32 0
  %219 = getelementptr inbounds [6 x %"class.std::vector.0"], ptr %3, i64 0, i64 0
  store ptr %219, ptr %218, align 8
  %220 = getelementptr inbounds %"class.std::initializer_list", ptr %2, i32 0, i32 1
  store i64 6, ptr %220, align 8
  call void @_ZNSaISt6vectorIdSaIdEEEC2Ev(ptr noundef nonnull align 1 dereferenceable(1) %26) #3
  %221 = getelementptr inbounds { ptr, i64 }, ptr %2, i32 0, i32 0
  %222 = load ptr, ptr %221, align 8
  %223 = getelementptr inbounds { ptr, i64 }, ptr %2, i32 0, i32 1
  %224 = load i64, ptr %223, align 8
  invoke void @_ZNSt6vectorIS_IdSaIdEESaIS1_EEC2ESt16initializer_listIS1_ERKS2_(ptr noundef nonnull align 8 dereferenceable(24) %1, ptr %222, i64 %224, ptr noundef nonnull align 1 dereferenceable(1) %26)
          to label %225 unwind label %312

225:                                              ; preds = %217
  call void @_ZNSaISt6vectorIdSaIdEEED2Ev(ptr noundef nonnull align 1 dereferenceable(1) %26) #3
  %226 = getelementptr inbounds [6 x %"class.std::vector.0"], ptr %3, i32 0, i32 0
  %227 = getelementptr inbounds %"class.std::vector.0", ptr %226, i64 6
  br label %228

228:                                              ; preds = %228, %225
  %229 = phi ptr [ %227, %225 ], [ %230, %228 ]
  %230 = getelementptr inbounds %"class.std::vector.0", ptr %229, i64 -1
  call void @_ZNSt6vectorIdSaIdEED2Ev(ptr noundef nonnull align 8 dereferenceable(24) %230) #3
  %231 = icmp eq ptr %230, %226
  br i1 %231, label %232, label %228

232:                                              ; preds = %228
  call void @_ZNSaIdED2Ev(ptr noundef nonnull align 1 dereferenceable(1) %24) #3
  call void @_ZNSaIdED2Ev(ptr noundef nonnull align 1 dereferenceable(1) %21) #3
  call void @_ZNSaIdED2Ev(ptr noundef nonnull align 1 dereferenceable(1) %18) #3
  call void @_ZNSaIdED2Ev(ptr noundef nonnull align 1 dereferenceable(1) %15) #3
  call void @_ZNSaIdED2Ev(ptr noundef nonnull align 1 dereferenceable(1) %12) #3
  call void @_ZNSaIdED2Ev(ptr noundef nonnull align 1 dereferenceable(1) %7) #3
  %233 = getelementptr inbounds [6 x i32], ptr %29, i64 0, i64 0
  call void @llvm.memcpy.p0.p0.i64(ptr align 4 %29, ptr align 4 @constinit, i64 24, i1 false)
  %234 = getelementptr inbounds %"class.std::initializer_list.11", ptr %28, i32 0, i32 0
  %235 = getelementptr inbounds [6 x i32], ptr %29, i64 0, i64 0
  store ptr %235, ptr %234, align 8
  %236 = getelementptr inbounds %"class.std::initializer_list.11", ptr %28, i32 0, i32 1
  store i64 6, ptr %236, align 8
  call void @_ZNSaIiEC2Ev(ptr noundef nonnull align 1 dereferenceable(1) %30) #3
  %237 = getelementptr inbounds { ptr, i64 }, ptr %28, i32 0, i32 0
  %238 = load ptr, ptr %237, align 8
  %239 = getelementptr inbounds { ptr, i64 }, ptr %28, i32 0, i32 1
  %240 = load i64, ptr %239, align 8
  invoke void @_ZNSt6vectorIiSaIiEEC2ESt16initializer_listIiERKS0_(ptr noundef nonnull align 8 dereferenceable(24) %27, ptr %238, i64 %240, ptr noundef nonnull align 1 dereferenceable(1) %30)
          to label %241 unwind label %339

241:                                              ; preds = %232
  call void @_ZNSaIiED2Ev(ptr noundef nonnull align 1 dereferenceable(1) %30) #3
  invoke void @_ZN16machine_learning19k_nearest_neighbors3KnnC2ERSt6vectorIS2_IdSaIdEESaIS4_EERS2_IiSaIiEE(ptr noundef nonnull align 8 dereferenceable(48) %31, ptr noundef nonnull align 8 dereferenceable(24) %1, ptr noundef nonnull align 8 dereferenceable(24) %27)
          to label %242 unwind label %343

242:                                              ; preds = %241
  %243 = getelementptr inbounds [2 x double], ptr %34, i64 0, i64 0
  store double 1.200000e+00, ptr %243, align 8
  %244 = getelementptr inbounds double, ptr %243, i64 1
  store double 1.200000e+00, ptr %244, align 8
  %245 = getelementptr inbounds %"class.std::initializer_list.5", ptr %33, i32 0, i32 0
  %246 = getelementptr inbounds [2 x double], ptr %34, i64 0, i64 0
  store ptr %246, ptr %245, align 8
  %247 = getelementptr inbounds %"class.std::initializer_list.5", ptr %33, i32 0, i32 1
  store i64 2, ptr %247, align 8
  call void @_ZNSaIdEC2Ev(ptr noundef nonnull align 1 dereferenceable(1) %35) #3
  %248 = getelementptr inbounds { ptr, i64 }, ptr %33, i32 0, i32 0
  %249 = load ptr, ptr %248, align 8
  %250 = getelementptr inbounds { ptr, i64 }, ptr %33, i32 0, i32 1
  %251 = load i64, ptr %250, align 8
  invoke void @_ZNSt6vectorIdSaIdEEC2ESt16initializer_listIdERKS0_(ptr noundef nonnull align 8 dereferenceable(24) %32, ptr %249, i64 %251, ptr noundef nonnull align 1 dereferenceable(1) %35)
          to label %252 unwind label %347

252:                                              ; preds = %242
  call void @_ZNSaIdED2Ev(ptr noundef nonnull align 1 dereferenceable(1) %35) #3
  %253 = getelementptr inbounds [2 x double], ptr %38, i64 0, i64 0
  store double 1.000000e-01, ptr %253, align 8
  %254 = getelementptr inbounds double, ptr %253, i64 1
  store double 1.000000e-01, ptr %254, align 8
  %255 = getelementptr inbounds %"class.std::initializer_list.5", ptr %37, i32 0, i32 0
  %256 = getelementptr inbounds [2 x double], ptr %38, i64 0, i64 0
  store ptr %256, ptr %255, align 8
  %257 = getelementptr inbounds %"class.std::initializer_list.5", ptr %37, i32 0, i32 1
  store i64 2, ptr %257, align 8
  call void @_ZNSaIdEC2Ev(ptr noundef nonnull align 1 dereferenceable(1) %39) #3
  %258 = getelementptr inbounds { ptr, i64 }, ptr %37, i32 0, i32 0
  %259 = load ptr, ptr %258, align 8
  %260 = getelementptr inbounds { ptr, i64 }, ptr %37, i32 0, i32 1
  %261 = load i64, ptr %260, align 8
  invoke void @_ZNSt6vectorIdSaIdEEC2ESt16initializer_listIdERKS0_(ptr noundef nonnull align 8 dereferenceable(24) %36, ptr %259, i64 %261, ptr noundef nonnull align 1 dereferenceable(1) %39)
          to label %262 unwind label %351

262:                                              ; preds = %252
  call void @_ZNSaIdED2Ev(ptr noundef nonnull align 1 dereferenceable(1) %39) #3
  %263 = getelementptr inbounds [2 x double], ptr %42, i64 0, i64 0
  store double 1.000000e-01, ptr %263, align 8
  %264 = getelementptr inbounds double, ptr %263, i64 1
  store double 5.000000e-01, ptr %264, align 8
  %265 = getelementptr inbounds %"class.std::initializer_list.5", ptr %41, i32 0, i32 0
  %266 = getelementptr inbounds [2 x double], ptr %42, i64 0, i64 0
  store ptr %266, ptr %265, align 8
  %267 = getelementptr inbounds %"class.std::initializer_list.5", ptr %41, i32 0, i32 1
  store i64 2, ptr %267, align 8
  call void @_ZNSaIdEC2Ev(ptr noundef nonnull align 1 dereferenceable(1) %43) #3
  %268 = getelementptr inbounds { ptr, i64 }, ptr %41, i32 0, i32 0
  %269 = load ptr, ptr %268, align 8
  %270 = getelementptr inbounds { ptr, i64 }, ptr %41, i32 0, i32 1
  %271 = load i64, ptr %270, align 8
  invoke void @_ZNSt6vectorIdSaIdEEC2ESt16initializer_listIdERKS0_(ptr noundef nonnull align 8 dereferenceable(24) %40, ptr %269, i64 %271, ptr noundef nonnull align 1 dereferenceable(1) %43)
          to label %272 unwind label %355

272:                                              ; preds = %262
  call void @_ZNSaIdED2Ev(ptr noundef nonnull align 1 dereferenceable(1) %43) #3
  %273 = getelementptr inbounds [2 x double], ptr %46, i64 0, i64 0
  store double 1.000000e+00, ptr %273, align 8
  %274 = getelementptr inbounds double, ptr %273, i64 1
  store double 7.500000e-01, ptr %274, align 8
  %275 = getelementptr inbounds %"class.std::initializer_list.5", ptr %45, i32 0, i32 0
  %276 = getelementptr inbounds [2 x double], ptr %46, i64 0, i64 0
  store ptr %276, ptr %275, align 8
  %277 = getelementptr inbounds %"class.std::initializer_list.5", ptr %45, i32 0, i32 1
  store i64 2, ptr %277, align 8
  call void @_ZNSaIdEC2Ev(ptr noundef nonnull align 1 dereferenceable(1) %47) #3
  %278 = getelementptr inbounds { ptr, i64 }, ptr %45, i32 0, i32 0
  %279 = load ptr, ptr %278, align 8
  %280 = getelementptr inbounds { ptr, i64 }, ptr %45, i32 0, i32 1
  %281 = load i64, ptr %280, align 8
  invoke void @_ZNSt6vectorIdSaIdEEC2ESt16initializer_listIdERKS0_(ptr noundef nonnull align 8 dereferenceable(24) %44, ptr %279, i64 %281, ptr noundef nonnull align 1 dereferenceable(1) %47)
          to label %282 unwind label %359

282:                                              ; preds = %272
  call void @_ZNSaIdED2Ev(ptr noundef nonnull align 1 dereferenceable(1) %47) #3
  %283 = invoke noundef i32 @_ZN16machine_learning19k_nearest_neighbors3Knn7predictERSt6vectorIdSaIdEEi(ptr noundef nonnull align 8 dereferenceable(48) %31, ptr noundef nonnull align 8 dereferenceable(24) %32, i32 noundef 2)
          to label %284 unwind label %363

284:                                              ; preds = %282
  %285 = icmp eq i32 %283, 2
  br i1 %285, label %286, label %287

286:                                              ; preds = %284
  br label %368

287:                                              ; preds = %284
  call void @__assert_fail(ptr noundef @.str.1, ptr noundef @.str.2, i32 noundef 151, ptr noundef @__PRETTY_FUNCTION__._ZL4testv) #18
  unreachable

288:                                              ; preds = %0
  %289 = landingpad { ptr, i32 }
          cleanup
  %290 = extractvalue { ptr, i32 } %289, 0
  store ptr %290, ptr %8, align 8
  %291 = extractvalue { ptr, i32 } %289, 1
  store i32 %291, ptr %9, align 4
  br label %328

292:                                              ; preds = %162
  %293 = landingpad { ptr, i32 }
          cleanup
  %294 = extractvalue { ptr, i32 } %293, 0
  store ptr %294, ptr %8, align 8
  %295 = extractvalue { ptr, i32 } %293, 1
  store i32 %295, ptr %9, align 4
  br label %327

296:                                              ; preds = %173
  %297 = landingpad { ptr, i32 }
          cleanup
  %298 = extractvalue { ptr, i32 } %297, 0
  store ptr %298, ptr %8, align 8
  %299 = extractvalue { ptr, i32 } %297, 1
  store i32 %299, ptr %9, align 4
  br label %326

300:                                              ; preds = %184
  %301 = landingpad { ptr, i32 }
          cleanup
  %302 = extractvalue { ptr, i32 } %301, 0
  store ptr %302, ptr %8, align 8
  %303 = extractvalue { ptr, i32 } %301, 1
  store i32 %303, ptr %9, align 4
  br label %325

304:                                              ; preds = %195
  %305 = landingpad { ptr, i32 }
          cleanup
  %306 = extractvalue { ptr, i32 } %305, 0
  store ptr %306, ptr %8, align 8
  %307 = extractvalue { ptr, i32 } %305, 1
  store i32 %307, ptr %9, align 4
  br label %324

308:                                              ; preds = %206
  %309 = landingpad { ptr, i32 }
          cleanup
  %310 = extractvalue { ptr, i32 } %309, 0
  store ptr %310, ptr %8, align 8
  %311 = extractvalue { ptr, i32 } %309, 1
  store i32 %311, ptr %9, align 4
  br label %323

312:                                              ; preds = %217
  %313 = landingpad { ptr, i32 }
          cleanup
  %314 = extractvalue { ptr, i32 } %313, 0
  store ptr %314, ptr %8, align 8
  %315 = extractvalue { ptr, i32 } %313, 1
  store i32 %315, ptr %9, align 4
  call void @_ZNSaISt6vectorIdSaIdEEED2Ev(ptr noundef nonnull align 1 dereferenceable(1) %26) #3
  %316 = getelementptr inbounds [6 x %"class.std::vector.0"], ptr %3, i32 0, i32 0
  %317 = getelementptr inbounds %"class.std::vector.0", ptr %316, i64 6
  br label %318

318:                                              ; preds = %318, %312
  %319 = phi ptr [ %317, %312 ], [ %320, %318 ]
  %320 = getelementptr inbounds %"class.std::vector.0", ptr %319, i64 -1
  call void @_ZNSt6vectorIdSaIdEED2Ev(ptr noundef nonnull align 8 dereferenceable(24) %320) #3
  %321 = icmp eq ptr %320, %316
  br i1 %321, label %322, label %318

322:                                              ; preds = %318
  br label %323

323:                                              ; preds = %322, %308
  call void @_ZNSaIdED2Ev(ptr noundef nonnull align 1 dereferenceable(1) %24) #3
  br label %324

324:                                              ; preds = %323, %304
  call void @_ZNSaIdED2Ev(ptr noundef nonnull align 1 dereferenceable(1) %21) #3
  br label %325

325:                                              ; preds = %324, %300
  call void @_ZNSaIdED2Ev(ptr noundef nonnull align 1 dereferenceable(1) %18) #3
  br label %326

326:                                              ; preds = %325, %296
  call void @_ZNSaIdED2Ev(ptr noundef nonnull align 1 dereferenceable(1) %15) #3
  br label %327

327:                                              ; preds = %326, %292
  call void @_ZNSaIdED2Ev(ptr noundef nonnull align 1 dereferenceable(1) %12) #3
  br label %328

328:                                              ; preds = %327, %288
  call void @_ZNSaIdED2Ev(ptr noundef nonnull align 1 dereferenceable(1) %7) #3
  %329 = load i1, ptr %25, align 1
  br i1 %329, label %330, label %338

330:                                              ; preds = %328
  %331 = load ptr, ptr %4, align 8
  %332 = icmp eq ptr %152, %331
  br i1 %332, label %337, label %333

333:                                              ; preds = %333, %330
  %334 = phi ptr [ %331, %330 ], [ %335, %333 ]
  %335 = getelementptr inbounds %"class.std::vector.0", ptr %334, i64 -1
  call void @_ZNSt6vectorIdSaIdEED2Ev(ptr noundef nonnull align 8 dereferenceable(24) %335) #3
  %336 = icmp eq ptr %335, %152
  br i1 %336, label %337, label %333

337:                                              ; preds = %333, %330
  br label %338

338:                                              ; preds = %337, %328
  br label %946

339:                                              ; preds = %232
  %340 = landingpad { ptr, i32 }
          cleanup
  %341 = extractvalue { ptr, i32 } %340, 0
  store ptr %341, ptr %8, align 8
  %342 = extractvalue { ptr, i32 } %340, 1
  store i32 %342, ptr %9, align 4
  call void @_ZNSaIiED2Ev(ptr noundef nonnull align 1 dereferenceable(1) %30) #3
  br label %945

343:                                              ; preds = %241
  %344 = landingpad { ptr, i32 }
          cleanup
  %345 = extractvalue { ptr, i32 } %344, 0
  store ptr %345, ptr %8, align 8
  %346 = extractvalue { ptr, i32 } %344, 1
  store i32 %346, ptr %9, align 4
  br label %944

347:                                              ; preds = %242
  %348 = landingpad { ptr, i32 }
          cleanup
  %349 = extractvalue { ptr, i32 } %348, 0
  store ptr %349, ptr %8, align 8
  %350 = extractvalue { ptr, i32 } %348, 1
  store i32 %350, ptr %9, align 4
  call void @_ZNSaIdED2Ev(ptr noundef nonnull align 1 dereferenceable(1) %35) #3
  br label %943

351:                                              ; preds = %252
  %352 = landingpad { ptr, i32 }
          cleanup
  %353 = extractvalue { ptr, i32 } %352, 0
  store ptr %353, ptr %8, align 8
  %354 = extractvalue { ptr, i32 } %352, 1
  store i32 %354, ptr %9, align 4
  call void @_ZNSaIdED2Ev(ptr noundef nonnull align 1 dereferenceable(1) %39) #3
  br label %942

355:                                              ; preds = %262
  %356 = landingpad { ptr, i32 }
          cleanup
  %357 = extractvalue { ptr, i32 } %356, 0
  store ptr %357, ptr %8, align 8
  %358 = extractvalue { ptr, i32 } %356, 1
  store i32 %358, ptr %9, align 4
  call void @_ZNSaIdED2Ev(ptr noundef nonnull align 1 dereferenceable(1) %43) #3
  br label %941

359:                                              ; preds = %272
  %360 = landingpad { ptr, i32 }
          cleanup
  %361 = extractvalue { ptr, i32 } %360, 0
  store ptr %361, ptr %8, align 8
  %362 = extractvalue { ptr, i32 } %360, 1
  store i32 %362, ptr %9, align 4
  call void @_ZNSaIdED2Ev(ptr noundef nonnull align 1 dereferenceable(1) %47) #3
  br label %940

363:                                              ; preds = %395, %393, %391, %389, %382, %375, %368, %282
  %364 = landingpad { ptr, i32 }
          cleanup
  %365 = extractvalue { ptr, i32 } %364, 0
  store ptr %365, ptr %8, align 8
  %366 = extractvalue { ptr, i32 } %364, 1
  store i32 %366, ptr %9, align 4
  br label %939

367:                                              ; No predecessors!
  br label %368

368:                                              ; preds = %367, %286
  %369 = invoke noundef i32 @_ZN16machine_learning19k_nearest_neighbors3Knn7predictERSt6vectorIdSaIdEEi(ptr noundef nonnull align 8 dereferenceable(48) %31, ptr noundef nonnull align 8 dereferenceable(24) %36, i32 noundef 2)
          to label %370 unwind label %363

370:                                              ; preds = %368
  %371 = icmp eq i32 %369, 1
  br i1 %371, label %372, label %373

372:                                              ; preds = %370
  br label %375

373:                                              ; preds = %370
  call void @__assert_fail(ptr noundef @.str.3, ptr noundef @.str.2, i32 noundef 152, ptr noundef @__PRETTY_FUNCTION__._ZL4testv) #18
  unreachable

374:                                              ; No predecessors!
  br label %375

375:                                              ; preds = %374, %372
  %376 = invoke noundef i32 @_ZN16machine_learning19k_nearest_neighbors3Knn7predictERSt6vectorIdSaIdEEi(ptr noundef nonnull align 8 dereferenceable(48) %31, ptr noundef nonnull align 8 dereferenceable(24) %40, i32 noundef 2)
          to label %377 unwind label %363

377:                                              ; preds = %375
  %378 = icmp eq i32 %376, 1
  br i1 %378, label %379, label %380

379:                                              ; preds = %377
  br label %382

380:                                              ; preds = %377
  call void @__assert_fail(ptr noundef @.str.4, ptr noundef @.str.2, i32 noundef 153, ptr noundef @__PRETTY_FUNCTION__._ZL4testv) #18
  unreachable

381:                                              ; No predecessors!
  br label %382

382:                                              ; preds = %381, %379
  %383 = invoke noundef i32 @_ZN16machine_learning19k_nearest_neighbors3Knn7predictERSt6vectorIdSaIdEEi(ptr noundef nonnull align 8 dereferenceable(48) %31, ptr noundef nonnull align 8 dereferenceable(24) %44, i32 noundef 2)
          to label %384 unwind label %363

384:                                              ; preds = %382
  %385 = icmp eq i32 %383, 2
  br i1 %385, label %386, label %387

386:                                              ; preds = %384
  br label %389

387:                                              ; preds = %384
  call void @__assert_fail(ptr noundef @.str.5, ptr noundef @.str.2, i32 noundef 154, ptr noundef @__PRETTY_FUNCTION__._ZL4testv) #18
  unreachable

388:                                              ; No predecessors!
  br label %389

389:                                              ; preds = %388, %386
  %390 = invoke noundef nonnull align 8 dereferenceable(8) ptr @_ZStlsISt11char_traitsIcEERSt13basic_ostreamIcT_ES5_PKc(ptr noundef nonnull align 8 dereferenceable(8) @_ZSt4cout, ptr noundef @.str.6)
          to label %391 unwind label %363

391:                                              ; preds = %389
  %392 = invoke noundef nonnull align 8 dereferenceable(8) ptr @_ZNSolsEPFRSoS_E(ptr noundef nonnull align 8 dereferenceable(8) %390, ptr noundef @_ZSt4endlIcSt11char_traitsIcEERSt13basic_ostreamIT_T0_ES6_)
          to label %393 unwind label %363

393:                                              ; preds = %391
  %394 = invoke noundef nonnull align 8 dereferenceable(8) ptr @_ZStlsISt11char_traitsIcEERSt13basic_ostreamIcT_ES5_PKc(ptr noundef nonnull align 8 dereferenceable(8) @_ZSt4cout, ptr noundef @.str.7)
          to label %395 unwind label %363

395:                                              ; preds = %393
  %396 = invoke noundef nonnull align 8 dereferenceable(8) ptr @_ZNSolsEPFRSoS_E(ptr noundef nonnull align 8 dereferenceable(8) %394, ptr noundef @_ZSt4endlIcSt11char_traitsIcEERSt13basic_ostreamIT_T0_ES6_)
          to label %397 unwind label %363

397:                                              ; preds = %395
  %398 = getelementptr inbounds [8 x %"class.std::vector.0"], ptr %50, i64 0, i64 0
  store i1 true, ptr %76, align 1
  store ptr %398, ptr %51, align 8
  call void @llvm.memset.p0.i64(ptr align 8 %53, i8 0, i64 24, i1 false)
  %399 = getelementptr inbounds [3 x double], ptr %53, i64 0, i64 0
  call void @llvm.memcpy.p0.p0.i64(ptr align 8 %53, ptr align 8 @constinit.8, i64 24, i1 false)
  %400 = getelementptr inbounds %"class.std::initializer_list.5", ptr %52, i32 0, i32 0
  %401 = getelementptr inbounds [3 x double], ptr %53, i64 0, i64 0
  store ptr %401, ptr %400, align 8
  %402 = getelementptr inbounds %"class.std::initializer_list.5", ptr %52, i32 0, i32 1
  store i64 3, ptr %402, align 8
  call void @_ZNSaIdEC2Ev(ptr noundef nonnull align 1 dereferenceable(1) %54) #3
  %403 = getelementptr inbounds { ptr, i64 }, ptr %52, i32 0, i32 0
  %404 = load ptr, ptr %403, align 8
  %405 = getelementptr inbounds { ptr, i64 }, ptr %52, i32 0, i32 1
  %406 = load i64, ptr %405, align 8
  invoke void @_ZNSt6vectorIdSaIdEEC2ESt16initializer_listIdERKS0_(ptr noundef nonnull align 8 dereferenceable(24) %398, ptr %404, i64 %406, ptr noundef nonnull align 1 dereferenceable(1) %54)
          to label %407 unwind label %544

407:                                              ; preds = %397
  %408 = getelementptr inbounds %"class.std::vector.0", ptr %398, i64 1
  store ptr %408, ptr %51, align 8
  %409 = getelementptr inbounds [3 x double], ptr %56, i64 0, i64 0
  call void @llvm.memcpy.p0.p0.i64(ptr align 8 %56, ptr align 8 @constinit.9, i64 24, i1 false)
  %410 = getelementptr inbounds %"class.std::initializer_list.5", ptr %55, i32 0, i32 0
  %411 = getelementptr inbounds [3 x double], ptr %56, i64 0, i64 0
  store ptr %411, ptr %410, align 8
  %412 = getelementptr inbounds %"class.std::initializer_list.5", ptr %55, i32 0, i32 1
  store i64 3, ptr %412, align 8
  call void @_ZNSaIdEC2Ev(ptr noundef nonnull align 1 dereferenceable(1) %57) #3
  %413 = getelementptr inbounds { ptr, i64 }, ptr %55, i32 0, i32 0
  %414 = load ptr, ptr %413, align 8
  %415 = getelementptr inbounds { ptr, i64 }, ptr %55, i32 0, i32 1
  %416 = load i64, ptr %415, align 8
  invoke void @_ZNSt6vectorIdSaIdEEC2ESt16initializer_listIdERKS0_(ptr noundef nonnull align 8 dereferenceable(24) %408, ptr %414, i64 %416, ptr noundef nonnull align 1 dereferenceable(1) %57)
          to label %417 unwind label %548

417:                                              ; preds = %407
  %418 = getelementptr inbounds %"class.std::vector.0", ptr %408, i64 1
  store ptr %418, ptr %51, align 8
  %419 = getelementptr inbounds [3 x double], ptr %59, i64 0, i64 0
  call void @llvm.memcpy.p0.p0.i64(ptr align 8 %59, ptr align 8 @constinit.10, i64 24, i1 false)
  %420 = getelementptr inbounds %"class.std::initializer_list.5", ptr %58, i32 0, i32 0
  %421 = getelementptr inbounds [3 x double], ptr %59, i64 0, i64 0
  store ptr %421, ptr %420, align 8
  %422 = getelementptr inbounds %"class.std::initializer_list.5", ptr %58, i32 0, i32 1
  store i64 3, ptr %422, align 8
  call void @_ZNSaIdEC2Ev(ptr noundef nonnull align 1 dereferenceable(1) %60) #3
  %423 = getelementptr inbounds { ptr, i64 }, ptr %58, i32 0, i32 0
  %424 = load ptr, ptr %423, align 8
  %425 = getelementptr inbounds { ptr, i64 }, ptr %58, i32 0, i32 1
  %426 = load i64, ptr %425, align 8
  invoke void @_ZNSt6vectorIdSaIdEEC2ESt16initializer_listIdERKS0_(ptr noundef nonnull align 8 dereferenceable(24) %418, ptr %424, i64 %426, ptr noundef nonnull align 1 dereferenceable(1) %60)
          to label %427 unwind label %552

427:                                              ; preds = %417
  %428 = getelementptr inbounds %"class.std::vector.0", ptr %418, i64 1
  store ptr %428, ptr %51, align 8
  %429 = getelementptr inbounds [3 x double], ptr %62, i64 0, i64 0
  call void @llvm.memcpy.p0.p0.i64(ptr align 8 %62, ptr align 8 @constinit.11, i64 24, i1 false)
  %430 = getelementptr inbounds %"class.std::initializer_list.5", ptr %61, i32 0, i32 0
  %431 = getelementptr inbounds [3 x double], ptr %62, i64 0, i64 0
  store ptr %431, ptr %430, align 8
  %432 = getelementptr inbounds %"class.std::initializer_list.5", ptr %61, i32 0, i32 1
  store i64 3, ptr %432, align 8
  call void @_ZNSaIdEC2Ev(ptr noundef nonnull align 1 dereferenceable(1) %63) #3
  %433 = getelementptr inbounds { ptr, i64 }, ptr %61, i32 0, i32 0
  %434 = load ptr, ptr %433, align 8
  %435 = getelementptr inbounds { ptr, i64 }, ptr %61, i32 0, i32 1
  %436 = load i64, ptr %435, align 8
  invoke void @_ZNSt6vectorIdSaIdEEC2ESt16initializer_listIdERKS0_(ptr noundef nonnull align 8 dereferenceable(24) %428, ptr %434, i64 %436, ptr noundef nonnull align 1 dereferenceable(1) %63)
          to label %437 unwind label %556

437:                                              ; preds = %427
  %438 = getelementptr inbounds %"class.std::vector.0", ptr %428, i64 1
  store ptr %438, ptr %51, align 8
  %439 = getelementptr inbounds [3 x double], ptr %65, i64 0, i64 0
  call void @llvm.memcpy.p0.p0.i64(ptr align 8 %65, ptr align 8 @constinit.12, i64 24, i1 false)
  %440 = getelementptr inbounds %"class.std::initializer_list.5", ptr %64, i32 0, i32 0
  %441 = getelementptr inbounds [3 x double], ptr %65, i64 0, i64 0
  store ptr %441, ptr %440, align 8
  %442 = getelementptr inbounds %"class.std::initializer_list.5", ptr %64, i32 0, i32 1
  store i64 3, ptr %442, align 8
  call void @_ZNSaIdEC2Ev(ptr noundef nonnull align 1 dereferenceable(1) %66) #3
  %443 = getelementptr inbounds { ptr, i64 }, ptr %64, i32 0, i32 0
  %444 = load ptr, ptr %443, align 8
  %445 = getelementptr inbounds { ptr, i64 }, ptr %64, i32 0, i32 1
  %446 = load i64, ptr %445, align 8
  invoke void @_ZNSt6vectorIdSaIdEEC2ESt16initializer_listIdERKS0_(ptr noundef nonnull align 8 dereferenceable(24) %438, ptr %444, i64 %446, ptr noundef nonnull align 1 dereferenceable(1) %66)
          to label %447 unwind label %560

447:                                              ; preds = %437
  %448 = getelementptr inbounds %"class.std::vector.0", ptr %438, i64 1
  store ptr %448, ptr %51, align 8
  %449 = getelementptr inbounds [3 x double], ptr %68, i64 0, i64 0
  call void @llvm.memcpy.p0.p0.i64(ptr align 8 %68, ptr align 8 @constinit.13, i64 24, i1 false)
  %450 = getelementptr inbounds %"class.std::initializer_list.5", ptr %67, i32 0, i32 0
  %451 = getelementptr inbounds [3 x double], ptr %68, i64 0, i64 0
  store ptr %451, ptr %450, align 8
  %452 = getelementptr inbounds %"class.std::initializer_list.5", ptr %67, i32 0, i32 1
  store i64 3, ptr %452, align 8
  call void @_ZNSaIdEC2Ev(ptr noundef nonnull align 1 dereferenceable(1) %69) #3
  %453 = getelementptr inbounds { ptr, i64 }, ptr %67, i32 0, i32 0
  %454 = load ptr, ptr %453, align 8
  %455 = getelementptr inbounds { ptr, i64 }, ptr %67, i32 0, i32 1
  %456 = load i64, ptr %455, align 8
  invoke void @_ZNSt6vectorIdSaIdEEC2ESt16initializer_listIdERKS0_(ptr noundef nonnull align 8 dereferenceable(24) %448, ptr %454, i64 %456, ptr noundef nonnull align 1 dereferenceable(1) %69)
          to label %457 unwind label %564

457:                                              ; preds = %447
  %458 = getelementptr inbounds %"class.std::vector.0", ptr %448, i64 1
  store ptr %458, ptr %51, align 8
  %459 = getelementptr inbounds [3 x double], ptr %71, i64 0, i64 0
  call void @llvm.memcpy.p0.p0.i64(ptr align 8 %71, ptr align 8 @constinit.14, i64 24, i1 false)
  %460 = getelementptr inbounds %"class.std::initializer_list.5", ptr %70, i32 0, i32 0
  %461 = getelementptr inbounds [3 x double], ptr %71, i64 0, i64 0
  store ptr %461, ptr %460, align 8
  %462 = getelementptr inbounds %"class.std::initializer_list.5", ptr %70, i32 0, i32 1
  store i64 3, ptr %462, align 8
  call void @_ZNSaIdEC2Ev(ptr noundef nonnull align 1 dereferenceable(1) %72) #3
  %463 = getelementptr inbounds { ptr, i64 }, ptr %70, i32 0, i32 0
  %464 = load ptr, ptr %463, align 8
  %465 = getelementptr inbounds { ptr, i64 }, ptr %70, i32 0, i32 1
  %466 = load i64, ptr %465, align 8
  invoke void @_ZNSt6vectorIdSaIdEEC2ESt16initializer_listIdERKS0_(ptr noundef nonnull align 8 dereferenceable(24) %458, ptr %464, i64 %466, ptr noundef nonnull align 1 dereferenceable(1) %72)
          to label %467 unwind label %568

467:                                              ; preds = %457
  %468 = getelementptr inbounds %"class.std::vector.0", ptr %458, i64 1
  store ptr %468, ptr %51, align 8
  %469 = getelementptr inbounds [3 x double], ptr %74, i64 0, i64 0
  call void @llvm.memcpy.p0.p0.i64(ptr align 8 %74, ptr align 8 @constinit.15, i64 24, i1 false)
  %470 = getelementptr inbounds %"class.std::initializer_list.5", ptr %73, i32 0, i32 0
  %471 = getelementptr inbounds [3 x double], ptr %74, i64 0, i64 0
  store ptr %471, ptr %470, align 8
  %472 = getelementptr inbounds %"class.std::initializer_list.5", ptr %73, i32 0, i32 1
  store i64 3, ptr %472, align 8
  call void @_ZNSaIdEC2Ev(ptr noundef nonnull align 1 dereferenceable(1) %75) #3
  %473 = getelementptr inbounds { ptr, i64 }, ptr %73, i32 0, i32 0
  %474 = load ptr, ptr %473, align 8
  %475 = getelementptr inbounds { ptr, i64 }, ptr %73, i32 0, i32 1
  %476 = load i64, ptr %475, align 8
  invoke void @_ZNSt6vectorIdSaIdEEC2ESt16initializer_listIdERKS0_(ptr noundef nonnull align 8 dereferenceable(24) %468, ptr %474, i64 %476, ptr noundef nonnull align 1 dereferenceable(1) %75)
          to label %477 unwind label %572

477:                                              ; preds = %467
  store i1 false, ptr %76, align 1
  %478 = getelementptr inbounds %"class.std::initializer_list", ptr %49, i32 0, i32 0
  %479 = getelementptr inbounds [8 x %"class.std::vector.0"], ptr %50, i64 0, i64 0
  store ptr %479, ptr %478, align 8
  %480 = getelementptr inbounds %"class.std::initializer_list", ptr %49, i32 0, i32 1
  store i64 8, ptr %480, align 8
  call void @_ZNSaISt6vectorIdSaIdEEEC2Ev(ptr noundef nonnull align 1 dereferenceable(1) %77) #3
  %481 = getelementptr inbounds { ptr, i64 }, ptr %49, i32 0, i32 0
  %482 = load ptr, ptr %481, align 8
  %483 = getelementptr inbounds { ptr, i64 }, ptr %49, i32 0, i32 1
  %484 = load i64, ptr %483, align 8
  invoke void @_ZNSt6vectorIS_IdSaIdEESaIS1_EEC2ESt16initializer_listIS1_ERKS2_(ptr noundef nonnull align 8 dereferenceable(24) %48, ptr %482, i64 %484, ptr noundef nonnull align 1 dereferenceable(1) %77)
          to label %485 unwind label %576

485:                                              ; preds = %477
  call void @_ZNSaISt6vectorIdSaIdEEED2Ev(ptr noundef nonnull align 1 dereferenceable(1) %77) #3
  %486 = getelementptr inbounds [8 x %"class.std::vector.0"], ptr %50, i32 0, i32 0
  %487 = getelementptr inbounds %"class.std::vector.0", ptr %486, i64 8
  br label %488

488:                                              ; preds = %488, %485
  %489 = phi ptr [ %487, %485 ], [ %490, %488 ]
  %490 = getelementptr inbounds %"class.std::vector.0", ptr %489, i64 -1
  call void @_ZNSt6vectorIdSaIdEED2Ev(ptr noundef nonnull align 8 dereferenceable(24) %490) #3
  %491 = icmp eq ptr %490, %486
  br i1 %491, label %492, label %488

492:                                              ; preds = %488
  call void @_ZNSaIdED2Ev(ptr noundef nonnull align 1 dereferenceable(1) %75) #3
  call void @_ZNSaIdED2Ev(ptr noundef nonnull align 1 dereferenceable(1) %72) #3
  call void @_ZNSaIdED2Ev(ptr noundef nonnull align 1 dereferenceable(1) %69) #3
  call void @_ZNSaIdED2Ev(ptr noundef nonnull align 1 dereferenceable(1) %66) #3
  call void @_ZNSaIdED2Ev(ptr noundef nonnull align 1 dereferenceable(1) %63) #3
  call void @_ZNSaIdED2Ev(ptr noundef nonnull align 1 dereferenceable(1) %60) #3
  call void @_ZNSaIdED2Ev(ptr noundef nonnull align 1 dereferenceable(1) %57) #3
  call void @_ZNSaIdED2Ev(ptr noundef nonnull align 1 dereferenceable(1) %54) #3
  %493 = getelementptr inbounds [8 x i32], ptr %80, i64 0, i64 0
  call void @llvm.memcpy.p0.p0.i64(ptr align 4 %80, ptr align 4 @constinit.16, i64 32, i1 false)
  %494 = getelementptr inbounds %"class.std::initializer_list.11", ptr %79, i32 0, i32 0
  %495 = getelementptr inbounds [8 x i32], ptr %80, i64 0, i64 0
  store ptr %495, ptr %494, align 8
  %496 = getelementptr inbounds %"class.std::initializer_list.11", ptr %79, i32 0, i32 1
  store i64 8, ptr %496, align 8
  call void @_ZNSaIiEC2Ev(ptr noundef nonnull align 1 dereferenceable(1) %81) #3
  %497 = getelementptr inbounds { ptr, i64 }, ptr %79, i32 0, i32 0
  %498 = load ptr, ptr %497, align 8
  %499 = getelementptr inbounds { ptr, i64 }, ptr %79, i32 0, i32 1
  %500 = load i64, ptr %499, align 8
  invoke void @_ZNSt6vectorIiSaIiEEC2ESt16initializer_listIiERKS0_(ptr noundef nonnull align 8 dereferenceable(24) %78, ptr %498, i64 %500, ptr noundef nonnull align 1 dereferenceable(1) %81)
          to label %501 unwind label %605

501:                                              ; preds = %492
  call void @_ZNSaIiED2Ev(ptr noundef nonnull align 1 dereferenceable(1) %81) #3
  invoke void @_ZN16machine_learning19k_nearest_neighbors3KnnC2ERSt6vectorIS2_IdSaIdEESaIS4_EERS2_IiSaIiEE(ptr noundef nonnull align 8 dereferenceable(48) %82, ptr noundef nonnull align 8 dereferenceable(24) %48, ptr noundef nonnull align 8 dereferenceable(24) %78)
          to label %502 unwind label %609

502:                                              ; preds = %501
  %503 = getelementptr inbounds [3 x double], ptr %85, i64 0, i64 0
  call void @llvm.memcpy.p0.p0.i64(ptr align 8 %85, ptr align 8 @constinit.17, i64 24, i1 false)
  %504 = getelementptr inbounds %"class.std::initializer_list.5", ptr %84, i32 0, i32 0
  %505 = getelementptr inbounds [3 x double], ptr %85, i64 0, i64 0
  store ptr %505, ptr %504, align 8
  %506 = getelementptr inbounds %"class.std::initializer_list.5", ptr %84, i32 0, i32 1
  store i64 3, ptr %506, align 8
  call void @_ZNSaIdEC2Ev(ptr noundef nonnull align 1 dereferenceable(1) %86) #3
  %507 = getelementptr inbounds { ptr, i64 }, ptr %84, i32 0, i32 0
  %508 = load ptr, ptr %507, align 8
  %509 = getelementptr inbounds { ptr, i64 }, ptr %84, i32 0, i32 1
  %510 = load i64, ptr %509, align 8
  invoke void @_ZNSt6vectorIdSaIdEEC2ESt16initializer_listIdERKS0_(ptr noundef nonnull align 8 dereferenceable(24) %83, ptr %508, i64 %510, ptr noundef nonnull align 1 dereferenceable(1) %86)
          to label %511 unwind label %613

511:                                              ; preds = %502
  call void @_ZNSaIdED2Ev(ptr noundef nonnull align 1 dereferenceable(1) %86) #3
  %512 = getelementptr inbounds [3 x double], ptr %89, i64 0, i64 0
  call void @llvm.memcpy.p0.p0.i64(ptr align 8 %89, ptr align 8 @constinit.18, i64 24, i1 false)
  %513 = getelementptr inbounds %"class.std::initializer_list.5", ptr %88, i32 0, i32 0
  %514 = getelementptr inbounds [3 x double], ptr %89, i64 0, i64 0
  store ptr %514, ptr %513, align 8
  %515 = getelementptr inbounds %"class.std::initializer_list.5", ptr %88, i32 0, i32 1
  store i64 3, ptr %515, align 8
  call void @_ZNSaIdEC2Ev(ptr noundef nonnull align 1 dereferenceable(1) %90) #3
  %516 = getelementptr inbounds { ptr, i64 }, ptr %88, i32 0, i32 0
  %517 = load ptr, ptr %516, align 8
  %518 = getelementptr inbounds { ptr, i64 }, ptr %88, i32 0, i32 1
  %519 = load i64, ptr %518, align 8
  invoke void @_ZNSt6vectorIdSaIdEEC2ESt16initializer_listIdERKS0_(ptr noundef nonnull align 8 dereferenceable(24) %87, ptr %517, i64 %519, ptr noundef nonnull align 1 dereferenceable(1) %90)
          to label %520 unwind label %617

520:                                              ; preds = %511
  call void @_ZNSaIdED2Ev(ptr noundef nonnull align 1 dereferenceable(1) %90) #3
  %521 = getelementptr inbounds [3 x double], ptr %93, i64 0, i64 0
  call void @llvm.memcpy.p0.p0.i64(ptr align 8 %93, ptr align 8 @constinit.19, i64 24, i1 false)
  %522 = getelementptr inbounds %"class.std::initializer_list.5", ptr %92, i32 0, i32 0
  %523 = getelementptr inbounds [3 x double], ptr %93, i64 0, i64 0
  store ptr %523, ptr %522, align 8
  %524 = getelementptr inbounds %"class.std::initializer_list.5", ptr %92, i32 0, i32 1
  store i64 3, ptr %524, align 8
  call void @_ZNSaIdEC2Ev(ptr noundef nonnull align 1 dereferenceable(1) %94) #3
  %525 = getelementptr inbounds { ptr, i64 }, ptr %92, i32 0, i32 0
  %526 = load ptr, ptr %525, align 8
  %527 = getelementptr inbounds { ptr, i64 }, ptr %92, i32 0, i32 1
  %528 = load i64, ptr %527, align 8
  invoke void @_ZNSt6vectorIdSaIdEEC2ESt16initializer_listIdERKS0_(ptr noundef nonnull align 8 dereferenceable(24) %91, ptr %526, i64 %528, ptr noundef nonnull align 1 dereferenceable(1) %94)
          to label %529 unwind label %621

529:                                              ; preds = %520
  call void @_ZNSaIdED2Ev(ptr noundef nonnull align 1 dereferenceable(1) %94) #3
  %530 = getelementptr inbounds [3 x double], ptr %97, i64 0, i64 0
  call void @llvm.memcpy.p0.p0.i64(ptr align 8 %97, ptr align 8 @constinit.20, i64 24, i1 false)
  %531 = getelementptr inbounds %"class.std::initializer_list.5", ptr %96, i32 0, i32 0
  %532 = getelementptr inbounds [3 x double], ptr %97, i64 0, i64 0
  store ptr %532, ptr %531, align 8
  %533 = getelementptr inbounds %"class.std::initializer_list.5", ptr %96, i32 0, i32 1
  store i64 3, ptr %533, align 8
  call void @_ZNSaIdEC2Ev(ptr noundef nonnull align 1 dereferenceable(1) %98) #3
  %534 = getelementptr inbounds { ptr, i64 }, ptr %96, i32 0, i32 0
  %535 = load ptr, ptr %534, align 8
  %536 = getelementptr inbounds { ptr, i64 }, ptr %96, i32 0, i32 1
  %537 = load i64, ptr %536, align 8
  invoke void @_ZNSt6vectorIdSaIdEEC2ESt16initializer_listIdERKS0_(ptr noundef nonnull align 8 dereferenceable(24) %95, ptr %535, i64 %537, ptr noundef nonnull align 1 dereferenceable(1) %98)
          to label %538 unwind label %625

538:                                              ; preds = %529
  call void @_ZNSaIdED2Ev(ptr noundef nonnull align 1 dereferenceable(1) %98) #3
  %539 = invoke noundef i32 @_ZN16machine_learning19k_nearest_neighbors3Knn7predictERSt6vectorIdSaIdEEi(ptr noundef nonnull align 8 dereferenceable(48) %82, ptr noundef nonnull align 8 dereferenceable(24) %83, i32 noundef 2)
          to label %540 unwind label %629

540:                                              ; preds = %538
  %541 = icmp eq i32 %539, 2
  br i1 %541, label %542, label %543

542:                                              ; preds = %540
  br label %634

543:                                              ; preds = %540
  call void @__assert_fail(ptr noundef @.str.21, ptr noundef @.str.2, i32 noundef 166, ptr noundef @__PRETTY_FUNCTION__._ZL4testv) #18
  unreachable

544:                                              ; preds = %397
  %545 = landingpad { ptr, i32 }
          cleanup
  %546 = extractvalue { ptr, i32 } %545, 0
  store ptr %546, ptr %8, align 8
  %547 = extractvalue { ptr, i32 } %545, 1
  store i32 %547, ptr %9, align 4
  br label %594

548:                                              ; preds = %407
  %549 = landingpad { ptr, i32 }
          cleanup
  %550 = extractvalue { ptr, i32 } %549, 0
  store ptr %550, ptr %8, align 8
  %551 = extractvalue { ptr, i32 } %549, 1
  store i32 %551, ptr %9, align 4
  br label %593

552:                                              ; preds = %417
  %553 = landingpad { ptr, i32 }
          cleanup
  %554 = extractvalue { ptr, i32 } %553, 0
  store ptr %554, ptr %8, align 8
  %555 = extractvalue { ptr, i32 } %553, 1
  store i32 %555, ptr %9, align 4
  br label %592

556:                                              ; preds = %427
  %557 = landingpad { ptr, i32 }
          cleanup
  %558 = extractvalue { ptr, i32 } %557, 0
  store ptr %558, ptr %8, align 8
  %559 = extractvalue { ptr, i32 } %557, 1
  store i32 %559, ptr %9, align 4
  br label %591

560:                                              ; preds = %437
  %561 = landingpad { ptr, i32 }
          cleanup
  %562 = extractvalue { ptr, i32 } %561, 0
  store ptr %562, ptr %8, align 8
  %563 = extractvalue { ptr, i32 } %561, 1
  store i32 %563, ptr %9, align 4
  br label %590

564:                                              ; preds = %447
  %565 = landingpad { ptr, i32 }
          cleanup
  %566 = extractvalue { ptr, i32 } %565, 0
  store ptr %566, ptr %8, align 8
  %567 = extractvalue { ptr, i32 } %565, 1
  store i32 %567, ptr %9, align 4
  br label %589

568:                                              ; preds = %457
  %569 = landingpad { ptr, i32 }
          cleanup
  %570 = extractvalue { ptr, i32 } %569, 0
  store ptr %570, ptr %8, align 8
  %571 = extractvalue { ptr, i32 } %569, 1
  store i32 %571, ptr %9, align 4
  br label %588

572:                                              ; preds = %467
  %573 = landingpad { ptr, i32 }
          cleanup
  %574 = extractvalue { ptr, i32 } %573, 0
  store ptr %574, ptr %8, align 8
  %575 = extractvalue { ptr, i32 } %573, 1
  store i32 %575, ptr %9, align 4
  br label %587

576:                                              ; preds = %477
  %577 = landingpad { ptr, i32 }
          cleanup
  %578 = extractvalue { ptr, i32 } %577, 0
  store ptr %578, ptr %8, align 8
  %579 = extractvalue { ptr, i32 } %577, 1
  store i32 %579, ptr %9, align 4
  call void @_ZNSaISt6vectorIdSaIdEEED2Ev(ptr noundef nonnull align 1 dereferenceable(1) %77) #3
  %580 = getelementptr inbounds [8 x %"class.std::vector.0"], ptr %50, i32 0, i32 0
  %581 = getelementptr inbounds %"class.std::vector.0", ptr %580, i64 8
  br label %582

582:                                              ; preds = %582, %576
  %583 = phi ptr [ %581, %576 ], [ %584, %582 ]
  %584 = getelementptr inbounds %"class.std::vector.0", ptr %583, i64 -1
  call void @_ZNSt6vectorIdSaIdEED2Ev(ptr noundef nonnull align 8 dereferenceable(24) %584) #3
  %585 = icmp eq ptr %584, %580
  br i1 %585, label %586, label %582

586:                                              ; preds = %582
  br label %587

587:                                              ; preds = %586, %572
  call void @_ZNSaIdED2Ev(ptr noundef nonnull align 1 dereferenceable(1) %75) #3
  br label %588

588:                                              ; preds = %587, %568
  call void @_ZNSaIdED2Ev(ptr noundef nonnull align 1 dereferenceable(1) %72) #3
  br label %589

589:                                              ; preds = %588, %564
  call void @_ZNSaIdED2Ev(ptr noundef nonnull align 1 dereferenceable(1) %69) #3
  br label %590

590:                                              ; preds = %589, %560
  call void @_ZNSaIdED2Ev(ptr noundef nonnull align 1 dereferenceable(1) %66) #3
  br label %591

591:                                              ; preds = %590, %556
  call void @_ZNSaIdED2Ev(ptr noundef nonnull align 1 dereferenceable(1) %63) #3
  br label %592

592:                                              ; preds = %591, %552
  call void @_ZNSaIdED2Ev(ptr noundef nonnull align 1 dereferenceable(1) %60) #3
  br label %593

593:                                              ; preds = %592, %548
  call void @_ZNSaIdED2Ev(ptr noundef nonnull align 1 dereferenceable(1) %57) #3
  br label %594

594:                                              ; preds = %593, %544
  call void @_ZNSaIdED2Ev(ptr noundef nonnull align 1 dereferenceable(1) %54) #3
  %595 = load i1, ptr %76, align 1
  br i1 %595, label %596, label %604

596:                                              ; preds = %594
  %597 = load ptr, ptr %51, align 8
  %598 = icmp eq ptr %398, %597
  br i1 %598, label %603, label %599

599:                                              ; preds = %599, %596
  %600 = phi ptr [ %597, %596 ], [ %601, %599 ]
  %601 = getelementptr inbounds %"class.std::vector.0", ptr %600, i64 -1
  call void @_ZNSt6vectorIdSaIdEED2Ev(ptr noundef nonnull align 8 dereferenceable(24) %601) #3
  %602 = icmp eq ptr %601, %398
  br i1 %602, label %603, label %599

603:                                              ; preds = %599, %596
  br label %604

604:                                              ; preds = %603, %594
  br label %939

605:                                              ; preds = %492
  %606 = landingpad { ptr, i32 }
          cleanup
  %607 = extractvalue { ptr, i32 } %606, 0
  store ptr %607, ptr %8, align 8
  %608 = extractvalue { ptr, i32 } %606, 1
  store i32 %608, ptr %9, align 4
  call void @_ZNSaIiED2Ev(ptr noundef nonnull align 1 dereferenceable(1) %81) #3
  br label %938

609:                                              ; preds = %501
  %610 = landingpad { ptr, i32 }
          cleanup
  %611 = extractvalue { ptr, i32 } %610, 0
  store ptr %611, ptr %8, align 8
  %612 = extractvalue { ptr, i32 } %610, 1
  store i32 %612, ptr %9, align 4
  br label %937

613:                                              ; preds = %502
  %614 = landingpad { ptr, i32 }
          cleanup
  %615 = extractvalue { ptr, i32 } %614, 0
  store ptr %615, ptr %8, align 8
  %616 = extractvalue { ptr, i32 } %614, 1
  store i32 %616, ptr %9, align 4
  call void @_ZNSaIdED2Ev(ptr noundef nonnull align 1 dereferenceable(1) %86) #3
  br label %936

617:                                              ; preds = %511
  %618 = landingpad { ptr, i32 }
          cleanup
  %619 = extractvalue { ptr, i32 } %618, 0
  store ptr %619, ptr %8, align 8
  %620 = extractvalue { ptr, i32 } %618, 1
  store i32 %620, ptr %9, align 4
  call void @_ZNSaIdED2Ev(ptr noundef nonnull align 1 dereferenceable(1) %90) #3
  br label %935

621:                                              ; preds = %520
  %622 = landingpad { ptr, i32 }
          cleanup
  %623 = extractvalue { ptr, i32 } %622, 0
  store ptr %623, ptr %8, align 8
  %624 = extractvalue { ptr, i32 } %622, 1
  store i32 %624, ptr %9, align 4
  call void @_ZNSaIdED2Ev(ptr noundef nonnull align 1 dereferenceable(1) %94) #3
  br label %934

625:                                              ; preds = %529
  %626 = landingpad { ptr, i32 }
          cleanup
  %627 = extractvalue { ptr, i32 } %626, 0
  store ptr %627, ptr %8, align 8
  %628 = extractvalue { ptr, i32 } %626, 1
  store i32 %628, ptr %9, align 4
  call void @_ZNSaIdED2Ev(ptr noundef nonnull align 1 dereferenceable(1) %98) #3
  br label %933

629:                                              ; preds = %661, %659, %657, %655, %648, %641, %634, %538
  %630 = landingpad { ptr, i32 }
          cleanup
  %631 = extractvalue { ptr, i32 } %630, 0
  store ptr %631, ptr %8, align 8
  %632 = extractvalue { ptr, i32 } %630, 1
  store i32 %632, ptr %9, align 4
  br label %932

633:                                              ; No predecessors!
  br label %634

634:                                              ; preds = %633, %542
  %635 = invoke noundef i32 @_ZN16machine_learning19k_nearest_neighbors3Knn7predictERSt6vectorIdSaIdEEi(ptr noundef nonnull align 8 dereferenceable(48) %82, ptr noundef nonnull align 8 dereferenceable(24) %87, i32 noundef 2)
          to label %636 unwind label %629

636:                                              ; preds = %634
  %637 = icmp eq i32 %635, 1
  br i1 %637, label %638, label %639

638:                                              ; preds = %636
  br label %641

639:                                              ; preds = %636
  call void @__assert_fail(ptr noundef @.str.22, ptr noundef @.str.2, i32 noundef 167, ptr noundef @__PRETTY_FUNCTION__._ZL4testv) #18
  unreachable

640:                                              ; No predecessors!
  br label %641

641:                                              ; preds = %640, %638
  %642 = invoke noundef i32 @_ZN16machine_learning19k_nearest_neighbors3Knn7predictERSt6vectorIdSaIdEEi(ptr noundef nonnull align 8 dereferenceable(48) %82, ptr noundef nonnull align 8 dereferenceable(24) %91, i32 noundef 2)
          to label %643 unwind label %629

643:                                              ; preds = %641
  %644 = icmp eq i32 %642, 1
  br i1 %644, label %645, label %646

645:                                              ; preds = %643
  br label %648

646:                                              ; preds = %643
  call void @__assert_fail(ptr noundef @.str.23, ptr noundef @.str.2, i32 noundef 168, ptr noundef @__PRETTY_FUNCTION__._ZL4testv) #18
  unreachable

647:                                              ; No predecessors!
  br label %648

648:                                              ; preds = %647, %645
  %649 = invoke noundef i32 @_ZN16machine_learning19k_nearest_neighbors3Knn7predictERSt6vectorIdSaIdEEi(ptr noundef nonnull align 8 dereferenceable(48) %82, ptr noundef nonnull align 8 dereferenceable(24) %95, i32 noundef 2)
          to label %650 unwind label %629

650:                                              ; preds = %648
  %651 = icmp eq i32 %649, 3
  br i1 %651, label %652, label %653

652:                                              ; preds = %650
  br label %655

653:                                              ; preds = %650
  call void @__assert_fail(ptr noundef @.str.24, ptr noundef @.str.2, i32 noundef 169, ptr noundef @__PRETTY_FUNCTION__._ZL4testv) #18
  unreachable

654:                                              ; No predecessors!
  br label %655

655:                                              ; preds = %654, %652
  %656 = invoke noundef nonnull align 8 dereferenceable(8) ptr @_ZStlsISt11char_traitsIcEERSt13basic_ostreamIcT_ES5_PKc(ptr noundef nonnull align 8 dereferenceable(8) @_ZSt4cout, ptr noundef @.str.6)
          to label %657 unwind label %629

657:                                              ; preds = %655
  %658 = invoke noundef nonnull align 8 dereferenceable(8) ptr @_ZNSolsEPFRSoS_E(ptr noundef nonnull align 8 dereferenceable(8) %656, ptr noundef @_ZSt4endlIcSt11char_traitsIcEERSt13basic_ostreamIT_T0_ES6_)
          to label %659 unwind label %629

659:                                              ; preds = %657
  %660 = invoke noundef nonnull align 8 dereferenceable(8) ptr @_ZStlsISt11char_traitsIcEERSt13basic_ostreamIcT_ES5_PKc(ptr noundef nonnull align 8 dereferenceable(8) @_ZSt4cout, ptr noundef @.str.25)
          to label %661 unwind label %629

661:                                              ; preds = %659
  %662 = invoke noundef nonnull align 8 dereferenceable(8) ptr @_ZNSolsEPFRSoS_E(ptr noundef nonnull align 8 dereferenceable(8) %660, ptr noundef @_ZSt4endlIcSt11char_traitsIcEERSt13basic_ostreamIT_T0_ES6_)
          to label %663 unwind label %629

663:                                              ; preds = %661
  %664 = getelementptr inbounds [8 x %"class.std::vector.0"], ptr %101, i64 0, i64 0
  store i1 true, ptr %127, align 1
  store ptr %664, ptr %102, align 8
  %665 = getelementptr inbounds [1 x double], ptr %104, i64 0, i64 0
  store double 0.000000e+00, ptr %665, align 8
  %666 = getelementptr inbounds %"class.std::initializer_list.5", ptr %103, i32 0, i32 0
  %667 = getelementptr inbounds [1 x double], ptr %104, i64 0, i64 0
  store ptr %667, ptr %666, align 8
  %668 = getelementptr inbounds %"class.std::initializer_list.5", ptr %103, i32 0, i32 1
  store i64 1, ptr %668, align 8
  call void @_ZNSaIdEC2Ev(ptr noundef nonnull align 1 dereferenceable(1) %105) #3
  %669 = getelementptr inbounds { ptr, i64 }, ptr %103, i32 0, i32 0
  %670 = load ptr, ptr %669, align 8
  %671 = getelementptr inbounds { ptr, i64 }, ptr %103, i32 0, i32 1
  %672 = load i64, ptr %671, align 8
  invoke void @_ZNSt6vectorIdSaIdEEC2ESt16initializer_listIdERKS0_(ptr noundef nonnull align 8 dereferenceable(24) %664, ptr %670, i64 %672, ptr noundef nonnull align 1 dereferenceable(1) %105)
          to label %673 unwind label %810

673:                                              ; preds = %663
  %674 = getelementptr inbounds %"class.std::vector.0", ptr %664, i64 1
  store ptr %674, ptr %102, align 8
  %675 = getelementptr inbounds [1 x double], ptr %107, i64 0, i64 0
  store double 1.000000e+00, ptr %675, align 8
  %676 = getelementptr inbounds %"class.std::initializer_list.5", ptr %106, i32 0, i32 0
  %677 = getelementptr inbounds [1 x double], ptr %107, i64 0, i64 0
  store ptr %677, ptr %676, align 8
  %678 = getelementptr inbounds %"class.std::initializer_list.5", ptr %106, i32 0, i32 1
  store i64 1, ptr %678, align 8
  call void @_ZNSaIdEC2Ev(ptr noundef nonnull align 1 dereferenceable(1) %108) #3
  %679 = getelementptr inbounds { ptr, i64 }, ptr %106, i32 0, i32 0
  %680 = load ptr, ptr %679, align 8
  %681 = getelementptr inbounds { ptr, i64 }, ptr %106, i32 0, i32 1
  %682 = load i64, ptr %681, align 8
  invoke void @_ZNSt6vectorIdSaIdEEC2ESt16initializer_listIdERKS0_(ptr noundef nonnull align 8 dereferenceable(24) %674, ptr %680, i64 %682, ptr noundef nonnull align 1 dereferenceable(1) %108)
          to label %683 unwind label %814

683:                                              ; preds = %673
  %684 = getelementptr inbounds %"class.std::vector.0", ptr %674, i64 1
  store ptr %684, ptr %102, align 8
  %685 = getelementptr inbounds [1 x double], ptr %110, i64 0, i64 0
  store double 2.000000e+00, ptr %685, align 8
  %686 = getelementptr inbounds %"class.std::initializer_list.5", ptr %109, i32 0, i32 0
  %687 = getelementptr inbounds [1 x double], ptr %110, i64 0, i64 0
  store ptr %687, ptr %686, align 8
  %688 = getelementptr inbounds %"class.std::initializer_list.5", ptr %109, i32 0, i32 1
  store i64 1, ptr %688, align 8
  call void @_ZNSaIdEC2Ev(ptr noundef nonnull align 1 dereferenceable(1) %111) #3
  %689 = getelementptr inbounds { ptr, i64 }, ptr %109, i32 0, i32 0
  %690 = load ptr, ptr %689, align 8
  %691 = getelementptr inbounds { ptr, i64 }, ptr %109, i32 0, i32 1
  %692 = load i64, ptr %691, align 8
  invoke void @_ZNSt6vectorIdSaIdEEC2ESt16initializer_listIdERKS0_(ptr noundef nonnull align 8 dereferenceable(24) %684, ptr %690, i64 %692, ptr noundef nonnull align 1 dereferenceable(1) %111)
          to label %693 unwind label %818

693:                                              ; preds = %683
  %694 = getelementptr inbounds %"class.std::vector.0", ptr %684, i64 1
  store ptr %694, ptr %102, align 8
  %695 = getelementptr inbounds [1 x double], ptr %113, i64 0, i64 0
  store double 3.000000e+00, ptr %695, align 8
  %696 = getelementptr inbounds %"class.std::initializer_list.5", ptr %112, i32 0, i32 0
  %697 = getelementptr inbounds [1 x double], ptr %113, i64 0, i64 0
  store ptr %697, ptr %696, align 8
  %698 = getelementptr inbounds %"class.std::initializer_list.5", ptr %112, i32 0, i32 1
  store i64 1, ptr %698, align 8
  call void @_ZNSaIdEC2Ev(ptr noundef nonnull align 1 dereferenceable(1) %114) #3
  %699 = getelementptr inbounds { ptr, i64 }, ptr %112, i32 0, i32 0
  %700 = load ptr, ptr %699, align 8
  %701 = getelementptr inbounds { ptr, i64 }, ptr %112, i32 0, i32 1
  %702 = load i64, ptr %701, align 8
  invoke void @_ZNSt6vectorIdSaIdEEC2ESt16initializer_listIdERKS0_(ptr noundef nonnull align 8 dereferenceable(24) %694, ptr %700, i64 %702, ptr noundef nonnull align 1 dereferenceable(1) %114)
          to label %703 unwind label %822

703:                                              ; preds = %693
  %704 = getelementptr inbounds %"class.std::vector.0", ptr %694, i64 1
  store ptr %704, ptr %102, align 8
  %705 = getelementptr inbounds [1 x double], ptr %116, i64 0, i64 0
  store double 4.000000e+00, ptr %705, align 8
  %706 = getelementptr inbounds %"class.std::initializer_list.5", ptr %115, i32 0, i32 0
  %707 = getelementptr inbounds [1 x double], ptr %116, i64 0, i64 0
  store ptr %707, ptr %706, align 8
  %708 = getelementptr inbounds %"class.std::initializer_list.5", ptr %115, i32 0, i32 1
  store i64 1, ptr %708, align 8
  call void @_ZNSaIdEC2Ev(ptr noundef nonnull align 1 dereferenceable(1) %117) #3
  %709 = getelementptr inbounds { ptr, i64 }, ptr %115, i32 0, i32 0
  %710 = load ptr, ptr %709, align 8
  %711 = getelementptr inbounds { ptr, i64 }, ptr %115, i32 0, i32 1
  %712 = load i64, ptr %711, align 8
  invoke void @_ZNSt6vectorIdSaIdEEC2ESt16initializer_listIdERKS0_(ptr noundef nonnull align 8 dereferenceable(24) %704, ptr %710, i64 %712, ptr noundef nonnull align 1 dereferenceable(1) %117)
          to label %713 unwind label %826

713:                                              ; preds = %703
  %714 = getelementptr inbounds %"class.std::vector.0", ptr %704, i64 1
  store ptr %714, ptr %102, align 8
  %715 = getelementptr inbounds [1 x double], ptr %119, i64 0, i64 0
  store double 5.000000e+00, ptr %715, align 8
  %716 = getelementptr inbounds %"class.std::initializer_list.5", ptr %118, i32 0, i32 0
  %717 = getelementptr inbounds [1 x double], ptr %119, i64 0, i64 0
  store ptr %717, ptr %716, align 8
  %718 = getelementptr inbounds %"class.std::initializer_list.5", ptr %118, i32 0, i32 1
  store i64 1, ptr %718, align 8
  call void @_ZNSaIdEC2Ev(ptr noundef nonnull align 1 dereferenceable(1) %120) #3
  %719 = getelementptr inbounds { ptr, i64 }, ptr %118, i32 0, i32 0
  %720 = load ptr, ptr %719, align 8
  %721 = getelementptr inbounds { ptr, i64 }, ptr %118, i32 0, i32 1
  %722 = load i64, ptr %721, align 8
  invoke void @_ZNSt6vectorIdSaIdEEC2ESt16initializer_listIdERKS0_(ptr noundef nonnull align 8 dereferenceable(24) %714, ptr %720, i64 %722, ptr noundef nonnull align 1 dereferenceable(1) %120)
          to label %723 unwind label %830

723:                                              ; preds = %713
  %724 = getelementptr inbounds %"class.std::vector.0", ptr %714, i64 1
  store ptr %724, ptr %102, align 8
  %725 = getelementptr inbounds [1 x double], ptr %122, i64 0, i64 0
  store double 6.000000e+00, ptr %725, align 8
  %726 = getelementptr inbounds %"class.std::initializer_list.5", ptr %121, i32 0, i32 0
  %727 = getelementptr inbounds [1 x double], ptr %122, i64 0, i64 0
  store ptr %727, ptr %726, align 8
  %728 = getelementptr inbounds %"class.std::initializer_list.5", ptr %121, i32 0, i32 1
  store i64 1, ptr %728, align 8
  call void @_ZNSaIdEC2Ev(ptr noundef nonnull align 1 dereferenceable(1) %123) #3
  %729 = getelementptr inbounds { ptr, i64 }, ptr %121, i32 0, i32 0
  %730 = load ptr, ptr %729, align 8
  %731 = getelementptr inbounds { ptr, i64 }, ptr %121, i32 0, i32 1
  %732 = load i64, ptr %731, align 8
  invoke void @_ZNSt6vectorIdSaIdEEC2ESt16initializer_listIdERKS0_(ptr noundef nonnull align 8 dereferenceable(24) %724, ptr %730, i64 %732, ptr noundef nonnull align 1 dereferenceable(1) %123)
          to label %733 unwind label %834

733:                                              ; preds = %723
  %734 = getelementptr inbounds %"class.std::vector.0", ptr %724, i64 1
  store ptr %734, ptr %102, align 8
  %735 = getelementptr inbounds [1 x double], ptr %125, i64 0, i64 0
  store double 7.000000e+00, ptr %735, align 8
  %736 = getelementptr inbounds %"class.std::initializer_list.5", ptr %124, i32 0, i32 0
  %737 = getelementptr inbounds [1 x double], ptr %125, i64 0, i64 0
  store ptr %737, ptr %736, align 8
  %738 = getelementptr inbounds %"class.std::initializer_list.5", ptr %124, i32 0, i32 1
  store i64 1, ptr %738, align 8
  call void @_ZNSaIdEC2Ev(ptr noundef nonnull align 1 dereferenceable(1) %126) #3
  %739 = getelementptr inbounds { ptr, i64 }, ptr %124, i32 0, i32 0
  %740 = load ptr, ptr %739, align 8
  %741 = getelementptr inbounds { ptr, i64 }, ptr %124, i32 0, i32 1
  %742 = load i64, ptr %741, align 8
  invoke void @_ZNSt6vectorIdSaIdEEC2ESt16initializer_listIdERKS0_(ptr noundef nonnull align 8 dereferenceable(24) %734, ptr %740, i64 %742, ptr noundef nonnull align 1 dereferenceable(1) %126)
          to label %743 unwind label %838

743:                                              ; preds = %733
  store i1 false, ptr %127, align 1
  %744 = getelementptr inbounds %"class.std::initializer_list", ptr %100, i32 0, i32 0
  %745 = getelementptr inbounds [8 x %"class.std::vector.0"], ptr %101, i64 0, i64 0
  store ptr %745, ptr %744, align 8
  %746 = getelementptr inbounds %"class.std::initializer_list", ptr %100, i32 0, i32 1
  store i64 8, ptr %746, align 8
  call void @_ZNSaISt6vectorIdSaIdEEEC2Ev(ptr noundef nonnull align 1 dereferenceable(1) %128) #3
  %747 = getelementptr inbounds { ptr, i64 }, ptr %100, i32 0, i32 0
  %748 = load ptr, ptr %747, align 8
  %749 = getelementptr inbounds { ptr, i64 }, ptr %100, i32 0, i32 1
  %750 = load i64, ptr %749, align 8
  invoke void @_ZNSt6vectorIS_IdSaIdEESaIS1_EEC2ESt16initializer_listIS1_ERKS2_(ptr noundef nonnull align 8 dereferenceable(24) %99, ptr %748, i64 %750, ptr noundef nonnull align 1 dereferenceable(1) %128)
          to label %751 unwind label %842

751:                                              ; preds = %743
  call void @_ZNSaISt6vectorIdSaIdEEED2Ev(ptr noundef nonnull align 1 dereferenceable(1) %128) #3
  %752 = getelementptr inbounds [8 x %"class.std::vector.0"], ptr %101, i32 0, i32 0
  %753 = getelementptr inbounds %"class.std::vector.0", ptr %752, i64 8
  br label %754

754:                                              ; preds = %754, %751
  %755 = phi ptr [ %753, %751 ], [ %756, %754 ]
  %756 = getelementptr inbounds %"class.std::vector.0", ptr %755, i64 -1
  call void @_ZNSt6vectorIdSaIdEED2Ev(ptr noundef nonnull align 8 dereferenceable(24) %756) #3
  %757 = icmp eq ptr %756, %752
  br i1 %757, label %758, label %754

758:                                              ; preds = %754
  call void @_ZNSaIdED2Ev(ptr noundef nonnull align 1 dereferenceable(1) %126) #3
  call void @_ZNSaIdED2Ev(ptr noundef nonnull align 1 dereferenceable(1) %123) #3
  call void @_ZNSaIdED2Ev(ptr noundef nonnull align 1 dereferenceable(1) %120) #3
  call void @_ZNSaIdED2Ev(ptr noundef nonnull align 1 dereferenceable(1) %117) #3
  call void @_ZNSaIdED2Ev(ptr noundef nonnull align 1 dereferenceable(1) %114) #3
  call void @_ZNSaIdED2Ev(ptr noundef nonnull align 1 dereferenceable(1) %111) #3
  call void @_ZNSaIdED2Ev(ptr noundef nonnull align 1 dereferenceable(1) %108) #3
  call void @_ZNSaIdED2Ev(ptr noundef nonnull align 1 dereferenceable(1) %105) #3
  %759 = getelementptr inbounds [8 x i32], ptr %131, i64 0, i64 0
  call void @llvm.memcpy.p0.p0.i64(ptr align 4 %131, ptr align 4 @constinit.26, i64 32, i1 false)
  %760 = getelementptr inbounds %"class.std::initializer_list.11", ptr %130, i32 0, i32 0
  %761 = getelementptr inbounds [8 x i32], ptr %131, i64 0, i64 0
  store ptr %761, ptr %760, align 8
  %762 = getelementptr inbounds %"class.std::initializer_list.11", ptr %130, i32 0, i32 1
  store i64 8, ptr %762, align 8
  call void @_ZNSaIiEC2Ev(ptr noundef nonnull align 1 dereferenceable(1) %132) #3
  %763 = getelementptr inbounds { ptr, i64 }, ptr %130, i32 0, i32 0
  %764 = load ptr, ptr %763, align 8
  %765 = getelementptr inbounds { ptr, i64 }, ptr %130, i32 0, i32 1
  %766 = load i64, ptr %765, align 8
  invoke void @_ZNSt6vectorIiSaIiEEC2ESt16initializer_listIiERKS0_(ptr noundef nonnull align 8 dereferenceable(24) %129, ptr %764, i64 %766, ptr noundef nonnull align 1 dereferenceable(1) %132)
          to label %767 unwind label %871

767:                                              ; preds = %758
  call void @_ZNSaIiED2Ev(ptr noundef nonnull align 1 dereferenceable(1) %132) #3
  invoke void @_ZN16machine_learning19k_nearest_neighbors3KnnC2ERSt6vectorIS2_IdSaIdEESaIS4_EERS2_IiSaIiEE(ptr noundef nonnull align 8 dereferenceable(48) %133, ptr noundef nonnull align 8 dereferenceable(24) %99, ptr noundef nonnull align 8 dereferenceable(24) %129)
          to label %768 unwind label %875

768:                                              ; preds = %767
  %769 = getelementptr inbounds [1 x double], ptr %136, i64 0, i64 0
  store double 5.000000e-01, ptr %769, align 8
  %770 = getelementptr inbounds %"class.std::initializer_list.5", ptr %135, i32 0, i32 0
  %771 = getelementptr inbounds [1 x double], ptr %136, i64 0, i64 0
  store ptr %771, ptr %770, align 8
  %772 = getelementptr inbounds %"class.std::initializer_list.5", ptr %135, i32 0, i32 1
  store i64 1, ptr %772, align 8
  call void @_ZNSaIdEC2Ev(ptr noundef nonnull align 1 dereferenceable(1) %137) #3
  %773 = getelementptr inbounds { ptr, i64 }, ptr %135, i32 0, i32 0
  %774 = load ptr, ptr %773, align 8
  %775 = getelementptr inbounds { ptr, i64 }, ptr %135, i32 0, i32 1
  %776 = load i64, ptr %775, align 8
  invoke void @_ZNSt6vectorIdSaIdEEC2ESt16initializer_listIdERKS0_(ptr noundef nonnull align 8 dereferenceable(24) %134, ptr %774, i64 %776, ptr noundef nonnull align 1 dereferenceable(1) %137)
          to label %777 unwind label %879

777:                                              ; preds = %768
  call void @_ZNSaIdED2Ev(ptr noundef nonnull align 1 dereferenceable(1) %137) #3
  %778 = getelementptr inbounds [1 x double], ptr %140, i64 0, i64 0
  store double 2.900000e+00, ptr %778, align 8
  %779 = getelementptr inbounds %"class.std::initializer_list.5", ptr %139, i32 0, i32 0
  %780 = getelementptr inbounds [1 x double], ptr %140, i64 0, i64 0
  store ptr %780, ptr %779, align 8
  %781 = getelementptr inbounds %"class.std::initializer_list.5", ptr %139, i32 0, i32 1
  store i64 1, ptr %781, align 8
  call void @_ZNSaIdEC2Ev(ptr noundef nonnull align 1 dereferenceable(1) %141) #3
  %782 = getelementptr inbounds { ptr, i64 }, ptr %139, i32 0, i32 0
  %783 = load ptr, ptr %782, align 8
  %784 = getelementptr inbounds { ptr, i64 }, ptr %139, i32 0, i32 1
  %785 = load i64, ptr %784, align 8
  invoke void @_ZNSt6vectorIdSaIdEEC2ESt16initializer_listIdERKS0_(ptr noundef nonnull align 8 dereferenceable(24) %138, ptr %783, i64 %785, ptr noundef nonnull align 1 dereferenceable(1) %141)
          to label %786 unwind label %883

786:                                              ; preds = %777
  call void @_ZNSaIdED2Ev(ptr noundef nonnull align 1 dereferenceable(1) %141) #3
  %787 = getelementptr inbounds [1 x double], ptr %144, i64 0, i64 0
  store double 5.500000e+00, ptr %787, align 8
  %788 = getelementptr inbounds %"class.std::initializer_list.5", ptr %143, i32 0, i32 0
  %789 = getelementptr inbounds [1 x double], ptr %144, i64 0, i64 0
  store ptr %789, ptr %788, align 8
  %790 = getelementptr inbounds %"class.std::initializer_list.5", ptr %143, i32 0, i32 1
  store i64 1, ptr %790, align 8
  call void @_ZNSaIdEC2Ev(ptr noundef nonnull align 1 dereferenceable(1) %145) #3
  %791 = getelementptr inbounds { ptr, i64 }, ptr %143, i32 0, i32 0
  %792 = load ptr, ptr %791, align 8
  %793 = getelementptr inbounds { ptr, i64 }, ptr %143, i32 0, i32 1
  %794 = load i64, ptr %793, align 8
  invoke void @_ZNSt6vectorIdSaIdEEC2ESt16initializer_listIdERKS0_(ptr noundef nonnull align 8 dereferenceable(24) %142, ptr %792, i64 %794, ptr noundef nonnull align 1 dereferenceable(1) %145)
          to label %795 unwind label %887

795:                                              ; preds = %786
  call void @_ZNSaIdED2Ev(ptr noundef nonnull align 1 dereferenceable(1) %145) #3
  %796 = getelementptr inbounds [1 x double], ptr %148, i64 0, i64 0
  store double 7.500000e+00, ptr %796, align 8
  %797 = getelementptr inbounds %"class.std::initializer_list.5", ptr %147, i32 0, i32 0
  %798 = getelementptr inbounds [1 x double], ptr %148, i64 0, i64 0
  store ptr %798, ptr %797, align 8
  %799 = getelementptr inbounds %"class.std::initializer_list.5", ptr %147, i32 0, i32 1
  store i64 1, ptr %799, align 8
  call void @_ZNSaIdEC2Ev(ptr noundef nonnull align 1 dereferenceable(1) %149) #3
  %800 = getelementptr inbounds { ptr, i64 }, ptr %147, i32 0, i32 0
  %801 = load ptr, ptr %800, align 8
  %802 = getelementptr inbounds { ptr, i64 }, ptr %147, i32 0, i32 1
  %803 = load i64, ptr %802, align 8
  invoke void @_ZNSt6vectorIdSaIdEEC2ESt16initializer_listIdERKS0_(ptr noundef nonnull align 8 dereferenceable(24) %146, ptr %801, i64 %803, ptr noundef nonnull align 1 dereferenceable(1) %149)
          to label %804 unwind label %891

804:                                              ; preds = %795
  call void @_ZNSaIdED2Ev(ptr noundef nonnull align 1 dereferenceable(1) %149) #3
  %805 = invoke noundef i32 @_ZN16machine_learning19k_nearest_neighbors3Knn7predictERSt6vectorIdSaIdEEi(ptr noundef nonnull align 8 dereferenceable(48) %133, ptr noundef nonnull align 8 dereferenceable(24) %134, i32 noundef 3)
          to label %806 unwind label %895

806:                                              ; preds = %804
  %807 = icmp eq i32 %805, 1
  br i1 %807, label %808, label %809

808:                                              ; preds = %806
  br label %900

809:                                              ; preds = %806
  call void @__assert_fail(ptr noundef @.str.27, ptr noundef @.str.2, i32 noundef 180, ptr noundef @__PRETTY_FUNCTION__._ZL4testv) #18
  unreachable

810:                                              ; preds = %663
  %811 = landingpad { ptr, i32 }
          cleanup
  %812 = extractvalue { ptr, i32 } %811, 0
  store ptr %812, ptr %8, align 8
  %813 = extractvalue { ptr, i32 } %811, 1
  store i32 %813, ptr %9, align 4
  br label %860

814:                                              ; preds = %673
  %815 = landingpad { ptr, i32 }
          cleanup
  %816 = extractvalue { ptr, i32 } %815, 0
  store ptr %816, ptr %8, align 8
  %817 = extractvalue { ptr, i32 } %815, 1
  store i32 %817, ptr %9, align 4
  br label %859

818:                                              ; preds = %683
  %819 = landingpad { ptr, i32 }
          cleanup
  %820 = extractvalue { ptr, i32 } %819, 0
  store ptr %820, ptr %8, align 8
  %821 = extractvalue { ptr, i32 } %819, 1
  store i32 %821, ptr %9, align 4
  br label %858

822:                                              ; preds = %693
  %823 = landingpad { ptr, i32 }
          cleanup
  %824 = extractvalue { ptr, i32 } %823, 0
  store ptr %824, ptr %8, align 8
  %825 = extractvalue { ptr, i32 } %823, 1
  store i32 %825, ptr %9, align 4
  br label %857

826:                                              ; preds = %703
  %827 = landingpad { ptr, i32 }
          cleanup
  %828 = extractvalue { ptr, i32 } %827, 0
  store ptr %828, ptr %8, align 8
  %829 = extractvalue { ptr, i32 } %827, 1
  store i32 %829, ptr %9, align 4
  br label %856

830:                                              ; preds = %713
  %831 = landingpad { ptr, i32 }
          cleanup
  %832 = extractvalue { ptr, i32 } %831, 0
  store ptr %832, ptr %8, align 8
  %833 = extractvalue { ptr, i32 } %831, 1
  store i32 %833, ptr %9, align 4
  br label %855

834:                                              ; preds = %723
  %835 = landingpad { ptr, i32 }
          cleanup
  %836 = extractvalue { ptr, i32 } %835, 0
  store ptr %836, ptr %8, align 8
  %837 = extractvalue { ptr, i32 } %835, 1
  store i32 %837, ptr %9, align 4
  br label %854

838:                                              ; preds = %733
  %839 = landingpad { ptr, i32 }
          cleanup
  %840 = extractvalue { ptr, i32 } %839, 0
  store ptr %840, ptr %8, align 8
  %841 = extractvalue { ptr, i32 } %839, 1
  store i32 %841, ptr %9, align 4
  br label %853

842:                                              ; preds = %743
  %843 = landingpad { ptr, i32 }
          cleanup
  %844 = extractvalue { ptr, i32 } %843, 0
  store ptr %844, ptr %8, align 8
  %845 = extractvalue { ptr, i32 } %843, 1
  store i32 %845, ptr %9, align 4
  call void @_ZNSaISt6vectorIdSaIdEEED2Ev(ptr noundef nonnull align 1 dereferenceable(1) %128) #3
  %846 = getelementptr inbounds [8 x %"class.std::vector.0"], ptr %101, i32 0, i32 0
  %847 = getelementptr inbounds %"class.std::vector.0", ptr %846, i64 8
  br label %848

848:                                              ; preds = %848, %842
  %849 = phi ptr [ %847, %842 ], [ %850, %848 ]
  %850 = getelementptr inbounds %"class.std::vector.0", ptr %849, i64 -1
  call void @_ZNSt6vectorIdSaIdEED2Ev(ptr noundef nonnull align 8 dereferenceable(24) %850) #3
  %851 = icmp eq ptr %850, %846
  br i1 %851, label %852, label %848

852:                                              ; preds = %848
  br label %853

853:                                              ; preds = %852, %838
  call void @_ZNSaIdED2Ev(ptr noundef nonnull align 1 dereferenceable(1) %126) #3
  br label %854

854:                                              ; preds = %853, %834
  call void @_ZNSaIdED2Ev(ptr noundef nonnull align 1 dereferenceable(1) %123) #3
  br label %855

855:                                              ; preds = %854, %830
  call void @_ZNSaIdED2Ev(ptr noundef nonnull align 1 dereferenceable(1) %120) #3
  br label %856

856:                                              ; preds = %855, %826
  call void @_ZNSaIdED2Ev(ptr noundef nonnull align 1 dereferenceable(1) %117) #3
  br label %857

857:                                              ; preds = %856, %822
  call void @_ZNSaIdED2Ev(ptr noundef nonnull align 1 dereferenceable(1) %114) #3
  br label %858

858:                                              ; preds = %857, %818
  call void @_ZNSaIdED2Ev(ptr noundef nonnull align 1 dereferenceable(1) %111) #3
  br label %859

859:                                              ; preds = %858, %814
  call void @_ZNSaIdED2Ev(ptr noundef nonnull align 1 dereferenceable(1) %108) #3
  br label %860

860:                                              ; preds = %859, %810
  call void @_ZNSaIdED2Ev(ptr noundef nonnull align 1 dereferenceable(1) %105) #3
  %861 = load i1, ptr %127, align 1
  br i1 %861, label %862, label %870

862:                                              ; preds = %860
  %863 = load ptr, ptr %102, align 8
  %864 = icmp eq ptr %664, %863
  br i1 %864, label %869, label %865

865:                                              ; preds = %865, %862
  %866 = phi ptr [ %863, %862 ], [ %867, %865 ]
  %867 = getelementptr inbounds %"class.std::vector.0", ptr %866, i64 -1
  call void @_ZNSt6vectorIdSaIdEED2Ev(ptr noundef nonnull align 8 dereferenceable(24) %867) #3
  %868 = icmp eq ptr %867, %664
  br i1 %868, label %869, label %865

869:                                              ; preds = %865, %862
  br label %870

870:                                              ; preds = %869, %860
  br label %932

871:                                              ; preds = %758
  %872 = landingpad { ptr, i32 }
          cleanup
  %873 = extractvalue { ptr, i32 } %872, 0
  store ptr %873, ptr %8, align 8
  %874 = extractvalue { ptr, i32 } %872, 1
  store i32 %874, ptr %9, align 4
  call void @_ZNSaIiED2Ev(ptr noundef nonnull align 1 dereferenceable(1) %132) #3
  br label %931

875:                                              ; preds = %767
  %876 = landingpad { ptr, i32 }
          cleanup
  %877 = extractvalue { ptr, i32 } %876, 0
  store ptr %877, ptr %8, align 8
  %878 = extractvalue { ptr, i32 } %876, 1
  store i32 %878, ptr %9, align 4
  br label %930

879:                                              ; preds = %768
  %880 = landingpad { ptr, i32 }
          cleanup
  %881 = extractvalue { ptr, i32 } %880, 0
  store ptr %881, ptr %8, align 8
  %882 = extractvalue { ptr, i32 } %880, 1
  store i32 %882, ptr %9, align 4
  call void @_ZNSaIdED2Ev(ptr noundef nonnull align 1 dereferenceable(1) %137) #3
  br label %929

883:                                              ; preds = %777
  %884 = landingpad { ptr, i32 }
          cleanup
  %885 = extractvalue { ptr, i32 } %884, 0
  store ptr %885, ptr %8, align 8
  %886 = extractvalue { ptr, i32 } %884, 1
  store i32 %886, ptr %9, align 4
  call void @_ZNSaIdED2Ev(ptr noundef nonnull align 1 dereferenceable(1) %141) #3
  br label %928

887:                                              ; preds = %786
  %888 = landingpad { ptr, i32 }
          cleanup
  %889 = extractvalue { ptr, i32 } %888, 0
  store ptr %889, ptr %8, align 8
  %890 = extractvalue { ptr, i32 } %888, 1
  store i32 %890, ptr %9, align 4
  call void @_ZNSaIdED2Ev(ptr noundef nonnull align 1 dereferenceable(1) %145) #3
  br label %927

891:                                              ; preds = %795
  %892 = landingpad { ptr, i32 }
          cleanup
  %893 = extractvalue { ptr, i32 } %892, 0
  store ptr %893, ptr %8, align 8
  %894 = extractvalue { ptr, i32 } %892, 1
  store i32 %894, ptr %9, align 4
  call void @_ZNSaIdED2Ev(ptr noundef nonnull align 1 dereferenceable(1) %149) #3
  br label %926

895:                                              ; preds = %923, %921, %914, %907, %900, %804
  %896 = landingpad { ptr, i32 }
          cleanup
  %897 = extractvalue { ptr, i32 } %896, 0
  store ptr %897, ptr %8, align 8
  %898 = extractvalue { ptr, i32 } %896, 1
  store i32 %898, ptr %9, align 4
  call void @_ZNSt6vectorIdSaIdEED2Ev(ptr noundef nonnull align 8 dereferenceable(24) %146) #3
  br label %926

899:                                              ; No predecessors!
  br label %900

900:                                              ; preds = %899, %808
  %901 = invoke noundef i32 @_ZN16machine_learning19k_nearest_neighbors3Knn7predictERSt6vectorIdSaIdEEi(ptr noundef nonnull align 8 dereferenceable(48) %133, ptr noundef nonnull align 8 dereferenceable(24) %138, i32 noundef 3)
          to label %902 unwind label %895

902:                                              ; preds = %900
  %903 = icmp eq i32 %901, 1
  br i1 %903, label %904, label %905

904:                                              ; preds = %902
  br label %907

905:                                              ; preds = %902
  call void @__assert_fail(ptr noundef @.str.28, ptr noundef @.str.2, i32 noundef 181, ptr noundef @__PRETTY_FUNCTION__._ZL4testv) #18
  unreachable

906:                                              ; No predecessors!
  br label %907

907:                                              ; preds = %906, %904
  %908 = invoke noundef i32 @_ZN16machine_learning19k_nearest_neighbors3Knn7predictERSt6vectorIdSaIdEEi(ptr noundef nonnull align 8 dereferenceable(48) %133, ptr noundef nonnull align 8 dereferenceable(24) %142, i32 noundef 3)
          to label %909 unwind label %895

909:                                              ; preds = %907
  %910 = icmp eq i32 %908, 2
  br i1 %910, label %911, label %912

911:                                              ; preds = %909
  br label %914

912:                                              ; preds = %909
  call void @__assert_fail(ptr noundef @.str.29, ptr noundef @.str.2, i32 noundef 182, ptr noundef @__PRETTY_FUNCTION__._ZL4testv) #18
  unreachable

913:                                              ; No predecessors!
  br label %914

914:                                              ; preds = %913, %911
  %915 = invoke noundef i32 @_ZN16machine_learning19k_nearest_neighbors3Knn7predictERSt6vectorIdSaIdEEi(ptr noundef nonnull align 8 dereferenceable(48) %133, ptr noundef nonnull align 8 dereferenceable(24) %146, i32 noundef 3)
          to label %916 unwind label %895

916:                                              ; preds = %914
  %917 = icmp eq i32 %915, 2
  br i1 %917, label %918, label %919

918:                                              ; preds = %916
  br label %921

919:                                              ; preds = %916
  call void @__assert_fail(ptr noundef @.str.30, ptr noundef @.str.2, i32 noundef 183, ptr noundef @__PRETTY_FUNCTION__._ZL4testv) #18
  unreachable

920:                                              ; No predecessors!
  br label %921

921:                                              ; preds = %920, %918
  %922 = invoke noundef nonnull align 8 dereferenceable(8) ptr @_ZStlsISt11char_traitsIcEERSt13basic_ostreamIcT_ES5_PKc(ptr noundef nonnull align 8 dereferenceable(8) @_ZSt4cout, ptr noundef @.str.6)
          to label %923 unwind label %895

923:                                              ; preds = %921
  %924 = invoke noundef nonnull align 8 dereferenceable(8) ptr @_ZNSolsEPFRSoS_E(ptr noundef nonnull align 8 dereferenceable(8) %922, ptr noundef @_ZSt4endlIcSt11char_traitsIcEERSt13basic_ostreamIT_T0_ES6_)
          to label %925 unwind label %895

925:                                              ; preds = %923
  call void @_ZNSt6vectorIdSaIdEED2Ev(ptr noundef nonnull align 8 dereferenceable(24) %146) #3
  call void @_ZNSt6vectorIdSaIdEED2Ev(ptr noundef nonnull align 8 dereferenceable(24) %142) #3
  call void @_ZNSt6vectorIdSaIdEED2Ev(ptr noundef nonnull align 8 dereferenceable(24) %138) #3
  call void @_ZNSt6vectorIdSaIdEED2Ev(ptr noundef nonnull align 8 dereferenceable(24) %134) #3
  call void @_ZN16machine_learning19k_nearest_neighbors3KnnD2Ev(ptr noundef nonnull align 8 dereferenceable(48) %133) #3
  call void @_ZNSt6vectorIiSaIiEED2Ev(ptr noundef nonnull align 8 dereferenceable(24) %129) #3
  call void @_ZNSt6vectorIS_IdSaIdEESaIS1_EED2Ev(ptr noundef nonnull align 8 dereferenceable(24) %99) #3
  call void @_ZNSt6vectorIdSaIdEED2Ev(ptr noundef nonnull align 8 dereferenceable(24) %95) #3
  call void @_ZNSt6vectorIdSaIdEED2Ev(ptr noundef nonnull align 8 dereferenceable(24) %91) #3
  call void @_ZNSt6vectorIdSaIdEED2Ev(ptr noundef nonnull align 8 dereferenceable(24) %87) #3
  call void @_ZNSt6vectorIdSaIdEED2Ev(ptr noundef nonnull align 8 dereferenceable(24) %83) #3
  call void @_ZN16machine_learning19k_nearest_neighbors3KnnD2Ev(ptr noundef nonnull align 8 dereferenceable(48) %82) #3
  call void @_ZNSt6vectorIiSaIiEED2Ev(ptr noundef nonnull align 8 dereferenceable(24) %78) #3
  call void @_ZNSt6vectorIS_IdSaIdEESaIS1_EED2Ev(ptr noundef nonnull align 8 dereferenceable(24) %48) #3
  call void @_ZNSt6vectorIdSaIdEED2Ev(ptr noundef nonnull align 8 dereferenceable(24) %44) #3
  call void @_ZNSt6vectorIdSaIdEED2Ev(ptr noundef nonnull align 8 dereferenceable(24) %40) #3
  call void @_ZNSt6vectorIdSaIdEED2Ev(ptr noundef nonnull align 8 dereferenceable(24) %36) #3
  call void @_ZNSt6vectorIdSaIdEED2Ev(ptr noundef nonnull align 8 dereferenceable(24) %32) #3
  call void @_ZN16machine_learning19k_nearest_neighbors3KnnD2Ev(ptr noundef nonnull align 8 dereferenceable(48) %31) #3
  call void @_ZNSt6vectorIiSaIiEED2Ev(ptr noundef nonnull align 8 dereferenceable(24) %27) #3
  call void @_ZNSt6vectorIS_IdSaIdEESaIS1_EED2Ev(ptr noundef nonnull align 8 dereferenceable(24) %1) #3
  ret void

926:                                              ; preds = %895, %891
  call void @_ZNSt6vectorIdSaIdEED2Ev(ptr noundef nonnull align 8 dereferenceable(24) %142) #3
  br label %927

927:                                              ; preds = %926, %887
  call void @_ZNSt6vectorIdSaIdEED2Ev(ptr noundef nonnull align 8 dereferenceable(24) %138) #3
  br label %928

928:                                              ; preds = %927, %883
  call void @_ZNSt6vectorIdSaIdEED2Ev(ptr noundef nonnull align 8 dereferenceable(24) %134) #3
  br label %929

929:                                              ; preds = %928, %879
  call void @_ZN16machine_learning19k_nearest_neighbors3KnnD2Ev(ptr noundef nonnull align 8 dereferenceable(48) %133) #3
  br label %930

930:                                              ; preds = %929, %875
  call void @_ZNSt6vectorIiSaIiEED2Ev(ptr noundef nonnull align 8 dereferenceable(24) %129) #3
  br label %931

931:                                              ; preds = %930, %871
  call void @_ZNSt6vectorIS_IdSaIdEESaIS1_EED2Ev(ptr noundef nonnull align 8 dereferenceable(24) %99) #3
  br label %932

932:                                              ; preds = %931, %870, %629
  call void @_ZNSt6vectorIdSaIdEED2Ev(ptr noundef nonnull align 8 dereferenceable(24) %95) #3
  br label %933

933:                                              ; preds = %932, %625
  call void @_ZNSt6vectorIdSaIdEED2Ev(ptr noundef nonnull align 8 dereferenceable(24) %91) #3
  br label %934

934:                                              ; preds = %933, %621
  call void @_ZNSt6vectorIdSaIdEED2Ev(ptr noundef nonnull align 8 dereferenceable(24) %87) #3
  br label %935

935:                                              ; preds = %934, %617
  call void @_ZNSt6vectorIdSaIdEED2Ev(ptr noundef nonnull align 8 dereferenceable(24) %83) #3
  br label %936

936:                                              ; preds = %935, %613
  call void @_ZN16machine_learning19k_nearest_neighbors3KnnD2Ev(ptr noundef nonnull align 8 dereferenceable(48) %82) #3
  br label %937

937:                                              ; preds = %936, %609
  call void @_ZNSt6vectorIiSaIiEED2Ev(ptr noundef nonnull align 8 dereferenceable(24) %78) #3
  br label %938

938:                                              ; preds = %937, %605
  call void @_ZNSt6vectorIS_IdSaIdEESaIS1_EED2Ev(ptr noundef nonnull align 8 dereferenceable(24) %48) #3
  br label %939

939:                                              ; preds = %938, %604, %363
  call void @_ZNSt6vectorIdSaIdEED2Ev(ptr noundef nonnull align 8 dereferenceable(24) %44) #3
  br label %940

940:                                              ; preds = %939, %359
  call void @_ZNSt6vectorIdSaIdEED2Ev(ptr noundef nonnull align 8 dereferenceable(24) %40) #3
  br label %941

941:                                              ; preds = %940, %355
  call void @_ZNSt6vectorIdSaIdEED2Ev(ptr noundef nonnull align 8 dereferenceable(24) %36) #3
  br label %942

942:                                              ; preds = %941, %351
  call void @_ZNSt6vectorIdSaIdEED2Ev(ptr noundef nonnull align 8 dereferenceable(24) %32) #3
  br label %943

943:                                              ; preds = %942, %347
  call void @_ZN16machine_learning19k_nearest_neighbors3KnnD2Ev(ptr noundef nonnull align 8 dereferenceable(48) %31) #3
  br label %944

944:                                              ; preds = %943, %343
  call void @_ZNSt6vectorIiSaIiEED2Ev(ptr noundef nonnull align 8 dereferenceable(24) %27) #3
  br label %945

945:                                              ; preds = %944, %339
  call void @_ZNSt6vectorIS_IdSaIdEESaIS1_EED2Ev(ptr noundef nonnull align 8 dereferenceable(24) %1) #3
  br label %946

946:                                              ; preds = %945, %338
  %947 = load ptr, ptr %8, align 8
  %948 = load i32, ptr %9, align 4
  %949 = insertvalue { ptr, i32 } undef, ptr %947, 0
  %950 = insertvalue { ptr, i32 } %949, i32 %948, 1
  resume { ptr, i32 } %950
}

declare noundef nonnull align 8 dereferenceable(8) ptr @_ZStlsISt11char_traitsIcEERSt13basic_ostreamIcT_ES5_PKc(ptr noundef nonnull align 8 dereferenceable(8), ptr noundef) #1

declare noundef nonnull align 8 dereferenceable(8) ptr @_ZNSolsEPFRSoS_E(ptr noundef nonnull align 8 dereferenceable(8), ptr noundef) #1

declare noundef nonnull align 8 dereferenceable(8) ptr @_ZSt4endlIcSt11char_traitsIcEERSt13basic_ostreamIT_T0_ES6_(ptr noundef nonnull align 8 dereferenceable(8)) #1

; Function Attrs: noinline nounwind optnone uwtable
define linkonce_odr dso_local void @_ZNSaIdEC2Ev(ptr noundef nonnull align 1 dereferenceable(1) %0) unnamed_addr #6 comdat align 2 {
  %2 = alloca ptr, align 8
  store ptr %0, ptr %2, align 8
  %3 = load ptr, ptr %2, align 8
  call void @_ZNSt15__new_allocatorIdEC2Ev(ptr noundef nonnull align 1 dereferenceable(1) %3) #3
  ret void
}

; Function Attrs: noinline optnone uwtable
define linkonce_odr dso_local void @_ZNSt6vectorIdSaIdEEC2ESt16initializer_listIdERKS0_(ptr noundef nonnull align 8 dereferenceable(24) %0, ptr %1, i64 %2, ptr noundef nonnull align 1 dereferenceable(1) %3) unnamed_addr #7 comdat align 2 personality ptr @__gxx_personality_v0 {
  %5 = alloca %"class.std::initializer_list.5", align 8
  %6 = alloca ptr, align 8
  %7 = alloca ptr, align 8
  %8 = alloca %"struct.std::forward_iterator_tag", align 1
  %9 = alloca %"struct.std::random_access_iterator_tag", align 1
  %10 = alloca ptr, align 8
  %11 = alloca i32, align 4
  %12 = getelementptr inbounds { ptr, i64 }, ptr %5, i32 0, i32 0
  store ptr %1, ptr %12, align 8
  %13 = getelementptr inbounds { ptr, i64 }, ptr %5, i32 0, i32 1
  store i64 %2, ptr %13, align 8
  store ptr %0, ptr %6, align 8
  store ptr %3, ptr %7, align 8
  %14 = load ptr, ptr %6, align 8
  %15 = load ptr, ptr %7, align 8
  call void @_ZNSt12_Vector_baseIdSaIdEEC2ERKS0_(ptr noundef nonnull align 8 dereferenceable(24) %14, ptr noundef nonnull align 1 dereferenceable(1) %15) #3
  %16 = call noundef ptr @_ZNKSt16initializer_listIdE5beginEv(ptr noundef nonnull align 8 dereferenceable(16) %5) #3
  %17 = call noundef ptr @_ZNKSt16initializer_listIdE3endEv(ptr noundef nonnull align 8 dereferenceable(16) %5) #3
  invoke void @_ZNSt6vectorIdSaIdEE19_M_range_initializeIPKdEEvT_S5_St20forward_iterator_tag(ptr noundef nonnull align 8 dereferenceable(24) %14, ptr noundef %16, ptr noundef %17)
          to label %18 unwind label %19

18:                                               ; preds = %4
  ret void

19:                                               ; preds = %4
  %20 = landingpad { ptr, i32 }
          cleanup
  %21 = extractvalue { ptr, i32 } %20, 0
  store ptr %21, ptr %10, align 8
  %22 = extractvalue { ptr, i32 } %20, 1
  store i32 %22, ptr %11, align 4
  call void @_ZNSt12_Vector_baseIdSaIdEED2Ev(ptr noundef nonnull align 8 dereferenceable(24) %14) #3
  br label %23

23:                                               ; preds = %19
  %24 = load ptr, ptr %10, align 8
  %25 = load i32, ptr %11, align 4
  %26 = insertvalue { ptr, i32 } undef, ptr %24, 0
  %27 = insertvalue { ptr, i32 } %26, i32 %25, 1
  resume { ptr, i32 } %27
}

declare i32 @__gxx_personality_v0(...)

; Function Attrs: noinline nounwind optnone uwtable
define linkonce_odr dso_local void @_ZNSaISt6vectorIdSaIdEEEC2Ev(ptr noundef nonnull align 1 dereferenceable(1) %0) unnamed_addr #6 comdat align 2 {
  %2 = alloca ptr, align 8
  store ptr %0, ptr %2, align 8
  %3 = load ptr, ptr %2, align 8
  call void @_ZNSt15__new_allocatorISt6vectorIdSaIdEEEC2Ev(ptr noundef nonnull align 1 dereferenceable(1) %3) #3
  ret void
}

; Function Attrs: noinline optnone uwtable
define linkonce_odr dso_local void @_ZNSt6vectorIS_IdSaIdEESaIS1_EEC2ESt16initializer_listIS1_ERKS2_(ptr noundef nonnull align 8 dereferenceable(24) %0, ptr %1, i64 %2, ptr noundef nonnull align 1 dereferenceable(1) %3) unnamed_addr #7 comdat align 2 personality ptr @__gxx_personality_v0 {
  %5 = alloca %"class.std::initializer_list", align 8
  %6 = alloca ptr, align 8
  %7 = alloca ptr, align 8
  %8 = alloca %"struct.std::forward_iterator_tag", align 1
  %9 = alloca %"struct.std::random_access_iterator_tag", align 1
  %10 = alloca ptr, align 8
  %11 = alloca i32, align 4
  %12 = getelementptr inbounds { ptr, i64 }, ptr %5, i32 0, i32 0
  store ptr %1, ptr %12, align 8
  %13 = getelementptr inbounds { ptr, i64 }, ptr %5, i32 0, i32 1
  store i64 %2, ptr %13, align 8
  store ptr %0, ptr %6, align 8
  store ptr %3, ptr %7, align 8
  %14 = load ptr, ptr %6, align 8
  %15 = load ptr, ptr %7, align 8
  call void @_ZNSt12_Vector_baseISt6vectorIdSaIdEESaIS2_EEC2ERKS3_(ptr noundef nonnull align 8 dereferenceable(24) %14, ptr noundef nonnull align 1 dereferenceable(1) %15) #3
  %16 = call noundef ptr @_ZNKSt16initializer_listISt6vectorIdSaIdEEE5beginEv(ptr noundef nonnull align 8 dereferenceable(16) %5) #3
  %17 = call noundef ptr @_ZNKSt16initializer_listISt6vectorIdSaIdEEE3endEv(ptr noundef nonnull align 8 dereferenceable(16) %5) #3
  invoke void @_ZNSt6vectorIS_IdSaIdEESaIS1_EE19_M_range_initializeIPKS1_EEvT_S7_St20forward_iterator_tag(ptr noundef nonnull align 8 dereferenceable(24) %14, ptr noundef %16, ptr noundef %17)
          to label %18 unwind label %19

18:                                               ; preds = %4
  ret void

19:                                               ; preds = %4
  %20 = landingpad { ptr, i32 }
          cleanup
  %21 = extractvalue { ptr, i32 } %20, 0
  store ptr %21, ptr %10, align 8
  %22 = extractvalue { ptr, i32 } %20, 1
  store i32 %22, ptr %11, align 4
  call void @_ZNSt12_Vector_baseISt6vectorIdSaIdEESaIS2_EED2Ev(ptr noundef nonnull align 8 dereferenceable(24) %14) #3
  br label %23

23:                                               ; preds = %19
  %24 = load ptr, ptr %10, align 8
  %25 = load i32, ptr %11, align 4
  %26 = insertvalue { ptr, i32 } undef, ptr %24, 0
  %27 = insertvalue { ptr, i32 } %26, i32 %25, 1
  resume { ptr, i32 } %27
}

; Function Attrs: noinline nounwind optnone uwtable
define linkonce_odr dso_local void @_ZNSaISt6vectorIdSaIdEEED2Ev(ptr noundef nonnull align 1 dereferenceable(1) %0) unnamed_addr #6 comdat align 2 {
  %2 = alloca ptr, align 8
  store ptr %0, ptr %2, align 8
  %3 = load ptr, ptr %2, align 8
  call void @_ZNSt15__new_allocatorISt6vectorIdSaIdEEED2Ev(ptr noundef nonnull align 1 dereferenceable(1) %3) #3
  ret void
}

; Function Attrs: noinline nounwind optnone uwtable
define linkonce_odr dso_local void @_ZNSt6vectorIdSaIdEED2Ev(ptr noundef nonnull align 8 dereferenceable(24) %0) unnamed_addr #6 comdat align 2 personality ptr @__gxx_personality_v0 {
  %2 = alloca ptr, align 8
  store ptr %0, ptr %2, align 8
  %3 = load ptr, ptr %2, align 8
  %4 = getelementptr inbounds %"struct.std::_Vector_base.1", ptr %3, i32 0, i32 0
  %5 = getelementptr inbounds %"struct.std::_Vector_base<double, std::allocator<double>>::_Vector_impl_data", ptr %4, i32 0, i32 0
  %6 = load ptr, ptr %5, align 8
  %7 = getelementptr inbounds %"struct.std::_Vector_base.1", ptr %3, i32 0, i32 0
  %8 = getelementptr inbounds %"struct.std::_Vector_base<double, std::allocator<double>>::_Vector_impl_data", ptr %7, i32 0, i32 1
  %9 = load ptr, ptr %8, align 8
  %10 = call noundef nonnull align 1 dereferenceable(1) ptr @_ZNSt12_Vector_baseIdSaIdEE19_M_get_Tp_allocatorEv(ptr noundef nonnull align 8 dereferenceable(24) %3) #3
  invoke void @_ZSt8_DestroyIPddEvT_S1_RSaIT0_E(ptr noundef %6, ptr noundef %9, ptr noundef nonnull align 1 dereferenceable(1) %10)
          to label %11 unwind label %12

11:                                               ; preds = %1
  call void @_ZNSt12_Vector_baseIdSaIdEED2Ev(ptr noundef nonnull align 8 dereferenceable(24) %3) #3
  ret void

12:                                               ; preds = %1
  %13 = landingpad { ptr, i32 }
          catch ptr null
  %14 = extractvalue { ptr, i32 } %13, 0
  call void @__clang_call_terminate(ptr %14) #18
  unreachable
}

; Function Attrs: noinline nounwind optnone uwtable
define linkonce_odr dso_local void @_ZNSaIdED2Ev(ptr noundef nonnull align 1 dereferenceable(1) %0) unnamed_addr #6 comdat align 2 {
  %2 = alloca ptr, align 8
  store ptr %0, ptr %2, align 8
  %3 = load ptr, ptr %2, align 8
  call void @_ZNSt15__new_allocatorIdED2Ev(ptr noundef nonnull align 1 dereferenceable(1) %3) #3
  ret void
}

; Function Attrs: argmemonly nocallback nofree nounwind willreturn
declare void @llvm.memcpy.p0.p0.i64(ptr noalias nocapture writeonly, ptr noalias nocapture readonly, i64, i1 immarg) #8

; Function Attrs: noinline nounwind optnone uwtable
define linkonce_odr dso_local void @_ZNSaIiEC2Ev(ptr noundef nonnull align 1 dereferenceable(1) %0) unnamed_addr #6 comdat align 2 {
  %2 = alloca ptr, align 8
  store ptr %0, ptr %2, align 8
  %3 = load ptr, ptr %2, align 8
  call void @_ZNSt15__new_allocatorIiEC2Ev(ptr noundef nonnull align 1 dereferenceable(1) %3) #3
  ret void
}

; Function Attrs: noinline optnone uwtable
define linkonce_odr dso_local void @_ZNSt6vectorIiSaIiEEC2ESt16initializer_listIiERKS0_(ptr noundef nonnull align 8 dereferenceable(24) %0, ptr %1, i64 %2, ptr noundef nonnull align 1 dereferenceable(1) %3) unnamed_addr #7 comdat align 2 personality ptr @__gxx_personality_v0 {
  %5 = alloca %"class.std::initializer_list.11", align 8
  %6 = alloca ptr, align 8
  %7 = alloca ptr, align 8
  %8 = alloca %"struct.std::forward_iterator_tag", align 1
  %9 = alloca %"struct.std::random_access_iterator_tag", align 1
  %10 = alloca ptr, align 8
  %11 = alloca i32, align 4
  %12 = getelementptr inbounds { ptr, i64 }, ptr %5, i32 0, i32 0
  store ptr %1, ptr %12, align 8
  %13 = getelementptr inbounds { ptr, i64 }, ptr %5, i32 0, i32 1
  store i64 %2, ptr %13, align 8
  store ptr %0, ptr %6, align 8
  store ptr %3, ptr %7, align 8
  %14 = load ptr, ptr %6, align 8
  %15 = load ptr, ptr %7, align 8
  call void @_ZNSt12_Vector_baseIiSaIiEEC2ERKS0_(ptr noundef nonnull align 8 dereferenceable(24) %14, ptr noundef nonnull align 1 dereferenceable(1) %15) #3
  %16 = call noundef ptr @_ZNKSt16initializer_listIiE5beginEv(ptr noundef nonnull align 8 dereferenceable(16) %5) #3
  %17 = call noundef ptr @_ZNKSt16initializer_listIiE3endEv(ptr noundef nonnull align 8 dereferenceable(16) %5) #3
  invoke void @_ZNSt6vectorIiSaIiEE19_M_range_initializeIPKiEEvT_S5_St20forward_iterator_tag(ptr noundef nonnull align 8 dereferenceable(24) %14, ptr noundef %16, ptr noundef %17)
          to label %18 unwind label %19

18:                                               ; preds = %4
  ret void

19:                                               ; preds = %4
  %20 = landingpad { ptr, i32 }
          cleanup
  %21 = extractvalue { ptr, i32 } %20, 0
  store ptr %21, ptr %10, align 8
  %22 = extractvalue { ptr, i32 } %20, 1
  store i32 %22, ptr %11, align 4
  call void @_ZNSt12_Vector_baseIiSaIiEED2Ev(ptr noundef nonnull align 8 dereferenceable(24) %14) #3
  br label %23

23:                                               ; preds = %19
  %24 = load ptr, ptr %10, align 8
  %25 = load i32, ptr %11, align 4
  %26 = insertvalue { ptr, i32 } undef, ptr %24, 0
  %27 = insertvalue { ptr, i32 } %26, i32 %25, 1
  resume { ptr, i32 } %27
}

; Function Attrs: noinline nounwind optnone uwtable
define linkonce_odr dso_local void @_ZNSaIiED2Ev(ptr noundef nonnull align 1 dereferenceable(1) %0) unnamed_addr #6 comdat align 2 {
  %2 = alloca ptr, align 8
  store ptr %0, ptr %2, align 8
  %3 = load ptr, ptr %2, align 8
  call void @_ZNSt15__new_allocatorIiED2Ev(ptr noundef nonnull align 1 dereferenceable(1) %3) #3
  ret void
}

; Function Attrs: noinline optnone uwtable
define linkonce_odr dso_local void @_ZN16machine_learning19k_nearest_neighbors3KnnC2ERSt6vectorIS2_IdSaIdEESaIS4_EERS2_IiSaIiEE(ptr noundef nonnull align 8 dereferenceable(48) %0, ptr noundef nonnull align 8 dereferenceable(24) %1, ptr noundef nonnull align 8 dereferenceable(24) %2) unnamed_addr #7 comdat align 2 personality ptr @__gxx_personality_v0 {
  %4 = alloca ptr, align 8
  %5 = alloca ptr, align 8
  %6 = alloca ptr, align 8
  %7 = alloca ptr, align 8
  %8 = alloca i32, align 4
  store ptr %0, ptr %4, align 8
  store ptr %1, ptr %5, align 8
  store ptr %2, ptr %6, align 8
  %9 = load ptr, ptr %4, align 8
  %10 = getelementptr inbounds %"class.machine_learning::k_nearest_neighbors::Knn", ptr %9, i32 0, i32 0
  %11 = load ptr, ptr %5, align 8
  call void @_ZNSt6vectorIS_IdSaIdEESaIS1_EEC2ERKS3_(ptr noundef nonnull align 8 dereferenceable(24) %10, ptr noundef nonnull align 8 dereferenceable(24) %11)
  %12 = getelementptr inbounds %"class.machine_learning::k_nearest_neighbors::Knn", ptr %9, i32 0, i32 1
  %13 = load ptr, ptr %6, align 8
  invoke void @_ZNSt6vectorIiSaIiEEC2ERKS1_(ptr noundef nonnull align 8 dereferenceable(24) %12, ptr noundef nonnull align 8 dereferenceable(24) %13)
          to label %14 unwind label %15

14:                                               ; preds = %3
  ret void

15:                                               ; preds = %3
  %16 = landingpad { ptr, i32 }
          cleanup
  %17 = extractvalue { ptr, i32 } %16, 0
  store ptr %17, ptr %7, align 8
  %18 = extractvalue { ptr, i32 } %16, 1
  store i32 %18, ptr %8, align 4
  call void @_ZNSt6vectorIS_IdSaIdEESaIS1_EED2Ev(ptr noundef nonnull align 8 dereferenceable(24) %10) #3
  br label %19

19:                                               ; preds = %15
  %20 = load ptr, ptr %7, align 8
  %21 = load i32, ptr %8, align 4
  %22 = insertvalue { ptr, i32 } undef, ptr %20, 0
  %23 = insertvalue { ptr, i32 } %22, i32 %21, 1
  resume { ptr, i32 } %23
}

; Function Attrs: mustprogress noinline optnone uwtable
define linkonce_odr dso_local noundef i32 @_ZN16machine_learning19k_nearest_neighbors3Knn7predictERSt6vectorIdSaIdEEi(ptr noundef nonnull align 8 dereferenceable(48) %0, ptr noundef nonnull align 8 dereferenceable(24) %1, i32 noundef %2) #5 comdat align 2 personality ptr @__gxx_personality_v0 {
  %4 = alloca ptr, align 8
  %5 = alloca ptr, align 8
  %6 = alloca i32, align 4
  %7 = alloca %"class.std::vector.6", align 8
  %8 = alloca %"class.std::vector.14", align 8
  %9 = alloca i64, align 8
  %10 = alloca %"class.std::vector.0", align 8
  %11 = alloca ptr, align 8
  %12 = alloca i32, align 4
  %13 = alloca i32, align 4
  %14 = alloca double, align 8
  %15 = alloca %"class.__gnu_cxx::__normal_iterator.19", align 8
  %16 = alloca %"class.__gnu_cxx::__normal_iterator.19", align 8
  %17 = alloca i32, align 4
  %18 = alloca i32, align 4
  %19 = alloca %"class.std::unordered_map", align 8
  %20 = alloca ptr, align 8
  %21 = alloca %"class.__gnu_cxx::__normal_iterator.25", align 8
  %22 = alloca %"class.__gnu_cxx::__normal_iterator.25", align 8
  %23 = alloca i32, align 4
  %24 = alloca %"struct.std::pair.26", align 4
  %25 = alloca ptr, align 8
  %26 = alloca %"struct.std::__detail::_Node_iterator", align 8
  %27 = alloca %"struct.std::__detail::_Node_iterator", align 8
  %28 = alloca ptr, align 8
  store ptr %0, ptr %4, align 8
  store ptr %1, ptr %5, align 8
  store i32 %2, ptr %6, align 4
  %29 = load ptr, ptr %4, align 8
  call void @_ZNSt6vectorIiSaIiEEC2Ev(ptr noundef nonnull align 8 dereferenceable(24) %7) #3
  call void @_ZNSt6vectorISt4pairIdiESaIS1_EEC2Ev(ptr noundef nonnull align 8 dereferenceable(24) %8) #3
  store i64 0, ptr %9, align 8
  br label %30

30:                                               ; preds = %50, %3
  %31 = load i64, ptr %9, align 8
  %32 = getelementptr inbounds %"class.machine_learning::k_nearest_neighbors::Knn", ptr %29, i32 0, i32 0
  %33 = call noundef i64 @_ZNKSt6vectorIS_IdSaIdEESaIS1_EE4sizeEv(ptr noundef nonnull align 8 dereferenceable(24) %32) #3
  %34 = icmp ult i64 %31, %33
  br i1 %34, label %35, label %61

35:                                               ; preds = %30
  %36 = getelementptr inbounds %"class.machine_learning::k_nearest_neighbors::Knn", ptr %29, i32 0, i32 0
  %37 = load i64, ptr %9, align 8
  %38 = invoke noundef nonnull align 8 dereferenceable(24) ptr @_ZNSt6vectorIS_IdSaIdEESaIS1_EE2atEm(ptr noundef nonnull align 8 dereferenceable(24) %36, i64 noundef %37)
          to label %39 unwind label %53

39:                                               ; preds = %35
  invoke void @_ZNSt6vectorIdSaIdEEC2ERKS1_(ptr noundef nonnull align 8 dereferenceable(24) %10, ptr noundef nonnull align 8 dereferenceable(24) %38)
          to label %40 unwind label %53

40:                                               ; preds = %39
  %41 = getelementptr inbounds %"class.machine_learning::k_nearest_neighbors::Knn", ptr %29, i32 0, i32 1
  %42 = load i64, ptr %9, align 8
  %43 = invoke noundef nonnull align 4 dereferenceable(4) ptr @_ZNSt6vectorIiSaIiEE2atEm(ptr noundef nonnull align 8 dereferenceable(24) %41, i64 noundef %42)
          to label %44 unwind label %57

44:                                               ; preds = %40
  %45 = load i32, ptr %43, align 4
  store i32 %45, ptr %13, align 4
  %46 = load ptr, ptr %5, align 8
  %47 = invoke noundef double @_ZN16machine_learning19k_nearest_neighbors18euclidean_distanceIdEEdRKSt6vectorIT_SaIS3_EES7_(ptr noundef nonnull align 8 dereferenceable(24) %10, ptr noundef nonnull align 8 dereferenceable(24) %46)
          to label %48 unwind label %57

48:                                               ; preds = %44
  store double %47, ptr %14, align 8
  invoke void @_ZNSt6vectorISt4pairIdiESaIS1_EE12emplace_backIJRdRiEEEvDpOT_(ptr noundef nonnull align 8 dereferenceable(24) %8, ptr noundef nonnull align 8 dereferenceable(8) %14, ptr noundef nonnull align 4 dereferenceable(4) %13)
          to label %49 unwind label %57

49:                                               ; preds = %48
  call void @_ZNSt6vectorIdSaIdEED2Ev(ptr noundef nonnull align 8 dereferenceable(24) %10) #3
  br label %50

50:                                               ; preds = %49
  %51 = load i64, ptr %9, align 8
  %52 = add i64 %51, 1
  store i64 %52, ptr %9, align 8
  br label %30, !llvm.loop !6

53:                                               ; preds = %79, %75, %61, %39, %35
  %54 = landingpad { ptr, i32 }
          cleanup
  %55 = extractvalue { ptr, i32 } %54, 0
  store ptr %55, ptr %11, align 8
  %56 = extractvalue { ptr, i32 } %54, 1
  store i32 %56, ptr %12, align 4
  br label %145

57:                                               ; preds = %48, %44, %40
  %58 = landingpad { ptr, i32 }
          cleanup
  %59 = extractvalue { ptr, i32 } %58, 0
  store ptr %59, ptr %11, align 8
  %60 = extractvalue { ptr, i32 } %58, 1
  store i32 %60, ptr %12, align 4
  call void @_ZNSt6vectorIdSaIdEED2Ev(ptr noundef nonnull align 8 dereferenceable(24) %10) #3
  br label %145

61:                                               ; preds = %30
  %62 = call ptr @_ZNSt6vectorISt4pairIdiESaIS1_EE5beginEv(ptr noundef nonnull align 8 dereferenceable(24) %8) #3
  %63 = getelementptr inbounds %"class.__gnu_cxx::__normal_iterator.19", ptr %15, i32 0, i32 0
  store ptr %62, ptr %63, align 8
  %64 = call ptr @_ZNSt6vectorISt4pairIdiESaIS1_EE3endEv(ptr noundef nonnull align 8 dereferenceable(24) %8) #3
  %65 = getelementptr inbounds %"class.__gnu_cxx::__normal_iterator.19", ptr %16, i32 0, i32 0
  store ptr %64, ptr %65, align 8
  %66 = getelementptr inbounds %"class.__gnu_cxx::__normal_iterator.19", ptr %15, i32 0, i32 0
  %67 = load ptr, ptr %66, align 8
  %68 = getelementptr inbounds %"class.__gnu_cxx::__normal_iterator.19", ptr %16, i32 0, i32 0
  %69 = load ptr, ptr %68, align 8
  invoke void @_ZSt4sortIN9__gnu_cxx17__normal_iteratorIPSt4pairIdiESt6vectorIS3_SaIS3_EEEEEvT_S9_(ptr %67, ptr %69)
          to label %70 unwind label %53

70:                                               ; preds = %61
  store i32 0, ptr %17, align 4
  br label %71

71:                                               ; preds = %83, %70
  %72 = load i32, ptr %17, align 4
  %73 = load i32, ptr %6, align 4
  %74 = icmp slt i32 %72, %73
  br i1 %74, label %75, label %86

75:                                               ; preds = %71
  %76 = load i32, ptr %17, align 4
  %77 = sext i32 %76 to i64
  %78 = invoke noundef nonnull align 8 dereferenceable(12) ptr @_ZNSt6vectorISt4pairIdiESaIS1_EE2atEm(ptr noundef nonnull align 8 dereferenceable(24) %8, i64 noundef %77)
          to label %79 unwind label %53

79:                                               ; preds = %75
  %80 = getelementptr inbounds %"struct.std::pair", ptr %78, i32 0, i32 1
  %81 = load i32, ptr %80, align 8
  store i32 %81, ptr %18, align 4
  invoke void @_ZNSt6vectorIiSaIiEE9push_backERKi(ptr noundef nonnull align 8 dereferenceable(24) %7, ptr noundef nonnull align 4 dereferenceable(4) %18)
          to label %82 unwind label %53

82:                                               ; preds = %79
  br label %83

83:                                               ; preds = %82
  %84 = load i32, ptr %17, align 4
  %85 = add nsw i32 %84, 1
  store i32 %85, ptr %17, align 4
  br label %71, !llvm.loop !8

86:                                               ; preds = %71
  call void @_ZNSt13unordered_mapIiiSt4hashIiESt8equal_toIiESaISt4pairIKiiEEEC2Ev(ptr noundef nonnull align 8 dereferenceable(56) %19) #3
  store ptr %7, ptr %20, align 8
  %87 = load ptr, ptr %20, align 8
  %88 = call ptr @_ZNSt6vectorIiSaIiEE5beginEv(ptr noundef nonnull align 8 dereferenceable(24) %87) #3
  %89 = getelementptr inbounds %"class.__gnu_cxx::__normal_iterator.25", ptr %21, i32 0, i32 0
  store ptr %88, ptr %89, align 8
  %90 = load ptr, ptr %20, align 8
  %91 = call ptr @_ZNSt6vectorIiSaIiEE3endEv(ptr noundef nonnull align 8 dereferenceable(24) %90) #3
  %92 = getelementptr inbounds %"class.__gnu_cxx::__normal_iterator.25", ptr %22, i32 0, i32 0
  store ptr %91, ptr %92, align 8
  br label %93

93:                                               ; preds = %102, %86
  %94 = call noundef zeroext i1 @_ZN9__gnu_cxxneIPiSt6vectorIiSaIiEEEEbRKNS_17__normal_iteratorIT_T0_EESA_(ptr noundef nonnull align 8 dereferenceable(8) %21, ptr noundef nonnull align 8 dereferenceable(8) %22) #3
  br i1 %94, label %95, label %108

95:                                               ; preds = %93
  %96 = call noundef nonnull align 4 dereferenceable(4) ptr @_ZNK9__gnu_cxx17__normal_iteratorIPiSt6vectorIiSaIiEEEdeEv(ptr noundef nonnull align 8 dereferenceable(8) %21) #3
  %97 = load i32, ptr %96, align 4
  store i32 %97, ptr %23, align 4
  %98 = invoke noundef nonnull align 4 dereferenceable(4) ptr @_ZNSt13unordered_mapIiiSt4hashIiESt8equal_toIiESaISt4pairIKiiEEEixERS5_(ptr noundef nonnull align 8 dereferenceable(56) %19, ptr noundef nonnull align 4 dereferenceable(4) %23)
          to label %99 unwind label %104

99:                                               ; preds = %95
  %100 = load i32, ptr %98, align 4
  %101 = add nsw i32 %100, 1
  store i32 %101, ptr %98, align 4
  br label %102

102:                                              ; preds = %99
  %103 = call noundef nonnull align 8 dereferenceable(8) ptr @_ZN9__gnu_cxx17__normal_iteratorIPiSt6vectorIiSaIiEEEppEv(ptr noundef nonnull align 8 dereferenceable(8) %21) #3
  br label %93

104:                                              ; preds = %108, %95
  %105 = landingpad { ptr, i32 }
          cleanup
  %106 = extractvalue { ptr, i32 } %105, 0
  store ptr %106, ptr %11, align 8
  %107 = extractvalue { ptr, i32 } %105, 1
  store i32 %107, ptr %12, align 4
  call void @_ZNSt13unordered_mapIiiSt4hashIiESt8equal_toIiESaISt4pairIKiiEEED2Ev(ptr noundef nonnull align 8 dereferenceable(56) %19) #3
  br label %145

108:                                              ; preds = %93
  invoke void @_ZNSt4pairIiiEC2IiiLb1EEEv(ptr noundef nonnull align 4 dereferenceable(8) %24)
          to label %109 unwind label %104

109:                                              ; preds = %108
  %110 = getelementptr inbounds %"struct.std::pair.26", ptr %24, i32 0, i32 0
  store i32 -1, ptr %110, align 4
  %111 = getelementptr inbounds %"struct.std::pair.26", ptr %24, i32 0, i32 1
  store i32 -1, ptr %111, align 4
  store ptr %19, ptr %25, align 8
  %112 = load ptr, ptr %25, align 8
  %113 = call ptr @_ZNSt13unordered_mapIiiSt4hashIiESt8equal_toIiESaISt4pairIKiiEEE5beginEv(ptr noundef nonnull align 8 dereferenceable(56) %112) #3
  %114 = getelementptr inbounds %"struct.std::__detail::_Node_iterator", ptr %26, i32 0, i32 0
  %115 = getelementptr inbounds %"struct.std::__detail::_Node_iterator_base", ptr %114, i32 0, i32 0
  store ptr %113, ptr %115, align 8
  %116 = load ptr, ptr %25, align 8
  %117 = call ptr @_ZNSt13unordered_mapIiiSt4hashIiESt8equal_toIiESaISt4pairIKiiEEE3endEv(ptr noundef nonnull align 8 dereferenceable(56) %116) #3
  %118 = getelementptr inbounds %"struct.std::__detail::_Node_iterator", ptr %27, i32 0, i32 0
  %119 = getelementptr inbounds %"struct.std::__detail::_Node_iterator_base", ptr %118, i32 0, i32 0
  store ptr %117, ptr %119, align 8
  br label %120

120:                                              ; preds = %140, %109
  %121 = call noundef zeroext i1 @_ZNSt8__detailneERKNS_19_Node_iterator_baseISt4pairIKiiELb0EEES6_(ptr noundef nonnull align 8 dereferenceable(8) %26, ptr noundef nonnull align 8 dereferenceable(8) %27) #3
  br i1 %121, label %122, label %142

122:                                              ; preds = %120
  %123 = call noundef nonnull align 4 dereferenceable(8) ptr @_ZNKSt8__detail14_Node_iteratorISt4pairIKiiELb0ELb0EEdeEv(ptr noundef nonnull align 8 dereferenceable(8) %26) #3
  store ptr %123, ptr %28, align 8
  %124 = load ptr, ptr %28, align 8
  %125 = getelementptr inbounds %"struct.std::pair.29", ptr %124, i32 0, i32 1
  %126 = load i32, ptr %125, align 4
  %127 = getelementptr inbounds %"struct.std::pair.26", ptr %24, i32 0, i32 1
  %128 = load i32, ptr %127, align 4
  %129 = icmp sgt i32 %126, %128
  br i1 %129, label %130, label %139

130:                                              ; preds = %122
  %131 = load ptr, ptr %28, align 8
  %132 = getelementptr inbounds %"struct.std::pair.29", ptr %131, i32 0, i32 1
  %133 = load i32, ptr %132, align 4
  %134 = getelementptr inbounds %"struct.std::pair.26", ptr %24, i32 0, i32 1
  store i32 %133, ptr %134, align 4
  %135 = load ptr, ptr %28, align 8
  %136 = getelementptr inbounds %"struct.std::pair.29", ptr %135, i32 0, i32 0
  %137 = load i32, ptr %136, align 4
  %138 = getelementptr inbounds %"struct.std::pair.26", ptr %24, i32 0, i32 0
  store i32 %137, ptr %138, align 4
  br label %139

139:                                              ; preds = %130, %122
  br label %140

140:                                              ; preds = %139
  %141 = call noundef nonnull align 8 dereferenceable(8) ptr @_ZNSt8__detail14_Node_iteratorISt4pairIKiiELb0ELb0EEppEv(ptr noundef nonnull align 8 dereferenceable(8) %26) #3
  br label %120

142:                                              ; preds = %120
  %143 = getelementptr inbounds %"struct.std::pair.26", ptr %24, i32 0, i32 0
  %144 = load i32, ptr %143, align 4
  call void @_ZNSt13unordered_mapIiiSt4hashIiESt8equal_toIiESaISt4pairIKiiEEED2Ev(ptr noundef nonnull align 8 dereferenceable(56) %19) #3
  call void @_ZNSt6vectorISt4pairIdiESaIS1_EED2Ev(ptr noundef nonnull align 8 dereferenceable(24) %8) #3
  call void @_ZNSt6vectorIiSaIiEED2Ev(ptr noundef nonnull align 8 dereferenceable(24) %7) #3
  ret i32 %144

145:                                              ; preds = %104, %57, %53
  call void @_ZNSt6vectorISt4pairIdiESaIS1_EED2Ev(ptr noundef nonnull align 8 dereferenceable(24) %8) #3
  call void @_ZNSt6vectorIiSaIiEED2Ev(ptr noundef nonnull align 8 dereferenceable(24) %7) #3
  br label %146

146:                                              ; preds = %145
  %147 = load ptr, ptr %11, align 8
  %148 = load i32, ptr %12, align 4
  %149 = insertvalue { ptr, i32 } undef, ptr %147, 0
  %150 = insertvalue { ptr, i32 } %149, i32 %148, 1
  resume { ptr, i32 } %150
}

; Function Attrs: noreturn nounwind
declare void @__assert_fail(ptr noundef, ptr noundef, i32 noundef, ptr noundef) #9

; Function Attrs: argmemonly nocallback nofree nounwind willreturn writeonly
declare void @llvm.memset.p0.i64(ptr nocapture writeonly, i8, i64, i1 immarg) #10

; Function Attrs: noinline nounwind optnone uwtable
define linkonce_odr dso_local void @_ZN16machine_learning19k_nearest_neighbors3KnnD2Ev(ptr noundef nonnull align 8 dereferenceable(48) %0) unnamed_addr #6 comdat align 2 {
  %2 = alloca ptr, align 8
  store ptr %0, ptr %2, align 8
  %3 = load ptr, ptr %2, align 8
  %4 = getelementptr inbounds %"class.machine_learning::k_nearest_neighbors::Knn", ptr %3, i32 0, i32 1
  call void @_ZNSt6vectorIiSaIiEED2Ev(ptr noundef nonnull align 8 dereferenceable(24) %4) #3
  %5 = getelementptr inbounds %"class.machine_learning::k_nearest_neighbors::Knn", ptr %3, i32 0, i32 0
  call void @_ZNSt6vectorIS_IdSaIdEESaIS1_EED2Ev(ptr noundef nonnull align 8 dereferenceable(24) %5) #3
  ret void
}

; Function Attrs: noinline nounwind optnone uwtable
define linkonce_odr dso_local void @_ZNSt6vectorIiSaIiEED2Ev(ptr noundef nonnull align 8 dereferenceable(24) %0) unnamed_addr #6 comdat align 2 personality ptr @__gxx_personality_v0 {
  %2 = alloca ptr, align 8
  store ptr %0, ptr %2, align 8
  %3 = load ptr, ptr %2, align 8
  %4 = getelementptr inbounds %"struct.std::_Vector_base.7", ptr %3, i32 0, i32 0
  %5 = getelementptr inbounds %"struct.std::_Vector_base<int, std::allocator<int>>::_Vector_impl_data", ptr %4, i32 0, i32 0
  %6 = load ptr, ptr %5, align 8
  %7 = getelementptr inbounds %"struct.std::_Vector_base.7", ptr %3, i32 0, i32 0
  %8 = getelementptr inbounds %"struct.std::_Vector_base<int, std::allocator<int>>::_Vector_impl_data", ptr %7, i32 0, i32 1
  %9 = load ptr, ptr %8, align 8
  %10 = call noundef nonnull align 1 dereferenceable(1) ptr @_ZNSt12_Vector_baseIiSaIiEE19_M_get_Tp_allocatorEv(ptr noundef nonnull align 8 dereferenceable(24) %3) #3
  invoke void @_ZSt8_DestroyIPiiEvT_S1_RSaIT0_E(ptr noundef %6, ptr noundef %9, ptr noundef nonnull align 1 dereferenceable(1) %10)
          to label %11 unwind label %12

11:                                               ; preds = %1
  call void @_ZNSt12_Vector_baseIiSaIiEED2Ev(ptr noundef nonnull align 8 dereferenceable(24) %3) #3
  ret void

12:                                               ; preds = %1
  %13 = landingpad { ptr, i32 }
          catch ptr null
  %14 = extractvalue { ptr, i32 } %13, 0
  call void @__clang_call_terminate(ptr %14) #18
  unreachable
}

; Function Attrs: noinline nounwind optnone uwtable
define linkonce_odr dso_local void @_ZNSt6vectorIS_IdSaIdEESaIS1_EED2Ev(ptr noundef nonnull align 8 dereferenceable(24) %0) unnamed_addr #6 comdat align 2 personality ptr @__gxx_personality_v0 {
  %2 = alloca ptr, align 8
  store ptr %0, ptr %2, align 8
  %3 = load ptr, ptr %2, align 8
  %4 = getelementptr inbounds %"struct.std::_Vector_base", ptr %3, i32 0, i32 0
  %5 = getelementptr inbounds %"struct.std::_Vector_base<std::vector<double>, std::allocator<std::vector<double>>>::_Vector_impl_data", ptr %4, i32 0, i32 0
  %6 = load ptr, ptr %5, align 8
  %7 = getelementptr inbounds %"struct.std::_Vector_base", ptr %3, i32 0, i32 0
  %8 = getelementptr inbounds %"struct.std::_Vector_base<std::vector<double>, std::allocator<std::vector<double>>>::_Vector_impl_data", ptr %7, i32 0, i32 1
  %9 = load ptr, ptr %8, align 8
  %10 = call noundef nonnull align 1 dereferenceable(1) ptr @_ZNSt12_Vector_baseISt6vectorIdSaIdEESaIS2_EE19_M_get_Tp_allocatorEv(ptr noundef nonnull align 8 dereferenceable(24) %3) #3
  invoke void @_ZSt8_DestroyIPSt6vectorIdSaIdEES2_EvT_S4_RSaIT0_E(ptr noundef %6, ptr noundef %9, ptr noundef nonnull align 1 dereferenceable(1) %10)
          to label %11 unwind label %12

11:                                               ; preds = %1
  call void @_ZNSt12_Vector_baseISt6vectorIdSaIdEESaIS2_EED2Ev(ptr noundef nonnull align 8 dereferenceable(24) %3) #3
  ret void

12:                                               ; preds = %1
  %13 = landingpad { ptr, i32 }
          catch ptr null
  %14 = extractvalue { ptr, i32 } %13, 0
  call void @__clang_call_terminate(ptr %14) #18
  unreachable
}

; Function Attrs: noinline nounwind optnone uwtable
define linkonce_odr dso_local void @_ZNSt15__new_allocatorIdEC2Ev(ptr noundef nonnull align 1 dereferenceable(1) %0) unnamed_addr #6 comdat align 2 {
  %2 = alloca ptr, align 8
  store ptr %0, ptr %2, align 8
  %3 = load ptr, ptr %2, align 8
  ret void
}

; Function Attrs: noinline nounwind optnone uwtable
define linkonce_odr dso_local void @_ZNSt12_Vector_baseIdSaIdEEC2ERKS0_(ptr noundef nonnull align 8 dereferenceable(24) %0, ptr noundef nonnull align 1 dereferenceable(1) %1) unnamed_addr #6 comdat align 2 {
  %3 = alloca ptr, align 8
  %4 = alloca ptr, align 8
  store ptr %0, ptr %3, align 8
  store ptr %1, ptr %4, align 8
  %5 = load ptr, ptr %3, align 8
  %6 = getelementptr inbounds %"struct.std::_Vector_base.1", ptr %5, i32 0, i32 0
  %7 = load ptr, ptr %4, align 8
  call void @_ZNSt12_Vector_baseIdSaIdEE12_Vector_implC2ERKS0_(ptr noundef nonnull align 8 dereferenceable(24) %6, ptr noundef nonnull align 1 dereferenceable(1) %7) #3
  ret void
}

; Function Attrs: mustprogress noinline optnone uwtable
define linkonce_odr dso_local void @_ZNSt6vectorIdSaIdEE19_M_range_initializeIPKdEEvT_S5_St20forward_iterator_tag(ptr noundef nonnull align 8 dereferenceable(24) %0, ptr noundef %1, ptr noundef %2) #5 comdat align 2 {
  %4 = alloca %"struct.std::forward_iterator_tag", align 1
  %5 = alloca ptr, align 8
  %6 = alloca ptr, align 8
  %7 = alloca ptr, align 8
  %8 = alloca i64, align 8
  store ptr %0, ptr %5, align 8
  store ptr %1, ptr %6, align 8
  store ptr %2, ptr %7, align 8
  %9 = load ptr, ptr %5, align 8
  %10 = load ptr, ptr %6, align 8
  %11 = load ptr, ptr %7, align 8
  %12 = call noundef i64 @_ZSt8distanceIPKdENSt15iterator_traitsIT_E15difference_typeES3_S3_(ptr noundef %10, ptr noundef %11)
  store i64 %12, ptr %8, align 8
  %13 = load i64, ptr %8, align 8
  %14 = call noundef nonnull align 1 dereferenceable(1) ptr @_ZNSt12_Vector_baseIdSaIdEE19_M_get_Tp_allocatorEv(ptr noundef nonnull align 8 dereferenceable(24) %9) #3
  %15 = call noundef i64 @_ZNSt6vectorIdSaIdEE17_S_check_init_lenEmRKS0_(i64 noundef %13, ptr noundef nonnull align 1 dereferenceable(1) %14)
  %16 = call noundef ptr @_ZNSt12_Vector_baseIdSaIdEE11_M_allocateEm(ptr noundef nonnull align 8 dereferenceable(24) %9, i64 noundef %15)
  %17 = getelementptr inbounds %"struct.std::_Vector_base.1", ptr %9, i32 0, i32 0
  %18 = getelementptr inbounds %"struct.std::_Vector_base<double, std::allocator<double>>::_Vector_impl_data", ptr %17, i32 0, i32 0
  store ptr %16, ptr %18, align 8
  %19 = getelementptr inbounds %"struct.std::_Vector_base.1", ptr %9, i32 0, i32 0
  %20 = getelementptr inbounds %"struct.std::_Vector_base<double, std::allocator<double>>::_Vector_impl_data", ptr %19, i32 0, i32 0
  %21 = load ptr, ptr %20, align 8
  %22 = load i64, ptr %8, align 8
  %23 = getelementptr inbounds double, ptr %21, i64 %22
  %24 = getelementptr inbounds %"struct.std::_Vector_base.1", ptr %9, i32 0, i32 0
  %25 = getelementptr inbounds %"struct.std::_Vector_base<double, std::allocator<double>>::_Vector_impl_data", ptr %24, i32 0, i32 2
  store ptr %23, ptr %25, align 8
  %26 = load ptr, ptr %6, align 8
  %27 = load ptr, ptr %7, align 8
  %28 = getelementptr inbounds %"struct.std::_Vector_base.1", ptr %9, i32 0, i32 0
  %29 = getelementptr inbounds %"struct.std::_Vector_base<double, std::allocator<double>>::_Vector_impl_data", ptr %28, i32 0, i32 0
  %30 = load ptr, ptr %29, align 8
  %31 = call noundef nonnull align 1 dereferenceable(1) ptr @_ZNSt12_Vector_baseIdSaIdEE19_M_get_Tp_allocatorEv(ptr noundef nonnull align 8 dereferenceable(24) %9) #3
  %32 = call noundef ptr @_ZSt22__uninitialized_copy_aIPKdPddET0_T_S4_S3_RSaIT1_E(ptr noundef %26, ptr noundef %27, ptr noundef %30, ptr noundef nonnull align 1 dereferenceable(1) %31)
  %33 = getelementptr inbounds %"struct.std::_Vector_base.1", ptr %9, i32 0, i32 0
  %34 = getelementptr inbounds %"struct.std::_Vector_base<double, std::allocator<double>>::_Vector_impl_data", ptr %33, i32 0, i32 1
  store ptr %32, ptr %34, align 8
  ret void
}

; Function Attrs: mustprogress noinline nounwind optnone uwtable
define linkonce_odr dso_local noundef ptr @_ZNKSt16initializer_listIdE5beginEv(ptr noundef nonnull align 8 dereferenceable(16) %0) #11 comdat align 2 {
  %2 = alloca ptr, align 8
  store ptr %0, ptr %2, align 8
  %3 = load ptr, ptr %2, align 8
  %4 = getelementptr inbounds %"class.std::initializer_list.5", ptr %3, i32 0, i32 0
  %5 = load ptr, ptr %4, align 8
  ret ptr %5
}

; Function Attrs: mustprogress noinline nounwind optnone uwtable
define linkonce_odr dso_local noundef ptr @_ZNKSt16initializer_listIdE3endEv(ptr noundef nonnull align 8 dereferenceable(16) %0) #11 comdat align 2 {
  %2 = alloca ptr, align 8
  store ptr %0, ptr %2, align 8
  %3 = load ptr, ptr %2, align 8
  %4 = call noundef ptr @_ZNKSt16initializer_listIdE5beginEv(ptr noundef nonnull align 8 dereferenceable(16) %3) #3
  %5 = call noundef i64 @_ZNKSt16initializer_listIdE4sizeEv(ptr noundef nonnull align 8 dereferenceable(16) %3) #3
  %6 = getelementptr inbounds double, ptr %4, i64 %5
  ret ptr %6
}

; Function Attrs: noinline nounwind optnone uwtable
define linkonce_odr dso_local void @_ZNSt12_Vector_baseIdSaIdEED2Ev(ptr noundef nonnull align 8 dereferenceable(24) %0) unnamed_addr #6 comdat align 2 personality ptr @__gxx_personality_v0 {
  %2 = alloca ptr, align 8
  store ptr %0, ptr %2, align 8
  %3 = load ptr, ptr %2, align 8
  %4 = getelementptr inbounds %"struct.std::_Vector_base.1", ptr %3, i32 0, i32 0
  %5 = getelementptr inbounds %"struct.std::_Vector_base<double, std::allocator<double>>::_Vector_impl_data", ptr %4, i32 0, i32 0
  %6 = load ptr, ptr %5, align 8
  %7 = getelementptr inbounds %"struct.std::_Vector_base.1", ptr %3, i32 0, i32 0
  %8 = getelementptr inbounds %"struct.std::_Vector_base<double, std::allocator<double>>::_Vector_impl_data", ptr %7, i32 0, i32 2
  %9 = load ptr, ptr %8, align 8
  %10 = getelementptr inbounds %"struct.std::_Vector_base.1", ptr %3, i32 0, i32 0
  %11 = getelementptr inbounds %"struct.std::_Vector_base<double, std::allocator<double>>::_Vector_impl_data", ptr %10, i32 0, i32 0
  %12 = load ptr, ptr %11, align 8
  %13 = ptrtoint ptr %9 to i64
  %14 = ptrtoint ptr %12 to i64
  %15 = sub i64 %13, %14
  %16 = sdiv exact i64 %15, 8
  invoke void @_ZNSt12_Vector_baseIdSaIdEE13_M_deallocateEPdm(ptr noundef nonnull align 8 dereferenceable(24) %3, ptr noundef %6, i64 noundef %16)
          to label %17 unwind label %19

17:                                               ; preds = %1
  %18 = getelementptr inbounds %"struct.std::_Vector_base.1", ptr %3, i32 0, i32 0
  call void @_ZNSt12_Vector_baseIdSaIdEE12_Vector_implD2Ev(ptr noundef nonnull align 8 dereferenceable(24) %18) #3
  ret void

19:                                               ; preds = %1
  %20 = landingpad { ptr, i32 }
          catch ptr null
  %21 = extractvalue { ptr, i32 } %20, 0
  call void @__clang_call_terminate(ptr %21) #18
  unreachable
}

; Function Attrs: noinline nounwind optnone uwtable
define linkonce_odr dso_local void @_ZNSt12_Vector_baseIdSaIdEE12_Vector_implC2ERKS0_(ptr noundef nonnull align 8 dereferenceable(24) %0, ptr noundef nonnull align 1 dereferenceable(1) %1) unnamed_addr #6 comdat align 2 {
  %3 = alloca ptr, align 8
  %4 = alloca ptr, align 8
  store ptr %0, ptr %3, align 8
  store ptr %1, ptr %4, align 8
  %5 = load ptr, ptr %3, align 8
  %6 = load ptr, ptr %4, align 8
  call void @_ZNSaIdEC2ERKS_(ptr noundef nonnull align 1 dereferenceable(1) %5, ptr noundef nonnull align 1 dereferenceable(1) %6) #3
  call void @_ZNSt12_Vector_baseIdSaIdEE17_Vector_impl_dataC2Ev(ptr noundef nonnull align 8 dereferenceable(24) %5) #3
  ret void
}

; Function Attrs: noinline nounwind optnone uwtable
define linkonce_odr dso_local void @_ZNSt15__new_allocatorIdEC2ERKS0_(ptr noundef nonnull align 1 dereferenceable(1) %0, ptr noundef nonnull align 1 dereferenceable(1) %1) unnamed_addr #6 comdat align 2 {
  %3 = alloca ptr, align 8
  %4 = alloca ptr, align 8
  store ptr %0, ptr %3, align 8
  store ptr %1, ptr %4, align 8
  %5 = load ptr, ptr %3, align 8
  ret void
}

; Function Attrs: mustprogress noinline optnone uwtable
define linkonce_odr dso_local noundef i64 @_ZSt8distanceIPKdENSt15iterator_traitsIT_E15difference_typeES3_S3_(ptr noundef %0, ptr noundef %1) #5 comdat {
  %3 = alloca ptr, align 8
  %4 = alloca ptr, align 8
  %5 = alloca %"struct.std::random_access_iterator_tag", align 1
  %6 = alloca %"struct.std::random_access_iterator_tag", align 1
  store ptr %0, ptr %3, align 8
  store ptr %1, ptr %4, align 8
  %7 = load ptr, ptr %3, align 8
  %8 = load ptr, ptr %4, align 8
  call void @_ZSt19__iterator_categoryIPKdENSt15iterator_traitsIT_E17iterator_categoryERKS3_(ptr noundef nonnull align 8 dereferenceable(8) %3)
  %9 = call noundef i64 @_ZSt10__distanceIPKdENSt15iterator_traitsIT_E15difference_typeES3_S3_St26random_access_iterator_tag(ptr noundef %7, ptr noundef %8)
  ret i64 %9
}

; Function Attrs: mustprogress noinline optnone uwtable
define linkonce_odr dso_local noundef ptr @_ZNSt12_Vector_baseIdSaIdEE11_M_allocateEm(ptr noundef nonnull align 8 dereferenceable(24) %0, i64 noundef %1) #5 comdat align 2 {
  %3 = alloca ptr, align 8
  %4 = alloca i64, align 8
  store ptr %0, ptr %3, align 8
  store i64 %1, ptr %4, align 8
  %5 = load ptr, ptr %3, align 8
  %6 = load i64, ptr %4, align 8
  %7 = icmp ne i64 %6, 0
  br i1 %7, label %8, label %12

8:                                                ; preds = %2
  %9 = getelementptr inbounds %"struct.std::_Vector_base.1", ptr %5, i32 0, i32 0
  %10 = load i64, ptr %4, align 8
  %11 = call noundef ptr @_ZNSt16allocator_traitsISaIdEE8allocateERS0_m(ptr noundef nonnull align 1 dereferenceable(1) %9, i64 noundef %10)
  br label %13

12:                                               ; preds = %2
  br label %13

13:                                               ; preds = %12, %8
  %14 = phi ptr [ %11, %8 ], [ null, %12 ]
  ret ptr %14
}

; Function Attrs: mustprogress noinline optnone uwtable
define linkonce_odr dso_local noundef i64 @_ZNSt6vectorIdSaIdEE17_S_check_init_lenEmRKS0_(i64 noundef %0, ptr noundef nonnull align 1 dereferenceable(1) %1) #5 comdat align 2 {
  %3 = alloca i64, align 8
  %4 = alloca ptr, align 8
  %5 = alloca %"class.std::allocator.2", align 1
  store i64 %0, ptr %3, align 8
  store ptr %1, ptr %4, align 8
  %6 = load i64, ptr %3, align 8
  %7 = load ptr, ptr %4, align 8
  call void @_ZNSaIdEC2ERKS_(ptr noundef nonnull align 1 dereferenceable(1) %5, ptr noundef nonnull align 1 dereferenceable(1) %7) #3
  %8 = call noundef i64 @_ZNSt6vectorIdSaIdEE11_S_max_sizeERKS0_(ptr noundef nonnull align 1 dereferenceable(1) %5) #3
  %9 = icmp ugt i64 %6, %8
  call void @_ZNSaIdED2Ev(ptr noundef nonnull align 1 dereferenceable(1) %5) #3
  br i1 %9, label %10, label %11

10:                                               ; preds = %2
  call void @_ZSt20__throw_length_errorPKc(ptr noundef @.str.31) #19
  unreachable

11:                                               ; preds = %2
  %12 = load i64, ptr %3, align 8
  ret i64 %12
}

; Function Attrs: mustprogress noinline nounwind optnone uwtable
define linkonce_odr dso_local noundef nonnull align 1 dereferenceable(1) ptr @_ZNSt12_Vector_baseIdSaIdEE19_M_get_Tp_allocatorEv(ptr noundef nonnull align 8 dereferenceable(24) %0) #11 comdat align 2 {
  %2 = alloca ptr, align 8
  store ptr %0, ptr %2, align 8
  %3 = load ptr, ptr %2, align 8
  %4 = getelementptr inbounds %"struct.std::_Vector_base.1", ptr %3, i32 0, i32 0
  ret ptr %4
}

; Function Attrs: mustprogress noinline optnone uwtable
define linkonce_odr dso_local noundef ptr @_ZSt22__uninitialized_copy_aIPKdPddET0_T_S4_S3_RSaIT1_E(ptr noundef %0, ptr noundef %1, ptr noundef %2, ptr noundef nonnull align 1 dereferenceable(1) %3) #5 comdat {
  %5 = alloca ptr, align 8
  %6 = alloca ptr, align 8
  %7 = alloca ptr, align 8
  %8 = alloca ptr, align 8
  store ptr %0, ptr %5, align 8
  store ptr %1, ptr %6, align 8
  store ptr %2, ptr %7, align 8
  store ptr %3, ptr %8, align 8
  %9 = load ptr, ptr %5, align 8
  %10 = load ptr, ptr %6, align 8
  %11 = load ptr, ptr %7, align 8
  %12 = call noundef ptr @_ZSt18uninitialized_copyIPKdPdET0_T_S4_S3_(ptr noundef %9, ptr noundef %10, ptr noundef %11)
  ret ptr %12
}

; Function Attrs: mustprogress noinline nounwind optnone uwtable
define linkonce_odr dso_local noundef i64 @_ZSt10__distanceIPKdENSt15iterator_traitsIT_E15difference_typeES3_S3_St26random_access_iterator_tag(ptr noundef %0, ptr noundef %1) #11 comdat {
  %3 = alloca %"struct.std::random_access_iterator_tag", align 1
  %4 = alloca ptr, align 8
  %5 = alloca ptr, align 8
  store ptr %0, ptr %4, align 8
  store ptr %1, ptr %5, align 8
  %6 = load ptr, ptr %5, align 8
  %7 = load ptr, ptr %4, align 8
  %8 = ptrtoint ptr %6 to i64
  %9 = ptrtoint ptr %7 to i64
  %10 = sub i64 %8, %9
  %11 = sdiv exact i64 %10, 8
  ret i64 %11
}

; Function Attrs: mustprogress noinline nounwind optnone uwtable
define linkonce_odr dso_local void @_ZSt19__iterator_categoryIPKdENSt15iterator_traitsIT_E17iterator_categoryERKS3_(ptr noundef nonnull align 8 dereferenceable(8) %0) #11 comdat {
  %2 = alloca ptr, align 8
  store ptr %0, ptr %2, align 8
  ret void
}

; Function Attrs: mustprogress noinline optnone uwtable
define linkonce_odr dso_local noundef ptr @_ZNSt16allocator_traitsISaIdEE8allocateERS0_m(ptr noundef nonnull align 1 dereferenceable(1) %0, i64 noundef %1) #5 comdat align 2 {
  %3 = alloca ptr, align 8
  %4 = alloca i64, align 8
  store ptr %0, ptr %3, align 8
  store i64 %1, ptr %4, align 8
  %5 = load ptr, ptr %3, align 8
  %6 = load i64, ptr %4, align 8
  %7 = call noundef ptr @_ZNSt15__new_allocatorIdE8allocateEmPKv(ptr noundef nonnull align 1 dereferenceable(1) %5, i64 noundef %6, ptr noundef null)
  ret ptr %7
}

; Function Attrs: mustprogress noinline optnone uwtable
define linkonce_odr dso_local noundef ptr @_ZNSt15__new_allocatorIdE8allocateEmPKv(ptr noundef nonnull align 1 dereferenceable(1) %0, i64 noundef %1, ptr noundef %2) #5 comdat align 2 {
  %4 = alloca ptr, align 8
  %5 = alloca i64, align 8
  %6 = alloca ptr, align 8
  store ptr %0, ptr %4, align 8
  store i64 %1, ptr %5, align 8
  store ptr %2, ptr %6, align 8
  %7 = load ptr, ptr %4, align 8
  %8 = load i64, ptr %5, align 8
  %9 = call noundef i64 @_ZNKSt15__new_allocatorIdE11_M_max_sizeEv(ptr noundef nonnull align 1 dereferenceable(1) %7) #3
  %10 = icmp ugt i64 %8, %9
  br i1 %10, label %11, label %16

11:                                               ; preds = %3
  %12 = load i64, ptr %5, align 8
  %13 = icmp ugt i64 %12, 2305843009213693951
  br i1 %13, label %14, label %15

14:                                               ; preds = %11
  call void @_ZSt28__throw_bad_array_new_lengthv() #19
  unreachable

15:                                               ; preds = %11
  call void @_ZSt17__throw_bad_allocv() #19
  unreachable

16:                                               ; preds = %3
  %17 = load i64, ptr %5, align 8
  %18 = mul i64 %17, 8
  %19 = call noalias noundef nonnull ptr @_Znwm(i64 noundef %18) #20
  ret ptr %19
}

; Function Attrs: mustprogress noinline nounwind optnone uwtable
define linkonce_odr dso_local noundef i64 @_ZNKSt15__new_allocatorIdE11_M_max_sizeEv(ptr noundef nonnull align 1 dereferenceable(1) %0) #11 comdat align 2 {
  %2 = alloca ptr, align 8
  store ptr %0, ptr %2, align 8
  %3 = load ptr, ptr %2, align 8
  ret i64 1152921504606846975
}

; Function Attrs: noreturn
declare void @_ZSt28__throw_bad_array_new_lengthv() #12

; Function Attrs: noreturn
declare void @_ZSt17__throw_bad_allocv() #12

; Function Attrs: nobuiltin allocsize(0)
declare noundef nonnull ptr @_Znwm(i64 noundef) #13

; Function Attrs: mustprogress noinline nounwind optnone uwtable
define linkonce_odr dso_local noundef i64 @_ZNSt6vectorIdSaIdEE11_S_max_sizeERKS0_(ptr noundef nonnull align 1 dereferenceable(1) %0) #11 comdat align 2 personality ptr @__gxx_personality_v0 {
  %2 = alloca ptr, align 8
  %3 = alloca i64, align 8
  %4 = alloca i64, align 8
  store ptr %0, ptr %2, align 8
  store i64 1152921504606846975, ptr %3, align 8
  %5 = load ptr, ptr %2, align 8
  %6 = call noundef i64 @_ZNSt16allocator_traitsISaIdEE8max_sizeERKS0_(ptr noundef nonnull align 1 dereferenceable(1) %5) #3
  store i64 %6, ptr %4, align 8
  %7 = invoke noundef nonnull align 8 dereferenceable(8) ptr @_ZSt3minImERKT_S2_S2_(ptr noundef nonnull align 8 dereferenceable(8) %3, ptr noundef nonnull align 8 dereferenceable(8) %4)
          to label %8 unwind label %10

8:                                                ; preds = %1
  %9 = load i64, ptr %7, align 8
  ret i64 %9

10:                                               ; preds = %1
  %11 = landingpad { ptr, i32 }
          catch ptr null
  %12 = extractvalue { ptr, i32 } %11, 0
  call void @__clang_call_terminate(ptr %12) #18
  unreachable
}

; Function Attrs: noinline nounwind optnone uwtable
define linkonce_odr dso_local void @_ZNSaIdEC2ERKS_(ptr noundef nonnull align 1 dereferenceable(1) %0, ptr noundef nonnull align 1 dereferenceable(1) %1) unnamed_addr #6 comdat align 2 {
  %3 = alloca ptr, align 8
  %4 = alloca ptr, align 8
  store ptr %0, ptr %3, align 8
  store ptr %1, ptr %4, align 8
  %5 = load ptr, ptr %3, align 8
  %6 = load ptr, ptr %4, align 8
  call void @_ZNSt15__new_allocatorIdEC2ERKS0_(ptr noundef nonnull align 1 dereferenceable(1) %5, ptr noundef nonnull align 1 dereferenceable(1) %6) #3
  ret void
}

; Function Attrs: noreturn
declare void @_ZSt20__throw_length_errorPKc(ptr noundef) #12

; Function Attrs: mustprogress noinline nounwind optnone uwtable
define linkonce_odr dso_local noundef i64 @_ZNSt16allocator_traitsISaIdEE8max_sizeERKS0_(ptr noundef nonnull align 1 dereferenceable(1) %0) #11 comdat align 2 {
  %2 = alloca ptr, align 8
  store ptr %0, ptr %2, align 8
  %3 = load ptr, ptr %2, align 8
  %4 = call noundef i64 @_ZNKSt15__new_allocatorIdE8max_sizeEv(ptr noundef nonnull align 1 dereferenceable(1) %3) #3
  ret i64 %4
}

; Function Attrs: mustprogress noinline nounwind optnone uwtable
define linkonce_odr dso_local noundef nonnull align 8 dereferenceable(8) ptr @_ZSt3minImERKT_S2_S2_(ptr noundef nonnull align 8 dereferenceable(8) %0, ptr noundef nonnull align 8 dereferenceable(8) %1) #11 comdat {
  %3 = alloca ptr, align 8
  %4 = alloca ptr, align 8
  %5 = alloca ptr, align 8
  store ptr %0, ptr %4, align 8
  store ptr %1, ptr %5, align 8
  %6 = load ptr, ptr %5, align 8
  %7 = load i64, ptr %6, align 8
  %8 = load ptr, ptr %4, align 8
  %9 = load i64, ptr %8, align 8
  %10 = icmp ult i64 %7, %9
  br i1 %10, label %11, label %13

11:                                               ; preds = %2
  %12 = load ptr, ptr %5, align 8
  store ptr %12, ptr %3, align 8
  br label %15

13:                                               ; preds = %2
  %14 = load ptr, ptr %4, align 8
  store ptr %14, ptr %3, align 8
  br label %15

15:                                               ; preds = %13, %11
  %16 = load ptr, ptr %3, align 8
  ret ptr %16
}

; Function Attrs: noinline noreturn nounwind
define linkonce_odr hidden void @__clang_call_terminate(ptr %0) #14 comdat {
  %2 = call ptr @__cxa_begin_catch(ptr %0) #3
  call void @_ZSt9terminatev() #18
  unreachable
}

declare ptr @__cxa_begin_catch(ptr)

declare void @_ZSt9terminatev()

; Function Attrs: mustprogress noinline nounwind optnone uwtable
define linkonce_odr dso_local noundef i64 @_ZNKSt15__new_allocatorIdE8max_sizeEv(ptr noundef nonnull align 1 dereferenceable(1) %0) #11 comdat align 2 {
  %2 = alloca ptr, align 8
  store ptr %0, ptr %2, align 8
  %3 = load ptr, ptr %2, align 8
  %4 = call noundef i64 @_ZNKSt15__new_allocatorIdE11_M_max_sizeEv(ptr noundef nonnull align 1 dereferenceable(1) %3) #3
  ret i64 %4
}

; Function Attrs: mustprogress noinline optnone uwtable
define linkonce_odr dso_local noundef ptr @_ZSt18uninitialized_copyIPKdPdET0_T_S4_S3_(ptr noundef %0, ptr noundef %1, ptr noundef %2) #5 comdat {
  %4 = alloca ptr, align 8
  %5 = alloca ptr, align 8
  %6 = alloca ptr, align 8
  %7 = alloca i8, align 1
  %8 = alloca i8, align 1
  store ptr %0, ptr %4, align 8
  store ptr %1, ptr %5, align 8
  store ptr %2, ptr %6, align 8
  store i8 1, ptr %7, align 1
  store i8 1, ptr %8, align 1
  %9 = load ptr, ptr %4, align 8
  %10 = load ptr, ptr %5, align 8
  %11 = load ptr, ptr %6, align 8
  %12 = call noundef ptr @_ZNSt20__uninitialized_copyILb1EE13__uninit_copyIPKdPdEET0_T_S6_S5_(ptr noundef %9, ptr noundef %10, ptr noundef %11)
  ret ptr %12
}

; Function Attrs: mustprogress noinline optnone uwtable
define linkonce_odr dso_local noundef ptr @_ZNSt20__uninitialized_copyILb1EE13__uninit_copyIPKdPdEET0_T_S6_S5_(ptr noundef %0, ptr noundef %1, ptr noundef %2) #5 comdat align 2 {
  %4 = alloca ptr, align 8
  %5 = alloca ptr, align 8
  %6 = alloca ptr, align 8
  store ptr %0, ptr %4, align 8
  store ptr %1, ptr %5, align 8
  store ptr %2, ptr %6, align 8
  %7 = load ptr, ptr %4, align 8
  %8 = load ptr, ptr %5, align 8
  %9 = load ptr, ptr %6, align 8
  %10 = call noundef ptr @_ZSt4copyIPKdPdET0_T_S4_S3_(ptr noundef %7, ptr noundef %8, ptr noundef %9)
  ret ptr %10
}

; Function Attrs: mustprogress noinline optnone uwtable
define linkonce_odr dso_local noundef ptr @_ZSt4copyIPKdPdET0_T_S4_S3_(ptr noundef %0, ptr noundef %1, ptr noundef %2) #5 comdat {
  %4 = alloca ptr, align 8
  %5 = alloca ptr, align 8
  %6 = alloca ptr, align 8
  store ptr %0, ptr %4, align 8
  store ptr %1, ptr %5, align 8
  store ptr %2, ptr %6, align 8
  %7 = load ptr, ptr %4, align 8
  %8 = call noundef ptr @_ZSt12__miter_baseIPKdET_S2_(ptr noundef %7)
  %9 = load ptr, ptr %5, align 8
  %10 = call noundef ptr @_ZSt12__miter_baseIPKdET_S2_(ptr noundef %9)
  %11 = load ptr, ptr %6, align 8
  %12 = call noundef ptr @_ZSt13__copy_move_aILb0EPKdPdET1_T0_S4_S3_(ptr noundef %8, ptr noundef %10, ptr noundef %11)
  ret ptr %12
}

; Function Attrs: mustprogress noinline optnone uwtable
define linkonce_odr dso_local noundef ptr @_ZSt13__copy_move_aILb0EPKdPdET1_T0_S4_S3_(ptr noundef %0, ptr noundef %1, ptr noundef %2) #5 comdat {
  %4 = alloca ptr, align 8
  %5 = alloca ptr, align 8
  %6 = alloca ptr, align 8
  store ptr %0, ptr %4, align 8
  store ptr %1, ptr %5, align 8
  store ptr %2, ptr %6, align 8
  %7 = load ptr, ptr %4, align 8
  %8 = call noundef ptr @_ZSt12__niter_baseIPKdET_S2_(ptr noundef %7) #3
  %9 = load ptr, ptr %5, align 8
  %10 = call noundef ptr @_ZSt12__niter_baseIPKdET_S2_(ptr noundef %9) #3
  %11 = load ptr, ptr %6, align 8
  %12 = call noundef ptr @_ZSt12__niter_baseIPdET_S1_(ptr noundef %11) #3
  %13 = call noundef ptr @_ZSt14__copy_move_a1ILb0EPKdPdET1_T0_S4_S3_(ptr noundef %8, ptr noundef %10, ptr noundef %12)
  %14 = call noundef ptr @_ZSt12__niter_wrapIPdET_RKS1_S1_(ptr noundef nonnull align 8 dereferenceable(8) %6, ptr noundef %13)
  ret ptr %14
}

; Function Attrs: mustprogress noinline nounwind optnone uwtable
define linkonce_odr dso_local noundef ptr @_ZSt12__miter_baseIPKdET_S2_(ptr noundef %0) #11 comdat {
  %2 = alloca ptr, align 8
  store ptr %0, ptr %2, align 8
  %3 = load ptr, ptr %2, align 8
  ret ptr %3
}

; Function Attrs: mustprogress noinline nounwind optnone uwtable
define linkonce_odr dso_local noundef ptr @_ZSt12__niter_wrapIPdET_RKS1_S1_(ptr noundef nonnull align 8 dereferenceable(8) %0, ptr noundef %1) #11 comdat {
  %3 = alloca ptr, align 8
  %4 = alloca ptr, align 8
  store ptr %0, ptr %3, align 8
  store ptr %1, ptr %4, align 8
  %5 = load ptr, ptr %4, align 8
  ret ptr %5
}

; Function Attrs: mustprogress noinline optnone uwtable
define linkonce_odr dso_local noundef ptr @_ZSt14__copy_move_a1ILb0EPKdPdET1_T0_S4_S3_(ptr noundef %0, ptr noundef %1, ptr noundef %2) #5 comdat {
  %4 = alloca ptr, align 8
  %5 = alloca ptr, align 8
  %6 = alloca ptr, align 8
  store ptr %0, ptr %4, align 8
  store ptr %1, ptr %5, align 8
  store ptr %2, ptr %6, align 8
  %7 = load ptr, ptr %4, align 8
  %8 = load ptr, ptr %5, align 8
  %9 = load ptr, ptr %6, align 8
  %10 = call noundef ptr @_ZSt14__copy_move_a2ILb0EPKdPdET1_T0_S4_S3_(ptr noundef %7, ptr noundef %8, ptr noundef %9)
  ret ptr %10
}

; Function Attrs: mustprogress noinline nounwind optnone uwtable
define linkonce_odr dso_local noundef ptr @_ZSt12__niter_baseIPKdET_S2_(ptr noundef %0) #11 comdat {
  %2 = alloca ptr, align 8
  store ptr %0, ptr %2, align 8
  %3 = load ptr, ptr %2, align 8
  ret ptr %3
}

; Function Attrs: mustprogress noinline nounwind optnone uwtable
define linkonce_odr dso_local noundef ptr @_ZSt12__niter_baseIPdET_S1_(ptr noundef %0) #11 comdat {
  %2 = alloca ptr, align 8
  store ptr %0, ptr %2, align 8
  %3 = load ptr, ptr %2, align 8
  ret ptr %3
}

; Function Attrs: mustprogress noinline optnone uwtable
define linkonce_odr dso_local noundef ptr @_ZSt14__copy_move_a2ILb0EPKdPdET1_T0_S4_S3_(ptr noundef %0, ptr noundef %1, ptr noundef %2) #5 comdat {
  %4 = alloca ptr, align 8
  %5 = alloca ptr, align 8
  %6 = alloca ptr, align 8
  store ptr %0, ptr %4, align 8
  store ptr %1, ptr %5, align 8
  store ptr %2, ptr %6, align 8
  %7 = load ptr, ptr %4, align 8
  %8 = load ptr, ptr %5, align 8
  %9 = load ptr, ptr %6, align 8
  %10 = call noundef ptr @_ZNSt11__copy_moveILb0ELb1ESt26random_access_iterator_tagE8__copy_mIdEEPT_PKS3_S6_S4_(ptr noundef %7, ptr noundef %8, ptr noundef %9)
  ret ptr %10
}

; Function Attrs: mustprogress noinline nounwind optnone uwtable
define linkonce_odr dso_local noundef ptr @_ZNSt11__copy_moveILb0ELb1ESt26random_access_iterator_tagE8__copy_mIdEEPT_PKS3_S6_S4_(ptr noundef %0, ptr noundef %1, ptr noundef %2) #11 comdat align 2 {
  %4 = alloca ptr, align 8
  %5 = alloca ptr, align 8
  %6 = alloca ptr, align 8
  %7 = alloca i64, align 8
  store ptr %0, ptr %4, align 8
  store ptr %1, ptr %5, align 8
  store ptr %2, ptr %6, align 8
  %8 = load ptr, ptr %5, align 8
  %9 = load ptr, ptr %4, align 8
  %10 = ptrtoint ptr %8 to i64
  %11 = ptrtoint ptr %9 to i64
  %12 = sub i64 %10, %11
  %13 = sdiv exact i64 %12, 8
  store i64 %13, ptr %7, align 8
  %14 = load i64, ptr %7, align 8
  %15 = icmp ne i64 %14, 0
  br i1 %15, label %16, label %21

16:                                               ; preds = %3
  %17 = load ptr, ptr %6, align 8
  %18 = load ptr, ptr %4, align 8
  %19 = load i64, ptr %7, align 8
  %20 = mul i64 8, %19
  call void @llvm.memmove.p0.p0.i64(ptr align 8 %17, ptr align 8 %18, i64 %20, i1 false)
  br label %21

21:                                               ; preds = %16, %3
  %22 = load ptr, ptr %6, align 8
  %23 = load i64, ptr %7, align 8
  %24 = getelementptr inbounds double, ptr %22, i64 %23
  ret ptr %24
}

; Function Attrs: argmemonly nocallback nofree nounwind willreturn
declare void @llvm.memmove.p0.p0.i64(ptr nocapture writeonly, ptr nocapture readonly, i64, i1 immarg) #8

; Function Attrs: mustprogress noinline nounwind optnone uwtable
define linkonce_odr dso_local noundef i64 @_ZNKSt16initializer_listIdE4sizeEv(ptr noundef nonnull align 8 dereferenceable(16) %0) #11 comdat align 2 {
  %2 = alloca ptr, align 8
  store ptr %0, ptr %2, align 8
  %3 = load ptr, ptr %2, align 8
  %4 = getelementptr inbounds %"class.std::initializer_list.5", ptr %3, i32 0, i32 1
  %5 = load i64, ptr %4, align 8
  ret i64 %5
}

; Function Attrs: mustprogress noinline optnone uwtable
define linkonce_odr dso_local void @_ZNSt12_Vector_baseIdSaIdEE13_M_deallocateEPdm(ptr noundef nonnull align 8 dereferenceable(24) %0, ptr noundef %1, i64 noundef %2) #5 comdat align 2 {
  %4 = alloca ptr, align 8
  %5 = alloca ptr, align 8
  %6 = alloca i64, align 8
  store ptr %0, ptr %4, align 8
  store ptr %1, ptr %5, align 8
  store i64 %2, ptr %6, align 8
  %7 = load ptr, ptr %4, align 8
  %8 = load ptr, ptr %5, align 8
  %9 = icmp ne ptr %8, null
  br i1 %9, label %10, label %14

10:                                               ; preds = %3
  %11 = getelementptr inbounds %"struct.std::_Vector_base.1", ptr %7, i32 0, i32 0
  %12 = load ptr, ptr %5, align 8
  %13 = load i64, ptr %6, align 8
  call void @_ZNSt16allocator_traitsISaIdEE10deallocateERS0_Pdm(ptr noundef nonnull align 1 dereferenceable(1) %11, ptr noundef %12, i64 noundef %13)
  br label %14

14:                                               ; preds = %10, %3
  ret void
}

; Function Attrs: noinline nounwind optnone uwtable
define linkonce_odr dso_local void @_ZNSt12_Vector_baseIdSaIdEE12_Vector_implD2Ev(ptr noundef nonnull align 8 dereferenceable(24) %0) unnamed_addr #6 comdat align 2 {
  %2 = alloca ptr, align 8
  store ptr %0, ptr %2, align 8
  %3 = load ptr, ptr %2, align 8
  call void @_ZNSaIdED2Ev(ptr noundef nonnull align 1 dereferenceable(1) %3) #3
  ret void
}

; Function Attrs: mustprogress noinline optnone uwtable
define linkonce_odr dso_local void @_ZNSt16allocator_traitsISaIdEE10deallocateERS0_Pdm(ptr noundef nonnull align 1 dereferenceable(1) %0, ptr noundef %1, i64 noundef %2) #5 comdat align 2 {
  %4 = alloca ptr, align 8
  %5 = alloca ptr, align 8
  %6 = alloca i64, align 8
  store ptr %0, ptr %4, align 8
  store ptr %1, ptr %5, align 8
  store i64 %2, ptr %6, align 8
  %7 = load ptr, ptr %4, align 8
  %8 = load ptr, ptr %5, align 8
  %9 = load i64, ptr %6, align 8
  call void @_ZNSt15__new_allocatorIdE10deallocateEPdm(ptr noundef nonnull align 1 dereferenceable(1) %7, ptr noundef %8, i64 noundef %9)
  ret void
}

; Function Attrs: mustprogress noinline nounwind optnone uwtable
define linkonce_odr dso_local void @_ZNSt15__new_allocatorIdE10deallocateEPdm(ptr noundef nonnull align 1 dereferenceable(1) %0, ptr noundef %1, i64 noundef %2) #11 comdat align 2 {
  %4 = alloca ptr, align 8
  %5 = alloca ptr, align 8
  %6 = alloca i64, align 8
  store ptr %0, ptr %4, align 8
  store ptr %1, ptr %5, align 8
  store i64 %2, ptr %6, align 8
  %7 = load ptr, ptr %4, align 8
  %8 = load ptr, ptr %5, align 8
  call void @_ZdlPv(ptr noundef %8) #21
  ret void
}

; Function Attrs: nobuiltin nounwind
declare void @_ZdlPv(ptr noundef) #15

; Function Attrs: noinline nounwind optnone uwtable
define linkonce_odr dso_local void @_ZNSt15__new_allocatorIdED2Ev(ptr noundef nonnull align 1 dereferenceable(1) %0) unnamed_addr #6 comdat align 2 {
  %2 = alloca ptr, align 8
  store ptr %0, ptr %2, align 8
  %3 = load ptr, ptr %2, align 8
  ret void
}

; Function Attrs: noinline nounwind optnone uwtable
define linkonce_odr dso_local void @_ZNSt15__new_allocatorISt6vectorIdSaIdEEEC2Ev(ptr noundef nonnull align 1 dereferenceable(1) %0) unnamed_addr #6 comdat align 2 {
  %2 = alloca ptr, align 8
  store ptr %0, ptr %2, align 8
  %3 = load ptr, ptr %2, align 8
  ret void
}

; Function Attrs: noinline nounwind optnone uwtable
define linkonce_odr dso_local void @_ZNSt12_Vector_baseISt6vectorIdSaIdEESaIS2_EEC2ERKS3_(ptr noundef nonnull align 8 dereferenceable(24) %0, ptr noundef nonnull align 1 dereferenceable(1) %1) unnamed_addr #6 comdat align 2 {
  %3 = alloca ptr, align 8
  %4 = alloca ptr, align 8
  store ptr %0, ptr %3, align 8
  store ptr %1, ptr %4, align 8
  %5 = load ptr, ptr %3, align 8
  %6 = getelementptr inbounds %"struct.std::_Vector_base", ptr %5, i32 0, i32 0
  %7 = load ptr, ptr %4, align 8
  call void @_ZNSt12_Vector_baseISt6vectorIdSaIdEESaIS2_EE12_Vector_implC2ERKS3_(ptr noundef nonnull align 8 dereferenceable(24) %6, ptr noundef nonnull align 1 dereferenceable(1) %7) #3
  ret void
}

; Function Attrs: mustprogress noinline optnone uwtable
define linkonce_odr dso_local void @_ZNSt6vectorIS_IdSaIdEESaIS1_EE19_M_range_initializeIPKS1_EEvT_S7_St20forward_iterator_tag(ptr noundef nonnull align 8 dereferenceable(24) %0, ptr noundef %1, ptr noundef %2) #5 comdat align 2 {
  %4 = alloca %"struct.std::forward_iterator_tag", align 1
  %5 = alloca ptr, align 8
  %6 = alloca ptr, align 8
  %7 = alloca ptr, align 8
  %8 = alloca i64, align 8
  store ptr %0, ptr %5, align 8
  store ptr %1, ptr %6, align 8
  store ptr %2, ptr %7, align 8
  %9 = load ptr, ptr %5, align 8
  %10 = load ptr, ptr %6, align 8
  %11 = load ptr, ptr %7, align 8
  %12 = call noundef i64 @_ZSt8distanceIPKSt6vectorIdSaIdEEENSt15iterator_traitsIT_E15difference_typeES6_S6_(ptr noundef %10, ptr noundef %11)
  store i64 %12, ptr %8, align 8
  %13 = load i64, ptr %8, align 8
  %14 = call noundef nonnull align 1 dereferenceable(1) ptr @_ZNSt12_Vector_baseISt6vectorIdSaIdEESaIS2_EE19_M_get_Tp_allocatorEv(ptr noundef nonnull align 8 dereferenceable(24) %9) #3
  %15 = call noundef i64 @_ZNSt6vectorIS_IdSaIdEESaIS1_EE17_S_check_init_lenEmRKS2_(i64 noundef %13, ptr noundef nonnull align 1 dereferenceable(1) %14)
  %16 = call noundef ptr @_ZNSt12_Vector_baseISt6vectorIdSaIdEESaIS2_EE11_M_allocateEm(ptr noundef nonnull align 8 dereferenceable(24) %9, i64 noundef %15)
  %17 = getelementptr inbounds %"struct.std::_Vector_base", ptr %9, i32 0, i32 0
  %18 = getelementptr inbounds %"struct.std::_Vector_base<std::vector<double>, std::allocator<std::vector<double>>>::_Vector_impl_data", ptr %17, i32 0, i32 0
  store ptr %16, ptr %18, align 8
  %19 = getelementptr inbounds %"struct.std::_Vector_base", ptr %9, i32 0, i32 0
  %20 = getelementptr inbounds %"struct.std::_Vector_base<std::vector<double>, std::allocator<std::vector<double>>>::_Vector_impl_data", ptr %19, i32 0, i32 0
  %21 = load ptr, ptr %20, align 8
  %22 = load i64, ptr %8, align 8
  %23 = getelementptr inbounds %"class.std::vector.0", ptr %21, i64 %22
  %24 = getelementptr inbounds %"struct.std::_Vector_base", ptr %9, i32 0, i32 0
  %25 = getelementptr inbounds %"struct.std::_Vector_base<std::vector<double>, std::allocator<std::vector<double>>>::_Vector_impl_data", ptr %24, i32 0, i32 2
  store ptr %23, ptr %25, align 8
  %26 = load ptr, ptr %6, align 8
  %27 = load ptr, ptr %7, align 8
  %28 = getelementptr inbounds %"struct.std::_Vector_base", ptr %9, i32 0, i32 0
  %29 = getelementptr inbounds %"struct.std::_Vector_base<std::vector<double>, std::allocator<std::vector<double>>>::_Vector_impl_data", ptr %28, i32 0, i32 0
  %30 = load ptr, ptr %29, align 8
  %31 = call noundef nonnull align 1 dereferenceable(1) ptr @_ZNSt12_Vector_baseISt6vectorIdSaIdEESaIS2_EE19_M_get_Tp_allocatorEv(ptr noundef nonnull align 8 dereferenceable(24) %9) #3
  %32 = call noundef ptr @_ZSt22__uninitialized_copy_aIPKSt6vectorIdSaIdEEPS2_S2_ET0_T_S7_S6_RSaIT1_E(ptr noundef %26, ptr noundef %27, ptr noundef %30, ptr noundef nonnull align 1 dereferenceable(1) %31)
  %33 = getelementptr inbounds %"struct.std::_Vector_base", ptr %9, i32 0, i32 0
  %34 = getelementptr inbounds %"struct.std::_Vector_base<std::vector<double>, std::allocator<std::vector<double>>>::_Vector_impl_data", ptr %33, i32 0, i32 1
  store ptr %32, ptr %34, align 8
  ret void
}

; Function Attrs: mustprogress noinline nounwind optnone uwtable
define linkonce_odr dso_local noundef ptr @_ZNKSt16initializer_listISt6vectorIdSaIdEEE5beginEv(ptr noundef nonnull align 8 dereferenceable(16) %0) #11 comdat align 2 {
  %2 = alloca ptr, align 8
  store ptr %0, ptr %2, align 8
  %3 = load ptr, ptr %2, align 8
  %4 = getelementptr inbounds %"class.std::initializer_list", ptr %3, i32 0, i32 0
  %5 = load ptr, ptr %4, align 8
  ret ptr %5
}

; Function Attrs: mustprogress noinline nounwind optnone uwtable
define linkonce_odr dso_local noundef ptr @_ZNKSt16initializer_listISt6vectorIdSaIdEEE3endEv(ptr noundef nonnull align 8 dereferenceable(16) %0) #11 comdat align 2 {
  %2 = alloca ptr, align 8
  store ptr %0, ptr %2, align 8
  %3 = load ptr, ptr %2, align 8
  %4 = call noundef ptr @_ZNKSt16initializer_listISt6vectorIdSaIdEEE5beginEv(ptr noundef nonnull align 8 dereferenceable(16) %3) #3
  %5 = call noundef i64 @_ZNKSt16initializer_listISt6vectorIdSaIdEEE4sizeEv(ptr noundef nonnull align 8 dereferenceable(16) %3) #3
  %6 = getelementptr inbounds %"class.std::vector.0", ptr %4, i64 %5
  ret ptr %6
}

; Function Attrs: noinline nounwind optnone uwtable
define linkonce_odr dso_local void @_ZNSt12_Vector_baseISt6vectorIdSaIdEESaIS2_EED2Ev(ptr noundef nonnull align 8 dereferenceable(24) %0) unnamed_addr #6 comdat align 2 personality ptr @__gxx_personality_v0 {
  %2 = alloca ptr, align 8
  store ptr %0, ptr %2, align 8
  %3 = load ptr, ptr %2, align 8
  %4 = getelementptr inbounds %"struct.std::_Vector_base", ptr %3, i32 0, i32 0
  %5 = getelementptr inbounds %"struct.std::_Vector_base<std::vector<double>, std::allocator<std::vector<double>>>::_Vector_impl_data", ptr %4, i32 0, i32 0
  %6 = load ptr, ptr %5, align 8
  %7 = getelementptr inbounds %"struct.std::_Vector_base", ptr %3, i32 0, i32 0
  %8 = getelementptr inbounds %"struct.std::_Vector_base<std::vector<double>, std::allocator<std::vector<double>>>::_Vector_impl_data", ptr %7, i32 0, i32 2
  %9 = load ptr, ptr %8, align 8
  %10 = getelementptr inbounds %"struct.std::_Vector_base", ptr %3, i32 0, i32 0
  %11 = getelementptr inbounds %"struct.std::_Vector_base<std::vector<double>, std::allocator<std::vector<double>>>::_Vector_impl_data", ptr %10, i32 0, i32 0
  %12 = load ptr, ptr %11, align 8
  %13 = ptrtoint ptr %9 to i64
  %14 = ptrtoint ptr %12 to i64
  %15 = sub i64 %13, %14
  %16 = sdiv exact i64 %15, 24
  invoke void @_ZNSt12_Vector_baseISt6vectorIdSaIdEESaIS2_EE13_M_deallocateEPS2_m(ptr noundef nonnull align 8 dereferenceable(24) %3, ptr noundef %6, i64 noundef %16)
          to label %17 unwind label %19

17:                                               ; preds = %1
  %18 = getelementptr inbounds %"struct.std::_Vector_base", ptr %3, i32 0, i32 0
  call void @_ZNSt12_Vector_baseISt6vectorIdSaIdEESaIS2_EE12_Vector_implD2Ev(ptr noundef nonnull align 8 dereferenceable(24) %18) #3
  ret void

19:                                               ; preds = %1
  %20 = landingpad { ptr, i32 }
          catch ptr null
  %21 = extractvalue { ptr, i32 } %20, 0
  call void @__clang_call_terminate(ptr %21) #18
  unreachable
}

; Function Attrs: noinline nounwind optnone uwtable
define linkonce_odr dso_local void @_ZNSt12_Vector_baseISt6vectorIdSaIdEESaIS2_EE12_Vector_implC2ERKS3_(ptr noundef nonnull align 8 dereferenceable(24) %0, ptr noundef nonnull align 1 dereferenceable(1) %1) unnamed_addr #6 comdat align 2 {
  %3 = alloca ptr, align 8
  %4 = alloca ptr, align 8
  store ptr %0, ptr %3, align 8
  store ptr %1, ptr %4, align 8
  %5 = load ptr, ptr %3, align 8
  %6 = load ptr, ptr %4, align 8
  call void @_ZNSaISt6vectorIdSaIdEEEC2ERKS2_(ptr noundef nonnull align 1 dereferenceable(1) %5, ptr noundef nonnull align 1 dereferenceable(1) %6) #3
  call void @_ZNSt12_Vector_baseISt6vectorIdSaIdEESaIS2_EE17_Vector_impl_dataC2Ev(ptr noundef nonnull align 8 dereferenceable(24) %5) #3
  ret void
}

; Function Attrs: noinline nounwind optnone uwtable
define linkonce_odr dso_local void @_ZNSt12_Vector_baseISt6vectorIdSaIdEESaIS2_EE17_Vector_impl_dataC2Ev(ptr noundef nonnull align 8 dereferenceable(24) %0) unnamed_addr #6 comdat align 2 {
  %2 = alloca ptr, align 8
  store ptr %0, ptr %2, align 8
  %3 = load ptr, ptr %2, align 8
  %4 = getelementptr inbounds %"struct.std::_Vector_base<std::vector<double>, std::allocator<std::vector<double>>>::_Vector_impl_data", ptr %3, i32 0, i32 0
  store ptr null, ptr %4, align 8
  %5 = getelementptr inbounds %"struct.std::_Vector_base<std::vector<double>, std::allocator<std::vector<double>>>::_Vector_impl_data", ptr %3, i32 0, i32 1
  store ptr null, ptr %5, align 8
  %6 = getelementptr inbounds %"struct.std::_Vector_base<std::vector<double>, std::allocator<std::vector<double>>>::_Vector_impl_data", ptr %3, i32 0, i32 2
  store ptr null, ptr %6, align 8
  ret void
}

; Function Attrs: noinline nounwind optnone uwtable
define linkonce_odr dso_local void @_ZNSt15__new_allocatorISt6vectorIdSaIdEEEC2ERKS3_(ptr noundef nonnull align 1 dereferenceable(1) %0, ptr noundef nonnull align 1 dereferenceable(1) %1) unnamed_addr #6 comdat align 2 {
  %3 = alloca ptr, align 8
  %4 = alloca ptr, align 8
  store ptr %0, ptr %3, align 8
  store ptr %1, ptr %4, align 8
  %5 = load ptr, ptr %3, align 8
  ret void
}

; Function Attrs: mustprogress noinline optnone uwtable
define linkonce_odr dso_local noundef i64 @_ZSt8distanceIPKSt6vectorIdSaIdEEENSt15iterator_traitsIT_E15difference_typeES6_S6_(ptr noundef %0, ptr noundef %1) #5 comdat {
  %3 = alloca ptr, align 8
  %4 = alloca ptr, align 8
  %5 = alloca %"struct.std::random_access_iterator_tag", align 1
  %6 = alloca %"struct.std::random_access_iterator_tag", align 1
  store ptr %0, ptr %3, align 8
  store ptr %1, ptr %4, align 8
  %7 = load ptr, ptr %3, align 8
  %8 = load ptr, ptr %4, align 8
  call void @_ZSt19__iterator_categoryIPKSt6vectorIdSaIdEEENSt15iterator_traitsIT_E17iterator_categoryERKS6_(ptr noundef nonnull align 8 dereferenceable(8) %3)
  %9 = call noundef i64 @_ZSt10__distanceIPKSt6vectorIdSaIdEEENSt15iterator_traitsIT_E15difference_typeES6_S6_St26random_access_iterator_tag(ptr noundef %7, ptr noundef %8)
  ret i64 %9
}

; Function Attrs: mustprogress noinline optnone uwtable
define linkonce_odr dso_local noundef ptr @_ZNSt12_Vector_baseISt6vectorIdSaIdEESaIS2_EE11_M_allocateEm(ptr noundef nonnull align 8 dereferenceable(24) %0, i64 noundef %1) #5 comdat align 2 {
  %3 = alloca ptr, align 8
  %4 = alloca i64, align 8
  store ptr %0, ptr %3, align 8
  store i64 %1, ptr %4, align 8
  %5 = load ptr, ptr %3, align 8
  %6 = load i64, ptr %4, align 8
  %7 = icmp ne i64 %6, 0
  br i1 %7, label %8, label %12

8:                                                ; preds = %2
  %9 = getelementptr inbounds %"struct.std::_Vector_base", ptr %5, i32 0, i32 0
  %10 = load i64, ptr %4, align 8
  %11 = call noundef ptr @_ZNSt16allocator_traitsISaISt6vectorIdSaIdEEEE8allocateERS3_m(ptr noundef nonnull align 1 dereferenceable(1) %9, i64 noundef %10)
  br label %13

12:                                               ; preds = %2
  br label %13

13:                                               ; preds = %12, %8
  %14 = phi ptr [ %11, %8 ], [ null, %12 ]
  ret ptr %14
}

; Function Attrs: mustprogress noinline optnone uwtable
define linkonce_odr dso_local noundef i64 @_ZNSt6vectorIS_IdSaIdEESaIS1_EE17_S_check_init_lenEmRKS2_(i64 noundef %0, ptr noundef nonnull align 1 dereferenceable(1) %1) #5 comdat align 2 {
  %3 = alloca i64, align 8
  %4 = alloca ptr, align 8
  %5 = alloca %"class.std::allocator", align 1
  store i64 %0, ptr %3, align 8
  store ptr %1, ptr %4, align 8
  %6 = load i64, ptr %3, align 8
  %7 = load ptr, ptr %4, align 8
  call void @_ZNSaISt6vectorIdSaIdEEEC2ERKS2_(ptr noundef nonnull align 1 dereferenceable(1) %5, ptr noundef nonnull align 1 dereferenceable(1) %7) #3
  %8 = call noundef i64 @_ZNSt6vectorIS_IdSaIdEESaIS1_EE11_S_max_sizeERKS2_(ptr noundef nonnull align 1 dereferenceable(1) %5) #3
  %9 = icmp ugt i64 %6, %8
  call void @_ZNSaISt6vectorIdSaIdEEED2Ev(ptr noundef nonnull align 1 dereferenceable(1) %5) #3
  br i1 %9, label %10, label %11

10:                                               ; preds = %2
  call void @_ZSt20__throw_length_errorPKc(ptr noundef @.str.31) #19
  unreachable

11:                                               ; preds = %2
  %12 = load i64, ptr %3, align 8
  ret i64 %12
}

; Function Attrs: mustprogress noinline nounwind optnone uwtable
define linkonce_odr dso_local noundef nonnull align 1 dereferenceable(1) ptr @_ZNSt12_Vector_baseISt6vectorIdSaIdEESaIS2_EE19_M_get_Tp_allocatorEv(ptr noundef nonnull align 8 dereferenceable(24) %0) #11 comdat align 2 {
  %2 = alloca ptr, align 8
  store ptr %0, ptr %2, align 8
  %3 = load ptr, ptr %2, align 8
  %4 = getelementptr inbounds %"struct.std::_Vector_base", ptr %3, i32 0, i32 0
  ret ptr %4
}

; Function Attrs: mustprogress noinline optnone uwtable
define linkonce_odr dso_local noundef ptr @_ZSt22__uninitialized_copy_aIPKSt6vectorIdSaIdEEPS2_S2_ET0_T_S7_S6_RSaIT1_E(ptr noundef %0, ptr noundef %1, ptr noundef %2, ptr noundef nonnull align 1 dereferenceable(1) %3) #5 comdat {
  %5 = alloca ptr, align 8
  %6 = alloca ptr, align 8
  %7 = alloca ptr, align 8
  %8 = alloca ptr, align 8
  store ptr %0, ptr %5, align 8
  store ptr %1, ptr %6, align 8
  store ptr %2, ptr %7, align 8
  store ptr %3, ptr %8, align 8
  %9 = load ptr, ptr %5, align 8
  %10 = load ptr, ptr %6, align 8
  %11 = load ptr, ptr %7, align 8
  %12 = call noundef ptr @_ZSt18uninitialized_copyIPKSt6vectorIdSaIdEEPS2_ET0_T_S7_S6_(ptr noundef %9, ptr noundef %10, ptr noundef %11)
  ret ptr %12
}

; Function Attrs: mustprogress noinline nounwind optnone uwtable
define linkonce_odr dso_local noundef i64 @_ZSt10__distanceIPKSt6vectorIdSaIdEEENSt15iterator_traitsIT_E15difference_typeES6_S6_St26random_access_iterator_tag(ptr noundef %0, ptr noundef %1) #11 comdat {
  %3 = alloca %"struct.std::random_access_iterator_tag", align 1
  %4 = alloca ptr, align 8
  %5 = alloca ptr, align 8
  store ptr %0, ptr %4, align 8
  store ptr %1, ptr %5, align 8
  %6 = load ptr, ptr %5, align 8
  %7 = load ptr, ptr %4, align 8
  %8 = ptrtoint ptr %6 to i64
  %9 = ptrtoint ptr %7 to i64
  %10 = sub i64 %8, %9
  %11 = sdiv exact i64 %10, 24
  ret i64 %11
}

; Function Attrs: mustprogress noinline nounwind optnone uwtable
define linkonce_odr dso_local void @_ZSt19__iterator_categoryIPKSt6vectorIdSaIdEEENSt15iterator_traitsIT_E17iterator_categoryERKS6_(ptr noundef nonnull align 8 dereferenceable(8) %0) #11 comdat {
  %2 = alloca ptr, align 8
  store ptr %0, ptr %2, align 8
  ret void
}

; Function Attrs: mustprogress noinline optnone uwtable
define linkonce_odr dso_local noundef ptr @_ZNSt16allocator_traitsISaISt6vectorIdSaIdEEEE8allocateERS3_m(ptr noundef nonnull align 1 dereferenceable(1) %0, i64 noundef %1) #5 comdat align 2 {
  %3 = alloca ptr, align 8
  %4 = alloca i64, align 8
  store ptr %0, ptr %3, align 8
  store i64 %1, ptr %4, align 8
  %5 = load ptr, ptr %3, align 8
  %6 = load i64, ptr %4, align 8
  %7 = call noundef ptr @_ZNSt15__new_allocatorISt6vectorIdSaIdEEE8allocateEmPKv(ptr noundef nonnull align 1 dereferenceable(1) %5, i64 noundef %6, ptr noundef null)
  ret ptr %7
}

; Function Attrs: mustprogress noinline optnone uwtable
define linkonce_odr dso_local noundef ptr @_ZNSt15__new_allocatorISt6vectorIdSaIdEEE8allocateEmPKv(ptr noundef nonnull align 1 dereferenceable(1) %0, i64 noundef %1, ptr noundef %2) #5 comdat align 2 {
  %4 = alloca ptr, align 8
  %5 = alloca i64, align 8
  %6 = alloca ptr, align 8
  store ptr %0, ptr %4, align 8
  store i64 %1, ptr %5, align 8
  store ptr %2, ptr %6, align 8
  %7 = load ptr, ptr %4, align 8
  %8 = load i64, ptr %5, align 8
  %9 = call noundef i64 @_ZNKSt15__new_allocatorISt6vectorIdSaIdEEE11_M_max_sizeEv(ptr noundef nonnull align 1 dereferenceable(1) %7) #3
  %10 = icmp ugt i64 %8, %9
  br i1 %10, label %11, label %16

11:                                               ; preds = %3
  %12 = load i64, ptr %5, align 8
  %13 = icmp ugt i64 %12, 768614336404564650
  br i1 %13, label %14, label %15

14:                                               ; preds = %11
  call void @_ZSt28__throw_bad_array_new_lengthv() #19
  unreachable

15:                                               ; preds = %11
  call void @_ZSt17__throw_bad_allocv() #19
  unreachable

16:                                               ; preds = %3
  %17 = load i64, ptr %5, align 8
  %18 = mul i64 %17, 24
  %19 = call noalias noundef nonnull ptr @_Znwm(i64 noundef %18) #20
  ret ptr %19
}

; Function Attrs: mustprogress noinline nounwind optnone uwtable
define linkonce_odr dso_local noundef i64 @_ZNKSt15__new_allocatorISt6vectorIdSaIdEEE11_M_max_sizeEv(ptr noundef nonnull align 1 dereferenceable(1) %0) #11 comdat align 2 {
  %2 = alloca ptr, align 8
  store ptr %0, ptr %2, align 8
  %3 = load ptr, ptr %2, align 8
  ret i64 384307168202282325
}

; Function Attrs: mustprogress noinline nounwind optnone uwtable
define linkonce_odr dso_local noundef i64 @_ZNSt6vectorIS_IdSaIdEESaIS1_EE11_S_max_sizeERKS2_(ptr noundef nonnull align 1 dereferenceable(1) %0) #11 comdat align 2 {
  %2 = alloca ptr, align 8
  %3 = alloca i64, align 8
  %4 = alloca i64, align 8
  store ptr %0, ptr %2, align 8
  store i64 384307168202282325, ptr %3, align 8
  %5 = load ptr, ptr %2, align 8
  %6 = call noundef i64 @_ZNSt16allocator_traitsISaISt6vectorIdSaIdEEEE8max_sizeERKS3_(ptr noundef nonnull align 1 dereferenceable(1) %5) #3
  store i64 %6, ptr %4, align 8
  %7 = call noundef nonnull align 8 dereferenceable(8) ptr @_ZSt3minImERKT_S2_S2_(ptr noundef nonnull align 8 dereferenceable(8) %3, ptr noundef nonnull align 8 dereferenceable(8) %4)
  %8 = load i64, ptr %7, align 8
  ret i64 %8
}

; Function Attrs: noinline nounwind optnone uwtable
define linkonce_odr dso_local void @_ZNSaISt6vectorIdSaIdEEEC2ERKS2_(ptr noundef nonnull align 1 dereferenceable(1) %0, ptr noundef nonnull align 1 dereferenceable(1) %1) unnamed_addr #6 comdat align 2 {
  %3 = alloca ptr, align 8
  %4 = alloca ptr, align 8
  store ptr %0, ptr %3, align 8
  store ptr %1, ptr %4, align 8
  %5 = load ptr, ptr %3, align 8
  %6 = load ptr, ptr %4, align 8
  call void @_ZNSt15__new_allocatorISt6vectorIdSaIdEEEC2ERKS3_(ptr noundef nonnull align 1 dereferenceable(1) %5, ptr noundef nonnull align 1 dereferenceable(1) %6) #3
  ret void
}

; Function Attrs: mustprogress noinline nounwind optnone uwtable
define linkonce_odr dso_local noundef i64 @_ZNSt16allocator_traitsISaISt6vectorIdSaIdEEEE8max_sizeERKS3_(ptr noundef nonnull align 1 dereferenceable(1) %0) #11 comdat align 2 {
  %2 = alloca ptr, align 8
  store ptr %0, ptr %2, align 8
  %3 = load ptr, ptr %2, align 8
  %4 = call noundef i64 @_ZNKSt15__new_allocatorISt6vectorIdSaIdEEE8max_sizeEv(ptr noundef nonnull align 1 dereferenceable(1) %3) #3
  ret i64 %4
}

; Function Attrs: mustprogress noinline nounwind optnone uwtable
define linkonce_odr dso_local noundef i64 @_ZNKSt15__new_allocatorISt6vectorIdSaIdEEE8max_sizeEv(ptr noundef nonnull align 1 dereferenceable(1) %0) #11 comdat align 2 {
  %2 = alloca ptr, align 8
  store ptr %0, ptr %2, align 8
  %3 = load ptr, ptr %2, align 8
  %4 = call noundef i64 @_ZNKSt15__new_allocatorISt6vectorIdSaIdEEE11_M_max_sizeEv(ptr noundef nonnull align 1 dereferenceable(1) %3) #3
  ret i64 %4
}

; Function Attrs: mustprogress noinline optnone uwtable
define linkonce_odr dso_local noundef ptr @_ZSt18uninitialized_copyIPKSt6vectorIdSaIdEEPS2_ET0_T_S7_S6_(ptr noundef %0, ptr noundef %1, ptr noundef %2) #5 comdat {
  %4 = alloca ptr, align 8
  %5 = alloca ptr, align 8
  %6 = alloca ptr, align 8
  %7 = alloca i8, align 1
  %8 = alloca i8, align 1
  store ptr %0, ptr %4, align 8
  store ptr %1, ptr %5, align 8
  store ptr %2, ptr %6, align 8
  store i8 0, ptr %7, align 1
  store i8 0, ptr %8, align 1
  %9 = load ptr, ptr %4, align 8
  %10 = load ptr, ptr %5, align 8
  %11 = load ptr, ptr %6, align 8
  %12 = call noundef ptr @_ZNSt20__uninitialized_copyILb0EE13__uninit_copyIPKSt6vectorIdSaIdEEPS4_EET0_T_S9_S8_(ptr noundef %9, ptr noundef %10, ptr noundef %11)
  ret ptr %12
}

; Function Attrs: mustprogress noinline optnone uwtable
define linkonce_odr dso_local noundef ptr @_ZNSt20__uninitialized_copyILb0EE13__uninit_copyIPKSt6vectorIdSaIdEEPS4_EET0_T_S9_S8_(ptr noundef %0, ptr noundef %1, ptr noundef %2) #5 comdat align 2 {
  %4 = alloca ptr, align 8
  %5 = alloca ptr, align 8
  %6 = alloca ptr, align 8
  store ptr %0, ptr %4, align 8
  store ptr %1, ptr %5, align 8
  store ptr %2, ptr %6, align 8
  %7 = load ptr, ptr %4, align 8
  %8 = load ptr, ptr %5, align 8
  %9 = load ptr, ptr %6, align 8
  %10 = call noundef ptr @_ZSt16__do_uninit_copyIPKSt6vectorIdSaIdEEPS2_ET0_T_S7_S6_(ptr noundef %7, ptr noundef %8, ptr noundef %9)
  ret ptr %10
}

; Function Attrs: mustprogress noinline optnone uwtable
define linkonce_odr dso_local noundef ptr @_ZSt16__do_uninit_copyIPKSt6vectorIdSaIdEEPS2_ET0_T_S7_S6_(ptr noundef %0, ptr noundef %1, ptr noundef %2) #5 comdat personality ptr @__gxx_personality_v0 {
  %4 = alloca ptr, align 8
  %5 = alloca ptr, align 8
  %6 = alloca ptr, align 8
  %7 = alloca ptr, align 8
  %8 = alloca ptr, align 8
  %9 = alloca i32, align 4
  store ptr %0, ptr %4, align 8
  store ptr %1, ptr %5, align 8
  store ptr %2, ptr %6, align 8
  %10 = load ptr, ptr %6, align 8
  store ptr %10, ptr %7, align 8
  br label %11

11:                                               ; preds = %19, %3
  %12 = load ptr, ptr %4, align 8
  %13 = load ptr, ptr %5, align 8
  %14 = icmp ne ptr %12, %13
  br i1 %14, label %15, label %34

15:                                               ; preds = %11
  %16 = load ptr, ptr %7, align 8
  %17 = load ptr, ptr %4, align 8
  invoke void @_ZSt10_ConstructISt6vectorIdSaIdEEJRKS2_EEvPT_DpOT0_(ptr noundef %16, ptr noundef nonnull align 8 dereferenceable(24) %17)
          to label %18 unwind label %24

18:                                               ; preds = %15
  br label %19

19:                                               ; preds = %18
  %20 = load ptr, ptr %4, align 8
  %21 = getelementptr inbounds %"class.std::vector.0", ptr %20, i32 1
  store ptr %21, ptr %4, align 8
  %22 = load ptr, ptr %7, align 8
  %23 = getelementptr inbounds %"class.std::vector.0", ptr %22, i32 1
  store ptr %23, ptr %7, align 8
  br label %11, !llvm.loop !9

24:                                               ; preds = %15
  %25 = landingpad { ptr, i32 }
          catch ptr null
  %26 = extractvalue { ptr, i32 } %25, 0
  store ptr %26, ptr %8, align 8
  %27 = extractvalue { ptr, i32 } %25, 1
  store i32 %27, ptr %9, align 4
  br label %28

28:                                               ; preds = %24
  %29 = load ptr, ptr %8, align 8
  %30 = call ptr @__cxa_begin_catch(ptr %29) #3
  %31 = load ptr, ptr %6, align 8
  %32 = load ptr, ptr %7, align 8
  invoke void @_ZSt8_DestroyIPSt6vectorIdSaIdEEEvT_S4_(ptr noundef %31, ptr noundef %32)
          to label %33 unwind label %36

33:                                               ; preds = %28
  invoke void @__cxa_rethrow() #19
          to label %50 unwind label %36

34:                                               ; preds = %11
  %35 = load ptr, ptr %7, align 8
  ret ptr %35

36:                                               ; preds = %33, %28
  %37 = landingpad { ptr, i32 }
          cleanup
  %38 = extractvalue { ptr, i32 } %37, 0
  store ptr %38, ptr %8, align 8
  %39 = extractvalue { ptr, i32 } %37, 1
  store i32 %39, ptr %9, align 4
  invoke void @__cxa_end_catch()
          to label %40 unwind label %47

40:                                               ; preds = %36
  br label %42

41:                                               ; No predecessors!
  call void @llvm.trap()
  unreachable

42:                                               ; preds = %40
  %43 = load ptr, ptr %8, align 8
  %44 = load i32, ptr %9, align 4
  %45 = insertvalue { ptr, i32 } undef, ptr %43, 0
  %46 = insertvalue { ptr, i32 } %45, i32 %44, 1
  resume { ptr, i32 } %46

47:                                               ; preds = %36
  %48 = landingpad { ptr, i32 }
          catch ptr null
  %49 = extractvalue { ptr, i32 } %48, 0
  call void @__clang_call_terminate(ptr %49) #18
  unreachable

50:                                               ; preds = %33
  unreachable
}

; Function Attrs: mustprogress noinline optnone uwtable
define linkonce_odr dso_local void @_ZSt10_ConstructISt6vectorIdSaIdEEJRKS2_EEvPT_DpOT0_(ptr noundef %0, ptr noundef nonnull align 8 dereferenceable(24) %1) #5 comdat {
  %3 = alloca ptr, align 8
  %4 = alloca ptr, align 8
  store ptr %0, ptr %3, align 8
  store ptr %1, ptr %4, align 8
  %5 = load ptr, ptr %3, align 8
  %6 = load ptr, ptr %4, align 8
  call void @_ZNSt6vectorIdSaIdEEC2ERKS1_(ptr noundef nonnull align 8 dereferenceable(24) %5, ptr noundef nonnull align 8 dereferenceable(24) %6)
  ret void
}

; Function Attrs: mustprogress noinline optnone uwtable
define linkonce_odr dso_local void @_ZSt8_DestroyIPSt6vectorIdSaIdEEEvT_S4_(ptr noundef %0, ptr noundef %1) #5 comdat {
  %3 = alloca ptr, align 8
  %4 = alloca ptr, align 8
  store ptr %0, ptr %3, align 8
  store ptr %1, ptr %4, align 8
  %5 = load ptr, ptr %3, align 8
  %6 = load ptr, ptr %4, align 8
  call void @_ZNSt12_Destroy_auxILb0EE9__destroyIPSt6vectorIdSaIdEEEEvT_S6_(ptr noundef %5, ptr noundef %6)
  ret void
}

declare void @__cxa_rethrow()

declare void @__cxa_end_catch()

; Function Attrs: cold noreturn nounwind
declare void @llvm.trap() #16

; Function Attrs: noinline optnone uwtable
define linkonce_odr dso_local void @_ZNSt6vectorIdSaIdEEC2ERKS1_(ptr noundef nonnull align 8 dereferenceable(24) %0, ptr noundef nonnull align 8 dereferenceable(24) %1) unnamed_addr #7 comdat align 2 personality ptr @__gxx_personality_v0 {
  %3 = alloca ptr, align 8
  %4 = alloca ptr, align 8
  %5 = alloca %"class.std::allocator.2", align 1
  %6 = alloca ptr, align 8
  %7 = alloca i32, align 4
  %8 = alloca %"class.__gnu_cxx::__normal_iterator", align 8
  %9 = alloca %"class.__gnu_cxx::__normal_iterator", align 8
  store ptr %0, ptr %3, align 8
  store ptr %1, ptr %4, align 8
  %10 = load ptr, ptr %3, align 8
  %11 = load ptr, ptr %4, align 8
  %12 = call noundef i64 @_ZNKSt6vectorIdSaIdEE4sizeEv(ptr noundef nonnull align 8 dereferenceable(24) %11) #3
  %13 = load ptr, ptr %4, align 8
  %14 = call noundef nonnull align 1 dereferenceable(1) ptr @_ZNKSt12_Vector_baseIdSaIdEE19_M_get_Tp_allocatorEv(ptr noundef nonnull align 8 dereferenceable(24) %13) #3
  call void @_ZN9__gnu_cxx14__alloc_traitsISaIdEdE17_S_select_on_copyERKS1_(ptr sret(%"class.std::allocator.2") align 1 %5, ptr noundef nonnull align 1 dereferenceable(1) %14)
  invoke void @_ZNSt12_Vector_baseIdSaIdEEC2EmRKS0_(ptr noundef nonnull align 8 dereferenceable(24) %10, i64 noundef %12, ptr noundef nonnull align 1 dereferenceable(1) %5)
          to label %15 unwind label %34

15:                                               ; preds = %2
  call void @_ZNSaIdED2Ev(ptr noundef nonnull align 1 dereferenceable(1) %5) #3
  %16 = load ptr, ptr %4, align 8
  %17 = call ptr @_ZNKSt6vectorIdSaIdEE5beginEv(ptr noundef nonnull align 8 dereferenceable(24) %16) #3
  %18 = getelementptr inbounds %"class.__gnu_cxx::__normal_iterator", ptr %8, i32 0, i32 0
  store ptr %17, ptr %18, align 8
  %19 = load ptr, ptr %4, align 8
  %20 = call ptr @_ZNKSt6vectorIdSaIdEE3endEv(ptr noundef nonnull align 8 dereferenceable(24) %19) #3
  %21 = getelementptr inbounds %"class.__gnu_cxx::__normal_iterator", ptr %9, i32 0, i32 0
  store ptr %20, ptr %21, align 8
  %22 = getelementptr inbounds %"struct.std::_Vector_base.1", ptr %10, i32 0, i32 0
  %23 = getelementptr inbounds %"struct.std::_Vector_base<double, std::allocator<double>>::_Vector_impl_data", ptr %22, i32 0, i32 0
  %24 = load ptr, ptr %23, align 8
  %25 = call noundef nonnull align 1 dereferenceable(1) ptr @_ZNSt12_Vector_baseIdSaIdEE19_M_get_Tp_allocatorEv(ptr noundef nonnull align 8 dereferenceable(24) %10) #3
  %26 = getelementptr inbounds %"class.__gnu_cxx::__normal_iterator", ptr %8, i32 0, i32 0
  %27 = load ptr, ptr %26, align 8
  %28 = getelementptr inbounds %"class.__gnu_cxx::__normal_iterator", ptr %9, i32 0, i32 0
  %29 = load ptr, ptr %28, align 8
  %30 = invoke noundef ptr @_ZSt22__uninitialized_copy_aIN9__gnu_cxx17__normal_iteratorIPKdSt6vectorIdSaIdEEEEPddET0_T_SA_S9_RSaIT1_E(ptr %27, ptr %29, ptr noundef %24, ptr noundef nonnull align 1 dereferenceable(1) %25)
          to label %31 unwind label %38

31:                                               ; preds = %15
  %32 = getelementptr inbounds %"struct.std::_Vector_base.1", ptr %10, i32 0, i32 0
  %33 = getelementptr inbounds %"struct.std::_Vector_base<double, std::allocator<double>>::_Vector_impl_data", ptr %32, i32 0, i32 1
  store ptr %30, ptr %33, align 8
  ret void

34:                                               ; preds = %2
  %35 = landingpad { ptr, i32 }
          cleanup
  %36 = extractvalue { ptr, i32 } %35, 0
  store ptr %36, ptr %6, align 8
  %37 = extractvalue { ptr, i32 } %35, 1
  store i32 %37, ptr %7, align 4
  call void @_ZNSaIdED2Ev(ptr noundef nonnull align 1 dereferenceable(1) %5) #3
  br label %42

38:                                               ; preds = %15
  %39 = landingpad { ptr, i32 }
          cleanup
  %40 = extractvalue { ptr, i32 } %39, 0
  store ptr %40, ptr %6, align 8
  %41 = extractvalue { ptr, i32 } %39, 1
  store i32 %41, ptr %7, align 4
  call void @_ZNSt12_Vector_baseIdSaIdEED2Ev(ptr noundef nonnull align 8 dereferenceable(24) %10) #3
  br label %42

42:                                               ; preds = %38, %34
  %43 = load ptr, ptr %6, align 8
  %44 = load i32, ptr %7, align 4
  %45 = insertvalue { ptr, i32 } undef, ptr %43, 0
  %46 = insertvalue { ptr, i32 } %45, i32 %44, 1
  resume { ptr, i32 } %46
}

; Function Attrs: mustprogress noinline nounwind optnone uwtable
define linkonce_odr dso_local noundef i64 @_ZNKSt6vectorIdSaIdEE4sizeEv(ptr noundef nonnull align 8 dereferenceable(24) %0) #11 comdat align 2 {
  %2 = alloca ptr, align 8
  store ptr %0, ptr %2, align 8
  %3 = load ptr, ptr %2, align 8
  %4 = getelementptr inbounds %"struct.std::_Vector_base.1", ptr %3, i32 0, i32 0
