; ModuleID = './graph/breadth_first_search.cpp'
source_filename = "./graph/breadth_first_search.cpp"
target datalayout = "e-m:e-p270:32:32-p271:32:32-p272:64:64-i64:64-f80:128-n8:16:32:64-S128"
target triple = "x86_64-pc-linux-gnu"

%"class.std::ios_base::Init" = type { i8 }
%"class.std::basic_ostream" = type { ptr, %"class.std::basic_ios" }
%"class.std::basic_ios" = type { %"class.std::ios_base", ptr, i8, i8, ptr, ptr, ptr, ptr }
%"class.std::ios_base" = type { ptr, i64, i64, i32, i32, i32, ptr, %"struct.std::ios_base::_Words", [8 x %"struct.std::ios_base::_Words"], i32, ptr, %"class.std::locale" }
%"struct.std::ios_base::_Words" = type { ptr, i64 }
%"class.std::locale" = type { ptr }
%"class.std::basic_istream" = type { ptr, i64, %"class.std::basic_ios" }
%"struct.std::piecewise_construct_t" = type { i8 }
%"class.graph::Graph" = type { %"class.std::map" }
%"class.std::map" = type { %"class.std::_Rb_tree" }
%"class.std::_Rb_tree" = type { %"struct.std::_Rb_tree<int, std::pair<const int, std::__cxx11::list<int>>, std::_Select1st<std::pair<const int, std::__cxx11::list<int>>>, std::less<int>>::_Rb_tree_impl" }
%"struct.std::_Rb_tree<int, std::pair<const int, std::__cxx11::list<int>>, std::_Select1st<std::pair<const int, std::__cxx11::list<int>>>, std::less<int>>::_Rb_tree_impl" = type { %"struct.std::_Rb_tree_key_compare", %"struct.std::_Rb_tree_header" }
%"struct.std::_Rb_tree_key_compare" = type { %"struct.std::less" }
%"struct.std::less" = type { i8 }
%"struct.std::_Rb_tree_header" = type { %"struct.std::_Rb_tree_node_base", i64 }
%"struct.std::_Rb_tree_node_base" = type { i32, ptr, ptr, ptr }
%"class.std::map.0" = type { %"class.std::_Rb_tree.1" }
%"class.std::_Rb_tree.1" = type { %"struct.std::_Rb_tree<int, std::pair<const int, bool>, std::_Select1st<std::pair<const int, bool>>, std::less<int>>::_Rb_tree_impl" }
%"struct.std::_Rb_tree<int, std::pair<const int, bool>, std::_Select1st<std::pair<const int, bool>>, std::less<int>>::_Rb_tree_impl" = type { %"struct.std::_Rb_tree_key_compare", %"struct.std::_Rb_tree_header" }
%"class.graph::Graph.5" = type { %"class.std::map.6" }
%"class.std::map.6" = type { %"class.std::_Rb_tree.7" }
%"class.std::_Rb_tree.7" = type { %"struct.std::_Rb_tree<std::__cxx11::basic_string<char>, std::pair<const std::__cxx11::basic_string<char>, std::__cxx11::list<std::__cxx11::basic_string<char>>>, std::_Select1st<std::pair<const std::__cxx11::basic_string<char>, std::__cxx11::list<std::__cxx11::basic_string<char>>>>, std::less<std::__cxx11::basic_string<char>>>::_Rb_tree_impl" }
%"struct.std::_Rb_tree<std::__cxx11::basic_string<char>, std::pair<const std::__cxx11::basic_string<char>, std::__cxx11::list<std::__cxx11::basic_string<char>>>, std::_Select1st<std::pair<const std::__cxx11::basic_string<char>, std::__cxx11::list<std::__cxx11::basic_string<char>>>>, std::less<std::__cxx11::basic_string<char>>>::_Rb_tree_impl" = type { %"struct.std::_Rb_tree_key_compare.11", %"struct.std::_Rb_tree_header" }
%"struct.std::_Rb_tree_key_compare.11" = type { %"struct.std::less.12" }
%"struct.std::less.12" = type { i8 }
%"class.std::__cxx11::basic_string" = type { %"struct.std::__cxx11::basic_string<char>::_Alloc_hider", i64, %union.anon }
%"struct.std::__cxx11::basic_string<char>::_Alloc_hider" = type { ptr }
%union.anon = type { i64, [8 x i8] }
%"class.std::allocator.14" = type { i8 }
%"class.std::map.17" = type { %"class.std::_Rb_tree.18" }
%"class.std::_Rb_tree.18" = type { %"struct.std::_Rb_tree<std::__cxx11::basic_string<char>, std::pair<const std::__cxx11::basic_string<char>, bool>, std::_Select1st<std::pair<const std::__cxx11::basic_string<char>, bool>>, std::less<std::__cxx11::basic_string<char>>>::_Rb_tree_impl" }
%"struct.std::_Rb_tree<std::__cxx11::basic_string<char>, std::pair<const std::__cxx11::basic_string<char>, bool>, std::_Select1st<std::pair<const std::__cxx11::basic_string<char>, bool>>, std::less<std::__cxx11::basic_string<char>>>::_Rb_tree_impl" = type { %"struct.std::_Rb_tree_key_compare.11", %"struct.std::_Rb_tree_header" }
%"struct.std::_Rb_tree_iterator.74" = type { ptr }
%"struct.std::_List_iterator.81" = type { ptr }
%"class.std::queue.83" = type { %"class.std::deque.84" }
%"class.std::deque.84" = type { %"class.std::_Deque_base.85" }
%"class.std::_Deque_base.85" = type { %"struct.std::_Deque_base<int, std::allocator<int>>::_Deque_impl" }
%"struct.std::_Deque_base<int, std::allocator<int>>::_Deque_impl" = type { %"struct.std::_Deque_base<int, std::allocator<int>>::_Deque_impl_data" }
%"struct.std::_Deque_base<int, std::allocator<int>>::_Deque_impl_data" = type { ptr, i64, %"struct.std::_Deque_iterator.89", %"struct.std::_Deque_iterator.89" }
%"struct.std::_Deque_iterator.89" = type { ptr, ptr, ptr, ptr }
%"struct.std::pair.64" = type { i32, %"class.std::__cxx11::list.67" }
%"class.std::__cxx11::list.67" = type { %"class.std::__cxx11::_List_base.68" }
%"class.std::__cxx11::_List_base.68" = type { %"struct.std::__cxx11::_List_base<int, std::allocator<int>>::_List_impl" }
%"struct.std::__cxx11::_List_base<int, std::allocator<int>>::_List_impl" = type { %"struct.std::__detail::_List_node_header" }
%"struct.std::__detail::_List_node_header" = type { %"struct.std::__detail::_List_node_base", i64 }
%"struct.std::__detail::_List_node_base" = type { ptr, ptr }
%"struct.std::_Rb_tree_iterator" = type { ptr }
%"struct.std::_Rb_tree_const_iterator" = type { ptr }
%"class.std::tuple" = type { %"struct.std::_Tuple_impl" }
%"struct.std::_Tuple_impl" = type { %"struct.std::_Head_base" }
%"struct.std::_Head_base" = type { ptr }
%"class.std::tuple.22" = type { i8 }
%"struct.std::pair" = type <{ i32, i8, [3 x i8] }>
%"struct.std::_Rb_tree_iterator.30" = type { ptr }
%"struct.std::_List_iterator" = type { ptr }
%"class.std::queue" = type { %"class.std::deque" }
%"class.std::deque" = type { %"class.std::_Deque_base" }
%"class.std::_Deque_base" = type { %"struct.std::_Deque_base<std::__cxx11::basic_string<char>, std::allocator<std::__cxx11::basic_string<char>>>::_Deque_impl" }
%"struct.std::_Deque_base<std::__cxx11::basic_string<char>, std::allocator<std::__cxx11::basic_string<char>>>::_Deque_impl" = type { %"struct.std::_Deque_base<std::__cxx11::basic_string<char>, std::allocator<std::__cxx11::basic_string<char>>>::_Deque_impl_data" }
%"struct.std::_Deque_base<std::__cxx11::basic_string<char>, std::allocator<std::__cxx11::basic_string<char>>>::_Deque_impl_data" = type { ptr, i64, %"struct.std::_Deque_iterator", %"struct.std::_Deque_iterator" }
%"struct.std::_Deque_iterator" = type { ptr, ptr, ptr, ptr }
%"struct.std::pair.31" = type { %"class.std::__cxx11::basic_string", %"class.std::__cxx11::list" }
%"class.std::__cxx11::list" = type { %"class.std::__cxx11::_List_base" }
%"class.std::__cxx11::_List_base" = type { %"struct.std::__cxx11::_List_base<std::__cxx11::basic_string<char>, std::allocator<std::__cxx11::basic_string<char>>>::_List_impl" }
%"struct.std::__cxx11::_List_base<std::__cxx11::basic_string<char>, std::allocator<std::__cxx11::basic_string<char>>>::_List_impl" = type { %"struct.std::__detail::_List_node_header" }
%"struct.std::_Rb_tree_iterator.46" = type { ptr }
%"struct.std::_Rb_tree_const_iterator.51" = type { ptr }
%"class.std::tuple.59" = type { %"struct.std::_Tuple_impl.60" }
%"struct.std::_Tuple_impl.60" = type { %"struct.std::_Head_base.61" }
%"struct.std::_Head_base.61" = type { ptr }
%"struct.std::pair.47" = type <{ %"class.std::__cxx11::basic_string", i8, [7 x i8] }>
%"struct.std::_Rb_tree<int, std::pair<const int, bool>, std::_Select1st<std::pair<const int, bool>>, std::less<int>>::_Auto_node" = type { ptr, ptr }
%"struct.std::pair.23" = type { ptr, ptr }
%"struct.std::_Select1st" = type { i8 }
%"struct.std::_Rb_tree_node" = type { %"struct.std::_Rb_tree_node_base", %"struct.__gnu_cxx::__aligned_membuf" }
%"struct.__gnu_cxx::__aligned_membuf" = type { [8 x i8] }
%"struct.std::_Index_tuple" = type { i8 }
%"struct.std::_Index_tuple.26" = type { i8 }
%"struct.std::integral_constant" = type { i8 }
%"struct.std::_Rb_tree_const_iterator.34" = type { ptr }
%"class.std::tuple.35" = type { %"struct.std::_Tuple_impl.36" }
%"struct.std::_Tuple_impl.36" = type { %"struct.std::_Head_base.37" }
%"struct.std::_Head_base.37" = type { ptr }
%"struct.std::_Rb_tree<std::__cxx11::basic_string<char>, std::pair<const std::__cxx11::basic_string<char>, std::__cxx11::list<std::__cxx11::basic_string<char>>>, std::_Select1st<std::pair<const std::__cxx11::basic_string<char>, std::__cxx11::list<std::__cxx11::basic_string<char>>>>, std::less<std::__cxx11::basic_string<char>>>::_Auto_node" = type { ptr, ptr }
%"struct.std::_Select1st.40" = type { i8 }
%"struct.std::_Rb_tree_node.38" = type { %"struct.std::_Rb_tree_node_base", %"struct.__gnu_cxx::__aligned_membuf.39" }
%"struct.__gnu_cxx::__aligned_membuf.39" = type { [56 x i8] }
%"struct.std::_List_node" = type { %"struct.std::__detail::_List_node_base", %"struct.__gnu_cxx::__aligned_membuf.42" }
%"struct.__gnu_cxx::__aligned_membuf.42" = type { [32 x i8] }
%"struct.std::__allocated_ptr" = type { ptr, ptr }
%"struct.std::_Rb_tree<std::__cxx11::basic_string<char>, std::pair<const std::__cxx11::basic_string<char>, bool>, std::_Select1st<std::pair<const std::__cxx11::basic_string<char>, bool>>, std::less<std::__cxx11::basic_string<char>>>::_Auto_node" = type { ptr, ptr }
%"struct.std::_Select1st.54" = type { i8 }
%"struct.std::_Rb_tree_node.52" = type { %"struct.std::_Rb_tree_node_base", %"struct.__gnu_cxx::__aligned_membuf.53" }
%"struct.__gnu_cxx::__aligned_membuf.53" = type { [40 x i8] }
%"class.std::allocator.56" = type { i8 }
%"struct.std::_Rb_tree_node.62" = type { %"struct.std::_Rb_tree_node_base", %"struct.__gnu_cxx::__aligned_membuf.63" }
%"struct.__gnu_cxx::__aligned_membuf.63" = type { [32 x i8] }
%"struct.std::_List_node.72" = type <{ %"struct.std::__detail::_List_node_base", %"struct.__gnu_cxx::__aligned_membuf.73", [4 x i8] }>
%"struct.__gnu_cxx::__aligned_membuf.73" = type { [4 x i8] }
%"struct.std::_Rb_tree_const_iterator.75" = type { ptr }
%"class.std::tuple.76" = type { %"struct.std::_Tuple_impl.77" }
%"struct.std::_Tuple_impl.77" = type { %"struct.std::_Head_base.78" }
%"struct.std::_Head_base.78" = type { ptr }
%"struct.std::_Rb_tree<int, std::pair<const int, std::__cxx11::list<int>>, std::_Select1st<std::pair<const int, std::__cxx11::list<int>>>, std::less<int>>::_Auto_node" = type { ptr, ptr }
%"struct.std::_Select1st.79" = type { i8 }
%"struct.std::__allocated_ptr.82" = type { ptr, ptr }
%"class.std::allocator.90" = type { i8 }

$_ZN5graph5GraphIiEC2Ev = comdat any

$_ZN5graph5GraphIiE8add_edgeEiib = comdat any

$_ZN5graph5GraphIiE20breadth_first_searchEi = comdat any

$_ZNSt3mapIibSt4lessIiESaISt4pairIKibEEED2Ev = comdat any

$_ZN5graph5GraphIiED2Ev = comdat any

$_ZNSt3mapIibSt4lessIiESaISt4pairIKibEEEC2Ev = comdat any

$_ZNSt3mapIibSt4lessIiESaISt4pairIKibEEEixEOi = comdat any

$_ZSteqIibSt4lessIiESaISt4pairIKibEEEbRKSt3mapIT_T0_T1_T2_ESD_ = comdat any

$_ZNSt3mapIibSt4lessIiESaISt4pairIKibEEEaSEOS6_ = comdat any

$_ZN5graph5GraphINSt7__cxx1112basic_stringIcSt11char_traitsIcESaIcEEEEC2Ev = comdat any

$_ZN5graph5GraphINSt7__cxx1112basic_stringIcSt11char_traitsIcESaIcEEEE8add_edgeES6_S6_b = comdat any

$_ZNSt3mapINSt7__cxx1112basic_stringIcSt11char_traitsIcESaIcEEEbSt4lessIS5_ESaISt4pairIKS5_bEEEC2Ev = comdat any

$_ZN5graph5GraphINSt7__cxx1112basic_stringIcSt11char_traitsIcESaIcEEEE20breadth_first_searchES6_ = comdat any

$_ZNSt3mapINSt7__cxx1112basic_stringIcSt11char_traitsIcESaIcEEEbSt4lessIS5_ESaISt4pairIKS5_bEEEixEOS5_ = comdat any

$_ZSteqINSt7__cxx1112basic_stringIcSt11char_traitsIcESaIcEEEbSt4lessIS5_ESaISt4pairIKS5_bEEEbRKSt3mapIT_T0_T1_T2_ESJ_ = comdat any

$_ZNSt3mapINSt7__cxx1112basic_stringIcSt11char_traitsIcESaIcEEEbSt4lessIS5_ESaISt4pairIKS5_bEEED2Ev = comdat any

$_ZN5graph5GraphINSt7__cxx1112basic_stringIcSt11char_traitsIcESaIcEEEED2Ev = comdat any

$_ZNSt8_Rb_treeIiSt4pairIKibESt10_Select1stIS2_ESt4lessIiESaIS2_EEC2Ev = comdat any

$_ZNSt8_Rb_treeIiSt4pairIKibESt10_Select1stIS2_ESt4lessIiESaIS2_EE13_Rb_tree_implIS6_Lb1EEC2Ev = comdat any

$_ZNSaISt13_Rb_tree_nodeISt4pairIKibEEEC2Ev = comdat any

$_ZNSt20_Rb_tree_key_compareISt4lessIiEEC2Ev = comdat any

$_ZNSt15_Rb_tree_headerC2Ev = comdat any

$_ZNSt15__new_allocatorISt13_Rb_tree_nodeISt4pairIKibEEEC2Ev = comdat any

$_ZNSt15_Rb_tree_header8_M_resetEv = comdat any

$__clang_call_terminate = comdat any

$_ZNSt3mapIibSt4lessIiESaISt4pairIKibEEE11lower_boundERS3_ = comdat any

$_ZSteqRKSt17_Rb_tree_iteratorISt4pairIKibEES5_ = comdat any

$_ZNSt3mapIibSt4lessIiESaISt4pairIKibEEE3endEv = comdat any

$_ZNKSt3mapIibSt4lessIiESaISt4pairIKibEEE8key_compEv = comdat any

$_ZNKSt4lessIiEclERKiS2_ = comdat any

$_ZNKSt17_Rb_tree_iteratorISt4pairIKibEEdeEv = comdat any

$_ZNSt8_Rb_treeIiSt4pairIKibESt10_Select1stIS2_ESt4lessIiESaIS2_EE22_M_emplace_hint_uniqueIJRKSt21piecewise_construct_tSt5tupleIJOiEESD_IJEEEEESt17_Rb_tree_iteratorIS2_ESt23_Rb_tree_const_iteratorIS2_EDpOT_ = comdat any

$_ZNSt23_Rb_tree_const_iteratorISt4pairIKibEEC2ERKSt17_Rb_tree_iteratorIS2_E = comdat any

$_ZSt16forward_as_tupleIJiEESt5tupleIJDpOT_EES3_ = comdat any

$_ZNSt8_Rb_treeIiSt4pairIKibESt10_Select1stIS2_ESt4lessIiESaIS2_EE11lower_boundERS1_ = comdat any

$_ZNSt8_Rb_treeIiSt4pairIKibESt10_Select1stIS2_ESt4lessIiESaIS2_EE14_M_lower_boundEPSt13_Rb_tree_nodeIS2_EPSt18_Rb_tree_node_baseRS1_ = comdat any

$_ZNSt8_Rb_treeIiSt4pairIKibESt10_Select1stIS2_ESt4lessIiESaIS2_EE8_M_beginEv = comdat any

$_ZNSt8_Rb_treeIiSt4pairIKibESt10_Select1stIS2_ESt4lessIiESaIS2_EE6_M_endEv = comdat any

$_ZNSt8_Rb_treeIiSt4pairIKibESt10_Select1stIS2_ESt4lessIiESaIS2_EE6_S_keyEPKSt13_Rb_tree_nodeIS2_E = comdat any

$_ZNSt8_Rb_treeIiSt4pairIKibESt10_Select1stIS2_ESt4lessIiESaIS2_EE7_S_leftEPSt18_Rb_tree_node_base = comdat any

$_ZNSt8_Rb_treeIiSt4pairIKibESt10_Select1stIS2_ESt4lessIiESaIS2_EE8_S_rightEPSt18_Rb_tree_node_base = comdat any

$_ZNSt17_Rb_tree_iteratorISt4pairIKibEEC2EPSt18_Rb_tree_node_base = comdat any

$_ZNKSt10_Select1stISt4pairIKibEEclERKS2_ = comdat any

$_ZNKSt13_Rb_tree_nodeISt4pairIKibEE9_M_valptrEv = comdat any

$_ZNK9__gnu_cxx16__aligned_membufISt4pairIKibEE6_M_ptrEv = comdat any

$_ZNK9__gnu_cxx16__aligned_membufISt4pairIKibEE7_M_addrEv = comdat any

$_ZNKSt8_Rb_treeIiSt4pairIKibESt10_Select1stIS2_ESt4lessIiESaIS2_EE9_M_mbeginEv = comdat any

$_ZNSt8_Rb_treeIiSt4pairIKibESt10_Select1stIS2_ESt4lessIiESaIS2_EE3endEv = comdat any

$_ZNKSt8_Rb_treeIiSt4pairIKibESt10_Select1stIS2_ESt4lessIiESaIS2_EE8key_compEv = comdat any

$_ZNSt13_Rb_tree_nodeISt4pairIKibEE9_M_valptrEv = comdat any

$_ZN9__gnu_cxx16__aligned_membufISt4pairIKibEE6_M_ptrEv = comdat any

$_ZN9__gnu_cxx16__aligned_membufISt4pairIKibEE7_M_addrEv = comdat any

$_ZNSt8_Rb_treeIiSt4pairIKibESt10_Select1stIS2_ESt4lessIiESaIS2_EE10_Auto_nodeC2IJRKSt21piecewise_construct_tSt5tupleIJOiEESE_IJEEEEERS8_DpOT_ = comdat any

$_ZNSt8_Rb_treeIiSt4pairIKibESt10_Select1stIS2_ESt4lessIiESaIS2_EE29_M_get_insert_hint_unique_posESt23_Rb_tree_const_iteratorIS2_ERS1_ = comdat any

$_ZNKSt8_Rb_treeIiSt4pairIKibESt10_Select1stIS2_ESt4lessIiESaIS2_EE10_Auto_node6_M_keyEv = comdat any

$_ZNSt8_Rb_treeIiSt4pairIKibESt10_Select1stIS2_ESt4lessIiESaIS2_EE10_Auto_node9_M_insertES0_IPSt18_Rb_tree_node_baseSB_E = comdat any

$_ZNSt8_Rb_treeIiSt4pairIKibESt10_Select1stIS2_ESt4lessIiESaIS2_EE10_Auto_nodeD2Ev = comdat any

$_ZNSt8_Rb_treeIiSt4pairIKibESt10_Select1stIS2_ESt4lessIiESaIS2_EE14_M_create_nodeIJRKSt21piecewise_construct_tSt5tupleIJOiEESD_IJEEEEEPSt13_Rb_tree_nodeIS2_EDpOT_ = comdat any

$_ZNSt8_Rb_treeIiSt4pairIKibESt10_Select1stIS2_ESt4lessIiESaIS2_EE11_M_get_nodeEv = comdat any

$_ZNSt8_Rb_treeIiSt4pairIKibESt10_Select1stIS2_ESt4lessIiESaIS2_EE17_M_construct_nodeIJRKSt21piecewise_construct_tSt5tupleIJOiEESD_IJEEEEEvPSt13_Rb_tree_nodeIS2_EDpOT_ = comdat any

$_ZNSt16allocator_traitsISaISt13_Rb_tree_nodeISt4pairIKibEEEE8allocateERS5_m = comdat any

$_ZNSt8_Rb_treeIiSt4pairIKibESt10_Select1stIS2_ESt4lessIiESaIS2_EE21_M_get_Node_allocatorEv = comdat any

$_ZNSt15__new_allocatorISt13_Rb_tree_nodeISt4pairIKibEEE8allocateEmPKv = comdat any

$_ZNKSt15__new_allocatorISt13_Rb_tree_nodeISt4pairIKibEEE11_M_max_sizeEv = comdat any

$_ZNSt16allocator_traitsISaISt13_Rb_tree_nodeISt4pairIKibEEEE9constructIS3_JRKSt21piecewise_construct_tSt5tupleIJOiEESB_IJEEEEEvRS5_PT_DpOT0_ = comdat any

$_ZNSt8_Rb_treeIiSt4pairIKibESt10_Select1stIS2_ESt4lessIiESaIS2_EE11_M_put_nodeEPSt13_Rb_tree_nodeIS2_E = comdat any

$_ZNSt15__new_allocatorISt13_Rb_tree_nodeISt4pairIKibEEE9constructIS3_JRKSt21piecewise_construct_tSt5tupleIJOiEESA_IJEEEEEvPT_DpOT0_ = comdat any

$_ZNSt5tupleIJOiEEC2EOS1_ = comdat any

$_ZNSt4pairIKibEC2IJOiEJEEESt21piecewise_construct_tSt5tupleIJDpT_EES5_IJDpT0_EE = comdat any

$_ZNSt11_Tuple_implILm0EJOiEEC2EOS1_ = comdat any

$_ZNSt4pairIKibEC2IJOiEJLm0EEJEJEEERSt5tupleIJDpT_EERS4_IJDpT1_EESt12_Index_tupleIJXspT0_EEESD_IJXspT2_EEE = comdat any

$_ZSt3getILm0EJOiEERNSt13tuple_elementIXT_ESt5tupleIJDpT0_EEE4typeERS5_ = comdat any

$_ZSt12__get_helperILm0EOiJEERT0_RSt11_Tuple_implIXT_EJS1_DpT1_EE = comdat any

$_ZNSt11_Tuple_implILm0EJOiEE7_M_headERS1_ = comdat any

$_ZNSt10_Head_baseILm0EOiLb0EE7_M_headERS1_ = comdat any

$_ZNSt16allocator_traitsISaISt13_Rb_tree_nodeISt4pairIKibEEEE10deallocateERS5_PS4_m = comdat any

$_ZNSt15__new_allocatorISt13_Rb_tree_nodeISt4pairIKibEEE10deallocateEPS4_m = comdat any

$_ZNKSt23_Rb_tree_const_iteratorISt4pairIKibEE13_M_const_castEv = comdat any

$_ZNKSt8_Rb_treeIiSt4pairIKibESt10_Select1stIS2_ESt4lessIiESaIS2_EE4sizeEv = comdat any

$_ZNSt8_Rb_treeIiSt4pairIKibESt10_Select1stIS2_ESt4lessIiESaIS2_EE6_S_keyEPKSt18_Rb_tree_node_base = comdat any

$_ZNSt8_Rb_treeIiSt4pairIKibESt10_Select1stIS2_ESt4lessIiESaIS2_EE12_M_rightmostEv = comdat any

$_ZNSt4pairIPSt18_Rb_tree_node_baseS1_EC2IS1_S1_Lb1EEERKS1_S5_ = comdat any

$_ZNSt8_Rb_treeIiSt4pairIKibESt10_Select1stIS2_ESt4lessIiESaIS2_EE24_M_get_insert_unique_posERS1_ = comdat any

$_ZNSt8_Rb_treeIiSt4pairIKibESt10_Select1stIS2_ESt4lessIiESaIS2_EE11_M_leftmostEv = comdat any

$_ZNSt4pairIPSt18_Rb_tree_node_baseS1_EC2IRS1_S4_Lb1EEEOT_OT0_ = comdat any

$_ZNSt17_Rb_tree_iteratorISt4pairIKibEEmmEv = comdat any

$_ZNSt17_Rb_tree_iteratorISt4pairIKibEEppEv = comdat any

$_ZNSt8_Rb_treeIiSt4pairIKibESt10_Select1stIS2_ESt4lessIiESaIS2_EE5beginEv = comdat any

$_ZNSt4pairIPSt18_Rb_tree_node_baseS1_EC2IRPSt13_Rb_tree_nodeIS_IKibEERS1_Lb1EEEOT_OT0_ = comdat any

$_ZNSt8_Rb_treeIiSt4pairIKibESt10_Select1stIS2_ESt4lessIiESaIS2_EE14_M_insert_nodeEPSt18_Rb_tree_node_baseSA_PSt13_Rb_tree_nodeIS2_E = comdat any

$_ZNSt8_Rb_treeIiSt4pairIKibESt10_Select1stIS2_ESt4lessIiESaIS2_EE12_M_drop_nodeEPSt13_Rb_tree_nodeIS2_E = comdat any

$_ZNSt8_Rb_treeIiSt4pairIKibESt10_Select1stIS2_ESt4lessIiESaIS2_EE15_M_destroy_nodeEPSt13_Rb_tree_nodeIS2_E = comdat any

$_ZNSt16allocator_traitsISaISt13_Rb_tree_nodeISt4pairIKibEEEE7destroyIS3_EEvRS5_PT_ = comdat any

$_ZNSt15__new_allocatorISt13_Rb_tree_nodeISt4pairIKibEEE7destroyIS3_EEvPT_ = comdat any

$_ZNSt5tupleIJOiEEC2IJiELb1ELb1EEEDpOT_ = comdat any

$_ZNSt11_Tuple_implILm0EJOiEEC2IiEEOT_ = comdat any

$_ZNSt10_Head_baseILm0EOiLb0EEC2IiEEOT_ = comdat any

$_ZSteqRKSt8_Rb_treeIiSt4pairIKibESt10_Select1stIS2_ESt4lessIiESaIS2_EESA_ = comdat any

$_ZSt5equalISt23_Rb_tree_const_iteratorISt4pairIKibEES4_EbT_S5_T0_ = comdat any

$_ZNKSt8_Rb_treeIiSt4pairIKibESt10_Select1stIS2_ESt4lessIiESaIS2_EE5beginEv = comdat any

$_ZNKSt8_Rb_treeIiSt4pairIKibESt10_Select1stIS2_ESt4lessIiESaIS2_EE3endEv = comdat any

$_ZSt11__equal_auxISt23_Rb_tree_const_iteratorISt4pairIKibEES4_EbT_S5_T0_ = comdat any

$_ZSt12__equal_aux1ISt23_Rb_tree_const_iteratorISt4pairIKibEES4_EbT_S5_T0_ = comdat any

$_ZSt12__niter_baseISt23_Rb_tree_const_iteratorISt4pairIKibEEET_S5_ = comdat any

$_ZNSt7__equalILb0EE5equalISt23_Rb_tree_const_iteratorISt4pairIKibEES6_EEbT_S7_T0_ = comdat any

$_ZStneRKSt23_Rb_tree_const_iteratorISt4pairIKibEES5_ = comdat any

$_ZSteqIKibEbRKSt4pairIT_T0_ES6_ = comdat any

$_ZNKSt23_Rb_tree_const_iteratorISt4pairIKibEEdeEv = comdat any

$_ZNSt23_Rb_tree_const_iteratorISt4pairIKibEEppEv = comdat any

$_ZNSt23_Rb_tree_const_iteratorISt4pairIKibEEC2EPKSt18_Rb_tree_node_base = comdat any

$_ZNSt8_Rb_treeIiSt4pairIKibESt10_Select1stIS2_ESt4lessIiESaIS2_EEaSEOS8_ = comdat any

$_ZNSt8_Rb_treeIiSt4pairIKibESt10_Select1stIS2_ESt4lessIiESaIS2_EE14_M_move_assignERS8_St17integral_constantIbLb1EE = comdat any

$_ZNSt8_Rb_treeIiSt4pairIKibESt10_Select1stIS2_ESt4lessIiESaIS2_EE5clearEv = comdat any

$_ZNSt8_Rb_treeIiSt4pairIKibESt10_Select1stIS2_ESt4lessIiESaIS2_EE7_M_rootEv = comdat any

$_ZNSt8_Rb_treeIiSt4pairIKibESt10_Select1stIS2_ESt4lessIiESaIS2_EE12_M_move_dataERS8_St17integral_constantIbLb1EE = comdat any

$_ZSt15__alloc_on_moveISaISt13_Rb_tree_nodeISt4pairIKibEEEEvRT_S7_ = comdat any

$_ZNSt8_Rb_treeIiSt4pairIKibESt10_Select1stIS2_ESt4lessIiESaIS2_EE8_M_eraseEPSt13_Rb_tree_nodeIS2_E = comdat any

$_ZNSt15_Rb_tree_header12_M_move_dataERS_ = comdat any

$_ZSt18__do_alloc_on_moveISaISt13_Rb_tree_nodeISt4pairIKibEEEEvRT_S7_St17integral_constantIbLb1EE = comdat any

$_ZNSt3mapINSt7__cxx1112basic_stringIcSt11char_traitsIcESaIcEEENS0_4listIS5_SaIS5_EEESt4lessIS5_ESaISt4pairIKS5_S8_EEEC2Ev = comdat any

$_ZNSt8_Rb_treeINSt7__cxx1112basic_stringIcSt11char_traitsIcESaIcEEESt4pairIKS5_NS0_4listIS5_SaIS5_EEEESt10_Select1stISB_ESt4lessIS5_ESaISB_EEC2Ev = comdat any

$_ZNSt8_Rb_treeINSt7__cxx1112basic_stringIcSt11char_traitsIcESaIcEEESt4pairIKS5_NS0_4listIS5_SaIS5_EEEESt10_Select1stISB_ESt4lessIS5_ESaISB_EE13_Rb_tree_implISF_Lb1EEC2Ev = comdat any

$_ZNSaISt13_Rb_tree_nodeISt4pairIKNSt7__cxx1112basic_stringIcSt11char_traitsIcESaIcEEENS1_4listIS6_SaIS6_EEEEEEC2Ev = comdat any

$_ZNSt20_Rb_tree_key_compareISt4lessINSt7__cxx1112basic_stringIcSt11char_traitsIcESaIcEEEEEC2Ev = comdat any

$_ZNSt15__new_allocatorISt13_Rb_tree_nodeISt4pairIKNSt7__cxx1112basic_stringIcSt11char_traitsIcESaIcEEENS2_4listIS7_SaIS7_EEEEEEC2Ev = comdat any

$_ZNSt3mapINSt7__cxx1112basic_stringIcSt11char_traitsIcESaIcEEENS0_4listIS5_SaIS5_EEESt4lessIS5_ESaISt4pairIKS5_S8_EEEixERSC_ = comdat any

$_ZNSt7__cxx114listINS_12basic_stringIcSt11char_traitsIcESaIcEEESaIS5_EE9push_backERKS5_ = comdat any

$_ZNSt3mapINSt7__cxx1112basic_stringIcSt11char_traitsIcESaIcEEENS0_4listIS5_SaIS5_EEESt4lessIS5_ESaISt4pairIKS5_S8_EEE11lower_boundERSC_ = comdat any

$_ZSteqRKSt17_Rb_tree_iteratorISt4pairIKNSt7__cxx1112basic_stringIcSt11char_traitsIcESaIcEEENS1_4listIS6_SaIS6_EEEEESE_ = comdat any

$_ZNSt3mapINSt7__cxx1112basic_stringIcSt11char_traitsIcESaIcEEENS0_4listIS5_SaIS5_EEESt4lessIS5_ESaISt4pairIKS5_S8_EEE3endEv = comdat any

$_ZNKSt3mapINSt7__cxx1112basic_stringIcSt11char_traitsIcESaIcEEENS0_4listIS5_SaIS5_EEESt4lessIS5_ESaISt4pairIKS5_S8_EEE8key_compEv = comdat any

$_ZNKSt4lessINSt7__cxx1112basic_stringIcSt11char_traitsIcESaIcEEEEclERKS5_S8_ = comdat any

$_ZNKSt17_Rb_tree_iteratorISt4pairIKNSt7__cxx1112basic_stringIcSt11char_traitsIcESaIcEEENS1_4listIS6_SaIS6_EEEEEdeEv = comdat any

$_ZNSt8_Rb_treeINSt7__cxx1112basic_stringIcSt11char_traitsIcESaIcEEESt4pairIKS5_NS0_4listIS5_SaIS5_EEEESt10_Select1stISB_ESt4lessIS5_ESaISB_EE22_M_emplace_hint_uniqueIJRKSt21piecewise_construct_tSt5tupleIJRS7_EESM_IJEEEEESt17_Rb_tree_iteratorISB_ESt23_Rb_tree_const_iteratorISB_EDpOT_ = comdat any

$_ZNSt23_Rb_tree_const_iteratorISt4pairIKNSt7__cxx1112basic_stringIcSt11char_traitsIcESaIcEEENS1_4listIS6_SaIS6_EEEEEC2ERKSt17_Rb_tree_iteratorISB_E = comdat any

$_ZNSt5tupleIJRKNSt7__cxx1112basic_stringIcSt11char_traitsIcESaIcEEEEEC2ILb1ELb1EEES7_ = comdat any

$_ZNSt8_Rb_treeINSt7__cxx1112basic_stringIcSt11char_traitsIcESaIcEEESt4pairIKS5_NS0_4listIS5_SaIS5_EEEESt10_Select1stISB_ESt4lessIS5_ESaISB_EE11lower_boundERS7_ = comdat any

$_ZNSt8_Rb_treeINSt7__cxx1112basic_stringIcSt11char_traitsIcESaIcEEESt4pairIKS5_NS0_4listIS5_SaIS5_EEEESt10_Select1stISB_ESt4lessIS5_ESaISB_EE14_M_lower_boundEPSt13_Rb_tree_nodeISB_EPSt18_Rb_tree_node_baseRS7_ = comdat any

$_ZNSt8_Rb_treeINSt7__cxx1112basic_stringIcSt11char_traitsIcESaIcEEESt4pairIKS5_NS0_4listIS5_SaIS5_EEEESt10_Select1stISB_ESt4lessIS5_ESaISB_EE8_M_beginEv = comdat any

$_ZNSt8_Rb_treeINSt7__cxx1112basic_stringIcSt11char_traitsIcESaIcEEESt4pairIKS5_NS0_4listIS5_SaIS5_EEEESt10_Select1stISB_ESt4lessIS5_ESaISB_EE6_M_endEv = comdat any

$_ZNSt8_Rb_treeINSt7__cxx1112basic_stringIcSt11char_traitsIcESaIcEEESt4pairIKS5_NS0_4listIS5_SaIS5_EEEESt10_Select1stISB_ESt4lessIS5_ESaISB_EE6_S_keyEPKSt13_Rb_tree_nodeISB_E = comdat any

$_ZNSt8_Rb_treeINSt7__cxx1112basic_stringIcSt11char_traitsIcESaIcEEESt4pairIKS5_NS0_4listIS5_SaIS5_EEEESt10_Select1stISB_ESt4lessIS5_ESaISB_EE7_S_leftEPSt18_Rb_tree_node_base = comdat any

$_ZNSt8_Rb_treeINSt7__cxx1112basic_stringIcSt11char_traitsIcESaIcEEESt4pairIKS5_NS0_4listIS5_SaIS5_EEEESt10_Select1stISB_ESt4lessIS5_ESaISB_EE8_S_rightEPSt18_Rb_tree_node_base = comdat any

$_ZNSt17_Rb_tree_iteratorISt4pairIKNSt7__cxx1112basic_stringIcSt11char_traitsIcESaIcEEENS1_4listIS6_SaIS6_EEEEEC2EPSt18_Rb_tree_node_base = comdat any

$_ZNKSt10_Select1stISt4pairIKNSt7__cxx1112basic_stringIcSt11char_traitsIcESaIcEEENS1_4listIS6_SaIS6_EEEEEclERKSB_ = comdat any

$_ZNKSt13_Rb_tree_nodeISt4pairIKNSt7__cxx1112basic_stringIcSt11char_traitsIcESaIcEEENS1_4listIS6_SaIS6_EEEEE9_M_valptrEv = comdat any

$_ZNK9__gnu_cxx16__aligned_membufISt4pairIKNSt7__cxx1112basic_stringIcSt11char_traitsIcESaIcEEENS2_4listIS7_SaIS7_EEEEE6_M_ptrEv = comdat any

$_ZNK9__gnu_cxx16__aligned_membufISt4pairIKNSt7__cxx1112basic_stringIcSt11char_traitsIcESaIcEEENS2_4listIS7_SaIS7_EEEEE7_M_addrEv = comdat any

$_ZNKSt8_Rb_treeINSt7__cxx1112basic_stringIcSt11char_traitsIcESaIcEEESt4pairIKS5_NS0_4listIS5_SaIS5_EEEESt10_Select1stISB_ESt4lessIS5_ESaISB_EE9_M_mbeginEv = comdat any

$_ZNSt8_Rb_treeINSt7__cxx1112basic_stringIcSt11char_traitsIcESaIcEEESt4pairIKS5_NS0_4listIS5_SaIS5_EEEESt10_Select1stISB_ESt4lessIS5_ESaISB_EE3endEv = comdat any

$_ZNKSt8_Rb_treeINSt7__cxx1112basic_stringIcSt11char_traitsIcESaIcEEESt4pairIKS5_NS0_4listIS5_SaIS5_EEEESt10_Select1stISB_ESt4lessIS5_ESaISB_EE8key_compEv = comdat any

$_ZStltIcSt11char_traitsIcESaIcEEbRKNSt7__cxx1112basic_stringIT_T0_T1_EESA_ = comdat any

$_ZNSt13_Rb_tree_nodeISt4pairIKNSt7__cxx1112basic_stringIcSt11char_traitsIcESaIcEEENS1_4listIS6_SaIS6_EEEEE9_M_valptrEv = comdat any

$_ZN9__gnu_cxx16__aligned_membufISt4pairIKNSt7__cxx1112basic_stringIcSt11char_traitsIcESaIcEEENS2_4listIS7_SaIS7_EEEEE6_M_ptrEv = comdat any

$_ZN9__gnu_cxx16__aligned_membufISt4pairIKNSt7__cxx1112basic_stringIcSt11char_traitsIcESaIcEEENS2_4listIS7_SaIS7_EEEEE7_M_addrEv = comdat any

$_ZNSt8_Rb_treeINSt7__cxx1112basic_stringIcSt11char_traitsIcESaIcEEESt4pairIKS5_NS0_4listIS5_SaIS5_EEEESt10_Select1stISB_ESt4lessIS5_ESaISB_EE10_Auto_nodeC2IJRKSt21piecewise_construct_tSt5tupleIJRS7_EESN_IJEEEEERSH_DpOT_ = comdat any

$_ZNSt8_Rb_treeINSt7__cxx1112basic_stringIcSt11char_traitsIcESaIcEEESt4pairIKS5_NS0_4listIS5_SaIS5_EEEESt10_Select1stISB_ESt4lessIS5_ESaISB_EE29_M_get_insert_hint_unique_posESt23_Rb_tree_const_iteratorISB_ERS7_ = comdat any

$_ZNKSt8_Rb_treeINSt7__cxx1112basic_stringIcSt11char_traitsIcESaIcEEESt4pairIKS5_NS0_4listIS5_SaIS5_EEEESt10_Select1stISB_ESt4lessIS5_ESaISB_EE10_Auto_node6_M_keyEv = comdat any

$_ZNSt8_Rb_treeINSt7__cxx1112basic_stringIcSt11char_traitsIcESaIcEEESt4pairIKS5_NS0_4listIS5_SaIS5_EEEESt10_Select1stISB_ESt4lessIS5_ESaISB_EE10_Auto_node9_M_insertES6_IPSt18_Rb_tree_node_baseSK_E = comdat any

$_ZNSt8_Rb_treeINSt7__cxx1112basic_stringIcSt11char_traitsIcESaIcEEESt4pairIKS5_NS0_4listIS5_SaIS5_EEEESt10_Select1stISB_ESt4lessIS5_ESaISB_EE10_Auto_nodeD2Ev = comdat any

$_ZNSt8_Rb_treeINSt7__cxx1112basic_stringIcSt11char_traitsIcESaIcEEESt4pairIKS5_NS0_4listIS5_SaIS5_EEEESt10_Select1stISB_ESt4lessIS5_ESaISB_EE14_M_create_nodeIJRKSt21piecewise_construct_tSt5tupleIJRS7_EESM_IJEEEEEPSt13_Rb_tree_nodeISB_EDpOT_ = comdat any

$_ZNSt8_Rb_treeINSt7__cxx1112basic_stringIcSt11char_traitsIcESaIcEEESt4pairIKS5_NS0_4listIS5_SaIS5_EEEESt10_Select1stISB_ESt4lessIS5_ESaISB_EE11_M_get_nodeEv = comdat any

$_ZNSt8_Rb_treeINSt7__cxx1112basic_stringIcSt11char_traitsIcESaIcEEESt4pairIKS5_NS0_4listIS5_SaIS5_EEEESt10_Select1stISB_ESt4lessIS5_ESaISB_EE17_M_construct_nodeIJRKSt21piecewise_construct_tSt5tupleIJRS7_EESM_IJEEEEEvPSt13_Rb_tree_nodeISB_EDpOT_ = comdat any

$_ZNSt16allocator_traitsISaISt13_Rb_tree_nodeISt4pairIKNSt7__cxx1112basic_stringIcSt11char_traitsIcESaIcEEENS2_4listIS7_SaIS7_EEEEEEE8allocateERSE_m = comdat any

$_ZNSt8_Rb_treeINSt7__cxx1112basic_stringIcSt11char_traitsIcESaIcEEESt4pairIKS5_NS0_4listIS5_SaIS5_EEEESt10_Select1stISB_ESt4lessIS5_ESaISB_EE21_M_get_Node_allocatorEv = comdat any

$_ZNSt15__new_allocatorISt13_Rb_tree_nodeISt4pairIKNSt7__cxx1112basic_stringIcSt11char_traitsIcESaIcEEENS2_4listIS7_SaIS7_EEEEEE8allocateEmPKv = comdat any

$_ZNKSt15__new_allocatorISt13_Rb_tree_nodeISt4pairIKNSt7__cxx1112basic_stringIcSt11char_traitsIcESaIcEEENS2_4listIS7_SaIS7_EEEEEE11_M_max_sizeEv = comdat any

$_ZNSt16allocator_traitsISaISt13_Rb_tree_nodeISt4pairIKNSt7__cxx1112basic_stringIcSt11char_traitsIcESaIcEEENS2_4listIS7_SaIS7_EEEEEEE9constructISC_JRKSt21piecewise_construct_tSt5tupleIJRS8_EESK_IJEEEEEvRSE_PT_DpOT0_ = comdat any

$_ZNSt8_Rb_treeINSt7__cxx1112basic_stringIcSt11char_traitsIcESaIcEEESt4pairIKS5_NS0_4listIS5_SaIS5_EEEESt10_Select1stISB_ESt4lessIS5_ESaISB_EE11_M_put_nodeEPSt13_Rb_tree_nodeISB_E = comdat any

$_ZNSt15__new_allocatorISt13_Rb_tree_nodeISt4pairIKNSt7__cxx1112basic_stringIcSt11char_traitsIcESaIcEEENS2_4listIS7_SaIS7_EEEEEE9constructISC_JRKSt21piecewise_construct_tSt5tupleIJRS8_EESJ_IJEEEEEvPT_DpOT0_ = comdat any

$_ZNSt5tupleIJRKNSt7__cxx1112basic_stringIcSt11char_traitsIcESaIcEEEEEC2EOS8_ = comdat any

$_ZNSt4pairIKNSt7__cxx1112basic_stringIcSt11char_traitsIcESaIcEEENS0_4listIS5_SaIS5_EEEEC2IJRS6_EJEEESt21piecewise_construct_tSt5tupleIJDpT_EESE_IJDpT0_EE = comdat any

$_ZNSt11_Tuple_implILm0EJRKNSt7__cxx1112basic_stringIcSt11char_traitsIcESaIcEEEEEC2EOS8_ = comdat any

$_ZNSt4pairIKNSt7__cxx1112basic_stringIcSt11char_traitsIcESaIcEEENS0_4listIS5_SaIS5_EEEEC2IJRS6_EJLm0EEJEJEEERSt5tupleIJDpT_EERSD_IJDpT1_EESt12_Index_tupleIJXspT0_EEESM_IJXspT2_EEE = comdat any

$_ZSt3getILm0EJRKNSt7__cxx1112basic_stringIcSt11char_traitsIcESaIcEEEEERNSt13tuple_elementIXT_ESt5tupleIJDpT0_EEE4typeERSC_ = comdat any

$_ZNSt7__cxx114listINS_12basic_stringIcSt11char_traitsIcESaIcEEESaIS5_EEC2Ev = comdat any

$_ZSt12__get_helperILm0ERKNSt7__cxx1112basic_stringIcSt11char_traitsIcESaIcEEEJEERT0_RSt11_Tuple_implIXT_EJS8_DpT1_EE = comdat any

$_ZNSt11_Tuple_implILm0EJRKNSt7__cxx1112basic_stringIcSt11char_traitsIcESaIcEEEEE7_M_headERS8_ = comdat any

$_ZNSt10_Head_baseILm0ERKNSt7__cxx1112basic_stringIcSt11char_traitsIcESaIcEEELb0EE7_M_headERS8_ = comdat any

$_ZNSt7__cxx1110_List_baseINS_12basic_stringIcSt11char_traitsIcESaIcEEESaIS5_EEC2Ev = comdat any

$_ZNSt7__cxx1110_List_baseINS_12basic_stringIcSt11char_traitsIcESaIcEEESaIS5_EE10_List_implC2Ev = comdat any

$_ZNSaISt10_List_nodeINSt7__cxx1112basic_stringIcSt11char_traitsIcESaIcEEEEEC2Ev = comdat any

$_ZNSt8__detail17_List_node_headerC2Ev = comdat any

$_ZNSt15__new_allocatorISt10_List_nodeINSt7__cxx1112basic_stringIcSt11char_traitsIcESaIcEEEEEC2Ev = comdat any

$_ZNSt8__detail17_List_node_header7_M_initEv = comdat any

$_ZNSt16allocator_traitsISaISt13_Rb_tree_nodeISt4pairIKNSt7__cxx1112basic_stringIcSt11char_traitsIcESaIcEEENS2_4listIS7_SaIS7_EEEEEEE10deallocateERSE_PSD_m = comdat any

$_ZNSt15__new_allocatorISt13_Rb_tree_nodeISt4pairIKNSt7__cxx1112basic_stringIcSt11char_traitsIcESaIcEEENS2_4listIS7_SaIS7_EEEEEE10deallocateEPSD_m = comdat any

$_ZNKSt23_Rb_tree_const_iteratorISt4pairIKNSt7__cxx1112basic_stringIcSt11char_traitsIcESaIcEEENS1_4listIS6_SaIS6_EEEEE13_M_const_castEv = comdat any

$_ZNKSt8_Rb_treeINSt7__cxx1112basic_stringIcSt11char_traitsIcESaIcEEESt4pairIKS5_NS0_4listIS5_SaIS5_EEEESt10_Select1stISB_ESt4lessIS5_ESaISB_EE4sizeEv = comdat any

$_ZNSt8_Rb_treeINSt7__cxx1112basic_stringIcSt11char_traitsIcESaIcEEESt4pairIKS5_NS0_4listIS5_SaIS5_EEEESt10_Select1stISB_ESt4lessIS5_ESaISB_EE6_S_keyEPKSt18_Rb_tree_node_base = comdat any

$_ZNSt8_Rb_treeINSt7__cxx1112basic_stringIcSt11char_traitsIcESaIcEEESt4pairIKS5_NS0_4listIS5_SaIS5_EEEESt10_Select1stISB_ESt4lessIS5_ESaISB_EE12_M_rightmostEv = comdat any

$_ZNSt8_Rb_treeINSt7__cxx1112basic_stringIcSt11char_traitsIcESaIcEEESt4pairIKS5_NS0_4listIS5_SaIS5_EEEESt10_Select1stISB_ESt4lessIS5_ESaISB_EE24_M_get_insert_unique_posERS7_ = comdat any

$_ZNSt8_Rb_treeINSt7__cxx1112basic_stringIcSt11char_traitsIcESaIcEEESt4pairIKS5_NS0_4listIS5_SaIS5_EEEESt10_Select1stISB_ESt4lessIS5_ESaISB_EE11_M_leftmostEv = comdat any

$_ZNSt17_Rb_tree_iteratorISt4pairIKNSt7__cxx1112basic_stringIcSt11char_traitsIcESaIcEEENS1_4listIS6_SaIS6_EEEEEmmEv = comdat any

$_ZNSt17_Rb_tree_iteratorISt4pairIKNSt7__cxx1112basic_stringIcSt11char_traitsIcESaIcEEENS1_4listIS6_SaIS6_EEEEEppEv = comdat any

$_ZNSt8_Rb_treeINSt7__cxx1112basic_stringIcSt11char_traitsIcESaIcEEESt4pairIKS5_NS0_4listIS5_SaIS5_EEEESt10_Select1stISB_ESt4lessIS5_ESaISB_EE5beginEv = comdat any

$_ZNSt4pairIPSt18_Rb_tree_node_baseS1_EC2IRPSt13_Rb_tree_nodeIS_IKNSt7__cxx1112basic_stringIcSt11char_traitsIcESaIcEEENS5_4listISA_SaISA_EEEEERS1_Lb1EEEOT_OT0_ = comdat any

$_ZNSt8_Rb_treeINSt7__cxx1112basic_stringIcSt11char_traitsIcESaIcEEESt4pairIKS5_NS0_4listIS5_SaIS5_EEEESt10_Select1stISB_ESt4lessIS5_ESaISB_EE14_M_insert_nodeEPSt18_Rb_tree_node_baseSJ_PSt13_Rb_tree_nodeISB_E = comdat any

$_ZNSt8_Rb_treeINSt7__cxx1112basic_stringIcSt11char_traitsIcESaIcEEESt4pairIKS5_NS0_4listIS5_SaIS5_EEEESt10_Select1stISB_ESt4lessIS5_ESaISB_EE12_M_drop_nodeEPSt13_Rb_tree_nodeISB_E = comdat any

$_ZNSt8_Rb_treeINSt7__cxx1112basic_stringIcSt11char_traitsIcESaIcEEESt4pairIKS5_NS0_4listIS5_SaIS5_EEEESt10_Select1stISB_ESt4lessIS5_ESaISB_EE15_M_destroy_nodeEPSt13_Rb_tree_nodeISB_E = comdat any

$_ZNSt16allocator_traitsISaISt13_Rb_tree_nodeISt4pairIKNSt7__cxx1112basic_stringIcSt11char_traitsIcESaIcEEENS2_4listIS7_SaIS7_EEEEEEE7destroyISC_EEvRSE_PT_ = comdat any

$_ZNSt15__new_allocatorISt13_Rb_tree_nodeISt4pairIKNSt7__cxx1112basic_stringIcSt11char_traitsIcESaIcEEENS2_4listIS7_SaIS7_EEEEEE7destroyISC_EEvPT_ = comdat any

$_ZNSt4pairIKNSt7__cxx1112basic_stringIcSt11char_traitsIcESaIcEEENS0_4listIS5_SaIS5_EEEED2Ev = comdat any

$_ZNSt7__cxx114listINS_12basic_stringIcSt11char_traitsIcESaIcEEESaIS5_EED2Ev = comdat any

$_ZNSt7__cxx1110_List_baseINS_12basic_stringIcSt11char_traitsIcESaIcEEESaIS5_EED2Ev = comdat any

$_ZNSt7__cxx1110_List_baseINS_12basic_stringIcSt11char_traitsIcESaIcEEESaIS5_EE8_M_clearEv = comdat any

$_ZNSt7__cxx1110_List_baseINS_12basic_stringIcSt11char_traitsIcESaIcEEESaIS5_EE10_List_implD2Ev = comdat any

$_ZNSt10_List_nodeINSt7__cxx1112basic_stringIcSt11char_traitsIcESaIcEEEE9_M_valptrEv = comdat any

$_ZNSt16allocator_traitsISaISt10_List_nodeINSt7__cxx1112basic_stringIcSt11char_traitsIcESaIcEEEEEE7destroyIS6_EEvRS8_PT_ = comdat any

$_ZNSt7__cxx1110_List_baseINS_12basic_stringIcSt11char_traitsIcESaIcEEESaIS5_EE21_M_get_Node_allocatorEv = comdat any

$_ZNSt7__cxx1110_List_baseINS_12basic_stringIcSt11char_traitsIcESaIcEEESaIS5_EE11_M_put_nodeEPSt10_List_nodeIS5_E = comdat any

$_ZN9__gnu_cxx16__aligned_membufINSt7__cxx1112basic_stringIcSt11char_traitsIcESaIcEEEE6_M_ptrEv = comdat any

$_ZN9__gnu_cxx16__aligned_membufINSt7__cxx1112basic_stringIcSt11char_traitsIcESaIcEEEE7_M_addrEv = comdat any

$_ZNSt15__new_allocatorISt10_List_nodeINSt7__cxx1112basic_stringIcSt11char_traitsIcESaIcEEEEE7destroyIS6_EEvPT_ = comdat any

$_ZNSt16allocator_traitsISaISt10_List_nodeINSt7__cxx1112basic_stringIcSt11char_traitsIcESaIcEEEEEE10deallocateERS8_PS7_m = comdat any

$_ZNSt15__new_allocatorISt10_List_nodeINSt7__cxx1112basic_stringIcSt11char_traitsIcESaIcEEEEE10deallocateEPS7_m = comdat any

$_ZNSaISt10_List_nodeINSt7__cxx1112basic_stringIcSt11char_traitsIcESaIcEEEEED2Ev = comdat any

$_ZNSt15__new_allocatorISt10_List_nodeINSt7__cxx1112basic_stringIcSt11char_traitsIcESaIcEEEEED2Ev = comdat any

$_ZNSt11_Tuple_implILm0EJRKNSt7__cxx1112basic_stringIcSt11char_traitsIcESaIcEEEEEC2ES7_ = comdat any

$_ZNSt10_Head_baseILm0ERKNSt7__cxx1112basic_stringIcSt11char_traitsIcESaIcEEELb0EEC2ES7_ = comdat any

$_ZNSt7__cxx114listINS_12basic_stringIcSt11char_traitsIcESaIcEEESaIS5_EE9_M_insertIJRKS5_EEEvSt14_List_iteratorIS5_EDpOT_ = comdat any

$_ZNSt7__cxx114listINS_12basic_stringIcSt11char_traitsIcESaIcEEESaIS5_EE3endEv = comdat any

$_ZNSt7__cxx114listINS_12basic_stringIcSt11char_traitsIcESaIcEEESaIS5_EE14_M_create_nodeIJRKS5_EEEPSt10_List_nodeIS5_EDpOT_ = comdat any

$_ZNSt7__cxx1110_List_baseINS_12basic_stringIcSt11char_traitsIcESaIcEEESaIS5_EE11_M_inc_sizeEm = comdat any

$_ZNSt7__cxx1110_List_baseINS_12basic_stringIcSt11char_traitsIcESaIcEEESaIS5_EE11_M_get_nodeEv = comdat any

$_ZNSt15__allocated_ptrISaISt10_List_nodeINSt7__cxx1112basic_stringIcSt11char_traitsIcESaIcEEEEEEC2ERS8_PS7_ = comdat any

$_ZNSt16allocator_traitsISaISt10_List_nodeINSt7__cxx1112basic_stringIcSt11char_traitsIcESaIcEEEEEE9constructIS6_JRKS6_EEEvRS8_PT_DpOT0_ = comdat any

$_ZNSt15__allocated_ptrISaISt10_List_nodeINSt7__cxx1112basic_stringIcSt11char_traitsIcESaIcEEEEEEaSEDn = comdat any

$_ZNSt15__allocated_ptrISaISt10_List_nodeINSt7__cxx1112basic_stringIcSt11char_traitsIcESaIcEEEEEED2Ev = comdat any

$_ZNSt16allocator_traitsISaISt10_List_nodeINSt7__cxx1112basic_stringIcSt11char_traitsIcESaIcEEEEEE8allocateERS8_m = comdat any

$_ZNSt15__new_allocatorISt10_List_nodeINSt7__cxx1112basic_stringIcSt11char_traitsIcESaIcEEEEE8allocateEmPKv = comdat any

$_ZNKSt15__new_allocatorISt10_List_nodeINSt7__cxx1112basic_stringIcSt11char_traitsIcESaIcEEEEE11_M_max_sizeEv = comdat any

$_ZNSt15__new_allocatorISt10_List_nodeINSt7__cxx1112basic_stringIcSt11char_traitsIcESaIcEEEEE9constructIS6_JRKS6_EEEvPT_DpOT0_ = comdat any

$_ZNSt14_List_iteratorINSt7__cxx1112basic_stringIcSt11char_traitsIcESaIcEEEEC2EPNSt8__detail15_List_node_baseE = comdat any

$_ZNSt8_Rb_treeINSt7__cxx1112basic_stringIcSt11char_traitsIcESaIcEEESt4pairIKS5_bESt10_Select1stIS8_ESt4lessIS5_ESaIS8_EEC2Ev = comdat any

$_ZNSt8_Rb_treeINSt7__cxx1112basic_stringIcSt11char_traitsIcESaIcEEESt4pairIKS5_bESt10_Select1stIS8_ESt4lessIS5_ESaIS8_EE13_Rb_tree_implISC_Lb1EEC2Ev = comdat any

$_ZNSaISt13_Rb_tree_nodeISt4pairIKNSt7__cxx1112basic_stringIcSt11char_traitsIcESaIcEEEbEEEC2Ev = comdat any

$_ZNSt15__new_allocatorISt13_Rb_tree_nodeISt4pairIKNSt7__cxx1112basic_stringIcSt11char_traitsIcESaIcEEEbEEEC2Ev = comdat any

$_ZNSt3mapINSt7__cxx1112basic_stringIcSt11char_traitsIcESaIcEEENS0_4listIS5_SaIS5_EEESt4lessIS5_ESaISt4pairIKS5_S8_EEE5beginEv = comdat any

$_ZStneRKSt17_Rb_tree_iteratorISt4pairIKNSt7__cxx1112basic_stringIcSt11char_traitsIcESaIcEEENS1_4listIS6_SaIS6_EEEEESE_ = comdat any

$_ZNSt3mapINSt7__cxx1112basic_stringIcSt11char_traitsIcESaIcEEEbSt4lessIS5_ESaISt4pairIKS5_bEEEixERS9_ = comdat any

$_ZNSt7__cxx114listINS_12basic_stringIcSt11char_traitsIcESaIcEEESaIS5_EE5beginEv = comdat any

$_ZStneRKSt14_List_iteratorINSt7__cxx1112basic_stringIcSt11char_traitsIcESaIcEEEES8_ = comdat any

$_ZNKSt14_List_iteratorINSt7__cxx1112basic_stringIcSt11char_traitsIcESaIcEEEEdeEv = comdat any

$_ZNSt14_List_iteratorINSt7__cxx1112basic_stringIcSt11char_traitsIcESaIcEEEEppEv = comdat any

$_ZNSt5queueINSt7__cxx1112basic_stringIcSt11char_traitsIcESaIcEEESt5dequeIS5_SaIS5_EEEC2IS8_vEEv = comdat any

$_ZNSt5queueINSt7__cxx1112basic_stringIcSt11char_traitsIcESaIcEEESt5dequeIS5_SaIS5_EEE4pushERKS5_ = comdat any

$_ZNKSt5queueINSt7__cxx1112basic_stringIcSt11char_traitsIcESaIcEEESt5dequeIS5_SaIS5_EEE5emptyEv = comdat any

$_ZNSt5queueINSt7__cxx1112basic_stringIcSt11char_traitsIcESaIcEEESt5dequeIS5_SaIS5_EEE5frontEv = comdat any

$_ZNSt5queueINSt7__cxx1112basic_stringIcSt11char_traitsIcESaIcEEESt5dequeIS5_SaIS5_EEE3popEv = comdat any

$_ZNSt5queueINSt7__cxx1112basic_stringIcSt11char_traitsIcESaIcEEESt5dequeIS5_SaIS5_EEED2Ev = comdat any

$_ZNSt3mapINSt7__cxx1112basic_stringIcSt11char_traitsIcESaIcEEEbSt4lessIS5_ESaISt4pairIKS5_bEEE11lower_boundERS9_ = comdat any

$_ZSteqRKSt17_Rb_tree_iteratorISt4pairIKNSt7__cxx1112basic_stringIcSt11char_traitsIcESaIcEEEbEESB_ = comdat any

$_ZNSt3mapINSt7__cxx1112basic_stringIcSt11char_traitsIcESaIcEEEbSt4lessIS5_ESaISt4pairIKS5_bEEE3endEv = comdat any

$_ZNKSt3mapINSt7__cxx1112basic_stringIcSt11char_traitsIcESaIcEEEbSt4lessIS5_ESaISt4pairIKS5_bEEE8key_compEv = comdat any

$_ZNKSt17_Rb_tree_iteratorISt4pairIKNSt7__cxx1112basic_stringIcSt11char_traitsIcESaIcEEEbEEdeEv = comdat any

$_ZNSt8_Rb_treeINSt7__cxx1112basic_stringIcSt11char_traitsIcESaIcEEESt4pairIKS5_bESt10_Select1stIS8_ESt4lessIS5_ESaIS8_EE22_M_emplace_hint_uniqueIJRKSt21piecewise_construct_tSt5tupleIJRS7_EESJ_IJEEEEESt17_Rb_tree_iteratorIS8_ESt23_Rb_tree_const_iteratorIS8_EDpOT_ = comdat any

$_ZNSt23_Rb_tree_const_iteratorISt4pairIKNSt7__cxx1112basic_stringIcSt11char_traitsIcESaIcEEEbEEC2ERKSt17_Rb_tree_iteratorIS8_E = comdat any

$_ZNSt8_Rb_treeINSt7__cxx1112basic_stringIcSt11char_traitsIcESaIcEEESt4pairIKS5_bESt10_Select1stIS8_ESt4lessIS5_ESaIS8_EE11lower_boundERS7_ = comdat any

$_ZNSt8_Rb_treeINSt7__cxx1112basic_stringIcSt11char_traitsIcESaIcEEESt4pairIKS5_bESt10_Select1stIS8_ESt4lessIS5_ESaIS8_EE14_M_lower_boundEPSt13_Rb_tree_nodeIS8_EPSt18_Rb_tree_node_baseRS7_ = comdat any

$_ZNSt8_Rb_treeINSt7__cxx1112basic_stringIcSt11char_traitsIcESaIcEEESt4pairIKS5_bESt10_Select1stIS8_ESt4lessIS5_ESaIS8_EE8_M_beginEv = comdat any

$_ZNSt8_Rb_treeINSt7__cxx1112basic_stringIcSt11char_traitsIcESaIcEEESt4pairIKS5_bESt10_Select1stIS8_ESt4lessIS5_ESaIS8_EE6_M_endEv = comdat any

$_ZNSt8_Rb_treeINSt7__cxx1112basic_stringIcSt11char_traitsIcESaIcEEESt4pairIKS5_bESt10_Select1stIS8_ESt4lessIS5_ESaIS8_EE6_S_keyEPKSt13_Rb_tree_nodeIS8_E = comdat any

$_ZNSt8_Rb_treeINSt7__cxx1112basic_stringIcSt11char_traitsIcESaIcEEESt4pairIKS5_bESt10_Select1stIS8_ESt4lessIS5_ESaIS8_EE7_S_leftEPSt18_Rb_tree_node_base = comdat any

$_ZNSt8_Rb_treeINSt7__cxx1112basic_stringIcSt11char_traitsIcESaIcEEESt4pairIKS5_bESt10_Select1stIS8_ESt4lessIS5_ESaIS8_EE8_S_rightEPSt18_Rb_tree_node_base = comdat any

$_ZNSt17_Rb_tree_iteratorISt4pairIKNSt7__cxx1112basic_stringIcSt11char_traitsIcESaIcEEEbEEC2EPSt18_Rb_tree_node_base = comdat any

$_ZNKSt10_Select1stISt4pairIKNSt7__cxx1112basic_stringIcSt11char_traitsIcESaIcEEEbEEclERKS8_ = comdat any

$_ZNKSt13_Rb_tree_nodeISt4pairIKNSt7__cxx1112basic_stringIcSt11char_traitsIcESaIcEEEbEE9_M_valptrEv = comdat any

$_ZNK9__gnu_cxx16__aligned_membufISt4pairIKNSt7__cxx1112basic_stringIcSt11char_traitsIcESaIcEEEbEE6_M_ptrEv = comdat any

$_ZNK9__gnu_cxx16__aligned_membufISt4pairIKNSt7__cxx1112basic_stringIcSt11char_traitsIcESaIcEEEbEE7_M_addrEv = comdat any

$_ZNKSt8_Rb_treeINSt7__cxx1112basic_stringIcSt11char_traitsIcESaIcEEESt4pairIKS5_bESt10_Select1stIS8_ESt4lessIS5_ESaIS8_EE9_M_mbeginEv = comdat any

$_ZNSt8_Rb_treeINSt7__cxx1112basic_stringIcSt11char_traitsIcESaIcEEESt4pairIKS5_bESt10_Select1stIS8_ESt4lessIS5_ESaIS8_EE3endEv = comdat any

$_ZNKSt8_Rb_treeINSt7__cxx1112basic_stringIcSt11char_traitsIcESaIcEEESt4pairIKS5_bESt10_Select1stIS8_ESt4lessIS5_ESaIS8_EE8key_compEv = comdat any

$_ZNSt13_Rb_tree_nodeISt4pairIKNSt7__cxx1112basic_stringIcSt11char_traitsIcESaIcEEEbEE9_M_valptrEv = comdat any

$_ZN9__gnu_cxx16__aligned_membufISt4pairIKNSt7__cxx1112basic_stringIcSt11char_traitsIcESaIcEEEbEE6_M_ptrEv = comdat any

$_ZN9__gnu_cxx16__aligned_membufISt4pairIKNSt7__cxx1112basic_stringIcSt11char_traitsIcESaIcEEEbEE7_M_addrEv = comdat any

$_ZNSt8_Rb_treeINSt7__cxx1112basic_stringIcSt11char_traitsIcESaIcEEESt4pairIKS5_bESt10_Select1stIS8_ESt4lessIS5_ESaIS8_EE10_Auto_nodeC2IJRKSt21piecewise_construct_tSt5tupleIJRS7_EESK_IJEEEEERSE_DpOT_ = comdat any

$_ZNSt8_Rb_treeINSt7__cxx1112basic_stringIcSt11char_traitsIcESaIcEEESt4pairIKS5_bESt10_Select1stIS8_ESt4lessIS5_ESaIS8_EE29_M_get_insert_hint_unique_posESt23_Rb_tree_const_iteratorIS8_ERS7_ = comdat any

$_ZNKSt8_Rb_treeINSt7__cxx1112basic_stringIcSt11char_traitsIcESaIcEEESt4pairIKS5_bESt10_Select1stIS8_ESt4lessIS5_ESaIS8_EE10_Auto_node6_M_keyEv = comdat any

$_ZNSt8_Rb_treeINSt7__cxx1112basic_stringIcSt11char_traitsIcESaIcEEESt4pairIKS5_bESt10_Select1stIS8_ESt4lessIS5_ESaIS8_EE10_Auto_node9_M_insertES6_IPSt18_Rb_tree_node_baseSH_E = comdat any

$_ZNSt8_Rb_treeINSt7__cxx1112basic_stringIcSt11char_traitsIcESaIcEEESt4pairIKS5_bESt10_Select1stIS8_ESt4lessIS5_ESaIS8_EE10_Auto_nodeD2Ev = comdat any

$_ZNSt8_Rb_treeINSt7__cxx1112basic_stringIcSt11char_traitsIcESaIcEEESt4pairIKS5_bESt10_Select1stIS8_ESt4lessIS5_ESaIS8_EE14_M_create_nodeIJRKSt21piecewise_construct_tSt5tupleIJRS7_EESJ_IJEEEEEPSt13_Rb_tree_nodeIS8_EDpOT_ = comdat any

$_ZNSt8_Rb_treeINSt7__cxx1112basic_stringIcSt11char_traitsIcESaIcEEESt4pairIKS5_bESt10_Select1stIS8_ESt4lessIS5_ESaIS8_EE11_M_get_nodeEv = comdat any

$_ZNSt8_Rb_treeINSt7__cxx1112basic_stringIcSt11char_traitsIcESaIcEEESt4pairIKS5_bESt10_Select1stIS8_ESt4lessIS5_ESaIS8_EE17_M_construct_nodeIJRKSt21piecewise_construct_tSt5tupleIJRS7_EESJ_IJEEEEEvPSt13_Rb_tree_nodeIS8_EDpOT_ = comdat any

$_ZNSt16allocator_traitsISaISt13_Rb_tree_nodeISt4pairIKNSt7__cxx1112basic_stringIcSt11char_traitsIcESaIcEEEbEEEE8allocateERSB_m = comdat any

$_ZNSt8_Rb_treeINSt7__cxx1112basic_stringIcSt11char_traitsIcESaIcEEESt4pairIKS5_bESt10_Select1stIS8_ESt4lessIS5_ESaIS8_EE21_M_get_Node_allocatorEv = comdat any

$_ZNSt15__new_allocatorISt13_Rb_tree_nodeISt4pairIKNSt7__cxx1112basic_stringIcSt11char_traitsIcESaIcEEEbEEE8allocateEmPKv = comdat any

$_ZNKSt15__new_allocatorISt13_Rb_tree_nodeISt4pairIKNSt7__cxx1112basic_stringIcSt11char_traitsIcESaIcEEEbEEE11_M_max_sizeEv = comdat any

$_ZNSt16allocator_traitsISaISt13_Rb_tree_nodeISt4pairIKNSt7__cxx1112basic_stringIcSt11char_traitsIcESaIcEEEbEEEE9constructIS9_JRKSt21piecewise_construct_tSt5tupleIJRS8_EESH_IJEEEEEvRSB_PT_DpOT0_ = comdat any

$_ZNSt8_Rb_treeINSt7__cxx1112basic_stringIcSt11char_traitsIcESaIcEEESt4pairIKS5_bESt10_Select1stIS8_ESt4lessIS5_ESaIS8_EE11_M_put_nodeEPSt13_Rb_tree_nodeIS8_E = comdat any

$_ZNSt15__new_allocatorISt13_Rb_tree_nodeISt4pairIKNSt7__cxx1112basic_stringIcSt11char_traitsIcESaIcEEEbEEE9constructIS9_JRKSt21piecewise_construct_tSt5tupleIJRS8_EESG_IJEEEEEvPT_DpOT0_ = comdat any

$_ZNSt4pairIKNSt7__cxx1112basic_stringIcSt11char_traitsIcESaIcEEEbEC2IJRS6_EJEEESt21piecewise_construct_tSt5tupleIJDpT_EESB_IJDpT0_EE = comdat any

$_ZNSt4pairIKNSt7__cxx1112basic_stringIcSt11char_traitsIcESaIcEEEbEC2IJRS6_EJLm0EEJEJEEERSt5tupleIJDpT_EERSA_IJDpT1_EESt12_Index_tupleIJXspT0_EEESJ_IJXspT2_EEE = comdat any

$_ZNSt16allocator_traitsISaISt13_Rb_tree_nodeISt4pairIKNSt7__cxx1112basic_stringIcSt11char_traitsIcESaIcEEEbEEEE10deallocateERSB_PSA_m = comdat any

$_ZNSt15__new_allocatorISt13_Rb_tree_nodeISt4pairIKNSt7__cxx1112basic_stringIcSt11char_traitsIcESaIcEEEbEEE10deallocateEPSA_m = comdat any

$_ZNKSt23_Rb_tree_const_iteratorISt4pairIKNSt7__cxx1112basic_stringIcSt11char_traitsIcESaIcEEEbEE13_M_const_castEv = comdat any

$_ZNKSt8_Rb_treeINSt7__cxx1112basic_stringIcSt11char_traitsIcESaIcEEESt4pairIKS5_bESt10_Select1stIS8_ESt4lessIS5_ESaIS8_EE4sizeEv = comdat any

$_ZNSt8_Rb_treeINSt7__cxx1112basic_stringIcSt11char_traitsIcESaIcEEESt4pairIKS5_bESt10_Select1stIS8_ESt4lessIS5_ESaIS8_EE6_S_keyEPKSt18_Rb_tree_node_base = comdat any

$_ZNSt8_Rb_treeINSt7__cxx1112basic_stringIcSt11char_traitsIcESaIcEEESt4pairIKS5_bESt10_Select1stIS8_ESt4lessIS5_ESaIS8_EE12_M_rightmostEv = comdat any

$_ZNSt8_Rb_treeINSt7__cxx1112basic_stringIcSt11char_traitsIcESaIcEEESt4pairIKS5_bESt10_Select1stIS8_ESt4lessIS5_ESaIS8_EE24_M_get_insert_unique_posERS7_ = comdat any

$_ZNSt8_Rb_treeINSt7__cxx1112basic_stringIcSt11char_traitsIcESaIcEEESt4pairIKS5_bESt10_Select1stIS8_ESt4lessIS5_ESaIS8_EE11_M_leftmostEv = comdat any

$_ZNSt17_Rb_tree_iteratorISt4pairIKNSt7__cxx1112basic_stringIcSt11char_traitsIcESaIcEEEbEEmmEv = comdat any

$_ZNSt17_Rb_tree_iteratorISt4pairIKNSt7__cxx1112basic_stringIcSt11char_traitsIcESaIcEEEbEEppEv = comdat any

$_ZNSt8_Rb_treeINSt7__cxx1112basic_stringIcSt11char_traitsIcESaIcEEESt4pairIKS5_bESt10_Select1stIS8_ESt4lessIS5_ESaIS8_EE5beginEv = comdat any

$_ZNSt4pairIPSt18_Rb_tree_node_baseS1_EC2IRPSt13_Rb_tree_nodeIS_IKNSt7__cxx1112basic_stringIcSt11char_traitsIcESaIcEEEbEERS1_Lb1EEEOT_OT0_ = comdat any

$_ZNSt8_Rb_treeINSt7__cxx1112basic_stringIcSt11char_traitsIcESaIcEEESt4pairIKS5_bESt10_Select1stIS8_ESt4lessIS5_ESaIS8_EE14_M_insert_nodeEPSt18_Rb_tree_node_baseSG_PSt13_Rb_tree_nodeIS8_E = comdat any

$_ZNSt8_Rb_treeINSt7__cxx1112basic_stringIcSt11char_traitsIcESaIcEEESt4pairIKS5_bESt10_Select1stIS8_ESt4lessIS5_ESaIS8_EE12_M_drop_nodeEPSt13_Rb_tree_nodeIS8_E = comdat any

$_ZNSt8_Rb_treeINSt7__cxx1112basic_stringIcSt11char_traitsIcESaIcEEESt4pairIKS5_bESt10_Select1stIS8_ESt4lessIS5_ESaIS8_EE15_M_destroy_nodeEPSt13_Rb_tree_nodeIS8_E = comdat any

$_ZNSt16allocator_traitsISaISt13_Rb_tree_nodeISt4pairIKNSt7__cxx1112basic_stringIcSt11char_traitsIcESaIcEEEbEEEE7destroyIS9_EEvRSB_PT_ = comdat any

$_ZNSt15__new_allocatorISt13_Rb_tree_nodeISt4pairIKNSt7__cxx1112basic_stringIcSt11char_traitsIcESaIcEEEbEEE7destroyIS9_EEvPT_ = comdat any

$_ZNSt4pairIKNSt7__cxx1112basic_stringIcSt11char_traitsIcESaIcEEEbED2Ev = comdat any

$_ZNSt5dequeINSt7__cxx1112basic_stringIcSt11char_traitsIcESaIcEEESaIS5_EEC2Ev = comdat any

$_ZNSt11_Deque_baseINSt7__cxx1112basic_stringIcSt11char_traitsIcESaIcEEESaIS5_EEC2Ev = comdat any

$_ZNSt11_Deque_baseINSt7__cxx1112basic_stringIcSt11char_traitsIcESaIcEEESaIS5_EE11_Deque_implC2Ev = comdat any

$_ZNSt11_Deque_baseINSt7__cxx1112basic_stringIcSt11char_traitsIcESaIcEEESaIS5_EE17_M_initialize_mapEm = comdat any

$_ZNSt11_Deque_baseINSt7__cxx1112basic_stringIcSt11char_traitsIcESaIcEEESaIS5_EE11_Deque_implD2Ev = comdat any

$_ZNSaINSt7__cxx1112basic_stringIcSt11char_traitsIcESaIcEEEEC2Ev = comdat any

$_ZNSt11_Deque_baseINSt7__cxx1112basic_stringIcSt11char_traitsIcESaIcEEESaIS5_EE16_Deque_impl_dataC2Ev = comdat any

$_ZNSt15__new_allocatorINSt7__cxx1112basic_stringIcSt11char_traitsIcESaIcEEEEC2Ev = comdat any

$_ZNSt15_Deque_iteratorINSt7__cxx1112basic_stringIcSt11char_traitsIcESaIcEEERS5_PS5_EC2Ev = comdat any

$_ZSt16__deque_buf_sizem = comdat any

$_ZSt3maxImERKT_S2_S2_ = comdat any

$_ZNSt11_Deque_baseINSt7__cxx1112basic_stringIcSt11char_traitsIcESaIcEEESaIS5_EE15_M_allocate_mapEm = comdat any

$_ZNSt11_Deque_baseINSt7__cxx1112basic_stringIcSt11char_traitsIcESaIcEEESaIS5_EE15_M_create_nodesEPPS5_S9_ = comdat any

$_ZNSt11_Deque_baseINSt7__cxx1112basic_stringIcSt11char_traitsIcESaIcEEESaIS5_EE17_M_deallocate_mapEPPS5_m = comdat any

$_ZNSt15_Deque_iteratorINSt7__cxx1112basic_stringIcSt11char_traitsIcESaIcEEERS5_PS5_E11_M_set_nodeEPS7_ = comdat any

$_ZNKSt11_Deque_baseINSt7__cxx1112basic_stringIcSt11char_traitsIcESaIcEEESaIS5_EE20_M_get_map_allocatorEv = comdat any

$_ZNSt16allocator_traitsISaIPNSt7__cxx1112basic_stringIcSt11char_traitsIcESaIcEEEEE8allocateERS7_m = comdat any

$_ZNSaIPNSt7__cxx1112basic_stringIcSt11char_traitsIcESaIcEEEED2Ev = comdat any

$_ZNKSt11_Deque_baseINSt7__cxx1112basic_stringIcSt11char_traitsIcESaIcEEESaIS5_EE19_M_get_Tp_allocatorEv = comdat any

$_ZNSaIPNSt7__cxx1112basic_stringIcSt11char_traitsIcESaIcEEEEC2IS4_EERKSaIT_E = comdat any

$_ZNSt15__new_allocatorIPNSt7__cxx1112basic_stringIcSt11char_traitsIcESaIcEEEEC2Ev = comdat any

$_ZNSt15__new_allocatorIPNSt7__cxx1112basic_stringIcSt11char_traitsIcESaIcEEEE8allocateEmPKv = comdat any

$_ZNKSt15__new_allocatorIPNSt7__cxx1112basic_stringIcSt11char_traitsIcESaIcEEEE11_M_max_sizeEv = comdat any

$_ZNSt15__new_allocatorIPNSt7__cxx1112basic_stringIcSt11char_traitsIcESaIcEEEED2Ev = comdat any

$_ZNSt11_Deque_baseINSt7__cxx1112basic_stringIcSt11char_traitsIcESaIcEEESaIS5_EE16_M_allocate_nodeEv = comdat any

$_ZNSt11_Deque_baseINSt7__cxx1112basic_stringIcSt11char_traitsIcESaIcEEESaIS5_EE16_M_destroy_nodesEPPS5_S9_ = comdat any

$_ZNSt16allocator_traitsISaINSt7__cxx1112basic_stringIcSt11char_traitsIcESaIcEEEEE8allocateERS6_m = comdat any

$_ZNSt15__new_allocatorINSt7__cxx1112basic_stringIcSt11char_traitsIcESaIcEEEE8allocateEmPKv = comdat any

$_ZNKSt15__new_allocatorINSt7__cxx1112basic_stringIcSt11char_traitsIcESaIcEEEE11_M_max_sizeEv = comdat any

$_ZNSt11_Deque_baseINSt7__cxx1112basic_stringIcSt11char_traitsIcESaIcEEESaIS5_EE18_M_deallocate_nodeEPS5_ = comdat any

$_ZNSt16allocator_traitsISaINSt7__cxx1112basic_stringIcSt11char_traitsIcESaIcEEEEE10deallocateERS6_PS5_m = comdat any

$_ZNSt15__new_allocatorINSt7__cxx1112basic_stringIcSt11char_traitsIcESaIcEEEE10deallocateEPS5_m = comdat any

$_ZNSt16allocator_traitsISaIPNSt7__cxx1112basic_stringIcSt11char_traitsIcESaIcEEEEE10deallocateERS7_PS6_m = comdat any

$_ZNSt15__new_allocatorIPNSt7__cxx1112basic_stringIcSt11char_traitsIcESaIcEEEE10deallocateEPS6_m = comdat any

$_ZNSt15_Deque_iteratorINSt7__cxx1112basic_stringIcSt11char_traitsIcESaIcEEERS5_PS5_E14_S_buffer_sizeEv = comdat any

$_ZNSaINSt7__cxx1112basic_stringIcSt11char_traitsIcESaIcEEEED2Ev = comdat any

$_ZNSt15__new_allocatorINSt7__cxx1112basic_stringIcSt11char_traitsIcESaIcEEEED2Ev = comdat any

$_ZNSt5dequeINSt7__cxx1112basic_stringIcSt11char_traitsIcESaIcEEESaIS5_EE9push_backERKS5_ = comdat any

$_ZNSt16allocator_traitsISaINSt7__cxx1112basic_stringIcSt11char_traitsIcESaIcEEEEE9constructIS5_JRKS5_EEEvRS6_PT_DpOT0_ = comdat any

$_ZNSt5dequeINSt7__cxx1112basic_stringIcSt11char_traitsIcESaIcEEESaIS5_EE16_M_push_back_auxIJRKS5_EEEvDpOT_ = comdat any

$_ZNSt15__new_allocatorINSt7__cxx1112basic_stringIcSt11char_traitsIcESaIcEEEE9constructIS5_JRKS5_EEEvPT_DpOT0_ = comdat any

$_ZNKSt5dequeINSt7__cxx1112basic_stringIcSt11char_traitsIcESaIcEEESaIS5_EE4sizeEv = comdat any

$_ZNKSt5dequeINSt7__cxx1112basic_stringIcSt11char_traitsIcESaIcEEESaIS5_EE8max_sizeEv = comdat any

$_ZNSt5dequeINSt7__cxx1112basic_stringIcSt11char_traitsIcESaIcEEESaIS5_EE22_M_reserve_map_at_backEm = comdat any

$_ZStmiRKSt15_Deque_iteratorINSt7__cxx1112basic_stringIcSt11char_traitsIcESaIcEEERS5_PS5_ESA_ = comdat any

$_ZNSt5dequeINSt7__cxx1112basic_stringIcSt11char_traitsIcESaIcEEESaIS5_EE11_S_max_sizeERKS6_ = comdat any

$_ZNSt16allocator_traitsISaINSt7__cxx1112basic_stringIcSt11char_traitsIcESaIcEEEEE8max_sizeERKS6_ = comdat any

$_ZSt3minImERKT_S2_S2_ = comdat any

$_ZNKSt15__new_allocatorINSt7__cxx1112basic_stringIcSt11char_traitsIcESaIcEEEE8max_sizeEv = comdat any

$_ZNSt5dequeINSt7__cxx1112basic_stringIcSt11char_traitsIcESaIcEEESaIS5_EE17_M_reallocate_mapEmb = comdat any

$_ZSt4copyIPPNSt7__cxx1112basic_stringIcSt11char_traitsIcESaIcEEES7_ET0_T_S9_S8_ = comdat any

$_ZSt13copy_backwardIPPNSt7__cxx1112basic_stringIcSt11char_traitsIcESaIcEEES7_ET0_T_S9_S8_ = comdat any

$_ZSt13__copy_move_aILb0EPPNSt7__cxx1112basic_stringIcSt11char_traitsIcESaIcEEES7_ET1_T0_S9_S8_ = comdat any

$_ZSt12__miter_baseIPPNSt7__cxx1112basic_stringIcSt11char_traitsIcESaIcEEEET_S8_ = comdat any

$_ZSt12__niter_wrapIPPNSt7__cxx1112basic_stringIcSt11char_traitsIcESaIcEEEET_RKS8_S8_ = comdat any

$_ZSt14__copy_move_a1ILb0EPPNSt7__cxx1112basic_stringIcSt11char_traitsIcESaIcEEES7_ET1_T0_S9_S8_ = comdat any

$_ZSt12__niter_baseIPPNSt7__cxx1112basic_stringIcSt11char_traitsIcESaIcEEEET_S8_ = comdat any

$_ZSt14__copy_move_a2ILb0EPPNSt7__cxx1112basic_stringIcSt11char_traitsIcESaIcEEES7_ET1_T0_S9_S8_ = comdat any

$_ZNSt11__copy_moveILb0ELb1ESt26random_access_iterator_tagE8__copy_mIPNSt7__cxx1112basic_stringIcSt11char_traitsIcESaIcEEEEEPT_PKSA_SD_SB_ = comdat any

$_ZSt22__copy_move_backward_aILb0EPPNSt7__cxx1112basic_stringIcSt11char_traitsIcESaIcEEES7_ET1_T0_S9_S8_ = comdat any

$_ZSt23__copy_move_backward_a1ILb0EPPNSt7__cxx1112basic_stringIcSt11char_traitsIcESaIcEEES7_ET1_T0_S9_S8_ = comdat any

$_ZSt23__copy_move_backward_a2ILb0EPPNSt7__cxx1112basic_stringIcSt11char_traitsIcESaIcEEES7_ET1_T0_S9_S8_ = comdat any

$_ZNSt20__copy_move_backwardILb0ELb1ESt26random_access_iterator_tagE13__copy_move_bIPNSt7__cxx1112basic_stringIcSt11char_traitsIcESaIcEEEEEPT_PKSA_SD_SB_ = comdat any

$_ZNKSt5dequeINSt7__cxx1112basic_stringIcSt11char_traitsIcESaIcEEESaIS5_EE5emptyEv = comdat any

$_ZSteqRKSt15_Deque_iteratorINSt7__cxx1112basic_stringIcSt11char_traitsIcESaIcEEERS5_PS5_ESA_ = comdat any

$_ZNSt5dequeINSt7__cxx1112basic_stringIcSt11char_traitsIcESaIcEEESaIS5_EE5frontEv = comdat any

$_ZNSt5dequeINSt7__cxx1112basic_stringIcSt11char_traitsIcESaIcEEESaIS5_EE5beginEv = comdat any

$_ZNKSt15_Deque_iteratorINSt7__cxx1112basic_stringIcSt11char_traitsIcESaIcEEERS5_PS5_EdeEv = comdat any

$_ZNSt15_Deque_iteratorINSt7__cxx1112basic_stringIcSt11char_traitsIcESaIcEEERS5_PS5_EC2ERKS8_ = comdat any

$_ZNSt5dequeINSt7__cxx1112basic_stringIcSt11char_traitsIcESaIcEEESaIS5_EE9pop_frontEv = comdat any

$_ZNSt16allocator_traitsISaINSt7__cxx1112basic_stringIcSt11char_traitsIcESaIcEEEEE7destroyIS5_EEvRS6_PT_ = comdat any

$_ZNSt11_Deque_baseINSt7__cxx1112basic_stringIcSt11char_traitsIcESaIcEEESaIS5_EE19_M_get_Tp_allocatorEv = comdat any

$_ZNSt5dequeINSt7__cxx1112basic_stringIcSt11char_traitsIcESaIcEEESaIS5_EE16_M_pop_front_auxEv = comdat any

$_ZNSt15__new_allocatorINSt7__cxx1112basic_stringIcSt11char_traitsIcESaIcEEEE7destroyIS5_EEvPT_ = comdat any

$_ZNSt5dequeINSt7__cxx1112basic_stringIcSt11char_traitsIcESaIcEEESaIS5_EED2Ev = comdat any

$_ZNSt5dequeINSt7__cxx1112basic_stringIcSt11char_traitsIcESaIcEEESaIS5_EE15_M_destroy_dataESt15_Deque_iteratorIS5_RS5_PS5_ESB_RKS6_ = comdat any

$_ZNSt5dequeINSt7__cxx1112basic_stringIcSt11char_traitsIcESaIcEEESaIS5_EE3endEv = comdat any

$_ZNSt11_Deque_baseINSt7__cxx1112basic_stringIcSt11char_traitsIcESaIcEEESaIS5_EED2Ev = comdat any

$_ZNSt5dequeINSt7__cxx1112basic_stringIcSt11char_traitsIcESaIcEEESaIS5_EE19_M_destroy_data_auxESt15_Deque_iteratorIS5_RS5_PS5_ESB_ = comdat any

$_ZSt8_DestroyIPNSt7__cxx1112basic_stringIcSt11char_traitsIcESaIcEEES5_EvT_S7_RSaIT0_E = comdat any

$_ZNSt5dequeINSt7__cxx1112basic_stringIcSt11char_traitsIcESaIcEEESaIS5_EE14_S_buffer_sizeEv = comdat any

$_ZSt8_DestroyIPNSt7__cxx1112basic_stringIcSt11char_traitsIcESaIcEEEEvT_S7_ = comdat any

$_ZNSt12_Destroy_auxILb0EE9__destroyIPNSt7__cxx1112basic_stringIcSt11char_traitsIcESaIcEEEEEvT_S9_ = comdat any

$_ZSt8_DestroyINSt7__cxx1112basic_stringIcSt11char_traitsIcESaIcEEEEvPT_ = comdat any

$_ZNSt8_Rb_treeINSt7__cxx1112basic_stringIcSt11char_traitsIcESaIcEEESt4pairIKS5_bESt10_Select1stIS8_ESt4lessIS5_ESaIS8_EE22_M_emplace_hint_uniqueIJRKSt21piecewise_construct_tSt5tupleIJOS5_EESJ_IJEEEEESt17_Rb_tree_iteratorIS8_ESt23_Rb_tree_const_iteratorIS8_EDpOT_ = comdat any

$_ZSt16forward_as_tupleIJNSt7__cxx1112basic_stringIcSt11char_traitsIcESaIcEEEEESt5tupleIJDpOT_EES9_ = comdat any

$_ZNSt8_Rb_treeINSt7__cxx1112basic_stringIcSt11char_traitsIcESaIcEEESt4pairIKS5_bESt10_Select1stIS8_ESt4lessIS5_ESaIS8_EE10_Auto_nodeC2IJRKSt21piecewise_construct_tSt5tupleIJOS5_EESK_IJEEEEERSE_DpOT_ = comdat any

$_ZNSt8_Rb_treeINSt7__cxx1112basic_stringIcSt11char_traitsIcESaIcEEESt4pairIKS5_bESt10_Select1stIS8_ESt4lessIS5_ESaIS8_EE14_M_create_nodeIJRKSt21piecewise_construct_tSt5tupleIJOS5_EESJ_IJEEEEEPSt13_Rb_tree_nodeIS8_EDpOT_ = comdat any

$_ZNSt8_Rb_treeINSt7__cxx1112basic_stringIcSt11char_traitsIcESaIcEEESt4pairIKS5_bESt10_Select1stIS8_ESt4lessIS5_ESaIS8_EE17_M_construct_nodeIJRKSt21piecewise_construct_tSt5tupleIJOS5_EESJ_IJEEEEEvPSt13_Rb_tree_nodeIS8_EDpOT_ = comdat any

$_ZNSt16allocator_traitsISaISt13_Rb_tree_nodeISt4pairIKNSt7__cxx1112basic_stringIcSt11char_traitsIcESaIcEEEbEEEE9constructIS9_JRKSt21piecewise_construct_tSt5tupleIJOS7_EESH_IJEEEEEvRSB_PT_DpOT0_ = comdat any

$_ZNSt15__new_allocatorISt13_Rb_tree_nodeISt4pairIKNSt7__cxx1112basic_stringIcSt11char_traitsIcESaIcEEEbEEE9constructIS9_JRKSt21piecewise_construct_tSt5tupleIJOS7_EESG_IJEEEEEvPT_DpOT0_ = comdat any

$_ZNSt5tupleIJONSt7__cxx1112basic_stringIcSt11char_traitsIcESaIcEEEEEC2EOS7_ = comdat any

$_ZNSt4pairIKNSt7__cxx1112basic_stringIcSt11char_traitsIcESaIcEEEbEC2IJOS5_EJEEESt21piecewise_construct_tSt5tupleIJDpT_EESB_IJDpT0_EE = comdat any

$_ZNSt11_Tuple_implILm0EJONSt7__cxx1112basic_stringIcSt11char_traitsIcESaIcEEEEEC2EOS7_ = comdat any

$_ZNSt4pairIKNSt7__cxx1112basic_stringIcSt11char_traitsIcESaIcEEEbEC2IJOS5_EJLm0EEJEJEEERSt5tupleIJDpT_EERSA_IJDpT1_EESt12_Index_tupleIJXspT0_EEESJ_IJXspT2_EEE = comdat any

$_ZSt3getILm0EJONSt7__cxx1112basic_stringIcSt11char_traitsIcESaIcEEEEERNSt13tuple_elementIXT_ESt5tupleIJDpT0_EEE4typeERSB_ = comdat any

$_ZSt12__get_helperILm0EONSt7__cxx1112basic_stringIcSt11char_traitsIcESaIcEEEJEERT0_RSt11_Tuple_implIXT_EJS7_DpT1_EE = comdat any

$_ZNSt11_Tuple_implILm0EJONSt7__cxx1112basic_stringIcSt11char_traitsIcESaIcEEEEE7_M_headERS7_ = comdat any

$_ZNSt10_Head_baseILm0EONSt7__cxx1112basic_stringIcSt11char_traitsIcESaIcEEELb0EE7_M_headERS7_ = comdat any

$_ZNSt5tupleIJONSt7__cxx1112basic_stringIcSt11char_traitsIcESaIcEEEEEC2IJS5_ELb1ELb1EEEDpOT_ = comdat any

$_ZNSt11_Tuple_implILm0EJONSt7__cxx1112basic_stringIcSt11char_traitsIcESaIcEEEEEC2IS5_EEOT_ = comdat any

$_ZNSt10_Head_baseILm0EONSt7__cxx1112basic_stringIcSt11char_traitsIcESaIcEEELb0EEC2IS5_EEOT_ = comdat any

$_ZSteqRKSt8_Rb_treeINSt7__cxx1112basic_stringIcSt11char_traitsIcESaIcEEESt4pairIKS5_bESt10_Select1stIS8_ESt4lessIS5_ESaIS8_EESG_ = comdat any

$_ZSt5equalISt23_Rb_tree_const_iteratorISt4pairIKNSt7__cxx1112basic_stringIcSt11char_traitsIcESaIcEEEbEESA_EbT_SB_T0_ = comdat any

$_ZNKSt8_Rb_treeINSt7__cxx1112basic_stringIcSt11char_traitsIcESaIcEEESt4pairIKS5_bESt10_Select1stIS8_ESt4lessIS5_ESaIS8_EE5beginEv = comdat any

$_ZNKSt8_Rb_treeINSt7__cxx1112basic_stringIcSt11char_traitsIcESaIcEEESt4pairIKS5_bESt10_Select1stIS8_ESt4lessIS5_ESaIS8_EE3endEv = comdat any

$_ZSt11__equal_auxISt23_Rb_tree_const_iteratorISt4pairIKNSt7__cxx1112basic_stringIcSt11char_traitsIcESaIcEEEbEESA_EbT_SB_T0_ = comdat any

$_ZSt12__equal_aux1ISt23_Rb_tree_const_iteratorISt4pairIKNSt7__cxx1112basic_stringIcSt11char_traitsIcESaIcEEEbEESA_EbT_SB_T0_ = comdat any

$_ZSt12__niter_baseISt23_Rb_tree_const_iteratorISt4pairIKNSt7__cxx1112basic_stringIcSt11char_traitsIcESaIcEEEbEEET_SB_ = comdat any

$_ZNSt7__equalILb0EE5equalISt23_Rb_tree_const_iteratorISt4pairIKNSt7__cxx1112basic_stringIcSt11char_traitsIcESaIcEEEbEESC_EEbT_SD_T0_ = comdat any

$_ZStneRKSt23_Rb_tree_const_iteratorISt4pairIKNSt7__cxx1112basic_stringIcSt11char_traitsIcESaIcEEEbEESB_ = comdat any

$_ZSteqIKNSt7__cxx1112basic_stringIcSt11char_traitsIcESaIcEEEbEbRKSt4pairIT_T0_ESC_ = comdat any

$_ZNKSt23_Rb_tree_const_iteratorISt4pairIKNSt7__cxx1112basic_stringIcSt11char_traitsIcESaIcEEEbEEdeEv = comdat any

$_ZNSt23_Rb_tree_const_iteratorISt4pairIKNSt7__cxx1112basic_stringIcSt11char_traitsIcESaIcEEEbEEppEv = comdat any

$_ZSteqIcEN9__gnu_cxx11__enable_ifIXsr9__is_charIT_EE7__valueEbE6__typeERKNSt7__cxx1112basic_stringIS2_St11char_traitsIS2_ESaIS2_EEESC_ = comdat any

$_ZNSt11char_traitsIcE7compareEPKcS2_m = comdat any

$_ZNSt23_Rb_tree_const_iteratorISt4pairIKNSt7__cxx1112basic_stringIcSt11char_traitsIcESaIcEEEbEEC2EPKSt18_Rb_tree_node_base = comdat any

$_ZNSt8_Rb_treeINSt7__cxx1112basic_stringIcSt11char_traitsIcESaIcEEESt4pairIKS5_bESt10_Select1stIS8_ESt4lessIS5_ESaIS8_EED2Ev = comdat any

$_ZNSt8_Rb_treeINSt7__cxx1112basic_stringIcSt11char_traitsIcESaIcEEESt4pairIKS5_bESt10_Select1stIS8_ESt4lessIS5_ESaIS8_EE8_M_eraseEPSt13_Rb_tree_nodeIS8_E = comdat any

$_ZNSt8_Rb_treeINSt7__cxx1112basic_stringIcSt11char_traitsIcESaIcEEESt4pairIKS5_bESt10_Select1stIS8_ESt4lessIS5_ESaIS8_EE13_Rb_tree_implISC_Lb1EED2Ev = comdat any

$_ZNSaISt13_Rb_tree_nodeISt4pairIKNSt7__cxx1112basic_stringIcSt11char_traitsIcESaIcEEEbEEED2Ev = comdat any

$_ZNSt15__new_allocatorISt13_Rb_tree_nodeISt4pairIKNSt7__cxx1112basic_stringIcSt11char_traitsIcESaIcEEEbEEED2Ev = comdat any

$_ZNSt3mapINSt7__cxx1112basic_stringIcSt11char_traitsIcESaIcEEENS0_4listIS5_SaIS5_EEESt4lessIS5_ESaISt4pairIKS5_S8_EEED2Ev = comdat any

$_ZNSt8_Rb_treeINSt7__cxx1112basic_stringIcSt11char_traitsIcESaIcEEESt4pairIKS5_NS0_4listIS5_SaIS5_EEEESt10_Select1stISB_ESt4lessIS5_ESaISB_EED2Ev = comdat any

$_ZNSt8_Rb_treeINSt7__cxx1112basic_stringIcSt11char_traitsIcESaIcEEESt4pairIKS5_NS0_4listIS5_SaIS5_EEEESt10_Select1stISB_ESt4lessIS5_ESaISB_EE8_M_eraseEPSt13_Rb_tree_nodeISB_E = comdat any

$_ZNSt8_Rb_treeINSt7__cxx1112basic_stringIcSt11char_traitsIcESaIcEEESt4pairIKS5_NS0_4listIS5_SaIS5_EEEESt10_Select1stISB_ESt4lessIS5_ESaISB_EE13_Rb_tree_implISF_Lb1EED2Ev = comdat any

$_ZNSaISt13_Rb_tree_nodeISt4pairIKNSt7__cxx1112basic_stringIcSt11char_traitsIcESaIcEEENS1_4listIS6_SaIS6_EEEEEED2Ev = comdat any

$_ZNSt15__new_allocatorISt13_Rb_tree_nodeISt4pairIKNSt7__cxx1112basic_stringIcSt11char_traitsIcESaIcEEENS2_4listIS7_SaIS7_EEEEEED2Ev = comdat any

$_ZNSt3mapIiNSt7__cxx114listIiSaIiEEESt4lessIiESaISt4pairIKiS3_EEEC2Ev = comdat any

$_ZNSt8_Rb_treeIiSt4pairIKiNSt7__cxx114listIiSaIiEEEESt10_Select1stIS6_ESt4lessIiESaIS6_EEC2Ev = comdat any

$_ZNSt8_Rb_treeIiSt4pairIKiNSt7__cxx114listIiSaIiEEEESt10_Select1stIS6_ESt4lessIiESaIS6_EE13_Rb_tree_implISA_Lb1EEC2Ev = comdat any

$_ZNSaISt13_Rb_tree_nodeISt4pairIKiNSt7__cxx114listIiSaIiEEEEEEC2Ev = comdat any

$_ZNSt15__new_allocatorISt13_Rb_tree_nodeISt4pairIKiNSt7__cxx114listIiSaIiEEEEEEC2Ev = comdat any

$_ZNSt8_Rb_treeIiSt4pairIKibESt10_Select1stIS2_ESt4lessIiESaIS2_EED2Ev = comdat any

$_ZNSt8_Rb_treeIiSt4pairIKibESt10_Select1stIS2_ESt4lessIiESaIS2_EE13_Rb_tree_implIS6_Lb1EED2Ev = comdat any

$_ZNSaISt13_Rb_tree_nodeISt4pairIKibEEED2Ev = comdat any

$_ZNSt15__new_allocatorISt13_Rb_tree_nodeISt4pairIKibEEED2Ev = comdat any

$_ZNSt3mapIiNSt7__cxx114listIiSaIiEEESt4lessIiESaISt4pairIKiS3_EEED2Ev = comdat any

$_ZNSt8_Rb_treeIiSt4pairIKiNSt7__cxx114listIiSaIiEEEESt10_Select1stIS6_ESt4lessIiESaIS6_EED2Ev = comdat any

$_ZNSt8_Rb_treeIiSt4pairIKiNSt7__cxx114listIiSaIiEEEESt10_Select1stIS6_ESt4lessIiESaIS6_EE8_M_eraseEPSt13_Rb_tree_nodeIS6_E = comdat any

$_ZNSt8_Rb_treeIiSt4pairIKiNSt7__cxx114listIiSaIiEEEESt10_Select1stIS6_ESt4lessIiESaIS6_EE8_M_beginEv = comdat any

$_ZNSt8_Rb_treeIiSt4pairIKiNSt7__cxx114listIiSaIiEEEESt10_Select1stIS6_ESt4lessIiESaIS6_EE13_Rb_tree_implISA_Lb1EED2Ev = comdat any

$_ZNSt8_Rb_treeIiSt4pairIKiNSt7__cxx114listIiSaIiEEEESt10_Select1stIS6_ESt4lessIiESaIS6_EE8_S_rightEPSt18_Rb_tree_node_base = comdat any

$_ZNSt8_Rb_treeIiSt4pairIKiNSt7__cxx114listIiSaIiEEEESt10_Select1stIS6_ESt4lessIiESaIS6_EE7_S_leftEPSt18_Rb_tree_node_base = comdat any

$_ZNSt8_Rb_treeIiSt4pairIKiNSt7__cxx114listIiSaIiEEEESt10_Select1stIS6_ESt4lessIiESaIS6_EE12_M_drop_nodeEPSt13_Rb_tree_nodeIS6_E = comdat any

$_ZNSt8_Rb_treeIiSt4pairIKiNSt7__cxx114listIiSaIiEEEESt10_Select1stIS6_ESt4lessIiESaIS6_EE15_M_destroy_nodeEPSt13_Rb_tree_nodeIS6_E = comdat any

$_ZNSt8_Rb_treeIiSt4pairIKiNSt7__cxx114listIiSaIiEEEESt10_Select1stIS6_ESt4lessIiESaIS6_EE11_M_put_nodeEPSt13_Rb_tree_nodeIS6_E = comdat any

$_ZNSt16allocator_traitsISaISt13_Rb_tree_nodeISt4pairIKiNSt7__cxx114listIiSaIiEEEEEEE7destroyIS7_EEvRS9_PT_ = comdat any

$_ZNSt8_Rb_treeIiSt4pairIKiNSt7__cxx114listIiSaIiEEEESt10_Select1stIS6_ESt4lessIiESaIS6_EE21_M_get_Node_allocatorEv = comdat any

$_ZNSt13_Rb_tree_nodeISt4pairIKiNSt7__cxx114listIiSaIiEEEEE9_M_valptrEv = comdat any

$_ZNSt15__new_allocatorISt13_Rb_tree_nodeISt4pairIKiNSt7__cxx114listIiSaIiEEEEEE7destroyIS7_EEvPT_ = comdat any

$_ZNSt4pairIKiNSt7__cxx114listIiSaIiEEEED2Ev = comdat any

$_ZNSt7__cxx114listIiSaIiEED2Ev = comdat any

$_ZNSt7__cxx1110_List_baseIiSaIiEED2Ev = comdat any

$_ZNSt7__cxx1110_List_baseIiSaIiEE8_M_clearEv = comdat any

$_ZNSt7__cxx1110_List_baseIiSaIiEE10_List_implD2Ev = comdat any

$_ZNSt10_List_nodeIiE9_M_valptrEv = comdat any

$_ZNSt16allocator_traitsISaISt10_List_nodeIiEEE7destroyIiEEvRS2_PT_ = comdat any

$_ZNSt7__cxx1110_List_baseIiSaIiEE21_M_get_Node_allocatorEv = comdat any

$_ZNSt7__cxx1110_List_baseIiSaIiEE11_M_put_nodeEPSt10_List_nodeIiE = comdat any

$_ZN9__gnu_cxx16__aligned_membufIiE6_M_ptrEv = comdat any

$_ZN9__gnu_cxx16__aligned_membufIiE7_M_addrEv = comdat any

$_ZNSt15__new_allocatorISt10_List_nodeIiEE7destroyIiEEvPT_ = comdat any

$_ZNSt16allocator_traitsISaISt10_List_nodeIiEEE10deallocateERS2_PS1_m = comdat any

$_ZNSt15__new_allocatorISt10_List_nodeIiEE10deallocateEPS1_m = comdat any

$_ZNSaISt10_List_nodeIiEED2Ev = comdat any

$_ZNSt15__new_allocatorISt10_List_nodeIiEED2Ev = comdat any

$_ZN9__gnu_cxx16__aligned_membufISt4pairIKiNSt7__cxx114listIiSaIiEEEEE6_M_ptrEv = comdat any

$_ZN9__gnu_cxx16__aligned_membufISt4pairIKiNSt7__cxx114listIiSaIiEEEEE7_M_addrEv = comdat any

$_ZNSt16allocator_traitsISaISt13_Rb_tree_nodeISt4pairIKiNSt7__cxx114listIiSaIiEEEEEEE10deallocateERS9_PS8_m = comdat any

$_ZNSt15__new_allocatorISt13_Rb_tree_nodeISt4pairIKiNSt7__cxx114listIiSaIiEEEEEE10deallocateEPS8_m = comdat any

$_ZNKSt8_Rb_treeIiSt4pairIKiNSt7__cxx114listIiSaIiEEEESt10_Select1stIS6_ESt4lessIiESaIS6_EE9_M_mbeginEv = comdat any

$_ZNSaISt13_Rb_tree_nodeISt4pairIKiNSt7__cxx114listIiSaIiEEEEEED2Ev = comdat any

$_ZNSt15__new_allocatorISt13_Rb_tree_nodeISt4pairIKiNSt7__cxx114listIiSaIiEEEEEED2Ev = comdat any

$_ZNSt3mapIiNSt7__cxx114listIiSaIiEEESt4lessIiESaISt4pairIKiS3_EEEixERS7_ = comdat any

$_ZNSt7__cxx114listIiSaIiEE9push_backERKi = comdat any

$_ZNSt3mapIiNSt7__cxx114listIiSaIiEEESt4lessIiESaISt4pairIKiS3_EEE11lower_boundERS7_ = comdat any

$_ZSteqRKSt17_Rb_tree_iteratorISt4pairIKiNSt7__cxx114listIiSaIiEEEEES9_ = comdat any

$_ZNSt3mapIiNSt7__cxx114listIiSaIiEEESt4lessIiESaISt4pairIKiS3_EEE3endEv = comdat any

$_ZNKSt3mapIiNSt7__cxx114listIiSaIiEEESt4lessIiESaISt4pairIKiS3_EEE8key_compEv = comdat any

$_ZNKSt17_Rb_tree_iteratorISt4pairIKiNSt7__cxx114listIiSaIiEEEEEdeEv = comdat any

$_ZNSt8_Rb_treeIiSt4pairIKiNSt7__cxx114listIiSaIiEEEESt10_Select1stIS6_ESt4lessIiESaIS6_EE22_M_emplace_hint_uniqueIJRKSt21piecewise_construct_tSt5tupleIJRS1_EESH_IJEEEEESt17_Rb_tree_iteratorIS6_ESt23_Rb_tree_const_iteratorIS6_EDpOT_ = comdat any

$_ZNSt23_Rb_tree_const_iteratorISt4pairIKiNSt7__cxx114listIiSaIiEEEEEC2ERKSt17_Rb_tree_iteratorIS6_E = comdat any

$_ZNSt5tupleIJRKiEEC2ILb1ELb1EEES1_ = comdat any

$_ZNSt8_Rb_treeIiSt4pairIKiNSt7__cxx114listIiSaIiEEEESt10_Select1stIS6_ESt4lessIiESaIS6_EE11lower_boundERS1_ = comdat any

$_ZNSt8_Rb_treeIiSt4pairIKiNSt7__cxx114listIiSaIiEEEESt10_Select1stIS6_ESt4lessIiESaIS6_EE14_M_lower_boundEPSt13_Rb_tree_nodeIS6_EPSt18_Rb_tree_node_baseRS1_ = comdat any

$_ZNSt8_Rb_treeIiSt4pairIKiNSt7__cxx114listIiSaIiEEEESt10_Select1stIS6_ESt4lessIiESaIS6_EE6_M_endEv = comdat any

$_ZNSt8_Rb_treeIiSt4pairIKiNSt7__cxx114listIiSaIiEEEESt10_Select1stIS6_ESt4lessIiESaIS6_EE6_S_keyEPKSt13_Rb_tree_nodeIS6_E = comdat any

$_ZNSt17_Rb_tree_iteratorISt4pairIKiNSt7__cxx114listIiSaIiEEEEEC2EPSt18_Rb_tree_node_base = comdat any

$_ZNKSt10_Select1stISt4pairIKiNSt7__cxx114listIiSaIiEEEEEclERKS6_ = comdat any

$_ZNKSt13_Rb_tree_nodeISt4pairIKiNSt7__cxx114listIiSaIiEEEEE9_M_valptrEv = comdat any

$_ZNK9__gnu_cxx16__aligned_membufISt4pairIKiNSt7__cxx114listIiSaIiEEEEE6_M_ptrEv = comdat any

$_ZNK9__gnu_cxx16__aligned_membufISt4pairIKiNSt7__cxx114listIiSaIiEEEEE7_M_addrEv = comdat any

$_ZNSt8_Rb_treeIiSt4pairIKiNSt7__cxx114listIiSaIiEEEESt10_Select1stIS6_ESt4lessIiESaIS6_EE3endEv = comdat any

$_ZNKSt8_Rb_treeIiSt4pairIKiNSt7__cxx114listIiSaIiEEEESt10_Select1stIS6_ESt4lessIiESaIS6_EE8key_compEv = comdat any

$_ZNSt8_Rb_treeIiSt4pairIKiNSt7__cxx114listIiSaIiEEEESt10_Select1stIS6_ESt4lessIiESaIS6_EE10_Auto_nodeC2IJRKSt21piecewise_construct_tSt5tupleIJRS1_EESI_IJEEEEERSC_DpOT_ = comdat any

$_ZNSt8_Rb_treeIiSt4pairIKiNSt7__cxx114listIiSaIiEEEESt10_Select1stIS6_ESt4lessIiESaIS6_EE29_M_get_insert_hint_unique_posESt23_Rb_tree_const_iteratorIS6_ERS1_ = comdat any

$_ZNKSt8_Rb_treeIiSt4pairIKiNSt7__cxx114listIiSaIiEEEESt10_Select1stIS6_ESt4lessIiESaIS6_EE10_Auto_node6_M_keyEv = comdat any

$_ZNSt8_Rb_treeIiSt4pairIKiNSt7__cxx114listIiSaIiEEEESt10_Select1stIS6_ESt4lessIiESaIS6_EE10_Auto_node9_M_insertES0_IPSt18_Rb_tree_node_baseSF_E = comdat any

$_ZNSt8_Rb_treeIiSt4pairIKiNSt7__cxx114listIiSaIiEEEESt10_Select1stIS6_ESt4lessIiESaIS6_EE10_Auto_nodeD2Ev = comdat any

$_ZNSt8_Rb_treeIiSt4pairIKiNSt7__cxx114listIiSaIiEEEESt10_Select1stIS6_ESt4lessIiESaIS6_EE14_M_create_nodeIJRKSt21piecewise_construct_tSt5tupleIJRS1_EESH_IJEEEEEPSt13_Rb_tree_nodeIS6_EDpOT_ = comdat any

$_ZNSt8_Rb_treeIiSt4pairIKiNSt7__cxx114listIiSaIiEEEESt10_Select1stIS6_ESt4lessIiESaIS6_EE11_M_get_nodeEv = comdat any

$_ZNSt8_Rb_treeIiSt4pairIKiNSt7__cxx114listIiSaIiEEEESt10_Select1stIS6_ESt4lessIiESaIS6_EE17_M_construct_nodeIJRKSt21piecewise_construct_tSt5tupleIJRS1_EESH_IJEEEEEvPSt13_Rb_tree_nodeIS6_EDpOT_ = comdat any

$_ZNSt16allocator_traitsISaISt13_Rb_tree_nodeISt4pairIKiNSt7__cxx114listIiSaIiEEEEEEE8allocateERS9_m = comdat any

$_ZNSt15__new_allocatorISt13_Rb_tree_nodeISt4pairIKiNSt7__cxx114listIiSaIiEEEEEE8allocateEmPKv = comdat any

$_ZNKSt15__new_allocatorISt13_Rb_tree_nodeISt4pairIKiNSt7__cxx114listIiSaIiEEEEEE11_M_max_sizeEv = comdat any

$_ZNSt16allocator_traitsISaISt13_Rb_tree_nodeISt4pairIKiNSt7__cxx114listIiSaIiEEEEEEE9constructIS7_JRKSt21piecewise_construct_tSt5tupleIJRS2_EESF_IJEEEEEvRS9_PT_DpOT0_ = comdat any

$_ZNSt15__new_allocatorISt13_Rb_tree_nodeISt4pairIKiNSt7__cxx114listIiSaIiEEEEEE9constructIS7_JRKSt21piecewise_construct_tSt5tupleIJRS2_EESE_IJEEEEEvPT_DpOT0_ = comdat any

$_ZNSt5tupleIJRKiEEC2EOS2_ = comdat any

$_ZNSt4pairIKiNSt7__cxx114listIiSaIiEEEEC2IJRS0_EJEEESt21piecewise_construct_tSt5tupleIJDpT_EES9_IJDpT0_EE = comdat any

$_ZNSt11_Tuple_implILm0EJRKiEEC2EOS2_ = comdat any

$_ZNSt4pairIKiNSt7__cxx114listIiSaIiEEEEC2IJRS0_EJLm0EEJEJEEERSt5tupleIJDpT_EERS8_IJDpT1_EESt12_Index_tupleIJXspT0_EEESH_IJXspT2_EEE = comdat any

$_ZSt3getILm0EJRKiEERNSt13tuple_elementIXT_ESt5tupleIJDpT0_EEE4typeERS6_ = comdat any

$_ZNSt7__cxx114listIiSaIiEEC2Ev = comdat any

$_ZSt12__get_helperILm0ERKiJEERT0_RSt11_Tuple_implIXT_EJS2_DpT1_EE = comdat any

$_ZNSt11_Tuple_implILm0EJRKiEE7_M_headERS2_ = comdat any

$_ZNSt10_Head_baseILm0ERKiLb0EE7_M_headERS2_ = comdat any

$_ZNSt7__cxx1110_List_baseIiSaIiEEC2Ev = comdat any

$_ZNSt7__cxx1110_List_baseIiSaIiEE10_List_implC2Ev = comdat any

$_ZNSaISt10_List_nodeIiEEC2Ev = comdat any

$_ZNSt15__new_allocatorISt10_List_nodeIiEEC2Ev = comdat any

$_ZNKSt23_Rb_tree_const_iteratorISt4pairIKiNSt7__cxx114listIiSaIiEEEEE13_M_const_castEv = comdat any

$_ZNKSt8_Rb_treeIiSt4pairIKiNSt7__cxx114listIiSaIiEEEESt10_Select1stIS6_ESt4lessIiESaIS6_EE4sizeEv = comdat any

$_ZNSt8_Rb_treeIiSt4pairIKiNSt7__cxx114listIiSaIiEEEESt10_Select1stIS6_ESt4lessIiESaIS6_EE6_S_keyEPKSt18_Rb_tree_node_base = comdat any

$_ZNSt8_Rb_treeIiSt4pairIKiNSt7__cxx114listIiSaIiEEEESt10_Select1stIS6_ESt4lessIiESaIS6_EE12_M_rightmostEv = comdat any

$_ZNSt8_Rb_treeIiSt4pairIKiNSt7__cxx114listIiSaIiEEEESt10_Select1stIS6_ESt4lessIiESaIS6_EE24_M_get_insert_unique_posERS1_ = comdat any

$_ZNSt8_Rb_treeIiSt4pairIKiNSt7__cxx114listIiSaIiEEEESt10_Select1stIS6_ESt4lessIiESaIS6_EE11_M_leftmostEv = comdat any

$_ZNSt17_Rb_tree_iteratorISt4pairIKiNSt7__cxx114listIiSaIiEEEEEmmEv = comdat any

$_ZNSt17_Rb_tree_iteratorISt4pairIKiNSt7__cxx114listIiSaIiEEEEEppEv = comdat any

$_ZNSt8_Rb_treeIiSt4pairIKiNSt7__cxx114listIiSaIiEEEESt10_Select1stIS6_ESt4lessIiESaIS6_EE5beginEv = comdat any

$_ZNSt4pairIPSt18_Rb_tree_node_baseS1_EC2IRPSt13_Rb_tree_nodeIS_IKiNSt7__cxx114listIiSaIiEEEEERS1_Lb1EEEOT_OT0_ = comdat any

$_ZNSt8_Rb_treeIiSt4pairIKiNSt7__cxx114listIiSaIiEEEESt10_Select1stIS6_ESt4lessIiESaIS6_EE14_M_insert_nodeEPSt18_Rb_tree_node_baseSE_PSt13_Rb_tree_nodeIS6_E = comdat any

$_ZNSt11_Tuple_implILm0EJRKiEEC2ES1_ = comdat any

$_ZNSt10_Head_baseILm0ERKiLb0EEC2ES1_ = comdat any

$_ZNSt7__cxx114listIiSaIiEE9_M_insertIJRKiEEEvSt14_List_iteratorIiEDpOT_ = comdat any

$_ZNSt7__cxx114listIiSaIiEE3endEv = comdat any

$_ZNSt7__cxx114listIiSaIiEE14_M_create_nodeIJRKiEEEPSt10_List_nodeIiEDpOT_ = comdat any

$_ZNSt7__cxx1110_List_baseIiSaIiEE11_M_inc_sizeEm = comdat any

$_ZNSt7__cxx1110_List_baseIiSaIiEE11_M_get_nodeEv = comdat any

$_ZNSt15__allocated_ptrISaISt10_List_nodeIiEEEC2ERS2_PS1_ = comdat any

$_ZNSt16allocator_traitsISaISt10_List_nodeIiEEE9constructIiJRKiEEEvRS2_PT_DpOT0_ = comdat any

$_ZNSt15__allocated_ptrISaISt10_List_nodeIiEEEaSEDn = comdat any

$_ZNSt15__allocated_ptrISaISt10_List_nodeIiEEED2Ev = comdat any

$_ZNSt16allocator_traitsISaISt10_List_nodeIiEEE8allocateERS2_m = comdat any

$_ZNSt15__new_allocatorISt10_List_nodeIiEE8allocateEmPKv = comdat any

$_ZNKSt15__new_allocatorISt10_List_nodeIiEE11_M_max_sizeEv = comdat any

$_ZNSt15__new_allocatorISt10_List_nodeIiEE9constructIiJRKiEEEvPT_DpOT0_ = comdat any

$_ZNSt14_List_iteratorIiEC2EPNSt8__detail15_List_node_baseE = comdat any

$_ZNSt3mapIiNSt7__cxx114listIiSaIiEEESt4lessIiESaISt4pairIKiS3_EEE5beginEv = comdat any

$_ZStneRKSt17_Rb_tree_iteratorISt4pairIKiNSt7__cxx114listIiSaIiEEEEES9_ = comdat any

$_ZNSt3mapIibSt4lessIiESaISt4pairIKibEEEixERS3_ = comdat any

$_ZNSt7__cxx114listIiSaIiEE5beginEv = comdat any

$_ZStneRKSt14_List_iteratorIiES2_ = comdat any

$_ZNKSt14_List_iteratorIiEdeEv = comdat any

$_ZNSt14_List_iteratorIiEppEv = comdat any

$_ZNSt5queueIiSt5dequeIiSaIiEEEC2IS2_vEEv = comdat any

$_ZNSt5queueIiSt5dequeIiSaIiEEE4pushERKi = comdat any

$_ZNKSt5queueIiSt5dequeIiSaIiEEE5emptyEv = comdat any

$_ZNSt5queueIiSt5dequeIiSaIiEEE5frontEv = comdat any

$_ZNSt5queueIiSt5dequeIiSaIiEEE3popEv = comdat any

$_ZNSt5queueIiSt5dequeIiSaIiEEED2Ev = comdat any

$_ZNSt8_Rb_treeIiSt4pairIKibESt10_Select1stIS2_ESt4lessIiESaIS2_EE22_M_emplace_hint_uniqueIJRKSt21piecewise_construct_tSt5tupleIJRS1_EESD_IJEEEEESt17_Rb_tree_iteratorIS2_ESt23_Rb_tree_const_iteratorIS2_EDpOT_ = comdat any

$_ZNSt8_Rb_treeIiSt4pairIKibESt10_Select1stIS2_ESt4lessIiESaIS2_EE10_Auto_nodeC2IJRKSt21piecewise_construct_tSt5tupleIJRS1_EESE_IJEEEEERS8_DpOT_ = comdat any

$_ZNSt8_Rb_treeIiSt4pairIKibESt10_Select1stIS2_ESt4lessIiESaIS2_EE14_M_create_nodeIJRKSt21piecewise_construct_tSt5tupleIJRS1_EESD_IJEEEEEPSt13_Rb_tree_nodeIS2_EDpOT_ = comdat any

$_ZNSt8_Rb_treeIiSt4pairIKibESt10_Select1stIS2_ESt4lessIiESaIS2_EE17_M_construct_nodeIJRKSt21piecewise_construct_tSt5tupleIJRS1_EESD_IJEEEEEvPSt13_Rb_tree_nodeIS2_EDpOT_ = comdat any

$_ZNSt16allocator_traitsISaISt13_Rb_tree_nodeISt4pairIKibEEEE9constructIS3_JRKSt21piecewise_construct_tSt5tupleIJRS2_EESB_IJEEEEEvRS5_PT_DpOT0_ = comdat any

$_ZNSt15__new_allocatorISt13_Rb_tree_nodeISt4pairIKibEEE9constructIS3_JRKSt21piecewise_construct_tSt5tupleIJRS2_EESA_IJEEEEEvPT_DpOT0_ = comdat any

$_ZNSt4pairIKibEC2IJRS0_EJEEESt21piecewise_construct_tSt5tupleIJDpT_EES5_IJDpT0_EE = comdat any

$_ZNSt4pairIKibEC2IJRS0_EJLm0EEJEJEEERSt5tupleIJDpT_EERS4_IJDpT1_EESt12_Index_tupleIJXspT0_EEESD_IJXspT2_EEE = comdat any

$_ZNSt5dequeIiSaIiEEC2Ev = comdat any

$_ZNSt11_Deque_baseIiSaIiEEC2Ev = comdat any

$_ZNSt11_Deque_baseIiSaIiEE11_Deque_implC2Ev = comdat any

$_ZNSt11_Deque_baseIiSaIiEE17_M_initialize_mapEm = comdat any

$_ZNSt11_Deque_baseIiSaIiEE11_Deque_implD2Ev = comdat any

$_ZNSaIiEC2Ev = comdat any

$_ZNSt11_Deque_baseIiSaIiEE16_Deque_impl_dataC2Ev = comdat any

$_ZNSt15__new_allocatorIiEC2Ev = comdat any

$_ZNSt15_Deque_iteratorIiRiPiEC2Ev = comdat any

$_ZNSt11_Deque_baseIiSaIiEE15_M_allocate_mapEm = comdat any

$_ZNSt11_Deque_baseIiSaIiEE15_M_create_nodesEPPiS3_ = comdat any

$_ZNSt11_Deque_baseIiSaIiEE17_M_deallocate_mapEPPim = comdat any

$_ZNSt15_Deque_iteratorIiRiPiE11_M_set_nodeEPS1_ = comdat any

$_ZNKSt11_Deque_baseIiSaIiEE20_M_get_map_allocatorEv = comdat any

$_ZNSt16allocator_traitsISaIPiEE8allocateERS1_m = comdat any

$_ZNSaIPiED2Ev = comdat any

$_ZNKSt11_Deque_baseIiSaIiEE19_M_get_Tp_allocatorEv = comdat any

$_ZNSaIPiEC2IiEERKSaIT_E = comdat any

$_ZNSt15__new_allocatorIPiEC2Ev = comdat any

$_ZNSt15__new_allocatorIPiE8allocateEmPKv = comdat any

$_ZNKSt15__new_allocatorIPiE11_M_max_sizeEv = comdat any

$_ZNSt15__new_allocatorIPiED2Ev = comdat any

$_ZNSt11_Deque_baseIiSaIiEE16_M_allocate_nodeEv = comdat any

$_ZNSt11_Deque_baseIiSaIiEE16_M_destroy_nodesEPPiS3_ = comdat any

$_ZNSt16allocator_traitsISaIiEE8allocateERS0_m = comdat any

$_ZNSt15__new_allocatorIiE8allocateEmPKv = comdat any

$_ZNKSt15__new_allocatorIiE11_M_max_sizeEv = comdat any

$_ZNSt11_Deque_baseIiSaIiEE18_M_deallocate_nodeEPi = comdat any

$_ZNSt16allocator_traitsISaIiEE10deallocateERS0_Pim = comdat any

$_ZNSt15__new_allocatorIiE10deallocateEPim = comdat any

$_ZNSt16allocator_traitsISaIPiEE10deallocateERS1_PS0_m = comdat any

$_ZNSt15__new_allocatorIPiE10deallocateEPS0_m = comdat any

$_ZNSt15_Deque_iteratorIiRiPiE14_S_buffer_sizeEv = comdat any

$_ZNSaIiED2Ev = comdat any

$_ZNSt15__new_allocatorIiED2Ev = comdat any

$_ZNSt5dequeIiSaIiEE9push_backERKi = comdat any

$_ZNSt16allocator_traitsISaIiEE9constructIiJRKiEEEvRS0_PT_DpOT0_ = comdat any

$_ZNSt5dequeIiSaIiEE16_M_push_back_auxIJRKiEEEvDpOT_ = comdat any

$_ZNSt15__new_allocatorIiE9constructIiJRKiEEEvPT_DpOT0_ = comdat any

$_ZNKSt5dequeIiSaIiEE4sizeEv = comdat any

$_ZNKSt5dequeIiSaIiEE8max_sizeEv = comdat any

$_ZNSt5dequeIiSaIiEE22_M_reserve_map_at_backEm = comdat any

$_ZStmiRKSt15_Deque_iteratorIiRiPiES4_ = comdat any

$_ZNSt5dequeIiSaIiEE11_S_max_sizeERKS0_ = comdat any

$_ZNSt16allocator_traitsISaIiEE8max_sizeERKS0_ = comdat any

$_ZNKSt15__new_allocatorIiE8max_sizeEv = comdat any

$_ZNSt5dequeIiSaIiEE17_M_reallocate_mapEmb = comdat any

$_ZSt4copyIPPiS1_ET0_T_S3_S2_ = comdat any

$_ZSt13copy_backwardIPPiS1_ET0_T_S3_S2_ = comdat any

$_ZSt13__copy_move_aILb0EPPiS1_ET1_T0_S3_S2_ = comdat any

$_ZSt12__miter_baseIPPiET_S2_ = comdat any

$_ZSt12__niter_wrapIPPiET_RKS2_S2_ = comdat any

$_ZSt14__copy_move_a1ILb0EPPiS1_ET1_T0_S3_S2_ = comdat any

$_ZSt12__niter_baseIPPiET_S2_ = comdat any

$_ZSt14__copy_move_a2ILb0EPPiS1_ET1_T0_S3_S2_ = comdat any

$_ZNSt11__copy_moveILb0ELb1ESt26random_access_iterator_tagE8__copy_mIPiEEPT_PKS4_S7_S5_ = comdat any

$_ZSt22__copy_move_backward_aILb0EPPiS1_ET1_T0_S3_S2_ = comdat any

$_ZSt23__copy_move_backward_a1ILb0EPPiS1_ET1_T0_S3_S2_ = comdat any

$_ZSt23__copy_move_backward_a2ILb0EPPiS1_ET1_T0_S3_S2_ = comdat any

$_ZNSt20__copy_move_backwardILb0ELb1ESt26random_access_iterator_tagE13__copy_move_bIPiEEPT_PKS4_S7_S5_ = comdat any

$_ZNKSt5dequeIiSaIiEE5emptyEv = comdat any

$_ZSteqRKSt15_Deque_iteratorIiRiPiES4_ = comdat any

$_ZNSt5dequeIiSaIiEE5frontEv = comdat any

$_ZNSt5dequeIiSaIiEE5beginEv = comdat any

$_ZNKSt15_Deque_iteratorIiRiPiEdeEv = comdat any

$_ZNSt15_Deque_iteratorIiRiPiEC2ERKS2_ = comdat any

$_ZNSt5dequeIiSaIiEE9pop_frontEv = comdat any

$_ZNSt16allocator_traitsISaIiEE7destroyIiEEvRS0_PT_ = comdat any

$_ZNSt11_Deque_baseIiSaIiEE19_M_get_Tp_allocatorEv = comdat any

$_ZNSt5dequeIiSaIiEE16_M_pop_front_auxEv = comdat any

$_ZNSt15__new_allocatorIiE7destroyIiEEvPT_ = comdat any

$_ZNSt5dequeIiSaIiEED2Ev = comdat any

$_ZNSt5dequeIiSaIiEE15_M_destroy_dataESt15_Deque_iteratorIiRiPiES5_RKS0_ = comdat any

$_ZNSt5dequeIiSaIiEE3endEv = comdat any

$_ZNSt11_Deque_baseIiSaIiEED2Ev = comdat any

@_ZStL8__ioinit = internal global %"class.std::ios_base::Init" zeroinitializer, align 1
@__dso_handle = external hidden global i8
@_ZSt4cout = external global %"class.std::basic_ostream", align 8
@.str = private unnamed_addr constant [28 x i8] c"Enter the number of edges: \00", align 1
@_ZSt3cin = external global %"class.std::basic_istream", align 8
@.str.1 = private unnamed_addr constant [58 x i8] c"Enter space-separated pairs of vertices that form edges: \00", align 1
@.str.2 = private unnamed_addr constant [34 x i8] c"returned_result == correct_result\00", align 1
@.str.3 = private unnamed_addr constant [33 x i8] c"./graph/breadth_first_search.cpp\00", align 1
@__PRETTY_FUNCTION__._ZL5testsv = private unnamed_addr constant [13 x i8] c"void tests()\00", align 1
@.str.4 = private unnamed_addr constant [17 x i8] c"Test 1 Passed...\00", align 1
@.str.5 = private unnamed_addr constant [17 x i8] c"Test 2 Passed...\00", align 1
@.str.6 = private unnamed_addr constant [10 x i8] c"Gorakhpur\00", align 1
@.str.7 = private unnamed_addr constant [8 x i8] c"Lucknow\00", align 1
@.str.8 = private unnamed_addr constant [7 x i8] c"Kanpur\00", align 1
@.str.9 = private unnamed_addr constant [5 x i8] c"Agra\00", align 1
@.str.10 = private unnamed_addr constant [10 x i8] c"Prayagraj\00", align 1
@.str.11 = private unnamed_addr constant [6 x i8] c"Noida\00", align 1
@.str.12 = private unnamed_addr constant [28 x i8] c"correct_res == returned_res\00", align 1
@.str.13 = private unnamed_addr constant [17 x i8] c"Test 3 Passed...\00", align 1
@_ZStL19piecewise_construct = internal constant %"struct.std::piecewise_construct_t" undef, align 1
@.str.14 = private unnamed_addr constant [48 x i8] c"cannot create std::deque larger than max_size()\00", align 1
@llvm.global_ctors = appending global [1 x { i32, ptr, ptr }] [{ i32, ptr, ptr } { i32 65535, ptr @_GLOBAL__sub_I_breadth_first_search.cpp, ptr null }]

; Function Attrs: noinline uwtable
define internal void @__cxx_global_var_init() #0 section ".text.startup" {
  call void @_ZNSt8ios_base4InitC1Ev(ptr noundef nonnull align 1 dereferenceable(1) @_ZStL8__ioinit)
  %1 = call i32 @__cxa_atexit(ptr @_ZNSt8ios_base4InitD1Ev, ptr @_ZStL8__ioinit, ptr @__dso_handle) #3
  ret void
}

declare void @_ZNSt8ios_base4InitC1Ev(ptr noundef nonnull align 1 dereferenceable(1)) unnamed_addr #1

; Function Attrs: nounwind
declare void @_ZNSt8ios_base4InitD1Ev(ptr noundef nonnull align 1 dereferenceable(1)) unnamed_addr #2

; Function Attrs: nounwind
declare i32 @__cxa_atexit(ptr, ptr, ptr) #3

; Function Attrs: mustprogress noinline norecurse optnone uwtable
define dso_local noundef i32 @main() #4 personality ptr @__gxx_personality_v0 {
  %1 = alloca i32, align 4
  %2 = alloca i64, align 8
  %3 = alloca %"class.graph::Graph", align 8
  %4 = alloca ptr, align 8
  %5 = alloca i32, align 4
  %6 = alloca i32, align 4
  %7 = alloca i32, align 4
  %8 = alloca %"class.std::map.0", align 8
  store i32 0, ptr %1, align 4
  call void @_ZL5testsv()
  store i64 0, ptr %2, align 8
  %9 = call noundef nonnull align 8 dereferenceable(8) ptr @_ZStlsISt11char_traitsIcEERSt13basic_ostreamIcT_ES5_PKc(ptr noundef nonnull align 8 dereferenceable(8) @_ZSt4cout, ptr noundef @.str)
  %10 = call noundef nonnull align 8 dereferenceable(16) ptr @_ZNSirsERm(ptr noundef nonnull align 8 dereferenceable(16) @_ZSt3cin, ptr noundef nonnull align 8 dereferenceable(8) %2)
  call void @_ZN5graph5GraphIiEC2Ev(ptr noundef nonnull align 8 dereferenceable(48) %3) #3
  %11 = invoke noundef nonnull align 8 dereferenceable(8) ptr @_ZStlsISt11char_traitsIcEERSt13basic_ostreamIcT_ES5_PKc(ptr noundef nonnull align 8 dereferenceable(8) @_ZSt4cout, ptr noundef @.str.1)
          to label %12 unwind label %27

12:                                               ; preds = %0
  %13 = invoke noundef nonnull align 8 dereferenceable(8) ptr @_ZNSolsEPFRSoS_E(ptr noundef nonnull align 8 dereferenceable(8) %11, ptr noundef @_ZSt4endlIcSt11char_traitsIcEERSt13basic_ostreamIT_T0_ES6_)
          to label %14 unwind label %27

14:                                               ; preds = %12
  br label %15

15:                                               ; preds = %26, %14
  %16 = load i64, ptr %2, align 8
  %17 = add i64 %16, -1
  store i64 %17, ptr %2, align 8
  %18 = icmp ne i64 %16, 0
  br i1 %18, label %19, label %31

19:                                               ; preds = %15
  store i32 0, ptr %6, align 4
  store i32 0, ptr %7, align 4
  %20 = invoke noundef nonnull align 8 dereferenceable(16) ptr @_ZNSirsERi(ptr noundef nonnull align 8 dereferenceable(16) @_ZSt3cin, ptr noundef nonnull align 4 dereferenceable(4) %6)
          to label %21 unwind label %27

21:                                               ; preds = %19
  %22 = invoke noundef nonnull align 8 dereferenceable(16) ptr @_ZNSirsERi(ptr noundef nonnull align 8 dereferenceable(16) %20, ptr noundef nonnull align 4 dereferenceable(4) %7)
          to label %23 unwind label %27

23:                                               ; preds = %21
  %24 = load i32, ptr %6, align 4
  %25 = load i32, ptr %7, align 4
  invoke void @_ZN5graph5GraphIiE8add_edgeEiib(ptr noundef nonnull align 8 dereferenceable(48) %3, i32 noundef %24, i32 noundef %25, i1 noundef zeroext true)
          to label %26 unwind label %27

26:                                               ; preds = %23
  br label %15, !llvm.loop !6

27:                                               ; preds = %31, %23, %21, %19, %12, %0
  %28 = landingpad { ptr, i32 }
          cleanup
  %29 = extractvalue { ptr, i32 } %28, 0
  store ptr %29, ptr %4, align 8
  %30 = extractvalue { ptr, i32 } %28, 1
  store i32 %30, ptr %5, align 4
  call void @_ZN5graph5GraphIiED2Ev(ptr noundef nonnull align 8 dereferenceable(48) %3) #3
  br label %34

31:                                               ; preds = %15
  invoke void @_ZN5graph5GraphIiE20breadth_first_searchEi(ptr sret(%"class.std::map.0") align 8 %8, ptr noundef nonnull align 8 dereferenceable(48) %3, i32 noundef 0)
          to label %32 unwind label %27

32:                                               ; preds = %31
  call void @_ZNSt3mapIibSt4lessIiESaISt4pairIKibEEED2Ev(ptr noundef nonnull align 8 dereferenceable(48) %8) #3
  store i32 0, ptr %1, align 4
  call void @_ZN5graph5GraphIiED2Ev(ptr noundef nonnull align 8 dereferenceable(48) %3) #3
  %33 = load i32, ptr %1, align 4
  ret i32 %33

34:                                               ; preds = %27
  %35 = load ptr, ptr %4, align 8
  %36 = load i32, ptr %5, align 4
  %37 = insertvalue { ptr, i32 } undef, ptr %35, 0
  %38 = insertvalue { ptr, i32 } %37, i32 %36, 1
  resume { ptr, i32 } %38
}

; Function Attrs: mustprogress noinline optnone uwtable
define internal void @_ZL5testsv() #5 personality ptr @__gxx_personality_v0 {
  %1 = alloca %"class.graph::Graph", align 8
  %2 = alloca %"class.std::map.0", align 8
  %3 = alloca ptr, align 8
  %4 = alloca i32, align 4
  %5 = alloca i32, align 4
  %6 = alloca i32, align 4
  %7 = alloca i32, align 4
  %8 = alloca i32, align 4
  %9 = alloca %"class.std::map.0", align 8
  %10 = alloca %"class.std::map.0", align 8
  %11 = alloca %"class.graph::Graph.5", align 8
  %12 = alloca %"class.std::__cxx11::basic_string", align 8
  %13 = alloca %"class.std::allocator.14", align 1
  %14 = alloca %"class.std::__cxx11::basic_string", align 8
  %15 = alloca %"class.std::allocator.14", align 1
  %16 = alloca %"class.std::__cxx11::basic_string", align 8
  %17 = alloca %"class.std::allocator.14", align 1
  %18 = alloca %"class.std::__cxx11::basic_string", align 8
  %19 = alloca %"class.std::allocator.14", align 1
  %20 = alloca %"class.std::__cxx11::basic_string", align 8
  %21 = alloca %"class.std::allocator.14", align 1
  %22 = alloca %"class.std::__cxx11::basic_string", align 8
  %23 = alloca %"class.std::allocator.14", align 1
  %24 = alloca %"class.std::__cxx11::basic_string", align 8
  %25 = alloca %"class.std::allocator.14", align 1
  %26 = alloca %"class.std::__cxx11::basic_string", align 8
  %27 = alloca %"class.std::allocator.14", align 1
  %28 = alloca %"class.std::__cxx11::basic_string", align 8
  %29 = alloca %"class.std::allocator.14", align 1
  %30 = alloca %"class.std::__cxx11::basic_string", align 8
  %31 = alloca %"class.std::allocator.14", align 1
  %32 = alloca %"class.std::__cxx11::basic_string", align 8
  %33 = alloca %"class.std::allocator.14", align 1
  %34 = alloca %"class.std::__cxx11::basic_string", align 8
  %35 = alloca %"class.std::allocator.14", align 1
  %36 = alloca %"class.std::map.17", align 8
  %37 = alloca %"class.std::map.17", align 8
  %38 = alloca %"class.std::__cxx11::basic_string", align 8
  %39 = alloca %"class.std::allocator.14", align 1
  %40 = alloca %"class.std::__cxx11::basic_string", align 8
  %41 = alloca %"class.std::allocator.14", align 1
  %42 = alloca %"class.std::__cxx11::basic_string", align 8
  %43 = alloca %"class.std::allocator.14", align 1
  %44 = alloca %"class.std::__cxx11::basic_string", align 8
  %45 = alloca %"class.std::allocator.14", align 1
  %46 = alloca %"class.std::__cxx11::basic_string", align 8
  %47 = alloca %"class.std::allocator.14", align 1
  %48 = alloca %"class.std::__cxx11::basic_string", align 8
  %49 = alloca %"class.std::allocator.14", align 1
  %50 = alloca %"class.std::__cxx11::basic_string", align 8
  %51 = alloca %"class.std::allocator.14", align 1
  call void @_ZN5graph5GraphIiEC2Ev(ptr noundef nonnull align 8 dereferenceable(48) %1) #3
  call void @_ZNSt3mapIibSt4lessIiESaISt4pairIKibEEEC2Ev(ptr noundef nonnull align 8 dereferenceable(48) %2) #3
  invoke void @_ZN5graph5GraphIiE8add_edgeEiib(ptr noundef nonnull align 8 dereferenceable(48) %1, i32 noundef 0, i32 noundef 1, i1 noundef zeroext true)
          to label %52 unwind label %68

52:                                               ; preds = %0
  invoke void @_ZN5graph5GraphIiE8add_edgeEiib(ptr noundef nonnull align 8 dereferenceable(48) %1, i32 noundef 1, i32 noundef 2, i1 noundef zeroext true)
          to label %53 unwind label %68

53:                                               ; preds = %52
  invoke void @_ZN5graph5GraphIiE8add_edgeEiib(ptr noundef nonnull align 8 dereferenceable(48) %1, i32 noundef 2, i32 noundef 3, i1 noundef zeroext true)
          to label %54 unwind label %68

54:                                               ; preds = %53
  store i32 0, ptr %5, align 4
  %55 = invoke noundef nonnull align 1 dereferenceable(1) ptr @_ZNSt3mapIibSt4lessIiESaISt4pairIKibEEEixEOi(ptr noundef nonnull align 8 dereferenceable(48) %2, ptr noundef nonnull align 4 dereferenceable(4) %5)
          to label %56 unwind label %68

56:                                               ; preds = %54
  store i8 1, ptr %55, align 1
  store i32 1, ptr %6, align 4
  %57 = invoke noundef nonnull align 1 dereferenceable(1) ptr @_ZNSt3mapIibSt4lessIiESaISt4pairIKibEEEixEOi(ptr noundef nonnull align 8 dereferenceable(48) %2, ptr noundef nonnull align 4 dereferenceable(4) %6)
          to label %58 unwind label %68

58:                                               ; preds = %56
  store i8 1, ptr %57, align 1
  store i32 2, ptr %7, align 4
  %59 = invoke noundef nonnull align 1 dereferenceable(1) ptr @_ZNSt3mapIibSt4lessIiESaISt4pairIKibEEEixEOi(ptr noundef nonnull align 8 dereferenceable(48) %2, ptr noundef nonnull align 4 dereferenceable(4) %7)
          to label %60 unwind label %68

60:                                               ; preds = %58
  store i8 1, ptr %59, align 1
  store i32 3, ptr %8, align 4
  %61 = invoke noundef nonnull align 1 dereferenceable(1) ptr @_ZNSt3mapIibSt4lessIiESaISt4pairIKibEEEixEOi(ptr noundef nonnull align 8 dereferenceable(48) %2, ptr noundef nonnull align 4 dereferenceable(4) %8)
          to label %62 unwind label %68

62:                                               ; preds = %60
  store i8 1, ptr %61, align 1
  invoke void @_ZN5graph5GraphIiE20breadth_first_searchEi(ptr sret(%"class.std::map.0") align 8 %9, ptr noundef nonnull align 8 dereferenceable(48) %1, i32 noundef 2)
          to label %63 unwind label %68

63:                                               ; preds = %62
  %64 = invoke noundef zeroext i1 @_ZSteqIibSt4lessIiESaISt4pairIKibEEEbRKSt3mapIT_T0_T1_T2_ESD_(ptr noundef nonnull align 8 dereferenceable(48) %9, ptr noundef nonnull align 8 dereferenceable(48) %2)
          to label %65 unwind label %72

65:                                               ; preds = %63
  br i1 %64, label %66, label %67

66:                                               ; preds = %65
  br label %77

67:                                               ; preds = %65
  call void @__assert_fail(ptr noundef @.str.2, ptr noundef @.str.3, i32 noundef 153, ptr noundef @__PRETTY_FUNCTION__._ZL5testsv) #17
  unreachable

68:                                               ; preds = %62, %60, %58, %56, %54, %53, %52, %0
  %69 = landingpad { ptr, i32 }
          cleanup
  %70 = extractvalue { ptr, i32 } %69, 0
  store ptr %70, ptr %3, align 8
  %71 = extractvalue { ptr, i32 } %69, 1
  store i32 %71, ptr %4, align 4
  br label %297

72:                                               ; preds = %91, %89, %82, %81, %79, %77, %63
  %73 = landingpad { ptr, i32 }
          cleanup
  %74 = extractvalue { ptr, i32 } %73, 0
  store ptr %74, ptr %3, align 8
  %75 = extractvalue { ptr, i32 } %73, 1
  store i32 %75, ptr %4, align 4
  br label %296

76:                                               ; No predecessors!
  br label %77

77:                                               ; preds = %76, %66
  %78 = invoke noundef nonnull align 8 dereferenceable(8) ptr @_ZStlsISt11char_traitsIcEERSt13basic_ostreamIcT_ES5_PKc(ptr noundef nonnull align 8 dereferenceable(8) @_ZSt4cout, ptr noundef @.str.4)
          to label %79 unwind label %72

79:                                               ; preds = %77
  %80 = invoke noundef nonnull align 8 dereferenceable(8) ptr @_ZNSolsEPFRSoS_E(ptr noundef nonnull align 8 dereferenceable(8) %78, ptr noundef @_ZSt4endlIcSt11char_traitsIcEERSt13basic_ostreamIT_T0_ES6_)
          to label %81 unwind label %72

81:                                               ; preds = %79
  invoke void @_ZN5graph5GraphIiE20breadth_first_searchEi(ptr sret(%"class.std::map.0") align 8 %10, ptr noundef nonnull align 8 dereferenceable(48) %1, i32 noundef 0)
          to label %82 unwind label %72

82:                                               ; preds = %81
  %83 = call noundef nonnull align 8 dereferenceable(48) ptr @_ZNSt3mapIibSt4lessIiESaISt4pairIKibEEEaSEOS6_(ptr noundef nonnull align 8 dereferenceable(48) %9, ptr noundef nonnull align 8 dereferenceable(48) %10) #3
  call void @_ZNSt3mapIibSt4lessIiESaISt4pairIKibEEED2Ev(ptr noundef nonnull align 8 dereferenceable(48) %10) #3
  %84 = invoke noundef zeroext i1 @_ZSteqIibSt4lessIiESaISt4pairIKibEEEbRKSt3mapIT_T0_T1_T2_ESD_(ptr noundef nonnull align 8 dereferenceable(48) %9, ptr noundef nonnull align 8 dereferenceable(48) %2)
          to label %85 unwind label %72

85:                                               ; preds = %82
  br i1 %84, label %86, label %87

86:                                               ; preds = %85
  br label %89

87:                                               ; preds = %85
  call void @__assert_fail(ptr noundef @.str.2, ptr noundef @.str.3, i32 noundef 159, ptr noundef @__PRETTY_FUNCTION__._ZL5testsv) #17
  unreachable

88:                                               ; No predecessors!
  br label %89

89:                                               ; preds = %88, %86
  %90 = invoke noundef nonnull align 8 dereferenceable(8) ptr @_ZStlsISt11char_traitsIcEERSt13basic_ostreamIcT_ES5_PKc(ptr noundef nonnull align 8 dereferenceable(8) @_ZSt4cout, ptr noundef @.str.5)
          to label %91 unwind label %72

91:                                               ; preds = %89
  %92 = invoke noundef nonnull align 8 dereferenceable(8) ptr @_ZNSolsEPFRSoS_E(ptr noundef nonnull align 8 dereferenceable(8) %90, ptr noundef @_ZSt4endlIcSt11char_traitsIcEERSt13basic_ostreamIT_T0_ES6_)
          to label %93 unwind label %72

93:                                               ; preds = %91
  call void @_ZN5graph5GraphINSt7__cxx1112basic_stringIcSt11char_traitsIcESaIcEEEEC2Ev(ptr noundef nonnull align 8 dereferenceable(48) %11) #3
  call void @_ZNSaIcEC1Ev(ptr noundef nonnull align 1 dereferenceable(1) %13) #3
  invoke void @_ZNSt7__cxx1112basic_stringIcSt11char_traitsIcESaIcEEC1EPKcRKS3_(ptr noundef nonnull align 8 dereferenceable(32) %12, ptr noundef @.str.6, ptr noundef nonnull align 1 dereferenceable(1) %13)
          to label %94 unwind label %136

94:                                               ; preds = %93
  call void @_ZNSaIcEC1Ev(ptr noundef nonnull align 1 dereferenceable(1) %15) #3
  invoke void @_ZNSt7__cxx1112basic_stringIcSt11char_traitsIcESaIcEEC1EPKcRKS3_(ptr noundef nonnull align 8 dereferenceable(32) %14, ptr noundef @.str.7, ptr noundef nonnull align 1 dereferenceable(1) %15)
          to label %95 unwind label %140

95:                                               ; preds = %94
  invoke void @_ZN5graph5GraphINSt7__cxx1112basic_stringIcSt11char_traitsIcESaIcEEEE8add_edgeES6_S6_b(ptr noundef nonnull align 8 dereferenceable(48) %11, ptr noundef %12, ptr noundef %14, i1 noundef zeroext false)
          to label %96 unwind label %144

96:                                               ; preds = %95
  call void @_ZNSt7__cxx1112basic_stringIcSt11char_traitsIcESaIcEED1Ev(ptr noundef nonnull align 8 dereferenceable(32) %14) #3
  call void @_ZNSaIcED1Ev(ptr noundef nonnull align 1 dereferenceable(1) %15) #3
  call void @_ZNSt7__cxx1112basic_stringIcSt11char_traitsIcESaIcEED1Ev(ptr noundef nonnull align 8 dereferenceable(32) %12) #3
  call void @_ZNSaIcED1Ev(ptr noundef nonnull align 1 dereferenceable(1) %13) #3
  call void @_ZNSaIcEC1Ev(ptr noundef nonnull align 1 dereferenceable(1) %17) #3
  invoke void @_ZNSt7__cxx1112basic_stringIcSt11char_traitsIcESaIcEEC1EPKcRKS3_(ptr noundef nonnull align 8 dereferenceable(32) %16, ptr noundef @.str.6, ptr noundef nonnull align 1 dereferenceable(1) %17)
          to label %97 unwind label %150

97:                                               ; preds = %96
  call void @_ZNSaIcEC1Ev(ptr noundef nonnull align 1 dereferenceable(1) %19) #3
  invoke void @_ZNSt7__cxx1112basic_stringIcSt11char_traitsIcESaIcEEC1EPKcRKS3_(ptr noundef nonnull align 8 dereferenceable(32) %18, ptr noundef @.str.8, ptr noundef nonnull align 1 dereferenceable(1) %19)
          to label %98 unwind label %154

98:                                               ; preds = %97
  invoke void @_ZN5graph5GraphINSt7__cxx1112basic_stringIcSt11char_traitsIcESaIcEEEE8add_edgeES6_S6_b(ptr noundef nonnull align 8 dereferenceable(48) %11, ptr noundef %16, ptr noundef %18, i1 noundef zeroext false)
          to label %99 unwind label %158

99:                                               ; preds = %98
  call void @_ZNSt7__cxx1112basic_stringIcSt11char_traitsIcESaIcEED1Ev(ptr noundef nonnull align 8 dereferenceable(32) %18) #3
  call void @_ZNSaIcED1Ev(ptr noundef nonnull align 1 dereferenceable(1) %19) #3
  call void @_ZNSt7__cxx1112basic_stringIcSt11char_traitsIcESaIcEED1Ev(ptr noundef nonnull align 8 dereferenceable(32) %16) #3
  call void @_ZNSaIcED1Ev(ptr noundef nonnull align 1 dereferenceable(1) %17) #3
  call void @_ZNSaIcEC1Ev(ptr noundef nonnull align 1 dereferenceable(1) %21) #3
  invoke void @_ZNSt7__cxx1112basic_stringIcSt11char_traitsIcESaIcEEC1EPKcRKS3_(ptr noundef nonnull align 8 dereferenceable(32) %20, ptr noundef @.str.7, ptr noundef nonnull align 1 dereferenceable(1) %21)
          to label %100 unwind label %164

100:                                              ; preds = %99
  call void @_ZNSaIcEC1Ev(ptr noundef nonnull align 1 dereferenceable(1) %23) #3
  invoke void @_ZNSt7__cxx1112basic_stringIcSt11char_traitsIcESaIcEEC1EPKcRKS3_(ptr noundef nonnull align 8 dereferenceable(32) %22, ptr noundef @.str.9, ptr noundef nonnull align 1 dereferenceable(1) %23)
          to label %101 unwind label %168

101:                                              ; preds = %100
  invoke void @_ZN5graph5GraphINSt7__cxx1112basic_stringIcSt11char_traitsIcESaIcEEEE8add_edgeES6_S6_b(ptr noundef nonnull align 8 dereferenceable(48) %11, ptr noundef %20, ptr noundef %22, i1 noundef zeroext false)
          to label %102 unwind label %172

102:                                              ; preds = %101
  call void @_ZNSt7__cxx1112basic_stringIcSt11char_traitsIcESaIcEED1Ev(ptr noundef nonnull align 8 dereferenceable(32) %22) #3
  call void @_ZNSaIcED1Ev(ptr noundef nonnull align 1 dereferenceable(1) %23) #3
  call void @_ZNSt7__cxx1112basic_stringIcSt11char_traitsIcESaIcEED1Ev(ptr noundef nonnull align 8 dereferenceable(32) %20) #3
  call void @_ZNSaIcED1Ev(ptr noundef nonnull align 1 dereferenceable(1) %21) #3
  call void @_ZNSaIcEC1Ev(ptr noundef nonnull align 1 dereferenceable(1) %25) #3
  invoke void @_ZNSt7__cxx1112basic_stringIcSt11char_traitsIcESaIcEEC1EPKcRKS3_(ptr noundef nonnull align 8 dereferenceable(32) %24, ptr noundef @.str.8, ptr noundef nonnull align 1 dereferenceable(1) %25)
          to label %103 unwind label %178

103:                                              ; preds = %102
  call void @_ZNSaIcEC1Ev(ptr noundef nonnull align 1 dereferenceable(1) %27) #3
  invoke void @_ZNSt7__cxx1112basic_stringIcSt11char_traitsIcESaIcEEC1EPKcRKS3_(ptr noundef nonnull align 8 dereferenceable(32) %26, ptr noundef @.str.9, ptr noundef nonnull align 1 dereferenceable(1) %27)
          to label %104 unwind label %182

104:                                              ; preds = %103
  invoke void @_ZN5graph5GraphINSt7__cxx1112basic_stringIcSt11char_traitsIcESaIcEEEE8add_edgeES6_S6_b(ptr noundef nonnull align 8 dereferenceable(48) %11, ptr noundef %24, ptr noundef %26, i1 noundef zeroext false)
          to label %105 unwind label %186

105:                                              ; preds = %104
  call void @_ZNSt7__cxx1112basic_stringIcSt11char_traitsIcESaIcEED1Ev(ptr noundef nonnull align 8 dereferenceable(32) %26) #3
  call void @_ZNSaIcED1Ev(ptr noundef nonnull align 1 dereferenceable(1) %27) #3
  call void @_ZNSt7__cxx1112basic_stringIcSt11char_traitsIcESaIcEED1Ev(ptr noundef nonnull align 8 dereferenceable(32) %24) #3
  call void @_ZNSaIcED1Ev(ptr noundef nonnull align 1 dereferenceable(1) %25) #3
  call void @_ZNSaIcEC1Ev(ptr noundef nonnull align 1 dereferenceable(1) %29) #3
  invoke void @_ZNSt7__cxx1112basic_stringIcSt11char_traitsIcESaIcEEC1EPKcRKS3_(ptr noundef nonnull align 8 dereferenceable(32) %28, ptr noundef @.str.7, ptr noundef nonnull align 1 dereferenceable(1) %29)
          to label %106 unwind label %192

106:                                              ; preds = %105
  call void @_ZNSaIcEC1Ev(ptr noundef nonnull align 1 dereferenceable(1) %31) #3
  invoke void @_ZNSt7__cxx1112basic_stringIcSt11char_traitsIcESaIcEEC1EPKcRKS3_(ptr noundef nonnull align 8 dereferenceable(32) %30, ptr noundef @.str.10, ptr noundef nonnull align 1 dereferenceable(1) %31)
          to label %107 unwind label %196

107:                                              ; preds = %106
  invoke void @_ZN5graph5GraphINSt7__cxx1112basic_stringIcSt11char_traitsIcESaIcEEEE8add_edgeES6_S6_b(ptr noundef nonnull align 8 dereferenceable(48) %11, ptr noundef %28, ptr noundef %30, i1 noundef zeroext false)
          to label %108 unwind label %200

108:                                              ; preds = %107
  call void @_ZNSt7__cxx1112basic_stringIcSt11char_traitsIcESaIcEED1Ev(ptr noundef nonnull align 8 dereferenceable(32) %30) #3
  call void @_ZNSaIcED1Ev(ptr noundef nonnull align 1 dereferenceable(1) %31) #3
  call void @_ZNSt7__cxx1112basic_stringIcSt11char_traitsIcESaIcEED1Ev(ptr noundef nonnull align 8 dereferenceable(32) %28) #3
  call void @_ZNSaIcED1Ev(ptr noundef nonnull align 1 dereferenceable(1) %29) #3
  call void @_ZNSaIcEC1Ev(ptr noundef nonnull align 1 dereferenceable(1) %33) #3
  invoke void @_ZNSt7__cxx1112basic_stringIcSt11char_traitsIcESaIcEEC1EPKcRKS3_(ptr noundef nonnull align 8 dereferenceable(32) %32, ptr noundef @.str.9, ptr noundef nonnull align 1 dereferenceable(1) %33)
          to label %109 unwind label %206

109:                                              ; preds = %108
  call void @_ZNSaIcEC1Ev(ptr noundef nonnull align 1 dereferenceable(1) %35) #3
  invoke void @_ZNSt7__cxx1112basic_stringIcSt11char_traitsIcESaIcEEC1EPKcRKS3_(ptr noundef nonnull align 8 dereferenceable(32) %34, ptr noundef @.str.11, ptr noundef nonnull align 1 dereferenceable(1) %35)
          to label %110 unwind label %210

110:                                              ; preds = %109
  invoke void @_ZN5graph5GraphINSt7__cxx1112basic_stringIcSt11char_traitsIcESaIcEEEE8add_edgeES6_S6_b(ptr noundef nonnull align 8 dereferenceable(48) %11, ptr noundef %32, ptr noundef %34, i1 noundef zeroext false)
          to label %111 unwind label %214

111:                                              ; preds = %110
  call void @_ZNSt7__cxx1112basic_stringIcSt11char_traitsIcESaIcEED1Ev(ptr noundef nonnull align 8 dereferenceable(32) %34) #3
  call void @_ZNSaIcED1Ev(ptr noundef nonnull align 1 dereferenceable(1) %35) #3
  call void @_ZNSt7__cxx1112basic_stringIcSt11char_traitsIcESaIcEED1Ev(ptr noundef nonnull align 8 dereferenceable(32) %32) #3
  call void @_ZNSaIcED1Ev(ptr noundef nonnull align 1 dereferenceable(1) %33) #3
  call void @_ZNSt3mapINSt7__cxx1112basic_stringIcSt11char_traitsIcESaIcEEEbSt4lessIS5_ESaISt4pairIKS5_bEEEC2Ev(ptr noundef nonnull align 8 dereferenceable(48) %36) #3
  call void @_ZNSaIcEC1Ev(ptr noundef nonnull align 1 dereferenceable(1) %39) #3
  invoke void @_ZNSt7__cxx1112basic_stringIcSt11char_traitsIcESaIcEEC1EPKcRKS3_(ptr noundef nonnull align 8 dereferenceable(32) %38, ptr noundef @.str.8, ptr noundef nonnull align 1 dereferenceable(1) %39)
          to label %112 unwind label %220

112:                                              ; preds = %111
  invoke void @_ZN5graph5GraphINSt7__cxx1112basic_stringIcSt11char_traitsIcESaIcEEEE20breadth_first_searchES6_(ptr sret(%"class.std::map.17") align 8 %37, ptr noundef nonnull align 8 dereferenceable(48) %11, ptr noundef %38)
          to label %113 unwind label %224

113:                                              ; preds = %112
  call void @_ZNSt7__cxx1112basic_stringIcSt11char_traitsIcESaIcEED1Ev(ptr noundef nonnull align 8 dereferenceable(32) %38) #3
  call void @_ZNSaIcED1Ev(ptr noundef nonnull align 1 dereferenceable(1) %39) #3
  call void @_ZNSaIcEC1Ev(ptr noundef nonnull align 1 dereferenceable(1) %41) #3
  invoke void @_ZNSt7__cxx1112basic_stringIcSt11char_traitsIcESaIcEEC1EPKcRKS3_(ptr noundef nonnull align 8 dereferenceable(32) %40, ptr noundef @.str.6, ptr noundef nonnull align 1 dereferenceable(1) %41)
          to label %114 unwind label %229

114:                                              ; preds = %113
  %115 = invoke noundef nonnull align 1 dereferenceable(1) ptr @_ZNSt3mapINSt7__cxx1112basic_stringIcSt11char_traitsIcESaIcEEEbSt4lessIS5_ESaISt4pairIKS5_bEEEixEOS5_(ptr noundef nonnull align 8 dereferenceable(48) %36, ptr noundef nonnull align 8 dereferenceable(32) %40)
          to label %116 unwind label %233

116:                                              ; preds = %114
  store i8 0, ptr %115, align 1
  call void @_ZNSt7__cxx1112basic_stringIcSt11char_traitsIcESaIcEED1Ev(ptr noundef nonnull align 8 dereferenceable(32) %40) #3
  call void @_ZNSaIcED1Ev(ptr noundef nonnull align 1 dereferenceable(1) %41) #3
  call void @_ZNSaIcEC1Ev(ptr noundef nonnull align 1 dereferenceable(1) %43) #3
  invoke void @_ZNSt7__cxx1112basic_stringIcSt11char_traitsIcESaIcEEC1EPKcRKS3_(ptr noundef nonnull align 8 dereferenceable(32) %42, ptr noundef @.str.7, ptr noundef nonnull align 1 dereferenceable(1) %43)
          to label %117 unwind label %238

117:                                              ; preds = %116
  %118 = invoke noundef nonnull align 1 dereferenceable(1) ptr @_ZNSt3mapINSt7__cxx1112basic_stringIcSt11char_traitsIcESaIcEEEbSt4lessIS5_ESaISt4pairIKS5_bEEEixEOS5_(ptr noundef nonnull align 8 dereferenceable(48) %36, ptr noundef nonnull align 8 dereferenceable(32) %42)
          to label %119 unwind label %242

119:                                              ; preds = %117
  store i8 0, ptr %118, align 1
  call void @_ZNSt7__cxx1112basic_stringIcSt11char_traitsIcESaIcEED1Ev(ptr noundef nonnull align 8 dereferenceable(32) %42) #3
  call void @_ZNSaIcED1Ev(ptr noundef nonnull align 1 dereferenceable(1) %43) #3
  call void @_ZNSaIcEC1Ev(ptr noundef nonnull align 1 dereferenceable(1) %45) #3
  invoke void @_ZNSt7__cxx1112basic_stringIcSt11char_traitsIcESaIcEEC1EPKcRKS3_(ptr noundef nonnull align 8 dereferenceable(32) %44, ptr noundef @.str.8, ptr noundef nonnull align 1 dereferenceable(1) %45)
          to label %120 unwind label %247

120:                                              ; preds = %119
  %121 = invoke noundef nonnull align 1 dereferenceable(1) ptr @_ZNSt3mapINSt7__cxx1112basic_stringIcSt11char_traitsIcESaIcEEEbSt4lessIS5_ESaISt4pairIKS5_bEEEixEOS5_(ptr noundef nonnull align 8 dereferenceable(48) %36, ptr noundef nonnull align 8 dereferenceable(32) %44)
          to label %122 unwind label %251

122:                                              ; preds = %120
  store i8 1, ptr %121, align 1
  call void @_ZNSt7__cxx1112basic_stringIcSt11char_traitsIcESaIcEED1Ev(ptr noundef nonnull align 8 dereferenceable(32) %44) #3
  call void @_ZNSaIcED1Ev(ptr noundef nonnull align 1 dereferenceable(1) %45) #3
  call void @_ZNSaIcEC1Ev(ptr noundef nonnull align 1 dereferenceable(1) %47) #3
  invoke void @_ZNSt7__cxx1112basic_stringIcSt11char_traitsIcESaIcEEC1EPKcRKS3_(ptr noundef nonnull align 8 dereferenceable(32) %46, ptr noundef @.str.9, ptr noundef nonnull align 1 dereferenceable(1) %47)
          to label %123 unwind label %256

123:                                              ; preds = %122
  %124 = invoke noundef nonnull align 1 dereferenceable(1) ptr @_ZNSt3mapINSt7__cxx1112basic_stringIcSt11char_traitsIcESaIcEEEbSt4lessIS5_ESaISt4pairIKS5_bEEEixEOS5_(ptr noundef nonnull align 8 dereferenceable(48) %36, ptr noundef nonnull align 8 dereferenceable(32) %46)
          to label %125 unwind label %260

125:                                              ; preds = %123
  store i8 1, ptr %124, align 1
  call void @_ZNSt7__cxx1112basic_stringIcSt11char_traitsIcESaIcEED1Ev(ptr noundef nonnull align 8 dereferenceable(32) %46) #3
  call void @_ZNSaIcED1Ev(ptr noundef nonnull align 1 dereferenceable(1) %47) #3
  call void @_ZNSaIcEC1Ev(ptr noundef nonnull align 1 dereferenceable(1) %49) #3
  invoke void @_ZNSt7__cxx1112basic_stringIcSt11char_traitsIcESaIcEEC1EPKcRKS3_(ptr noundef nonnull align 8 dereferenceable(32) %48, ptr noundef @.str.10, ptr noundef nonnull align 1 dereferenceable(1) %49)
          to label %126 unwind label %265

126:                                              ; preds = %125
  %127 = invoke noundef nonnull align 1 dereferenceable(1) ptr @_ZNSt3mapINSt7__cxx1112basic_stringIcSt11char_traitsIcESaIcEEEbSt4lessIS5_ESaISt4pairIKS5_bEEEixEOS5_(ptr noundef nonnull align 8 dereferenceable(48) %36, ptr noundef nonnull align 8 dereferenceable(32) %48)
          to label %128 unwind label %269

128:                                              ; preds = %126
  store i8 0, ptr %127, align 1
  call void @_ZNSt7__cxx1112basic_stringIcSt11char_traitsIcESaIcEED1Ev(ptr noundef nonnull align 8 dereferenceable(32) %48) #3
  call void @_ZNSaIcED1Ev(ptr noundef nonnull align 1 dereferenceable(1) %49) #3
  call void @_ZNSaIcEC1Ev(ptr noundef nonnull align 1 dereferenceable(1) %51) #3
  invoke void @_ZNSt7__cxx1112basic_stringIcSt11char_traitsIcESaIcEEC1EPKcRKS3_(ptr noundef nonnull align 8 dereferenceable(32) %50, ptr noundef @.str.11, ptr noundef nonnull align 1 dereferenceable(1) %51)
          to label %129 unwind label %274

129:                                              ; preds = %128
  %130 = invoke noundef nonnull align 1 dereferenceable(1) ptr @_ZNSt3mapINSt7__cxx1112basic_stringIcSt11char_traitsIcESaIcEEEbSt4lessIS5_ESaISt4pairIKS5_bEEEixEOS5_(ptr noundef nonnull align 8 dereferenceable(48) %36, ptr noundef nonnull align 8 dereferenceable(32) %50)
          to label %131 unwind label %278

131:                                              ; preds = %129
  store i8 1, ptr %130, align 1
  call void @_ZNSt7__cxx1112basic_stringIcSt11char_traitsIcESaIcEED1Ev(ptr noundef nonnull align 8 dereferenceable(32) %50) #3
  call void @_ZNSaIcED1Ev(ptr noundef nonnull align 1 dereferenceable(1) %51) #3
  %132 = invoke noundef zeroext i1 @_ZSteqINSt7__cxx1112basic_stringIcSt11char_traitsIcESaIcEEEbSt4lessIS5_ESaISt4pairIKS5_bEEEbRKSt3mapIT_T0_T1_T2_ESJ_(ptr noundef nonnull align 8 dereferenceable(48) %36, ptr noundef nonnull align 8 dereferenceable(48) %37)
          to label %133 unwind label %283

133:                                              ; preds = %131
  br i1 %132, label %134, label %135

134:                                              ; preds = %133
  br label %288

135:                                              ; preds = %133
  call void @__assert_fail(ptr noundef @.str.12, ptr noundef @.str.3, i32 noundef 181, ptr noundef @__PRETTY_FUNCTION__._ZL5testsv) #17
  unreachable

136:                                              ; preds = %93
  %137 = landingpad { ptr, i32 }
          cleanup
  %138 = extractvalue { ptr, i32 } %137, 0
  store ptr %138, ptr %3, align 8
  %139 = extractvalue { ptr, i32 } %137, 1
  store i32 %139, ptr %4, align 4
  br label %149

140:                                              ; preds = %94
  %141 = landingpad { ptr, i32 }
          cleanup
  %142 = extractvalue { ptr, i32 } %141, 0
  store ptr %142, ptr %3, align 8
  %143 = extractvalue { ptr, i32 } %141, 1
  store i32 %143, ptr %4, align 4
  br label %148

144:                                              ; preds = %95
  %145 = landingpad { ptr, i32 }
          cleanup
  %146 = extractvalue { ptr, i32 } %145, 0
  store ptr %146, ptr %3, align 8
  %147 = extractvalue { ptr, i32 } %145, 1
  store i32 %147, ptr %4, align 4
  call void @_ZNSt7__cxx1112basic_stringIcSt11char_traitsIcESaIcEED1Ev(ptr noundef nonnull align 8 dereferenceable(32) %14) #3
  br label %148

148:                                              ; preds = %144, %140
  call void @_ZNSaIcED1Ev(ptr noundef nonnull align 1 dereferenceable(1) %15) #3
  call void @_ZNSt7__cxx1112basic_stringIcSt11char_traitsIcESaIcEED1Ev(ptr noundef nonnull align 8 dereferenceable(32) %12) #3
  br label %149

149:                                              ; preds = %148, %136
  call void @_ZNSaIcED1Ev(ptr noundef nonnull align 1 dereferenceable(1) %13) #3
  br label %295

150:                                              ; preds = %96
  %151 = landingpad { ptr, i32 }
          cleanup
  %152 = extractvalue { ptr, i32 } %151, 0
  store ptr %152, ptr %3, align 8
  %153 = extractvalue { ptr, i32 } %151, 1
  store i32 %153, ptr %4, align 4
  br label %163

154:                                              ; preds = %97
  %155 = landingpad { ptr, i32 }
          cleanup
  %156 = extractvalue { ptr, i32 } %155, 0
  store ptr %156, ptr %3, align 8
  %157 = extractvalue { ptr, i32 } %155, 1
  store i32 %157, ptr %4, align 4
  br label %162

158:                                              ; preds = %98
  %159 = landingpad { ptr, i32 }
          cleanup
  %160 = extractvalue { ptr, i32 } %159, 0
  store ptr %160, ptr %3, align 8
  %161 = extractvalue { ptr, i32 } %159, 1
  store i32 %161, ptr %4, align 4
  call void @_ZNSt7__cxx1112basic_stringIcSt11char_traitsIcESaIcEED1Ev(ptr noundef nonnull align 8 dereferenceable(32) %18) #3
  br label %162

162:                                              ; preds = %158, %154
  call void @_ZNSaIcED1Ev(ptr noundef nonnull align 1 dereferenceable(1) %19) #3
  call void @_ZNSt7__cxx1112basic_stringIcSt11char_traitsIcESaIcEED1Ev(ptr noundef nonnull align 8 dereferenceable(32) %16) #3
  br label %163

163:                                              ; preds = %162, %150
  call void @_ZNSaIcED1Ev(ptr noundef nonnull align 1 dereferenceable(1) %17) #3
  br label %295

164:                                              ; preds = %99
  %165 = landingpad { ptr, i32 }
          cleanup
  %166 = extractvalue { ptr, i32 } %165, 0
  store ptr %166, ptr %3, align 8
  %167 = extractvalue { ptr, i32 } %165, 1
  store i32 %167, ptr %4, align 4
  br label %177

168:                                              ; preds = %100
  %169 = landingpad { ptr, i32 }
          cleanup
  %170 = extractvalue { ptr, i32 } %169, 0
  store ptr %170, ptr %3, align 8
  %171 = extractvalue { ptr, i32 } %169, 1
  store i32 %171, ptr %4, align 4
  br label %176

172:                                              ; preds = %101
  %173 = landingpad { ptr, i32 }
          cleanup
  %174 = extractvalue { ptr, i32 } %173, 0
  store ptr %174, ptr %3, align 8
  %175 = extractvalue { ptr, i32 } %173, 1
  store i32 %175, ptr %4, align 4
  call void @_ZNSt7__cxx1112basic_stringIcSt11char_traitsIcESaIcEED1Ev(ptr noundef nonnull align 8 dereferenceable(32) %22) #3
  br label %176

176:                                              ; preds = %172, %168
  call void @_ZNSaIcED1Ev(ptr noundef nonnull align 1 dereferenceable(1) %23) #3
  call void @_ZNSt7__cxx1112basic_stringIcSt11char_traitsIcESaIcEED1Ev(ptr noundef nonnull align 8 dereferenceable(32) %20) #3
  br label %177

177:                                              ; preds = %176, %164
  call void @_ZNSaIcED1Ev(ptr noundef nonnull align 1 dereferenceable(1) %21) #3
  br label %295

178:                                              ; preds = %102
  %179 = landingpad { ptr, i32 }
          cleanup
  %180 = extractvalue { ptr, i32 } %179, 0
  store ptr %180, ptr %3, align 8
  %181 = extractvalue { ptr, i32 } %179, 1
  store i32 %181, ptr %4, align 4
  br label %191

182:                                              ; preds = %103
  %183 = landingpad { ptr, i32 }
          cleanup
  %184 = extractvalue { ptr, i32 } %183, 0
  store ptr %184, ptr %3, align 8
  %185 = extractvalue { ptr, i32 } %183, 1
  store i32 %185, ptr %4, align 4
  br label %190

186:                                              ; preds = %104
  %187 = landingpad { ptr, i32 }
          cleanup
  %188 = extractvalue { ptr, i32 } %187, 0
  store ptr %188, ptr %3, align 8
  %189 = extractvalue { ptr, i32 } %187, 1
  store i32 %189, ptr %4, align 4
  call void @_ZNSt7__cxx1112basic_stringIcSt11char_traitsIcESaIcEED1Ev(ptr noundef nonnull align 8 dereferenceable(32) %26) #3
  br label %190

190:                                              ; preds = %186, %182
  call void @_ZNSaIcED1Ev(ptr noundef nonnull align 1 dereferenceable(1) %27) #3
  call void @_ZNSt7__cxx1112basic_stringIcSt11char_traitsIcESaIcEED1Ev(ptr noundef nonnull align 8 dereferenceable(32) %24) #3
  br label %191

191:                                              ; preds = %190, %178
  call void @_ZNSaIcED1Ev(ptr noundef nonnull align 1 dereferenceable(1) %25) #3
  br label %295

192:                                              ; preds = %105
  %193 = landingpad { ptr, i32 }
          cleanup
  %194 = extractvalue { ptr, i32 } %193, 0
  store ptr %194, ptr %3, align 8
  %195 = extractvalue { ptr, i32 } %193, 1
  store i32 %195, ptr %4, align 4
  br label %205

196:                                              ; preds = %106
  %197 = landingpad { ptr, i32 }
          cleanup
  %198 = extractvalue { ptr, i32 } %197, 0
  store ptr %198, ptr %3, align 8
  %199 = extractvalue { ptr, i32 } %197, 1
  store i32 %199, ptr %4, align 4
  br label %204

200:                                              ; preds = %107
  %201 = landingpad { ptr, i32 }
          cleanup
  %202 = extractvalue { ptr, i32 } %201, 0
  store ptr %202, ptr %3, align 8
  %203 = extractvalue { ptr, i32 } %201, 1
  store i32 %203, ptr %4, align 4
  call void @_ZNSt7__cxx1112basic_stringIcSt11char_traitsIcESaIcEED1Ev(ptr noundef nonnull align 8 dereferenceable(32) %30) #3
  br label %204

204:                                              ; preds = %200, %196
  call void @_ZNSaIcED1Ev(ptr noundef nonnull align 1 dereferenceable(1) %31) #3
  call void @_ZNSt7__cxx1112basic_stringIcSt11char_traitsIcESaIcEED1Ev(ptr noundef nonnull align 8 dereferenceable(32) %28) #3
  br label %205

205:                                              ; preds = %204, %192
  call void @_ZNSaIcED1Ev(ptr noundef nonnull align 1 dereferenceable(1) %29) #3
  br label %295

206:                                              ; preds = %108
  %207 = landingpad { ptr, i32 }
          cleanup
  %208 = extractvalue { ptr, i32 } %207, 0
  store ptr %208, ptr %3, align 8
  %209 = extractvalue { ptr, i32 } %207, 1
  store i32 %209, ptr %4, align 4
  br label %219

210:                                              ; preds = %109
  %211 = landingpad { ptr, i32 }
          cleanup
  %212 = extractvalue { ptr, i32 } %211, 0
  store ptr %212, ptr %3, align 8
  %213 = extractvalue { ptr, i32 } %211, 1
  store i32 %213, ptr %4, align 4
  br label %218

214:                                              ; preds = %110
  %215 = landingpad { ptr, i32 }
          cleanup
  %216 = extractvalue { ptr, i32 } %215, 0
  store ptr %216, ptr %3, align 8
  %217 = extractvalue { ptr, i32 } %215, 1
  store i32 %217, ptr %4, align 4
  call void @_ZNSt7__cxx1112basic_stringIcSt11char_traitsIcESaIcEED1Ev(ptr noundef nonnull align 8 dereferenceable(32) %34) #3
  br label %218

218:                                              ; preds = %214, %210
  call void @_ZNSaIcED1Ev(ptr noundef nonnull align 1 dereferenceable(1) %35) #3
  call void @_ZNSt7__cxx1112basic_stringIcSt11char_traitsIcESaIcEED1Ev(ptr noundef nonnull align 8 dereferenceable(32) %32) #3
  br label %219

219:                                              ; preds = %218, %206
  call void @_ZNSaIcED1Ev(ptr noundef nonnull align 1 dereferenceable(1) %33) #3
  br label %295

220:                                              ; preds = %111
  %221 = landingpad { ptr, i32 }
          cleanup
  %222 = extractvalue { ptr, i32 } %221, 0
  store ptr %222, ptr %3, align 8
  %223 = extractvalue { ptr, i32 } %221, 1
  store i32 %223, ptr %4, align 4
  br label %228

224:                                              ; preds = %112
  %225 = landingpad { ptr, i32 }
          cleanup
  %226 = extractvalue { ptr, i32 } %225, 0
  store ptr %226, ptr %3, align 8
  %227 = extractvalue { ptr, i32 } %225, 1
  store i32 %227, ptr %4, align 4
  call void @_ZNSt7__cxx1112basic_stringIcSt11char_traitsIcESaIcEED1Ev(ptr noundef nonnull align 8 dereferenceable(32) %38) #3
  br label %228

228:                                              ; preds = %224, %220
  call void @_ZNSaIcED1Ev(ptr noundef nonnull align 1 dereferenceable(1) %39) #3
  br label %294

229:                                              ; preds = %113
  %230 = landingpad { ptr, i32 }
          cleanup
  %231 = extractvalue { ptr, i32 } %230, 0
  store ptr %231, ptr %3, align 8
  %232 = extractvalue { ptr, i32 } %230, 1
  store i32 %232, ptr %4, align 4
  br label %237

233:                                              ; preds = %114
  %234 = landingpad { ptr, i32 }
          cleanup
  %235 = extractvalue { ptr, i32 } %234, 0
  store ptr %235, ptr %3, align 8
  %236 = extractvalue { ptr, i32 } %234, 1
  store i32 %236, ptr %4, align 4
  call void @_ZNSt7__cxx1112basic_stringIcSt11char_traitsIcESaIcEED1Ev(ptr noundef nonnull align 8 dereferenceable(32) %40) #3
  br label %237

237:                                              ; preds = %233, %229
  call void @_ZNSaIcED1Ev(ptr noundef nonnull align 1 dereferenceable(1) %41) #3
  br label %293

238:                                              ; preds = %116
  %239 = landingpad { ptr, i32 }
          cleanup
  %240 = extractvalue { ptr, i32 } %239, 0
  store ptr %240, ptr %3, align 8
  %241 = extractvalue { ptr, i32 } %239, 1
  store i32 %241, ptr %4, align 4
  br label %246

242:                                              ; preds = %117
  %243 = landingpad { ptr, i32 }
          cleanup
  %244 = extractvalue { ptr, i32 } %243, 0
  store ptr %244, ptr %3, align 8
  %245 = extractvalue { ptr, i32 } %243, 1
  store i32 %245, ptr %4, align 4
  call void @_ZNSt7__cxx1112basic_stringIcSt11char_traitsIcESaIcEED1Ev(ptr noundef nonnull align 8 dereferenceable(32) %42) #3
  br label %246

246:                                              ; preds = %242, %238
  call void @_ZNSaIcED1Ev(ptr noundef nonnull align 1 dereferenceable(1) %43) #3
  br label %293

247:                                              ; preds = %119
  %248 = landingpad { ptr, i32 }
          cleanup
  %249 = extractvalue { ptr, i32 } %248, 0
  store ptr %249, ptr %3, align 8
  %250 = extractvalue { ptr, i32 } %248, 1
  store i32 %250, ptr %4, align 4
  br label %255

251:                                              ; preds = %120
  %252 = landingpad { ptr, i32 }
          cleanup
  %253 = extractvalue { ptr, i32 } %252, 0
  store ptr %253, ptr %3, align 8
  %254 = extractvalue { ptr, i32 } %252, 1
  store i32 %254, ptr %4, align 4
  call void @_ZNSt7__cxx1112basic_stringIcSt11char_traitsIcESaIcEED1Ev(ptr noundef nonnull align 8 dereferenceable(32) %44) #3
  br label %255

255:                                              ; preds = %251, %247
  call void @_ZNSaIcED1Ev(ptr noundef nonnull align 1 dereferenceable(1) %45) #3
  br label %293

256:                                              ; preds = %122
  %257 = landingpad { ptr, i32 }
          cleanup
  %258 = extractvalue { ptr, i32 } %257, 0
  store ptr %258, ptr %3, align 8
  %259 = extractvalue { ptr, i32 } %257, 1
  store i32 %259, ptr %4, align 4
  br label %264

260:                                              ; preds = %123
  %261 = landingpad { ptr, i32 }
          cleanup
  %262 = extractvalue { ptr, i32 } %261, 0
  store ptr %262, ptr %3, align 8
  %263 = extractvalue { ptr, i32 } %261, 1
  store i32 %263, ptr %4, align 4
  call void @_ZNSt7__cxx1112basic_stringIcSt11char_traitsIcESaIcEED1Ev(ptr noundef nonnull align 8 dereferenceable(32) %46) #3
  br label %264

264:                                              ; preds = %260, %256
  call void @_ZNSaIcED1Ev(ptr noundef nonnull align 1 dereferenceable(1) %47) #3
  br label %293

265:                                              ; preds = %125
  %266 = landingpad { ptr, i32 }
          cleanup
  %267 = extractvalue { ptr, i32 } %266, 0
  store ptr %267, ptr %3, align 8
  %268 = extractvalue { ptr, i32 } %266, 1
  store i32 %268, ptr %4, align 4
  br label %273

269:                                              ; preds = %126
  %270 = landingpad { ptr, i32 }
          cleanup
  %271 = extractvalue { ptr, i32 } %270, 0
  store ptr %271, ptr %3, align 8
  %272 = extractvalue { ptr, i32 } %270, 1
  store i32 %272, ptr %4, align 4
  call void @_ZNSt7__cxx1112basic_stringIcSt11char_traitsIcESaIcEED1Ev(ptr noundef nonnull align 8 dereferenceable(32) %48) #3
  br label %273

273:                                              ; preds = %269, %265
  call void @_ZNSaIcED1Ev(ptr noundef nonnull align 1 dereferenceable(1) %49) #3
  br label %293

274:                                              ; preds = %128
  %275 = landingpad { ptr, i32 }
          cleanup
  %276 = extractvalue { ptr, i32 } %275, 0
  store ptr %276, ptr %3, align 8
  %277 = extractvalue { ptr, i32 } %275, 1
  store i32 %277, ptr %4, align 4
  br label %282

278:                                              ; preds = %129
  %279 = landingpad { ptr, i32 }
          cleanup
  %280 = extractvalue { ptr, i32 } %279, 0
  store ptr %280, ptr %3, align 8
  %281 = extractvalue { ptr, i32 } %279, 1
  store i32 %281, ptr %4, align 4
  call void @_ZNSt7__cxx1112basic_stringIcSt11char_traitsIcESaIcEED1Ev(ptr noundef nonnull align 8 dereferenceable(32) %50) #3
  br label %282

282:                                              ; preds = %278, %274
  call void @_ZNSaIcED1Ev(ptr noundef nonnull align 1 dereferenceable(1) %51) #3
  br label %293

283:                                              ; preds = %290, %288, %131
  %284 = landingpad { ptr, i32 }
          cleanup
  %285 = extractvalue { ptr, i32 } %284, 0
  store ptr %285, ptr %3, align 8
  %286 = extractvalue { ptr, i32 } %284, 1
  store i32 %286, ptr %4, align 4
  br label %293

287:                                              ; No predecessors!
  br label %288

288:                                              ; preds = %287, %134
  %289 = invoke noundef nonnull align 8 dereferenceable(8) ptr @_ZStlsISt11char_traitsIcEERSt13basic_ostreamIcT_ES5_PKc(ptr noundef nonnull align 8 dereferenceable(8) @_ZSt4cout, ptr noundef @.str.13)
          to label %290 unwind label %283

290:                                              ; preds = %288
  %291 = invoke noundef nonnull align 8 dereferenceable(8) ptr @_ZNSolsEPFRSoS_E(ptr noundef nonnull align 8 dereferenceable(8) %289, ptr noundef @_ZSt4endlIcSt11char_traitsIcEERSt13basic_ostreamIT_T0_ES6_)
          to label %292 unwind label %283

292:                                              ; preds = %290
  call void @_ZNSt3mapINSt7__cxx1112basic_stringIcSt11char_traitsIcESaIcEEEbSt4lessIS5_ESaISt4pairIKS5_bEEED2Ev(ptr noundef nonnull align 8 dereferenceable(48) %37) #3
  call void @_ZNSt3mapINSt7__cxx1112basic_stringIcSt11char_traitsIcESaIcEEEbSt4lessIS5_ESaISt4pairIKS5_bEEED2Ev(ptr noundef nonnull align 8 dereferenceable(48) %36) #3
  call void @_ZN5graph5GraphINSt7__cxx1112basic_stringIcSt11char_traitsIcESaIcEEEED2Ev(ptr noundef nonnull align 8 dereferenceable(48) %11) #3
  call void @_ZNSt3mapIibSt4lessIiESaISt4pairIKibEEED2Ev(ptr noundef nonnull align 8 dereferenceable(48) %9) #3
  call void @_ZNSt3mapIibSt4lessIiESaISt4pairIKibEEED2Ev(ptr noundef nonnull align 8 dereferenceable(48) %2) #3
  call void @_ZN5graph5GraphIiED2Ev(ptr noundef nonnull align 8 dereferenceable(48) %1) #3
  ret void

293:                                              ; preds = %283, %282, %273, %264, %255, %246, %237
  call void @_ZNSt3mapINSt7__cxx1112basic_stringIcSt11char_traitsIcESaIcEEEbSt4lessIS5_ESaISt4pairIKS5_bEEED2Ev(ptr noundef nonnull align 8 dereferenceable(48) %37) #3
  br label %294

294:                                              ; preds = %293, %228
  call void @_ZNSt3mapINSt7__cxx1112basic_stringIcSt11char_traitsIcESaIcEEEbSt4lessIS5_ESaISt4pairIKS5_bEEED2Ev(ptr noundef nonnull align 8 dereferenceable(48) %36) #3
  br label %295

295:                                              ; preds = %294, %219, %205, %191, %177, %163, %149
  call void @_ZN5graph5GraphINSt7__cxx1112basic_stringIcSt11char_traitsIcESaIcEEEED2Ev(ptr noundef nonnull align 8 dereferenceable(48) %11) #3
  br label %296

296:                                              ; preds = %295, %72
  call void @_ZNSt3mapIibSt4lessIiESaISt4pairIKibEEED2Ev(ptr noundef nonnull align 8 dereferenceable(48) %9) #3
  br label %297

297:                                              ; preds = %296, %68
  call void @_ZNSt3mapIibSt4lessIiESaISt4pairIKibEEED2Ev(ptr noundef nonnull align 8 dereferenceable(48) %2) #3
  call void @_ZN5graph5GraphIiED2Ev(ptr noundef nonnull align 8 dereferenceable(48) %1) #3
  br label %298

298:                                              ; preds = %297
  %299 = load ptr, ptr %3, align 8
  %300 = load i32, ptr %4, align 4
  %301 = insertvalue { ptr, i32 } undef, ptr %299, 0
  %302 = insertvalue { ptr, i32 } %301, i32 %300, 1
  resume { ptr, i32 } %302
}

declare noundef nonnull align 8 dereferenceable(8) ptr @_ZStlsISt11char_traitsIcEERSt13basic_ostreamIcT_ES5_PKc(ptr noundef nonnull align 8 dereferenceable(8), ptr noundef) #1

declare noundef nonnull align 8 dereferenceable(16) ptr @_ZNSirsERm(ptr noundef nonnull align 8 dereferenceable(16), ptr noundef nonnull align 8 dereferenceable(8)) #1

; Function Attrs: noinline nounwind optnone uwtable
define linkonce_odr dso_local void @_ZN5graph5GraphIiEC2Ev(ptr noundef nonnull align 8 dereferenceable(48) %0) unnamed_addr #6 comdat align 2 {
  %2 = alloca ptr, align 8
  store ptr %0, ptr %2, align 8
  %3 = load ptr, ptr %2, align 8
  %4 = getelementptr inbounds %"class.graph::Graph", ptr %3, i32 0, i32 0
  call void @_ZNSt3mapIiNSt7__cxx114listIiSaIiEEESt4lessIiESaISt4pairIKiS3_EEEC2Ev(ptr noundef nonnull align 8 dereferenceable(48) %4) #3
  ret void
}

declare i32 @__gxx_personality_v0(...)

declare noundef nonnull align 8 dereferenceable(8) ptr @_ZNSolsEPFRSoS_E(ptr noundef nonnull align 8 dereferenceable(8), ptr noundef) #1

declare noundef nonnull align 8 dereferenceable(8) ptr @_ZSt4endlIcSt11char_traitsIcEERSt13basic_ostreamIT_T0_ES6_(ptr noundef nonnull align 8 dereferenceable(8)) #1

declare noundef nonnull align 8 dereferenceable(16) ptr @_ZNSirsERi(ptr noundef nonnull align 8 dereferenceable(16), ptr noundef nonnull align 4 dereferenceable(4)) #1

; Function Attrs: mustprogress noinline optnone uwtable
define linkonce_odr dso_local void @_ZN5graph5GraphIiE8add_edgeEiib(ptr noundef nonnull align 8 dereferenceable(48) %0, i32 noundef %1, i32 noundef %2, i1 noundef zeroext %3) #5 comdat align 2 {
  %5 = alloca ptr, align 8
  %6 = alloca i32, align 4
  %7 = alloca i32, align 4
  %8 = alloca i8, align 1
  store ptr %0, ptr %5, align 8
  store i32 %1, ptr %6, align 4
  store i32 %2, ptr %7, align 4
  %9 = zext i1 %3 to i8
  store i8 %9, ptr %8, align 1
  %10 = load ptr, ptr %5, align 8
  %11 = getelementptr inbounds %"class.graph::Graph", ptr %10, i32 0, i32 0
  %12 = call noundef nonnull align 8 dereferenceable(24) ptr @_ZNSt3mapIiNSt7__cxx114listIiSaIiEEESt4lessIiESaISt4pairIKiS3_EEEixERS7_(ptr noundef nonnull align 8 dereferenceable(48) %11, ptr noundef nonnull align 4 dereferenceable(4) %6)
  call void @_ZNSt7__cxx114listIiSaIiEE9push_backERKi(ptr noundef nonnull align 8 dereferenceable(24) %12, ptr noundef nonnull align 4 dereferenceable(4) %7)
  %13 = load i8, ptr %8, align 1
  %14 = trunc i8 %13 to i1
  %15 = zext i1 %14 to i32
  %16 = icmp eq i32 %15, 1
  br i1 %16, label %17, label %20

17:                                               ; preds = %4
  %18 = getelementptr inbounds %"class.graph::Graph", ptr %10, i32 0, i32 0
  %19 = call noundef nonnull align 8 dereferenceable(24) ptr @_ZNSt3mapIiNSt7__cxx114listIiSaIiEEESt4lessIiESaISt4pairIKiS3_EEEixERS7_(ptr noundef nonnull align 8 dereferenceable(48) %18, ptr noundef nonnull align 4 dereferenceable(4) %7)
  call void @_ZNSt7__cxx114listIiSaIiEE9push_backERKi(ptr noundef nonnull align 8 dereferenceable(24) %19, ptr noundef nonnull align 4 dereferenceable(4) %6)
  br label %20

20:                                               ; preds = %17, %4
  ret void
}

; Function Attrs: mustprogress noinline optnone uwtable
define linkonce_odr dso_local void @_ZN5graph5GraphIiE20breadth_first_searchEi(ptr noalias sret(%"class.std::map.0") align 8 %0, ptr noundef nonnull align 8 dereferenceable(48) %1, i32 noundef %2) #5 comdat align 2 personality ptr @__gxx_personality_v0 {
  %4 = alloca ptr, align 8
  %5 = alloca ptr, align 8
  %6 = alloca i32, align 4
  %7 = alloca i1, align 1
  %8 = alloca ptr, align 8
  %9 = alloca %"struct.std::_Rb_tree_iterator.74", align 8
  %10 = alloca %"struct.std::_Rb_tree_iterator.74", align 8
  %11 = alloca ptr, align 8
  %12 = alloca ptr, align 8
  %13 = alloca i32, align 4
  %14 = alloca ptr, align 8
  %15 = alloca %"struct.std::_List_iterator.81", align 8
  %16 = alloca %"struct.std::_List_iterator.81", align 8
  %17 = alloca ptr, align 8
  %18 = alloca %"class.std::queue.83", align 8
  %19 = alloca i32, align 4
  %20 = alloca ptr, align 8
  %21 = alloca %"struct.std::_List_iterator.81", align 8
  %22 = alloca %"struct.std::_List_iterator.81", align 8
  %23 = alloca ptr, align 8
  store ptr %0, ptr %4, align 8
  store ptr %1, ptr %5, align 8
  store i32 %2, ptr %6, align 4
  %24 = load ptr, ptr %5, align 8
  store i1 false, ptr %7, align 1
  call void @_ZNSt3mapIibSt4lessIiESaISt4pairIKibEEEC2Ev(ptr noundef nonnull align 8 dereferenceable(48) %0) #3
  %25 = getelementptr inbounds %"class.graph::Graph", ptr %24, i32 0, i32 0
  store ptr %25, ptr %8, align 8
  %26 = load ptr, ptr %8, align 8
  %27 = call ptr @_ZNSt3mapIiNSt7__cxx114listIiSaIiEEESt4lessIiESaISt4pairIKiS3_EEE5beginEv(ptr noundef nonnull align 8 dereferenceable(48) %26) #3
  %28 = getelementptr inbounds %"struct.std::_Rb_tree_iterator.74", ptr %9, i32 0, i32 0
  store ptr %27, ptr %28, align 8
  %29 = load ptr, ptr %8, align 8
  %30 = call ptr @_ZNSt3mapIiNSt7__cxx114listIiSaIiEEESt4lessIiESaISt4pairIKiS3_EEE3endEv(ptr noundef nonnull align 8 dereferenceable(48) %29) #3
  %31 = getelementptr inbounds %"struct.std::_Rb_tree_iterator.74", ptr %10, i32 0, i32 0
  store ptr %30, ptr %31, align 8
  br label %32

32:                                               ; preds = %65, %3
  %33 = call noundef zeroext i1 @_ZStneRKSt17_Rb_tree_iteratorISt4pairIKiNSt7__cxx114listIiSaIiEEEEES9_(ptr noundef nonnull align 8 dereferenceable(8) %9, ptr noundef nonnull align 8 dereferenceable(8) %10) #3
  br i1 %33, label %34, label %67

34:                                               ; preds = %32
  %35 = call noundef nonnull align 8 dereferenceable(32) ptr @_ZNKSt17_Rb_tree_iteratorISt4pairIKiNSt7__cxx114listIiSaIiEEEEEdeEv(ptr noundef nonnull align 8 dereferenceable(8) %9) #3
  store ptr %35, ptr %11, align 8
  %36 = load ptr, ptr %11, align 8
  %37 = getelementptr inbounds %"struct.std::pair.64", ptr %36, i32 0, i32 0
  %38 = invoke noundef nonnull align 1 dereferenceable(1) ptr @_ZNSt3mapIibSt4lessIiESaISt4pairIKibEEEixERS3_(ptr noundef nonnull align 8 dereferenceable(48) %0, ptr noundef nonnull align 4 dereferenceable(4) %37)
          to label %39 unwind label %60

39:                                               ; preds = %34
  store i8 0, ptr %38, align 1
  %40 = getelementptr inbounds %"class.graph::Graph", ptr %24, i32 0, i32 0
  %41 = load ptr, ptr %11, align 8
  %42 = getelementptr inbounds %"struct.std::pair.64", ptr %41, i32 0, i32 0
  %43 = invoke noundef nonnull align 8 dereferenceable(24) ptr @_ZNSt3mapIiNSt7__cxx114listIiSaIiEEESt4lessIiESaISt4pairIKiS3_EEEixERS7_(ptr noundef nonnull align 8 dereferenceable(48) %40, ptr noundef nonnull align 4 dereferenceable(4) %42)
          to label %44 unwind label %60

44:                                               ; preds = %39
  store ptr %43, ptr %14, align 8
  %45 = load ptr, ptr %14, align 8
  %46 = call ptr @_ZNSt7__cxx114listIiSaIiEE5beginEv(ptr noundef nonnull align 8 dereferenceable(24) %45) #3
  %47 = getelementptr inbounds %"struct.std::_List_iterator.81", ptr %15, i32 0, i32 0
  store ptr %46, ptr %47, align 8
  %48 = load ptr, ptr %14, align 8
  %49 = call ptr @_ZNSt7__cxx114listIiSaIiEE3endEv(ptr noundef nonnull align 8 dereferenceable(24) %48) #3
  %50 = getelementptr inbounds %"struct.std::_List_iterator.81", ptr %16, i32 0, i32 0
  store ptr %49, ptr %50, align 8
  br label %51

51:                                               ; preds = %58, %44
  %52 = call noundef zeroext i1 @_ZStneRKSt14_List_iteratorIiES2_(ptr noundef nonnull align 8 dereferenceable(8) %15, ptr noundef nonnull align 8 dereferenceable(8) %16) #3
  br i1 %52, label %53, label %64

53:                                               ; preds = %51
  %54 = call noundef nonnull align 4 dereferenceable(4) ptr @_ZNKSt14_List_iteratorIiEdeEv(ptr noundef nonnull align 8 dereferenceable(8) %15) #3
  store ptr %54, ptr %17, align 8
  %55 = load ptr, ptr %17, align 8
  %56 = invoke noundef nonnull align 1 dereferenceable(1) ptr @_ZNSt3mapIibSt4lessIiESaISt4pairIKibEEEixERS3_(ptr noundef nonnull align 8 dereferenceable(48) %0, ptr noundef nonnull align 4 dereferenceable(4) %55)
          to label %57 unwind label %60

57:                                               ; preds = %53
  store i8 0, ptr %56, align 1
  br label %58

58:                                               ; preds = %57
  %59 = call noundef nonnull align 8 dereferenceable(8) ptr @_ZNSt14_List_iteratorIiEppEv(ptr noundef nonnull align 8 dereferenceable(8) %15) #3
  br label %51

60:                                               ; preds = %67, %53, %39, %34
  %61 = landingpad { ptr, i32 }
          cleanup
  %62 = extractvalue { ptr, i32 } %61, 0
  store ptr %62, ptr %12, align 8
  %63 = extractvalue { ptr, i32 } %61, 1
  store i32 %63, ptr %13, align 4
  br label %117

64:                                               ; preds = %51
  br label %65

65:                                               ; preds = %64
  %66 = call noundef nonnull align 8 dereferenceable(8) ptr @_ZNSt17_Rb_tree_iteratorISt4pairIKiNSt7__cxx114listIiSaIiEEEEEppEv(ptr noundef nonnull align 8 dereferenceable(8) %9) #3
  br label %32

67:                                               ; preds = %32
  invoke void @_ZNSt5queueIiSt5dequeIiSaIiEEEC2IS2_vEEv(ptr noundef nonnull align 8 dereferenceable(80) %18)
          to label %68 unwind label %60

68:                                               ; preds = %67
  invoke void @_ZNSt5queueIiSt5dequeIiSaIiEEE4pushERKi(ptr noundef nonnull align 8 dereferenceable(80) %18, ptr noundef nonnull align 4 dereferenceable(4) %6)
          to label %69 unwind label %105

69:                                               ; preds = %68
  %70 = invoke noundef nonnull align 1 dereferenceable(1) ptr @_ZNSt3mapIibSt4lessIiESaISt4pairIKibEEEixERS3_(ptr noundef nonnull align 8 dereferenceable(48) %0, ptr noundef nonnull align 4 dereferenceable(4) %6)
          to label %71 unwind label %105

71:                                               ; preds = %69
  store i8 1, ptr %70, align 1
  br label %72

72:                                               ; preds = %112, %71
  %73 = invoke noundef zeroext i1 @_ZNKSt5queueIiSt5dequeIiSaIiEEE5emptyEv(ptr noundef nonnull align 8 dereferenceable(80) %18)
          to label %74 unwind label %105

74:                                               ; preds = %72
  %75 = xor i1 %73, true
  br i1 %75, label %76, label %113

76:                                               ; preds = %74
  %77 = invoke noundef nonnull align 4 dereferenceable(4) ptr @_ZNSt5queueIiSt5dequeIiSaIiEEE5frontEv(ptr noundef nonnull align 8 dereferenceable(80) %18)
          to label %78 unwind label %105

78:                                               ; preds = %76
  %79 = load i32, ptr %77, align 4
  store i32 %79, ptr %19, align 4
  invoke void @_ZNSt5queueIiSt5dequeIiSaIiEEE3popEv(ptr noundef nonnull align 8 dereferenceable(80) %18)
          to label %80 unwind label %105

80:                                               ; preds = %78
  %81 = getelementptr inbounds %"class.graph::Graph", ptr %24, i32 0, i32 0
  %82 = invoke noundef nonnull align 8 dereferenceable(24) ptr @_ZNSt3mapIiNSt7__cxx114listIiSaIiEEESt4lessIiESaISt4pairIKiS3_EEEixERS7_(ptr noundef nonnull align 8 dereferenceable(48) %81, ptr noundef nonnull align 4 dereferenceable(4) %19)
          to label %83 unwind label %105

83:                                               ; preds = %80
  store ptr %82, ptr %20, align 8
  %84 = load ptr, ptr %20, align 8
  %85 = call ptr @_ZNSt7__cxx114listIiSaIiEE5beginEv(ptr noundef nonnull align 8 dereferenceable(24) %84) #3
  %86 = getelementptr inbounds %"struct.std::_List_iterator.81", ptr %21, i32 0, i32 0
  store ptr %85, ptr %86, align 8
  %87 = load ptr, ptr %20, align 8
  %88 = call ptr @_ZNSt7__cxx114listIiSaIiEE3endEv(ptr noundef nonnull align 8 dereferenceable(24) %87) #3
  %89 = getelementptr inbounds %"struct.std::_List_iterator.81", ptr %22, i32 0, i32 0
  store ptr %88, ptr %89, align 8
  br label %90

90:                                               ; preds = %110, %83
  %91 = call noundef zeroext i1 @_ZStneRKSt14_List_iteratorIiES2_(ptr noundef nonnull align 8 dereferenceable(8) %21, ptr noundef nonnull align 8 dereferenceable(8) %22) #3
  br i1 %91, label %92, label %112

92:                                               ; preds = %90
  %93 = call noundef nonnull align 4 dereferenceable(4) ptr @_ZNKSt14_List_iteratorIiEdeEv(ptr noundef nonnull align 8 dereferenceable(8) %21) #3
  store ptr %93, ptr %23, align 8
  %94 = load ptr, ptr %23, align 8
  %95 = invoke noundef nonnull align 1 dereferenceable(1) ptr @_ZNSt3mapIibSt4lessIiESaISt4pairIKibEEEixERS3_(ptr noundef nonnull align 8 dereferenceable(48) %0, ptr noundef nonnull align 4 dereferenceable(4) %94)
          to label %96 unwind label %105

96:                                               ; preds = %92
  %97 = load i8, ptr %95, align 1
  %98 = trunc i8 %97 to i1
  br i1 %98, label %109, label %99

99:                                               ; preds = %96
  %100 = load ptr, ptr %23, align 8
  invoke void @_ZNSt5queueIiSt5dequeIiSaIiEEE4pushERKi(ptr noundef nonnull align 8 dereferenceable(80) %18, ptr noundef nonnull align 4 dereferenceable(4) %100)
          to label %101 unwind label %105

101:                                              ; preds = %99
  %102 = load ptr, ptr %23, align 8
  %103 = invoke noundef nonnull align 1 dereferenceable(1) ptr @_ZNSt3mapIibSt4lessIiESaISt4pairIKibEEEixERS3_(ptr noundef nonnull align 8 dereferenceable(48) %0, ptr noundef nonnull align 4 dereferenceable(4) %102)
          to label %104 unwind label %105

104:                                              ; preds = %101
  store i8 1, ptr %103, align 1
  br label %109

105:                                              ; preds = %101, %99, %92, %80, %78, %76, %72, %69, %68
  %106 = landingpad { ptr, i32 }
          cleanup
  %107 = extractvalue { ptr, i32 } %106, 0
  store ptr %107, ptr %12, align 8
  %108 = extractvalue { ptr, i32 } %106, 1
  store i32 %108, ptr %13, align 4
  call void @_ZNSt5queueIiSt5dequeIiSaIiEEED2Ev(ptr noundef nonnull align 8 dereferenceable(80) %18) #3
  br label %117

109:                                              ; preds = %104, %96
  br label %110

110:                                              ; preds = %109
  %111 = call noundef nonnull align 8 dereferenceable(8) ptr @_ZNSt14_List_iteratorIiEppEv(ptr noundef nonnull align 8 dereferenceable(8) %21) #3
  br label %90

112:                                              ; preds = %90
  br label %72, !llvm.loop !8

113:                                              ; preds = %74
  store i1 true, ptr %7, align 1
  call void @_ZNSt5queueIiSt5dequeIiSaIiEEED2Ev(ptr noundef nonnull align 8 dereferenceable(80) %18) #3
  %114 = load i1, ptr %7, align 1
  br i1 %114, label %116, label %115

115:                                              ; preds = %113
  call void @_ZNSt3mapIibSt4lessIiESaISt4pairIKibEEED2Ev(ptr noundef nonnull align 8 dereferenceable(48) %0) #3
  br label %116

116:                                              ; preds = %115, %113
  ret void

117:                                              ; preds = %105, %60
  call void @_ZNSt3mapIibSt4lessIiESaISt4pairIKibEEED2Ev(ptr noundef nonnull align 8 dereferenceable(48) %0) #3
  br label %118

118:                                              ; preds = %117
  %119 = load ptr, ptr %12, align 8
  %120 = load i32, ptr %13, align 4
  %121 = insertvalue { ptr, i32 } undef, ptr %119, 0
  %122 = insertvalue { ptr, i32 } %121, i32 %120, 1
  resume { ptr, i32 } %122
}

; Function Attrs: noinline nounwind optnone uwtable
define linkonce_odr dso_local void @_ZNSt3mapIibSt4lessIiESaISt4pairIKibEEED2Ev(ptr noundef nonnull align 8 dereferenceable(48) %0) unnamed_addr #6 comdat align 2 {
  %2 = alloca ptr, align 8
  store ptr %0, ptr %2, align 8
  %3 = load ptr, ptr %2, align 8
  %4 = getelementptr inbounds %"class.std::map.0", ptr %3, i32 0, i32 0
  call void @_ZNSt8_Rb_treeIiSt4pairIKibESt10_Select1stIS2_ESt4lessIiESaIS2_EED2Ev(ptr noundef nonnull align 8 dereferenceable(48) %4) #3
  ret void
}

; Function Attrs: noinline nounwind optnone uwtable
define linkonce_odr dso_local void @_ZN5graph5GraphIiED2Ev(ptr noundef nonnull align 8 dereferenceable(48) %0) unnamed_addr #6 comdat align 2 {
  %2 = alloca ptr, align 8
  store ptr %0, ptr %2, align 8
  %3 = load ptr, ptr %2, align 8
  %4 = getelementptr inbounds %"class.graph::Graph", ptr %3, i32 0, i32 0
  call void @_ZNSt3mapIiNSt7__cxx114listIiSaIiEEESt4lessIiESaISt4pairIKiS3_EEED2Ev(ptr noundef nonnull align 8 dereferenceable(48) %4) #3
  ret void
}

; Function Attrs: noinline nounwind optnone uwtable
define linkonce_odr dso_local void @_ZNSt3mapIibSt4lessIiESaISt4pairIKibEEEC2Ev(ptr noundef nonnull align 8 dereferenceable(48) %0) unnamed_addr #6 comdat align 2 {
  %2 = alloca ptr, align 8
  store ptr %0, ptr %2, align 8
  %3 = load ptr, ptr %2, align 8
  %4 = getelementptr inbounds %"class.std::map.0", ptr %3, i32 0, i32 0
  call void @_ZNSt8_Rb_treeIiSt4pairIKibESt10_Select1stIS2_ESt4lessIiESaIS2_EEC2Ev(ptr noundef nonnull align 8 dereferenceable(48) %4) #3
  ret void
}

; Function Attrs: mustprogress noinline optnone uwtable
define linkonce_odr dso_local noundef nonnull align 1 dereferenceable(1) ptr @_ZNSt3mapIibSt4lessIiESaISt4pairIKibEEEixEOi(ptr noundef nonnull align 8 dereferenceable(48) %0, ptr noundef nonnull align 4 dereferenceable(4) %1) #5 comdat align 2 {
  %3 = alloca ptr, align 8
  %4 = alloca ptr, align 8
  %5 = alloca %"struct.std::_Rb_tree_iterator", align 8
  %6 = alloca %"struct.std::_Rb_tree_iterator", align 8
  %7 = alloca %"struct.std::less", align 1
  %8 = alloca %"struct.std::less", align 1
  %9 = alloca %"struct.std::_Rb_tree_iterator", align 8
  %10 = alloca %"struct.std::_Rb_tree_const_iterator", align 8
  %11 = alloca %"class.std::tuple", align 8
  %12 = alloca %"class.std::tuple.22", align 1
  store ptr %0, ptr %3, align 8
  store ptr %1, ptr %4, align 8
  %13 = load ptr, ptr %3, align 8
  %14 = load ptr, ptr %4, align 8
  %15 = call ptr @_ZNSt3mapIibSt4lessIiESaISt4pairIKibEEE11lower_boundERS3_(ptr noundef nonnull align 8 dereferenceable(48) %13, ptr noundef nonnull align 4 dereferenceable(4) %14)
  %16 = getelementptr inbounds %"struct.std::_Rb_tree_iterator", ptr %5, i32 0, i32 0
  store ptr %15, ptr %16, align 8
  %17 = call ptr @_ZNSt3mapIibSt4lessIiESaISt4pairIKibEEE3endEv(ptr noundef nonnull align 8 dereferenceable(48) %13) #3
  %18 = getelementptr inbounds %"struct.std::_Rb_tree_iterator", ptr %6, i32 0, i32 0
  store ptr %17, ptr %18, align 8
  %19 = call noundef zeroext i1 @_ZSteqRKSt17_Rb_tree_iteratorISt4pairIKibEES5_(ptr noundef nonnull align 8 dereferenceable(8) %5, ptr noundef nonnull align 8 dereferenceable(8) %6) #3
  br i1 %19, label %25, label %20

20:                                               ; preds = %2
  call void @_ZNKSt3mapIibSt4lessIiESaISt4pairIKibEEE8key_compEv(ptr noundef nonnull align 8 dereferenceable(48) %13)
  %21 = load ptr, ptr %4, align 8
  %22 = call noundef nonnull align 4 dereferenceable(5) ptr @_ZNKSt17_Rb_tree_iteratorISt4pairIKibEEdeEv(ptr noundef nonnull align 8 dereferenceable(8) %5) #3
  %23 = getelementptr inbounds %"struct.std::pair", ptr %22, i32 0, i32 0
  %24 = call noundef zeroext i1 @_ZNKSt4lessIiEclERKiS2_(ptr noundef nonnull align 1 dereferenceable(1) %7, ptr noundef nonnull align 4 dereferenceable(4) %21, ptr noundef nonnull align 4 dereferenceable(4) %23)
  br label %25

25:                                               ; preds = %20, %2
  %26 = phi i1 [ true, %2 ], [ %24, %20 ]
  br i1 %26, label %27, label %34

27:                                               ; preds = %25
  %28 = getelementptr inbounds %"class.std::map.0", ptr %13, i32 0, i32 0
  call void @_ZNSt23_Rb_tree_const_iteratorISt4pairIKibEEC2ERKSt17_Rb_tree_iteratorIS2_E(ptr noundef nonnull align 8 dereferenceable(8) %10, ptr noundef nonnull align 8 dereferenceable(8) %5) #3
  %29 = load ptr, ptr %4, align 8
  call void @_ZSt16forward_as_tupleIJiEESt5tupleIJDpOT_EES3_(ptr sret(%"class.std::tuple") align 8 %11, ptr noundef nonnull align 4 dereferenceable(4) %29) #3
  %30 = getelementptr inbounds %"struct.std::_Rb_tree_const_iterator", ptr %10, i32 0, i32 0
  %31 = load ptr, ptr %30, align 8
  %32 = call ptr @_ZNSt8_Rb_treeIiSt4pairIKibESt10_Select1stIS2_ESt4lessIiESaIS2_EE22_M_emplace_hint_uniqueIJRKSt21piecewise_construct_tSt5tupleIJOiEESD_IJEEEEESt17_Rb_tree_iteratorIS2_ESt23_Rb_tree_const_iteratorIS2_EDpOT_(ptr noundef nonnull align 8 dereferenceable(48) %28, ptr %31, ptr noundef nonnull align 1 dereferenceable(1) @_ZStL19piecewise_construct, ptr noundef nonnull align 8 dereferenceable(8) %11, ptr noundef nonnull align 1 dereferenceable(1) %12)
  %33 = getelementptr inbounds %"struct.std::_Rb_tree_iterator", ptr %9, i32 0, i32 0
  store ptr %32, ptr %33, align 8
  call void @llvm.memcpy.p0.p0.i64(ptr align 8 %5, ptr align 8 %9, i64 8, i1 false)
  br label %34

34:                                               ; preds = %27, %25
  %35 = call noundef nonnull align 4 dereferenceable(5) ptr @_ZNKSt17_Rb_tree_iteratorISt4pairIKibEEdeEv(ptr noundef nonnull align 8 dereferenceable(8) %5) #3
  %36 = getelementptr inbounds %"struct.std::pair", ptr %35, i32 0, i32 1
  ret ptr %36
}

; Function Attrs: mustprogress noinline optnone uwtable
define linkonce_odr dso_local noundef zeroext i1 @_ZSteqIibSt4lessIiESaISt4pairIKibEEEbRKSt3mapIT_T0_T1_T2_ESD_(ptr noundef nonnull align 8 dereferenceable(48) %0, ptr noundef nonnull align 8 dereferenceable(48) %1) #5 comdat {
  %3 = alloca ptr, align 8
  %4 = alloca ptr, align 8
  store ptr %0, ptr %3, align 8
  store ptr %1, ptr %4, align 8
  %5 = load ptr, ptr %3, align 8
  %6 = getelementptr inbounds %"class.std::map.0", ptr %5, i32 0, i32 0
  %7 = load ptr, ptr %4, align 8
  %8 = getelementptr inbounds %"class.std::map.0", ptr %7, i32 0, i32 0
  %9 = call noundef zeroext i1 @_ZSteqRKSt8_Rb_treeIiSt4pairIKibESt10_Select1stIS2_ESt4lessIiESaIS2_EESA_(ptr noundef nonnull align 8 dereferenceable(48) %6, ptr noundef nonnull align 8 dereferenceable(48) %8)
  ret i1 %9
}

; Function Attrs: noreturn nounwind
declare void @__assert_fail(ptr noundef, ptr noundef, i32 noundef, ptr noundef) #7

; Function Attrs: noinline nounwind optnone uwtable
define linkonce_odr dso_local noundef nonnull align 8 dereferenceable(48) ptr @_ZNSt3mapIibSt4lessIiESaISt4pairIKibEEEaSEOS6_(ptr noundef nonnull align 8 dereferenceable(48) %0, ptr noundef nonnull align 8 dereferenceable(48) %1) #6 comdat align 2 {
  %3 = alloca ptr, align 8
  %4 = alloca ptr, align 8
  store ptr %0, ptr %3, align 8
  store ptr %1, ptr %4, align 8
  %5 = load ptr, ptr %3, align 8
  %6 = getelementptr inbounds %"class.std::map.0", ptr %5, i32 0, i32 0
  %7 = load ptr, ptr %4, align 8
  %8 = getelementptr inbounds %"class.std::map.0", ptr %7, i32 0, i32 0
  %9 = call noundef nonnull align 8 dereferenceable(48) ptr @_ZNSt8_Rb_treeIiSt4pairIKibESt10_Select1stIS2_ESt4lessIiESaIS2_EEaSEOS8_(ptr noundef nonnull align 8 dereferenceable(48) %6, ptr noundef nonnull align 8 dereferenceable(48) %8) #3
  ret ptr %5
}

; Function Attrs: noinline nounwind optnone uwtable
define linkonce_odr dso_local void @_ZN5graph5GraphINSt7__cxx1112basic_stringIcSt11char_traitsIcESaIcEEEEC2Ev(ptr noundef nonnull align 8 dereferenceable(48) %0) unnamed_addr #6 comdat align 2 {
  %2 = alloca ptr, align 8
  store ptr %0, ptr %2, align 8
  %3 = load ptr, ptr %2, align 8
  %4 = getelementptr inbounds %"class.graph::Graph.5", ptr %3, i32 0, i32 0
  call void @_ZNSt3mapINSt7__cxx1112basic_stringIcSt11char_traitsIcESaIcEEENS0_4listIS5_SaIS5_EEESt4lessIS5_ESaISt4pairIKS5_S8_EEEC2Ev(ptr noundef nonnull align 8 dereferenceable(48) %4) #3
  ret void
}

; Function Attrs: mustprogress noinline optnone uwtable
define linkonce_odr dso_local void @_ZN5graph5GraphINSt7__cxx1112basic_stringIcSt11char_traitsIcESaIcEEEE8add_edgeES6_S6_b(ptr noundef nonnull align 8 dereferenceable(48) %0, ptr noundef %1, ptr noundef %2, i1 noundef zeroext %3) #5 comdat align 2 {
  %5 = alloca ptr, align 8
  %6 = alloca i8, align 1
  store ptr %0, ptr %5, align 8
  %7 = zext i1 %3 to i8
  store i8 %7, ptr %6, align 1
  %8 = load ptr, ptr %5, align 8
  %9 = getelementptr inbounds %"class.graph::Graph.5", ptr %8, i32 0, i32 0
  %10 = call noundef nonnull align 8 dereferenceable(24) ptr @_ZNSt3mapINSt7__cxx1112basic_stringIcSt11char_traitsIcESaIcEEENS0_4listIS5_SaIS5_EEESt4lessIS5_ESaISt4pairIKS5_S8_EEEixERSC_(ptr noundef nonnull align 8 dereferenceable(48) %9, ptr noundef nonnull align 8 dereferenceable(32) %1)
  call void @_ZNSt7__cxx114listINS_12basic_stringIcSt11char_traitsIcESaIcEEESaIS5_EE9push_backERKS5_(ptr noundef nonnull align 8 dereferenceable(24) %10, ptr noundef nonnull align 8 dereferenceable(32) %2)
  %11 = load i8, ptr %6, align 1
  %12 = trunc i8 %11 to i1
  %13 = zext i1 %12 to i32
  %14 = icmp eq i32 %13, 1
  br i1 %14, label %15, label %18

15:                                               ; preds = %4
  %16 = getelementptr inbounds %"class.graph::Graph.5", ptr %8, i32 0, i32 0
  %17 = call noundef nonnull align 8 dereferenceable(24) ptr @_ZNSt3mapINSt7__cxx1112basic_stringIcSt11char_traitsIcESaIcEEENS0_4listIS5_SaIS5_EEESt4lessIS5_ESaISt4pairIKS5_S8_EEEixERSC_(ptr noundef nonnull align 8 dereferenceable(48) %16, ptr noundef nonnull align 8 dereferenceable(32) %2)
  call void @_ZNSt7__cxx114listINS_12basic_stringIcSt11char_traitsIcESaIcEEESaIS5_EE9push_backERKS5_(ptr noundef nonnull align 8 dereferenceable(24) %17, ptr noundef nonnull align 8 dereferenceable(32) %1)
  br label %18

18:                                               ; preds = %15, %4
  ret void
}

; Function Attrs: nounwind
declare void @_ZNSaIcEC1Ev(ptr noundef nonnull align 1 dereferenceable(1)) unnamed_addr #2

declare void @_ZNSt7__cxx1112basic_stringIcSt11char_traitsIcESaIcEEC1EPKcRKS3_(ptr noundef nonnull align 8 dereferenceable(32), ptr noundef, ptr noundef nonnull align 1 dereferenceable(1)) unnamed_addr #1

; Function Attrs: nounwind
declare void @_ZNSt7__cxx1112basic_stringIcSt11char_traitsIcESaIcEED1Ev(ptr noundef nonnull align 8 dereferenceable(32)) unnamed_addr #2

; Function Attrs: nounwind
declare void @_ZNSaIcED1Ev(ptr noundef nonnull align 1 dereferenceable(1)) unnamed_addr #2

; Function Attrs: noinline nounwind optnone uwtable
define linkonce_odr dso_local void @_ZNSt3mapINSt7__cxx1112basic_stringIcSt11char_traitsIcESaIcEEEbSt4lessIS5_ESaISt4pairIKS5_bEEEC2Ev(ptr noundef nonnull align 8 dereferenceable(48) %0) unnamed_addr #6 comdat align 2 {
  %2 = alloca ptr, align 8
  store ptr %0, ptr %2, align 8
  %3 = load ptr, ptr %2, align 8
  %4 = getelementptr inbounds %"class.std::map.17", ptr %3, i32 0, i32 0
  call void @_ZNSt8_Rb_treeINSt7__cxx1112basic_stringIcSt11char_traitsIcESaIcEEESt4pairIKS5_bESt10_Select1stIS8_ESt4lessIS5_ESaIS8_EEC2Ev(ptr noundef nonnull align 8 dereferenceable(48) %4) #3
  ret void
}

; Function Attrs: mustprogress noinline optnone uwtable
define linkonce_odr dso_local void @_ZN5graph5GraphINSt7__cxx1112basic_stringIcSt11char_traitsIcESaIcEEEE20breadth_first_searchES6_(ptr noalias sret(%"class.std::map.17") align 8 %0, ptr noundef nonnull align 8 dereferenceable(48) %1, ptr noundef %2) #5 comdat align 2 personality ptr @__gxx_personality_v0 {
  %4 = alloca ptr, align 8
  %5 = alloca ptr, align 8
  %6 = alloca i1, align 1
  %7 = alloca ptr, align 8
  %8 = alloca %"struct.std::_Rb_tree_iterator.30", align 8
  %9 = alloca %"struct.std::_Rb_tree_iterator.30", align 8
  %10 = alloca ptr, align 8
  %11 = alloca ptr, align 8
  %12 = alloca i32, align 4
  %13 = alloca ptr, align 8
  %14 = alloca %"struct.std::_List_iterator", align 8
  %15 = alloca %"struct.std::_List_iterator", align 8
  %16 = alloca ptr, align 8
  %17 = alloca %"class.std::queue", align 8
  %18 = alloca %"class.std::__cxx11::basic_string", align 8
  %19 = alloca ptr, align 8
  %20 = alloca %"struct.std::_List_iterator", align 8
  %21 = alloca %"struct.std::_List_iterator", align 8
  %22 = alloca ptr, align 8
  store ptr %0, ptr %4, align 8
  store ptr %1, ptr %5, align 8
  %23 = load ptr, ptr %5, align 8
  store i1 false, ptr %6, align 1
  call void @_ZNSt3mapINSt7__cxx1112basic_stringIcSt11char_traitsIcESaIcEEEbSt4lessIS5_ESaISt4pairIKS5_bEEEC2Ev(ptr noundef nonnull align 8 dereferenceable(48) %0) #3
  %24 = getelementptr inbounds %"class.graph::Graph.5", ptr %23, i32 0, i32 0
  store ptr %24, ptr %7, align 8
  %25 = load ptr, ptr %7, align 8
  %26 = call ptr @_ZNSt3mapINSt7__cxx1112basic_stringIcSt11char_traitsIcESaIcEEENS0_4listIS5_SaIS5_EEESt4lessIS5_ESaISt4pairIKS5_S8_EEE5beginEv(ptr noundef nonnull align 8 dereferenceable(48) %25) #3
  %27 = getelementptr inbounds %"struct.std::_Rb_tree_iterator.30", ptr %8, i32 0, i32 0
  store ptr %26, ptr %27, align 8
  %28 = load ptr, ptr %7, align 8
  %29 = call ptr @_ZNSt3mapINSt7__cxx1112basic_stringIcSt11char_traitsIcESaIcEEENS0_4listIS5_SaIS5_EEESt4lessIS5_ESaISt4pairIKS5_S8_EEE3endEv(ptr noundef nonnull align 8 dereferenceable(48) %28) #3
  %30 = getelementptr inbounds %"struct.std::_Rb_tree_iterator.30", ptr %9, i32 0, i32 0
  store ptr %29, ptr %30, align 8
  br label %31

31:                                               ; preds = %64, %3
  %32 = call noundef zeroext i1 @_ZStneRKSt17_Rb_tree_iteratorISt4pairIKNSt7__cxx1112basic_stringIcSt11char_traitsIcESaIcEEENS1_4listIS6_SaIS6_EEEEESE_(ptr noundef nonnull align 8 dereferenceable(8) %8, ptr noundef nonnull align 8 dereferenceable(8) %9) #3
  br i1 %32, label %33, label %66

33:                                               ; preds = %31
  %34 = call noundef nonnull align 8 dereferenceable(56) ptr @_ZNKSt17_Rb_tree_iteratorISt4pairIKNSt7__cxx1112basic_stringIcSt11char_traitsIcESaIcEEENS1_4listIS6_SaIS6_EEEEEdeEv(ptr noundef nonnull align 8 dereferenceable(8) %8) #3
  store ptr %34, ptr %10, align 8
  %35 = load ptr, ptr %10, align 8
  %36 = getelementptr inbounds %"struct.std::pair.31", ptr %35, i32 0, i32 0
  %37 = invoke noundef nonnull align 1 dereferenceable(1) ptr @_ZNSt3mapINSt7__cxx1112basic_stringIcSt11char_traitsIcESaIcEEEbSt4lessIS5_ESaISt4pairIKS5_bEEEixERS9_(ptr noundef nonnull align 8 dereferenceable(48) %0, ptr noundef nonnull align 8 dereferenceable(32) %36)
          to label %38 unwind label %59

38:                                               ; preds = %33
  store i8 0, ptr %37, align 1
  %39 = getelementptr inbounds %"class.graph::Graph.5", ptr %23, i32 0, i32 0
  %40 = load ptr, ptr %10, align 8
  %41 = getelementptr inbounds %"struct.std::pair.31", ptr %40, i32 0, i32 0
  %42 = invoke noundef nonnull align 8 dereferenceable(24) ptr @_ZNSt3mapINSt7__cxx1112basic_stringIcSt11char_traitsIcESaIcEEENS0_4listIS5_SaIS5_EEESt4lessIS5_ESaISt4pairIKS5_S8_EEEixERSC_(ptr noundef nonnull align 8 dereferenceable(48) %39, ptr noundef nonnull align 8 dereferenceable(32) %41)
          to label %43 unwind label %59

43:                                               ; preds = %38
  store ptr %42, ptr %13, align 8
  %44 = load ptr, ptr %13, align 8
  %45 = call ptr @_ZNSt7__cxx114listINS_12basic_stringIcSt11char_traitsIcESaIcEEESaIS5_EE5beginEv(ptr noundef nonnull align 8 dereferenceable(24) %44) #3
  %46 = getelementptr inbounds %"struct.std::_List_iterator", ptr %14, i32 0, i32 0
  store ptr %45, ptr %46, align 8
  %47 = load ptr, ptr %13, align 8
  %48 = call ptr @_ZNSt7__cxx114listINS_12basic_stringIcSt11char_traitsIcESaIcEEESaIS5_EE3endEv(ptr noundef nonnull align 8 dereferenceable(24) %47) #3
  %49 = getelementptr inbounds %"struct.std::_List_iterator", ptr %15, i32 0, i32 0
  store ptr %48, ptr %49, align 8
  br label %50

50:                                               ; preds = %57, %43
  %51 = call noundef zeroext i1 @_ZStneRKSt14_List_iteratorINSt7__cxx1112basic_stringIcSt11char_traitsIcESaIcEEEES8_(ptr noundef nonnull align 8 dereferenceable(8) %14, ptr noundef nonnull align 8 dereferenceable(8) %15) #3
  br i1 %51, label %52, label %63

52:                                               ; preds = %50
  %53 = call noundef nonnull align 8 dereferenceable(32) ptr @_ZNKSt14_List_iteratorINSt7__cxx1112basic_stringIcSt11char_traitsIcESaIcEEEEdeEv(ptr noundef nonnull align 8 dereferenceable(8) %14) #3
  store ptr %53, ptr %16, align 8
  %54 = load ptr, ptr %16, align 8
  %55 = invoke noundef nonnull align 1 dereferenceable(1) ptr @_ZNSt3mapINSt7__cxx1112basic_stringIcSt11char_traitsIcESaIcEEEbSt4lessIS5_ESaISt4pairIKS5_bEEEixERS9_(ptr noundef nonnull align 8 dereferenceable(48) %0, ptr noundef nonnull align 8 dereferenceable(32) %54)
          to label %56 unwind label %59

56:                                               ; preds = %52
  store i8 0, ptr %55, align 1
  br label %57

57:                                               ; preds = %56
  %58 = call noundef nonnull align 8 dereferenceable(8) ptr @_ZNSt14_List_iteratorINSt7__cxx1112basic_stringIcSt11char_traitsIcESaIcEEEEppEv(ptr noundef nonnull align 8 dereferenceable(8) %14) #3
  br label %50

59:                                               ; preds = %66, %52, %38, %33
  %60 = landingpad { ptr, i32 }
          cleanup
  %61 = extractvalue { ptr, i32 } %60, 0
  store ptr %61, ptr %11, align 8
  %62 = extractvalue { ptr, i32 } %60, 1
  store i32 %62, ptr %12, align 4
  br label %121

63:                                               ; preds = %50
  br label %64

64:                                               ; preds = %63
  %65 = call noundef nonnull align 8 dereferenceable(8) ptr @_ZNSt17_Rb_tree_iteratorISt4pairIKNSt7__cxx1112basic_stringIcSt11char_traitsIcESaIcEEENS1_4listIS6_SaIS6_EEEEEppEv(ptr noundef nonnull align 8 dereferenceable(8) %8) #3
  br label %31

66:                                               ; preds = %31
  invoke void @_ZNSt5queueINSt7__cxx1112basic_stringIcSt11char_traitsIcESaIcEEESt5dequeIS5_SaIS5_EEEC2IS8_vEEv(ptr noundef nonnull align 8 dereferenceable(80) %17)
          to label %67 unwind label %59

67:                                               ; preds = %66
  invoke void @_ZNSt5queueINSt7__cxx1112basic_stringIcSt11char_traitsIcESaIcEEESt5dequeIS5_SaIS5_EEE4pushERKS5_(ptr noundef nonnull align 8 dereferenceable(80) %17, ptr noundef nonnull align 8 dereferenceable(32) %2)
          to label %68 unwind label %104

68:                                               ; preds = %67
  %69 = invoke noundef nonnull align 1 dereferenceable(1) ptr @_ZNSt3mapINSt7__cxx1112basic_stringIcSt11char_traitsIcESaIcEEEbSt4lessIS5_ESaISt4pairIKS5_bEEEixERS9_(ptr noundef nonnull align 8 dereferenceable(48) %0, ptr noundef nonnull align 8 dereferenceable(32) %2)
          to label %70 unwind label %104

70:                                               ; preds = %68
  store i8 1, ptr %69, align 1
  br label %71

71:                                               ; preds = %115, %70
  %72 = invoke noundef zeroext i1 @_ZNKSt5queueINSt7__cxx1112basic_stringIcSt11char_traitsIcESaIcEEESt5dequeIS5_SaIS5_EEE5emptyEv(ptr noundef nonnull align 8 dereferenceable(80) %17)
          to label %73 unwind label %104

73:                                               ; preds = %71
  %74 = xor i1 %72, true
  br i1 %74, label %75, label %116

75:                                               ; preds = %73
  %76 = invoke noundef nonnull align 8 dereferenceable(32) ptr @_ZNSt5queueINSt7__cxx1112basic_stringIcSt11char_traitsIcESaIcEEESt5dequeIS5_SaIS5_EEE5frontEv(ptr noundef nonnull align 8 dereferenceable(80) %17)
          to label %77 unwind label %104

77:                                               ; preds = %75
  invoke void @_ZNSt7__cxx1112basic_stringIcSt11char_traitsIcESaIcEEC1ERKS4_(ptr noundef nonnull align 8 dereferenceable(32) %18, ptr noundef nonnull align 8 dereferenceable(32) %76)
          to label %78 unwind label %104

78:                                               ; preds = %77
  invoke void @_ZNSt5queueINSt7__cxx1112basic_stringIcSt11char_traitsIcESaIcEEESt5dequeIS5_SaIS5_EEE3popEv(ptr noundef nonnull align 8 dereferenceable(80) %17)
          to label %79 unwind label %108

79:                                               ; preds = %78
  %80 = getelementptr inbounds %"class.graph::Graph.5", ptr %23, i32 0, i32 0
  %81 = invoke noundef nonnull align 8 dereferenceable(24) ptr @_ZNSt3mapINSt7__cxx1112basic_stringIcSt11char_traitsIcESaIcEEENS0_4listIS5_SaIS5_EEESt4lessIS5_ESaISt4pairIKS5_S8_EEEixERSC_(ptr noundef nonnull align 8 dereferenceable(48) %80, ptr noundef nonnull align 8 dereferenceable(32) %18)
          to label %82 unwind label %108

82:                                               ; preds = %79
  store ptr %81, ptr %19, align 8
  %83 = load ptr, ptr %19, align 8
  %84 = call ptr @_ZNSt7__cxx114listINS_12basic_stringIcSt11char_traitsIcESaIcEEESaIS5_EE5beginEv(ptr noundef nonnull align 8 dereferenceable(24) %83) #3
  %85 = getelementptr inbounds %"struct.std::_List_iterator", ptr %20, i32 0, i32 0
  store ptr %84, ptr %85, align 8
  %86 = load ptr, ptr %19, align 8
  %87 = call ptr @_ZNSt7__cxx114listINS_12basic_stringIcSt11char_traitsIcESaIcEEESaIS5_EE3endEv(ptr noundef nonnull align 8 dereferenceable(24) %86) #3
  %88 = getelementptr inbounds %"struct.std::_List_iterator", ptr %21, i32 0, i32 0
  store ptr %87, ptr %88, align 8
  br label %89

89:                                               ; preds = %113, %82
  %90 = call noundef zeroext i1 @_ZStneRKSt14_List_iteratorINSt7__cxx1112basic_stringIcSt11char_traitsIcESaIcEEEES8_(ptr noundef nonnull align 8 dereferenceable(8) %20, ptr noundef nonnull align 8 dereferenceable(8) %21) #3
  br i1 %90, label %91, label %115

91:                                               ; preds = %89
  %92 = call noundef nonnull align 8 dereferenceable(32) ptr @_ZNKSt14_List_iteratorINSt7__cxx1112basic_stringIcSt11char_traitsIcESaIcEEEEdeEv(ptr noundef nonnull align 8 dereferenceable(8) %20) #3
  store ptr %92, ptr %22, align 8
  %93 = load ptr, ptr %22, align 8
  %94 = invoke noundef nonnull align 1 dereferenceable(1) ptr @_ZNSt3mapINSt7__cxx1112basic_stringIcSt11char_traitsIcESaIcEEEbSt4lessIS5_ESaISt4pairIKS5_bEEEixERS9_(ptr noundef nonnull align 8 dereferenceable(48) %0, ptr noundef nonnull align 8 dereferenceable(32) %93)
          to label %95 unwind label %108

95:                                               ; preds = %91
  %96 = load i8, ptr %94, align 1
  %97 = trunc i8 %96 to i1
  br i1 %97, label %112, label %98

98:                                               ; preds = %95
  %99 = load ptr, ptr %22, align 8
  invoke void @_ZNSt5queueINSt7__cxx1112basic_stringIcSt11char_traitsIcESaIcEEESt5dequeIS5_SaIS5_EEE4pushERKS5_(ptr noundef nonnull align 8 dereferenceable(80) %17, ptr noundef nonnull align 8 dereferenceable(32) %99)
          to label %100 unwind label %108

100:                                              ; preds = %98
  %101 = load ptr, ptr %22, align 8
  %102 = invoke noundef nonnull align 1 dereferenceable(1) ptr @_ZNSt3mapINSt7__cxx1112basic_stringIcSt11char_traitsIcESaIcEEEbSt4lessIS5_ESaISt4pairIKS5_bEEEixERS9_(ptr noundef nonnull align 8 dereferenceable(48) %0, ptr noundef nonnull align 8 dereferenceable(32) %101)
          to label %103 unwind label %108

103:                                              ; preds = %100
  store i8 1, ptr %102, align 1
  br label %112

104:                                              ; preds = %77, %75, %71, %68, %67
  %105 = landingpad { ptr, i32 }
          cleanup
  %106 = extractvalue { ptr, i32 } %105, 0
  store ptr %106, ptr %11, align 8
  %107 = extractvalue { ptr, i32 } %105, 1
  store i32 %107, ptr %12, align 4
  br label %118

108:                                              ; preds = %100, %98, %91, %79, %78
  %109 = landingpad { ptr, i32 }
          cleanup
  %110 = extractvalue { ptr, i32 } %109, 0
  store ptr %110, ptr %11, align 8
  %111 = extractvalue { ptr, i32 } %109, 1
  store i32 %111, ptr %12, align 4
  call void @_ZNSt7__cxx1112basic_stringIcSt11char_traitsIcESaIcEED1Ev(ptr noundef nonnull align 8 dereferenceable(32) %18) #3
  br label %118

112:                                              ; preds = %103, %95
  br label %113

113:                                              ; preds = %112
  %114 = call noundef nonnull align 8 dereferenceable(8) ptr @_ZNSt14_List_iteratorINSt7__cxx1112basic_stringIcSt11char_traitsIcESaIcEEEEppEv(ptr noundef nonnull align 8 dereferenceable(8) %20) #3
  br label %89

115:                                              ; preds = %89
  call void @_ZNSt7__cxx1112basic_stringIcSt11char_traitsIcESaIcEED1Ev(ptr noundef nonnull align 8 dereferenceable(32) %18) #3
  br label %71, !llvm.loop !9

116:                                              ; preds = %73
  store i1 true, ptr %6, align 1
  call void @_ZNSt5queueINSt7__cxx1112basic_stringIcSt11char_traitsIcESaIcEEESt5dequeIS5_SaIS5_EEED2Ev(ptr noundef nonnull align 8 dereferenceable(80) %17) #3
  %117 = load i1, ptr %6, align 1
  br i1 %117, label %120, label %119

118:                                              ; preds = %108, %104
  call void @_ZNSt5queueINSt7__cxx1112basic_stringIcSt11char_traitsIcESaIcEEESt5dequeIS5_SaIS5_EEED2Ev(ptr noundef nonnull align 8 dereferenceable(80) %17) #3
  br label %121

119:                                              ; preds = %116
  call void @_ZNSt3mapINSt7__cxx1112basic_stringIcSt11char_traitsIcESaIcEEEbSt4lessIS5_ESaISt4pairIKS5_bEEED2Ev(ptr noundef nonnull align 8 dereferenceable(48) %0) #3
  br label %120

120:                                              ; preds = %119, %116
  ret void

121:                                              ; preds = %118, %59
  call void @_ZNSt3mapINSt7__cxx1112basic_stringIcSt11char_traitsIcESaIcEEEbSt4lessIS5_ESaISt4pairIKS5_bEEED2Ev(ptr noundef nonnull align 8 dereferenceable(48) %0) #3
  br label %122

122:                                              ; preds = %121
  %123 = load ptr, ptr %11, align 8
  %124 = load i32, ptr %12, align 4
  %125 = insertvalue { ptr, i32 } undef, ptr %123, 0
  %126 = insertvalue { ptr, i32 } %125, i32 %124, 1
  resume { ptr, i32 } %126
}

; Function Attrs: mustprogress noinline optnone uwtable
define linkonce_odr dso_local noundef nonnull align 1 dereferenceable(1) ptr @_ZNSt3mapINSt7__cxx1112basic_stringIcSt11char_traitsIcESaIcEEEbSt4lessIS5_ESaISt4pairIKS5_bEEEixEOS5_(ptr noundef nonnull align 8 dereferenceable(48) %0, ptr noundef nonnull align 8 dereferenceable(32) %1) #5 comdat align 2 {
  %3 = alloca ptr, align 8
  %4 = alloca ptr, align 8
  %5 = alloca %"struct.std::_Rb_tree_iterator.46", align 8
  %6 = alloca %"struct.std::_Rb_tree_iterator.46", align 8
  %7 = alloca %"struct.std::less.12", align 1
  %8 = alloca %"struct.std::less.12", align 1
  %9 = alloca %"struct.std::_Rb_tree_iterator.46", align 8
  %10 = alloca %"struct.std::_Rb_tree_const_iterator.51", align 8
  %11 = alloca %"class.std::tuple.59", align 8
  %12 = alloca %"class.std::tuple.22", align 1
  store ptr %0, ptr %3, align 8
  store ptr %1, ptr %4, align 8
  %13 = load ptr, ptr %3, align 8
  %14 = load ptr, ptr %4, align 8
  %15 = call ptr @_ZNSt3mapINSt7__cxx1112basic_stringIcSt11char_traitsIcESaIcEEEbSt4lessIS5_ESaISt4pairIKS5_bEEE11lower_boundERS9_(ptr noundef nonnull align 8 dereferenceable(48) %13, ptr noundef nonnull align 8 dereferenceable(32) %14)
  %16 = getelementptr inbounds %"struct.std::_Rb_tree_iterator.46", ptr %5, i32 0, i32 0
  store ptr %15, ptr %16, align 8
  %17 = call ptr @_ZNSt3mapINSt7__cxx1112basic_stringIcSt11char_traitsIcESaIcEEEbSt4lessIS5_ESaISt4pairIKS5_bEEE3endEv(ptr noundef nonnull align 8 dereferenceable(48) %13) #3
  %18 = getelementptr inbounds %"struct.std::_Rb_tree_iterator.46", ptr %6, i32 0, i32 0
  store ptr %17, ptr %18, align 8
  %19 = call noundef zeroext i1 @_ZSteqRKSt17_Rb_tree_iteratorISt4pairIKNSt7__cxx1112basic_stringIcSt11char_traitsIcESaIcEEEbEESB_(ptr noundef nonnull align 8 dereferenceable(8) %5, ptr noundef nonnull align 8 dereferenceable(8) %6) #3
  br i1 %19, label %25, label %20

20:                                               ; preds = %2
  call void @_ZNKSt3mapINSt7__cxx1112basic_stringIcSt11char_traitsIcESaIcEEEbSt4lessIS5_ESaISt4pairIKS5_bEEE8key_compEv(ptr noundef nonnull align 8 dereferenceable(48) %13)
  %21 = load ptr, ptr %4, align 8
  %22 = call noundef nonnull align 8 dereferenceable(33) ptr @_ZNKSt17_Rb_tree_iteratorISt4pairIKNSt7__cxx1112basic_stringIcSt11char_traitsIcESaIcEEEbEEdeEv(ptr noundef nonnull align 8 dereferenceable(8) %5) #3
  %23 = getelementptr inbounds %"struct.std::pair.47", ptr %22, i32 0, i32 0
  %24 = call noundef zeroext i1 @_ZNKSt4lessINSt7__cxx1112basic_stringIcSt11char_traitsIcESaIcEEEEclERKS5_S8_(ptr noundef nonnull align 1 dereferenceable(1) %7, ptr noundef nonnull align 8 dereferenceable(32) %21, ptr noundef nonnull align 8 dereferenceable(32) %23)
  br label %25

25:                                               ; preds = %20, %2
  %26 = phi i1 [ true, %2 ], [ %24, %20 ]
  br i1 %26, label %27, label %34

27:                                               ; preds = %25
  %28 = getelementptr inbounds %"class.std::map.17", ptr %13, i32 0, i32 0
  call void @_ZNSt23_Rb_tree_const_iteratorISt4pairIKNSt7__cxx1112basic_stringIcSt11char_traitsIcESaIcEEEbEEC2ERKSt17_Rb_tree_iteratorIS8_E(ptr noundef nonnull align 8 dereferenceable(8) %10, ptr noundef nonnull align 8 dereferenceable(8) %5) #3
  %29 = load ptr, ptr %4, align 8
  call void @_ZSt16forward_as_tupleIJNSt7__cxx1112basic_stringIcSt11char_traitsIcESaIcEEEEESt5tupleIJDpOT_EES9_(ptr sret(%"class.std::tuple.59") align 8 %11, ptr noundef nonnull align 8 dereferenceable(32) %29) #3
  %30 = getelementptr inbounds %"struct.std::_Rb_tree_const_iterator.51", ptr %10, i32 0, i32 0
  %31 = load ptr, ptr %30, align 8
  %32 = call ptr @_ZNSt8_Rb_treeINSt7__cxx1112basic_stringIcSt11char_traitsIcESaIcEEESt4pairIKS5_bESt10_Select1stIS8_ESt4lessIS5_ESaIS8_EE22_M_emplace_hint_uniqueIJRKSt21piecewise_construct_tSt5tupleIJOS5_EESJ_IJEEEEESt17_Rb_tree_iteratorIS8_ESt23_Rb_tree_const_iteratorIS8_EDpOT_(ptr noundef nonnull align 8 dereferenceable(48) %28, ptr %31, ptr noundef nonnull align 1 dereferenceable(1) @_ZStL19piecewise_construct, ptr noundef nonnull align 8 dereferenceable(8) %11, ptr noundef nonnull align 1 dereferenceable(1) %12)
  %33 = getelementptr inbounds %"struct.std::_Rb_tree_iterator.46", ptr %9, i32 0, i32 0
  store ptr %32, ptr %33, align 8
  call void @llvm.memcpy.p0.p0.i64(ptr align 8 %5, ptr align 8 %9, i64 8, i1 false)
  br label %34

34:                                               ; preds = %27, %25
  %35 = call noundef nonnull align 8 dereferenceable(33) ptr @_ZNKSt17_Rb_tree_iteratorISt4pairIKNSt7__cxx1112basic_stringIcSt11char_traitsIcESaIcEEEbEEdeEv(ptr noundef nonnull align 8 dereferenceable(8) %5) #3
  %36 = getelementptr inbounds %"struct.std::pair.47", ptr %35, i32 0, i32 1
  ret ptr %36
}

; Function Attrs: mustprogress noinline optnone uwtable
define linkonce_odr dso_local noundef zeroext i1 @_ZSteqINSt7__cxx1112basic_stringIcSt11char_traitsIcESaIcEEEbSt4lessIS5_ESaISt4pairIKS5_bEEEbRKSt3mapIT_T0_T1_T2_ESJ_(ptr noundef nonnull align 8 dereferenceable(48) %0, ptr noundef nonnull align 8 dereferenceable(48) %1) #5 comdat {
  %3 = alloca ptr, align 8
  %4 = alloca ptr, align 8
  store ptr %0, ptr %3, align 8
  store ptr %1, ptr %4, align 8
  %5 = load ptr, ptr %3, align 8
  %6 = getelementptr inbounds %"class.std::map.17", ptr %5, i32 0, i32 0
  %7 = load ptr, ptr %4, align 8
  %8 = getelementptr inbounds %"class.std::map.17", ptr %7, i32 0, i32 0
  %9 = call noundef zeroext i1 @_ZSteqRKSt8_Rb_treeINSt7__cxx1112basic_stringIcSt11char_traitsIcESaIcEEESt4pairIKS5_bESt10_Select1stIS8_ESt4lessIS5_ESaIS8_EESG_(ptr noundef nonnull align 8 dereferenceable(48) %6, ptr noundef nonnull align 8 dereferenceable(48) %8)
  ret i1 %9
}

; Function Attrs: noinline nounwind optnone uwtable
define linkonce_odr dso_local void @_ZNSt3mapINSt7__cxx1112basic_stringIcSt11char_traitsIcESaIcEEEbSt4lessIS5_ESaISt4pairIKS5_bEEED2Ev(ptr noundef nonnull align 8 dereferenceable(48) %0) unnamed_addr #6 comdat align 2 {
  %2 = alloca ptr, align 8
  store ptr %0, ptr %2, align 8
  %3 = load ptr, ptr %2, align 8
  %4 = getelementptr inbounds %"class.std::map.17", ptr %3, i32 0, i32 0
  call void @_ZNSt8_Rb_treeINSt7__cxx1112basic_stringIcSt11char_traitsIcESaIcEEESt4pairIKS5_bESt10_Select1stIS8_ESt4lessIS5_ESaIS8_EED2Ev(ptr noundef nonnull align 8 dereferenceable(48) %4) #3
  ret void
}

; Function Attrs: noinline nounwind optnone uwtable
define linkonce_odr dso_local void @_ZN5graph5GraphINSt7__cxx1112basic_stringIcSt11char_traitsIcESaIcEEEED2Ev(ptr noundef nonnull align 8 dereferenceable(48) %0) unnamed_addr #6 comdat align 2 {
  %2 = alloca ptr, align 8
  store ptr %0, ptr %2, align 8
  %3 = load ptr, ptr %2, align 8
  %4 = getelementptr inbounds %"class.graph::Graph.5", ptr %3, i32 0, i32 0
  call void @_ZNSt3mapINSt7__cxx1112basic_stringIcSt11char_traitsIcESaIcEEENS0_4listIS5_SaIS5_EEESt4lessIS5_ESaISt4pairIKS5_S8_EEED2Ev(ptr noundef nonnull align 8 dereferenceable(48) %4) #3
  ret void
}

; Function Attrs: noinline nounwind optnone uwtable
define linkonce_odr dso_local void @_ZNSt8_Rb_treeIiSt4pairIKibESt10_Select1stIS2_ESt4lessIiESaIS2_EEC2Ev(ptr noundef nonnull align 8 dereferenceable(48) %0) unnamed_addr #6 comdat align 2 {
  %2 = alloca ptr, align 8
  store ptr %0, ptr %2, align 8
  %3 = load ptr, ptr %2, align 8
  %4 = getelementptr inbounds %"class.std::_Rb_tree.1", ptr %3, i32 0, i32 0
  call void @_ZNSt8_Rb_treeIiSt4pairIKibESt10_Select1stIS2_ESt4lessIiESaIS2_EE13_Rb_tree_implIS6_Lb1EEC2Ev(ptr noundef nonnull align 8 dereferenceable(48) %4) #3
  ret void
}

; Function Attrs: noinline nounwind optnone uwtable
define linkonce_odr dso_local void @_ZNSt8_Rb_treeIiSt4pairIKibESt10_Select1stIS2_ESt4lessIiESaIS2_EE13_Rb_tree_implIS6_Lb1EEC2Ev(ptr noundef nonnull align 8 dereferenceable(48) %0) unnamed_addr #6 comdat align 2 {
  %2 = alloca ptr, align 8
  store ptr %0, ptr %2, align 8
  %3 = load ptr, ptr %2, align 8
  call void @_ZNSaISt13_Rb_tree_nodeISt4pairIKibEEEC2Ev(ptr noundef nonnull align 1 dereferenceable(1) %3) #3
  call void @_ZNSt20_Rb_tree_key_compareISt4lessIiEEC2Ev(ptr noundef nonnull align 1 dereferenceable(1) %3) #3
  %4 = getelementptr inbounds i8, ptr %3, i64 8
  call void @_ZNSt15_Rb_tree_headerC2Ev(ptr noundef nonnull align 8 dereferenceable(40) %4) #3
  ret void
}

; Function Attrs: noinline nounwind optnone uwtable
define linkonce_odr dso_local void @_ZNSaISt13_Rb_tree_nodeISt4pairIKibEEEC2Ev(ptr noundef nonnull align 1 dereferenceable(1) %0) unnamed_addr #6 comdat align 2 {
  %2 = alloca ptr, align 8
  store ptr %0, ptr %2, align 8
  %3 = load ptr, ptr %2, align 8
  call void @_ZNSt15__new_allocatorISt13_Rb_tree_nodeISt4pairIKibEEEC2Ev(ptr noundef nonnull align 1 dereferenceable(1) %3) #3
  ret void
}

; Function Attrs: noinline nounwind optnone uwtable
define linkonce_odr dso_local void @_ZNSt20_Rb_tree_key_compareISt4lessIiEEC2Ev(ptr noundef nonnull align 1 dereferenceable(1) %0) unnamed_addr #6 comdat align 2 {
  %2 = alloca ptr, align 8
  store ptr %0, ptr %2, align 8
  %3 = load ptr, ptr %2, align 8
  %4 = getelementptr inbounds %"struct.std::_Rb_tree_key_compare", ptr %3, i32 0, i32 0
  ret void
}

; Function Attrs: noinline nounwind optnone uwtable
define linkonce_odr dso_local void @_ZNSt15_Rb_tree_headerC2Ev(ptr noundef nonnull align 8 dereferenceable(40) %0) unnamed_addr #6 comdat align 2 personality ptr @__gxx_personality_v0 {
  %2 = alloca ptr, align 8
  store ptr %0, ptr %2, align 8
  %3 = load ptr, ptr %2, align 8
  %4 = getelementptr inbounds %"struct.std::_Rb_tree_header", ptr %3, i32 0, i32 0
  %5 = getelementptr inbounds %"struct.std::_Rb_tree_header", ptr %3, i32 0, i32 0
  %6 = getelementptr inbounds %"struct.std::_Rb_tree_node_base", ptr %5, i32 0, i32 0
  store i32 0, ptr %6, align 8
  invoke void @_ZNSt15_Rb_tree_header8_M_resetEv(ptr noundef nonnull align 8 dereferenceable(40) %3)
          to label %7 unwind label %8

7:                                                ; preds = %1
  ret void

8:                                                ; preds = %1
  %9 = landingpad { ptr, i32 }
          catch ptr null
  %10 = extractvalue { ptr, i32 } %9, 0
  call void @__clang_call_terminate(ptr %10) #17
  unreachable
}

; Function Attrs: noinline nounwind optnone uwtable
define linkonce_odr dso_local void @_ZNSt15__new_allocatorISt13_Rb_tree_nodeISt4pairIKibEEEC2Ev(ptr noundef nonnull align 1 dereferenceable(1) %0) unnamed_addr #6 comdat align 2 {
  %2 = alloca ptr, align 8
  store ptr %0, ptr %2, align 8
  %3 = load ptr, ptr %2, align 8
  ret void
}

; Function Attrs: mustprogress noinline nounwind optnone uwtable
define linkonce_odr dso_local void @_ZNSt15_Rb_tree_header8_M_resetEv(ptr noundef nonnull align 8 dereferenceable(40) %0) #8 comdat align 2 {
  %2 = alloca ptr, align 8
  store ptr %0, ptr %2, align 8
  %3 = load ptr, ptr %2, align 8
  %4 = getelementptr inbounds %"struct.std::_Rb_tree_header", ptr %3, i32 0, i32 0
  %5 = getelementptr inbounds %"struct.std::_Rb_tree_node_base", ptr %4, i32 0, i32 1
  store ptr null, ptr %5, align 8
  %6 = getelementptr inbounds %"struct.std::_Rb_tree_header", ptr %3, i32 0, i32 0
  %7 = getelementptr inbounds %"struct.std::_Rb_tree_header", ptr %3, i32 0, i32 0
  %8 = getelementptr inbounds %"struct.std::_Rb_tree_node_base", ptr %7, i32 0, i32 2
  store ptr %6, ptr %8, align 8
  %9 = getelementptr inbounds %"struct.std::_Rb_tree_header", ptr %3, i32 0, i32 0
  %10 = getelementptr inbounds %"struct.std::_Rb_tree_header", ptr %3, i32 0, i32 0
  %11 = getelementptr inbounds %"struct.std::_Rb_tree_node_base", ptr %10, i32 0, i32 3
  store ptr %9, ptr %11, align 8
  %12 = getelementptr inbounds %"struct.std::_Rb_tree_header", ptr %3, i32 0, i32 1
  store i64 0, ptr %12, align 8
  ret void
}

; Function Attrs: noinline noreturn nounwind
define linkonce_odr hidden void @__clang_call_terminate(ptr %0) #9 comdat {
  %2 = call ptr @__cxa_begin_catch(ptr %0) #3
  call void @_ZSt9terminatev() #17
  unreachable
}

declare ptr @__cxa_begin_catch(ptr)

declare void @_ZSt9terminatev()

; Function Attrs: mustprogress noinline optnone uwtable
define linkonce_odr dso_local ptr @_ZNSt3mapIibSt4lessIiESaISt4pairIKibEEE11lower_boundERS3_(ptr noundef nonnull align 8 dereferenceable(48) %0, ptr noundef nonnull align 4 dereferenceable(4) %1) #5 comdat align 2 {
  %3 = alloca %"struct.std::_Rb_tree_iterator", align 8
  %4 = alloca ptr, align 8
  %5 = alloca ptr, align 8
  store ptr %0, ptr %4, align 8
  store ptr %1, ptr %5, align 8
  %6 = load ptr, ptr %4, align 8
  %7 = getelementptr inbounds %"class.std::map.0", ptr %6, i32 0, i32 0
  %8 = load ptr, ptr %5, align 8
  %9 = call ptr @_ZNSt8_Rb_treeIiSt4pairIKibESt10_Select1stIS2_ESt4lessIiESaIS2_EE11lower_boundERS1_(ptr noundef nonnull align 8 dereferenceable(48) %7, ptr noundef nonnull align 4 dereferenceable(4) %8)
  %10 = getelementptr inbounds %"struct.std::_Rb_tree_iterator", ptr %3, i32 0, i32 0
  store ptr %9, ptr %10, align 8
  %11 = getelementptr inbounds %"struct.std::_Rb_tree_iterator", ptr %3, i32 0, i32 0
  %12 = load ptr, ptr %11, align 8
  ret ptr %12
}

; Function Attrs: mustprogress noinline nounwind optnone uwtable
define linkonce_odr dso_local noundef zeroext i1 @_ZSteqRKSt17_Rb_tree_iteratorISt4pairIKibEES5_(ptr noundef nonnull align 8 dereferenceable(8) %0, ptr noundef nonnull align 8 dereferenceable(8) %1) #8 comdat {
  %3 = alloca ptr, align 8
  %4 = alloca ptr, align 8
  store ptr %0, ptr %3, align 8
  store ptr %1, ptr %4, align 8
  %5 = load ptr, ptr %3, align 8
  %6 = getelementptr inbounds %"struct.std::_Rb_tree_iterator", ptr %5, i32 0, i32 0
  %7 = load ptr, ptr %6, align 8
  %8 = load ptr, ptr %4, align 8
  %9 = getelementptr inbounds %"struct.std::_Rb_tree_iterator", ptr %8, i32 0, i32 0
  %10 = load ptr, ptr %9, align 8
  %11 = icmp eq ptr %7, %10
  ret i1 %11
}

; Function Attrs: mustprogress noinline nounwind optnone uwtable
define linkonce_odr dso_local ptr @_ZNSt3mapIibSt4lessIiESaISt4pairIKibEEE3endEv(ptr noundef nonnull align 8 dereferenceable(48) %0) #8 comdat align 2 {
  %2 = alloca %"struct.std::_Rb_tree_iterator", align 8
  %3 = alloca ptr, align 8
  store ptr %0, ptr %3, align 8
  %4 = load ptr, ptr %3, align 8
  %5 = getelementptr inbounds %"class.std::map.0", ptr %4, i32 0, i32 0
  %6 = call ptr @_ZNSt8_Rb_treeIiSt4pairIKibESt10_Select1stIS2_ESt4lessIiESaIS2_EE3endEv(ptr noundef nonnull align 8 dereferenceable(48) %5) #3
  %7 = getelementptr inbounds %"struct.std::_Rb_tree_iterator", ptr %2, i32 0, i32 0
  store ptr %6, ptr %7, align 8
  %8 = getelementptr inbounds %"struct.std::_Rb_tree_iterator", ptr %2, i32 0, i32 0
  %9 = load ptr, ptr %8, align 8
  ret ptr %9
}

; Function Attrs: mustprogress noinline optnone uwtable
define linkonce_odr dso_local void @_ZNKSt3mapIibSt4lessIiESaISt4pairIKibEEE8key_compEv(ptr noundef nonnull align 8 dereferenceable(48) %0) #5 comdat align 2 {
  %2 = alloca ptr, align 8
  %3 = alloca %"struct.std::less", align 1
  store ptr %0, ptr %2, align 8
  %4 = load ptr, ptr %2, align 8
  %5 = getelementptr inbounds %"class.std::map.0", ptr %4, i32 0, i32 0
  call void @_ZNKSt8_Rb_treeIiSt4pairIKibESt10_Select1stIS2_ESt4lessIiESaIS2_EE8key_compEv(ptr noundef nonnull align 8 dereferenceable(48) %5)
  ret void
}

; Function Attrs: mustprogress noinline nounwind optnone uwtable
define linkonce_odr dso_local noundef zeroext i1 @_ZNKSt4lessIiEclERKiS2_(ptr noundef nonnull align 1 dereferenceable(1) %0, ptr noundef nonnull align 4 dereferenceable(4) %1, ptr noundef nonnull align 4 dereferenceable(4) %2) #8 comdat align 2 {
  %4 = alloca ptr, align 8
  %5 = alloca ptr, align 8
  %6 = alloca ptr, align 8
  store ptr %0, ptr %4, align 8
  store ptr %1, ptr %5, align 8
  store ptr %2, ptr %6, align 8
  %7 = load ptr, ptr %4, align 8
  %8 = load ptr, ptr %5, align 8
  %9 = load i32, ptr %8, align 4
  %10 = load ptr, ptr %6, align 8
  %11 = load i32, ptr %10, align 4
  %12 = icmp slt i32 %9, %11
  ret i1 %12
}

; Function Attrs: mustprogress noinline nounwind optnone uwtable
define linkonce_odr dso_local noundef nonnull align 4 dereferenceable(5) ptr @_ZNKSt17_Rb_tree_iteratorISt4pairIKibEEdeEv(ptr noundef nonnull align 8 dereferenceable(8) %0) #8 comdat align 2 personality ptr @__gxx_personality_v0 {
  %2 = alloca ptr, align 8
  store ptr %0, ptr %2, align 8
  %3 = load ptr, ptr %2, align 8
  %4 = getelementptr inbounds %"struct.std::_Rb_tree_iterator", ptr %3, i32 0, i32 0
  %5 = load ptr, ptr %4, align 8
  %6 = invoke noundef ptr @_ZNSt13_Rb_tree_nodeISt4pairIKibEE9_M_valptrEv(ptr noundef nonnull align 8 dereferenceable(40) %5)
          to label %7 unwind label %8

7:                                                ; preds = %1
  ret ptr %6

8:                                                ; preds = %1
  %9 = landingpad { ptr, i32 }
          catch ptr null
  %10 = extractvalue { ptr, i32 } %9, 0
  call void @__clang_call_terminate(ptr %10) #17
  unreachable
}

; Function Attrs: mustprogress noinline optnone uwtable
define linkonce_odr dso_local ptr @_ZNSt8_Rb_treeIiSt4pairIKibESt10_Select1stIS2_ESt4lessIiESaIS2_EE22_M_emplace_hint_uniqueIJRKSt21piecewise_construct_tSt5tupleIJOiEESD_IJEEEEESt17_Rb_tree_iteratorIS2_ESt23_Rb_tree_const_iteratorIS2_EDpOT_(ptr noundef nonnull align 8 dereferenceable(48) %0, ptr %1, ptr noundef nonnull align 1 dereferenceable(1) %2, ptr noundef nonnull align 8 dereferenceable(8) %3, ptr noundef nonnull align 1 dereferenceable(1) %4) #5 comdat align 2 personality ptr @__gxx_personality_v0 {
  %6 = alloca %"struct.std::_Rb_tree_iterator", align 8
  %7 = alloca %"struct.std::_Rb_tree_const_iterator", align 8
  %8 = alloca ptr, align 8
  %9 = alloca ptr, align 8
  %10 = alloca ptr, align 8
  %11 = alloca ptr, align 8
  %12 = alloca %"struct.std::_Rb_tree<int, std::pair<const int, bool>, std::_Select1st<std::pair<const int, bool>>, std::less<int>>::_Auto_node", align 8
  %13 = alloca %"struct.std::pair.23", align 8
  %14 = alloca %"struct.std::_Rb_tree_const_iterator", align 8
  %15 = alloca ptr, align 8
  %16 = alloca i32, align 4
  %17 = alloca %"struct.std::pair.23", align 8
  %18 = alloca i32, align 4
  %19 = getelementptr inbounds %"struct.std::_Rb_tree_const_iterator", ptr %7, i32 0, i32 0
  store ptr %1, ptr %19, align 8
  store ptr %0, ptr %8, align 8
  store ptr %2, ptr %9, align 8
  store ptr %3, ptr %10, align 8
  store ptr %4, ptr %11, align 8
  %20 = load ptr, ptr %8, align 8
  %21 = load ptr, ptr %9, align 8
  %22 = load ptr, ptr %10, align 8
  %23 = load ptr, ptr %11, align 8
  call void @_ZNSt8_Rb_treeIiSt4pairIKibESt10_Select1stIS2_ESt4lessIiESaIS2_EE10_Auto_nodeC2IJRKSt21piecewise_construct_tSt5tupleIJOiEESE_IJEEEEERS8_DpOT_(ptr noundef nonnull align 8 dereferenceable(16) %12, ptr noundef nonnull align 8 dereferenceable(48) %20, ptr noundef nonnull align 1 dereferenceable(1) %21, ptr noundef nonnull align 8 dereferenceable(8) %22, ptr noundef nonnull align 1 dereferenceable(1) %23)
  call void @llvm.memcpy.p0.p0.i64(ptr align 8 %14, ptr align 8 %7, i64 8, i1 false)
  %24 = invoke noundef nonnull align 4 dereferenceable(4) ptr @_ZNKSt8_Rb_treeIiSt4pairIKibESt10_Select1stIS2_ESt4lessIiESaIS2_EE10_Auto_node6_M_keyEv(ptr noundef nonnull align 8 dereferenceable(16) %12)
          to label %25 unwind label %45

25:                                               ; preds = %5
  %26 = getelementptr inbounds %"struct.std::_Rb_tree_const_iterator", ptr %14, i32 0, i32 0
  %27 = load ptr, ptr %26, align 8
  %28 = invoke { ptr, ptr } @_ZNSt8_Rb_treeIiSt4pairIKibESt10_Select1stIS2_ESt4lessIiESaIS2_EE29_M_get_insert_hint_unique_posESt23_Rb_tree_const_iteratorIS2_ERS1_(ptr noundef nonnull align 8 dereferenceable(48) %20, ptr %27, ptr noundef nonnull align 4 dereferenceable(4) %24)
          to label %29 unwind label %45

29:                                               ; preds = %25
  %30 = getelementptr inbounds { ptr, ptr }, ptr %13, i32 0, i32 0
  %31 = extractvalue { ptr, ptr } %28, 0
  store ptr %31, ptr %30, align 8
  %32 = getelementptr inbounds { ptr, ptr }, ptr %13, i32 0, i32 1
  %33 = extractvalue { ptr, ptr } %28, 1
  store ptr %33, ptr %32, align 8
  %34 = getelementptr inbounds %"struct.std::pair.23", ptr %13, i32 0, i32 1
  %35 = load ptr, ptr %34, align 8
  %36 = icmp ne ptr %35, null
  br i1 %36, label %37, label %49

37:                                               ; preds = %29
  call void @llvm.memcpy.p0.p0.i64(ptr align 8 %17, ptr align 8 %13, i64 16, i1 false)
  %38 = getelementptr inbounds { ptr, ptr }, ptr %17, i32 0, i32 0
  %39 = load ptr, ptr %38, align 8
  %40 = getelementptr inbounds { ptr, ptr }, ptr %17, i32 0, i32 1
  %41 = load ptr, ptr %40, align 8
  %42 = invoke ptr @_ZNSt8_Rb_treeIiSt4pairIKibESt10_Select1stIS2_ESt4lessIiESaIS2_EE10_Auto_node9_M_insertES0_IPSt18_Rb_tree_node_baseSB_E(ptr noundef nonnull align 8 dereferenceable(16) %12, ptr %39, ptr %41)
          to label %43 unwind label %45

43:                                               ; preds = %37
  %44 = getelementptr inbounds %"struct.std::_Rb_tree_iterator", ptr %6, i32 0, i32 0
  store ptr %42, ptr %44, align 8
  store i32 1, ptr %18, align 4
  br label %52

45:                                               ; preds = %37, %25, %5
  %46 = landingpad { ptr, i32 }
          cleanup
  %47 = extractvalue { ptr, i32 } %46, 0
  store ptr %47, ptr %15, align 8
  %48 = extractvalue { ptr, i32 } %46, 1
  store i32 %48, ptr %16, align 4
  call void @_ZNSt8_Rb_treeIiSt4pairIKibESt10_Select1stIS2_ESt4lessIiESaIS2_EE10_Auto_nodeD2Ev(ptr noundef nonnull align 8 dereferenceable(16) %12) #3
  br label %55

49:                                               ; preds = %29
  %50 = getelementptr inbounds %"struct.std::pair.23", ptr %13, i32 0, i32 0
  %51 = load ptr, ptr %50, align 8
  call void @_ZNSt17_Rb_tree_iteratorISt4pairIKibEEC2EPSt18_Rb_tree_node_base(ptr noundef nonnull align 8 dereferenceable(8) %6, ptr noundef %51) #3
  store i32 1, ptr %18, align 4
  br label %52

52:                                               ; preds = %49, %43
  call void @_ZNSt8_Rb_treeIiSt4pairIKibESt10_Select1stIS2_ESt4lessIiESaIS2_EE10_Auto_nodeD2Ev(ptr noundef nonnull align 8 dereferenceable(16) %12) #3
  %53 = getelementptr inbounds %"struct.std::_Rb_tree_iterator", ptr %6, i32 0, i32 0
  %54 = load ptr, ptr %53, align 8
  ret ptr %54

55:                                               ; preds = %45
  %56 = load ptr, ptr %15, align 8
  %57 = load i32, ptr %16, align 4
  %58 = insertvalue { ptr, i32 } undef, ptr %56, 0
  %59 = insertvalue { ptr, i32 } %58, i32 %57, 1
  resume { ptr, i32 } %59
}

; Function Attrs: noinline nounwind optnone uwtable
define linkonce_odr dso_local void @_ZNSt23_Rb_tree_const_iteratorISt4pairIKibEEC2ERKSt17_Rb_tree_iteratorIS2_E(ptr noundef nonnull align 8 dereferenceable(8) %0, ptr noundef nonnull align 8 dereferenceable(8) %1) unnamed_addr #6 comdat align 2 {
  %3 = alloca ptr, align 8
  %4 = alloca ptr, align 8
  store ptr %0, ptr %3, align 8
  store ptr %1, ptr %4, align 8
  %5 = load ptr, ptr %3, align 8
  %6 = getelementptr inbounds %"struct.std::_Rb_tree_const_iterator", ptr %5, i32 0, i32 0
  %7 = load ptr, ptr %4, align 8
  %8 = getelementptr inbounds %"struct.std::_Rb_tree_iterator", ptr %7, i32 0, i32 0
  %9 = load ptr, ptr %8, align 8
  store ptr %9, ptr %6, align 8
  ret void
}

; Function Attrs: mustprogress noinline nounwind optnone uwtable
define linkonce_odr dso_local void @_ZSt16forward_as_tupleIJiEESt5tupleIJDpOT_EES3_(ptr noalias sret(%"class.std::tuple") align 8 %0, ptr noundef nonnull align 4 dereferenceable(4) %1) #8 comdat {
  %3 = alloca ptr, align 8
  %4 = alloca ptr, align 8
  store ptr %0, ptr %3, align 8
  store ptr %1, ptr %4, align 8
  %5 = load ptr, ptr %4, align 8
  call void @_ZNSt5tupleIJOiEEC2IJiELb1ELb1EEEDpOT_(ptr noundef nonnull align 8 dereferenceable(8) %0, ptr noundef nonnull align 4 dereferenceable(4) %5) #3
  ret void
}

; Function Attrs: argmemonly nocallback nofree nounwind willreturn
declare void @llvm.memcpy.p0.p0.i64(ptr noalias nocapture writeonly, ptr noalias nocapture readonly, i64, i1 immarg) #10

; Function Attrs: mustprogress noinline optnone uwtable
define linkonce_odr dso_local ptr @_ZNSt8_Rb_treeIiSt4pairIKibESt10_Select1stIS2_ESt4lessIiESaIS2_EE11lower_boundERS1_(ptr noundef nonnull align 8 dereferenceable(48) %0, ptr noundef nonnull align 4 dereferenceable(4) %1) #5 comdat align 2 {
  %3 = alloca %"struct.std::_Rb_tree_iterator", align 8
  %4 = alloca ptr, align 8
  %5 = alloca ptr, align 8
  store ptr %0, ptr %4, align 8
  store ptr %1, ptr %5, align 8
  %6 = load ptr, ptr %4, align 8
  %7 = call noundef ptr @_ZNSt8_Rb_treeIiSt4pairIKibESt10_Select1stIS2_ESt4lessIiESaIS2_EE8_M_beginEv(ptr noundef nonnull align 8 dereferenceable(48) %6) #3
  %8 = call noundef ptr @_ZNSt8_Rb_treeIiSt4pairIKibESt10_Select1stIS2_ESt4lessIiESaIS2_EE6_M_endEv(ptr noundef nonnull align 8 dereferenceable(48) %6) #3
  %9 = load ptr, ptr %5, align 8
  %10 = call ptr @_ZNSt8_Rb_treeIiSt4pairIKibESt10_Select1stIS2_ESt4lessIiESaIS2_EE14_M_lower_boundEPSt13_Rb_tree_nodeIS2_EPSt18_Rb_tree_node_baseRS1_(ptr noundef nonnull align 8 dereferenceable(48) %6, ptr noundef %7, ptr noundef %8, ptr noundef nonnull align 4 dereferenceable(4) %9)
  %11 = getelementptr inbounds %"struct.std::_Rb_tree_iterator", ptr %3, i32 0, i32 0
  store ptr %10, ptr %11, align 8
  %12 = getelementptr inbounds %"struct.std::_Rb_tree_iterator", ptr %3, i32 0, i32 0
  %13 = load ptr, ptr %12, align 8
  ret ptr %13
}

; Function Attrs: mustprogress noinline optnone uwtable
define linkonce_odr dso_local ptr @_ZNSt8_Rb_treeIiSt4pairIKibESt10_Select1stIS2_ESt4lessIiESaIS2_EE14_M_lower_boundEPSt13_Rb_tree_nodeIS2_EPSt18_Rb_tree_node_baseRS1_(ptr noundef nonnull align 8 dereferenceable(48) %0, ptr noundef %1, ptr noundef %2, ptr noundef nonnull align 4 dereferenceable(4) %3) #5 comdat align 2 {
  %5 = alloca %"struct.std::_Rb_tree_iterator", align 8
  %6 = alloca ptr, align 8
  %7 = alloca ptr, align 8
  %8 = alloca ptr, align 8
  %9 = alloca ptr, align 8
  store ptr %0, ptr %6, align 8
  store ptr %1, ptr %7, align 8
  store ptr %2, ptr %8, align 8
  store ptr %3, ptr %9, align 8
  %10 = load ptr, ptr %6, align 8
  br label %11

11:                                               ; preds = %28, %4
  %12 = load ptr, ptr %7, align 8
  %13 = icmp ne ptr %12, null
  br i1 %13, label %14, label %29

14:                                               ; preds = %11
  %15 = getelementptr inbounds %"class.std::_Rb_tree.1", ptr %10, i32 0, i32 0
  %16 = getelementptr inbounds %"struct.std::_Rb_tree_key_compare", ptr %15, i32 0, i32 0
  %17 = load ptr, ptr %7, align 8
  %18 = call noundef nonnull align 4 dereferenceable(4) ptr @_ZNSt8_Rb_treeIiSt4pairIKibESt10_Select1stIS2_ESt4lessIiESaIS2_EE6_S_keyEPKSt13_Rb_tree_nodeIS2_E(ptr noundef %17)
  %19 = load ptr, ptr %9, align 8
  %20 = call noundef zeroext i1 @_ZNKSt4lessIiEclERKiS2_(ptr noundef nonnull align 1 dereferenceable(1) %16, ptr noundef nonnull align 4 dereferenceable(4) %18, ptr noundef nonnull align 4 dereferenceable(4) %19)
  br i1 %20, label %25, label %21

21:                                               ; preds = %14
  %22 = load ptr, ptr %7, align 8
  store ptr %22, ptr %8, align 8
  %23 = load ptr, ptr %7, align 8
  %24 = call noundef ptr @_ZNSt8_Rb_treeIiSt4pairIKibESt10_Select1stIS2_ESt4lessIiESaIS2_EE7_S_leftEPSt18_Rb_tree_node_base(ptr noundef %23) #3
  store ptr %24, ptr %7, align 8
  br label %28

25:                                               ; preds = %14
  %26 = load ptr, ptr %7, align 8
  %27 = call noundef ptr @_ZNSt8_Rb_treeIiSt4pairIKibESt10_Select1stIS2_ESt4lessIiESaIS2_EE8_S_rightEPSt18_Rb_tree_node_base(ptr noundef %26) #3
  store ptr %27, ptr %7, align 8
  br label %28

28:                                               ; preds = %25, %21
  br label %11, !llvm.loop !10

29:                                               ; preds = %11
  %30 = load ptr, ptr %8, align 8
  call void @_ZNSt17_Rb_tree_iteratorISt4pairIKibEEC2EPSt18_Rb_tree_node_base(ptr noundef nonnull align 8 dereferenceable(8) %5, ptr noundef %30) #3
  %31 = getelementptr inbounds %"struct.std::_Rb_tree_iterator", ptr %5, i32 0, i32 0
  %32 = load ptr, ptr %31, align 8
  ret ptr %32
}

; Function Attrs: mustprogress noinline nounwind optnone uwtable
define linkonce_odr dso_local noundef ptr @_ZNSt8_Rb_treeIiSt4pairIKibESt10_Select1stIS2_ESt4lessIiESaIS2_EE8_M_beginEv(ptr noundef nonnull align 8 dereferenceable(48) %0) #8 comdat align 2 {
  %2 = alloca ptr, align 8
  store ptr %0, ptr %2, align 8
  %3 = load ptr, ptr %2, align 8
  %4 = call noundef ptr @_ZNKSt8_Rb_treeIiSt4pairIKibESt10_Select1stIS2_ESt4lessIiESaIS2_EE9_M_mbeginEv(ptr noundef nonnull align 8 dereferenceable(48) %3) #3
  ret ptr %4
}

; Function Attrs: mustprogress noinline nounwind optnone uwtable
define linkonce_odr dso_local noundef ptr @_ZNSt8_Rb_treeIiSt4pairIKibESt10_Select1stIS2_ESt4lessIiESaIS2_EE6_M_endEv(ptr noundef nonnull align 8 dereferenceable(48) %0) #8 comdat align 2 {
  %2 = alloca ptr, align 8
  store ptr %0, ptr %2, align 8
  %3 = load ptr, ptr %2, align 8
  %4 = getelementptr inbounds %"class.std::_Rb_tree.1", ptr %3, i32 0, i32 0
  %5 = getelementptr inbounds i8, ptr %4, i64 8
  %6 = getelementptr inbounds %"struct.std::_Rb_tree_header", ptr %5, i32 0, i32 0
  ret ptr %6
}

; Function Attrs: mustprogress noinline optnone uwtable
define linkonce_odr dso_local noundef nonnull align 4 dereferenceable(4) ptr @_ZNSt8_Rb_treeIiSt4pairIKibESt10_Select1stIS2_ESt4lessIiESaIS2_EE6_S_keyEPKSt13_Rb_tree_nodeIS2_E(ptr noundef %0) #5 comdat align 2 {
  %2 = alloca ptr, align 8
  %3 = alloca %"struct.std::_Select1st", align 1
  store ptr %0, ptr %2, align 8
  %4 = load ptr, ptr %2, align 8
  %5 = call noundef ptr @_ZNKSt13_Rb_tree_nodeISt4pairIKibEE9_M_valptrEv(ptr noundef nonnull align 8 dereferenceable(40) %4)
  %6 = call noundef nonnull align 4 dereferenceable(4) ptr @_ZNKSt10_Select1stISt4pairIKibEEclERKS2_(ptr noundef nonnull align 1 dereferenceable(1) %3, ptr noundef nonnull align 4 dereferenceable(5) %5)
  ret ptr %6
}

; Function Attrs: mustprogress noinline nounwind optnone uwtable
define linkonce_odr dso_local noundef ptr @_ZNSt8_Rb_treeIiSt4pairIKibESt10_Select1stIS2_ESt4lessIiESaIS2_EE7_S_leftEPSt18_Rb_tree_node_base(ptr noundef %0) #8 comdat align 2 {
  %2 = alloca ptr, align 8
  store ptr %0, ptr %2, align 8
  %3 = load ptr, ptr %2, align 8
  %4 = getelementptr inbounds %"struct.std::_Rb_tree_node_base", ptr %3, i32 0, i32 2
  %5 = load ptr, ptr %4, align 8
  ret ptr %5
}

; Function Attrs: mustprogress noinline nounwind optnone uwtable
define linkonce_odr dso_local noundef ptr @_ZNSt8_Rb_treeIiSt4pairIKibESt10_Select1stIS2_ESt4lessIiESaIS2_EE8_S_rightEPSt18_Rb_tree_node_base(ptr noundef %0) #8 comdat align 2 {
  %2 = alloca ptr, align 8
  store ptr %0, ptr %2, align 8
  %3 = load ptr, ptr %2, align 8
  %4 = getelementptr inbounds %"struct.std::_Rb_tree_node_base", ptr %3, i32 0, i32 3
  %5 = load ptr, ptr %4, align 8
  ret ptr %5
}

; Function Attrs: noinline nounwind optnone uwtable
define linkonce_odr dso_local void @_ZNSt17_Rb_tree_iteratorISt4pairIKibEEC2EPSt18_Rb_tree_node_base(ptr noundef nonnull align 8 dereferenceable(8) %0, ptr noundef %1) unnamed_addr #6 comdat align 2 {
  %3 = alloca ptr, align 8
  %4 = alloca ptr, align 8
  store ptr %0, ptr %3, align 8
  store ptr %1, ptr %4, align 8
  %5 = load ptr, ptr %3, align 8
  %6 = getelementptr inbounds %"struct.std::_Rb_tree_iterator", ptr %5, i32 0, i32 0
  %7 = load ptr, ptr %4, align 8
  store ptr %7, ptr %6, align 8
  ret void
}

; Function Attrs: mustprogress noinline nounwind optnone uwtable
define linkonce_odr dso_local noundef nonnull align 4 dereferenceable(4) ptr @_ZNKSt10_Select1stISt4pairIKibEEclERKS2_(ptr noundef nonnull align 1 dereferenceable(1) %0, ptr noundef nonnull align 4 dereferenceable(5) %1) #8 comdat align 2 {
  %3 = alloca ptr, align 8
  %4 = alloca ptr, align 8
  store ptr %0, ptr %3, align 8
  store ptr %1, ptr %4, align 8
  %5 = load ptr, ptr %3, align 8
  %6 = load ptr, ptr %4, align 8
  %7 = getelementptr inbounds %"struct.std::pair", ptr %6, i32 0, i32 0
  ret ptr %7
}

; Function Attrs: mustprogress noinline nounwind optnone uwtable
define linkonce_odr dso_local noundef ptr @_ZNKSt13_Rb_tree_nodeISt4pairIKibEE9_M_valptrEv(ptr noundef nonnull align 8 dereferenceable(40) %0) #8 comdat align 2 {
  %2 = alloca ptr, align 8
  store ptr %0, ptr %2, align 8
  %3 = load ptr, ptr %2, align 8
  %4 = getelementptr inbounds %"struct.std::_Rb_tree_node", ptr %3, i32 0, i32 1
  %5 = call noundef ptr @_ZNK9__gnu_cxx16__aligned_membufISt4pairIKibEE6_M_ptrEv(ptr noundef nonnull align 4 dereferenceable(8) %4) #3
  ret ptr %5
}

; Function Attrs: mustprogress noinline nounwind optnone uwtable
define linkonce_odr dso_local noundef ptr @_ZNK9__gnu_cxx16__aligned_membufISt4pairIKibEE6_M_ptrEv(ptr noundef nonnull align 4 dereferenceable(8) %0) #8 comdat align 2 {
  %2 = alloca ptr, align 8
  store ptr %0, ptr %2, align 8
  %3 = load ptr, ptr %2, align 8
  %4 = call noundef ptr @_ZNK9__gnu_cxx16__aligned_membufISt4pairIKibEE7_M_addrEv(ptr noundef nonnull align 4 dereferenceable(8) %3) #3
  ret ptr %4
}

; Function Attrs: mustprogress noinline nounwind optnone uwtable
define linkonce_odr dso_local noundef ptr @_ZNK9__gnu_cxx16__aligned_membufISt4pairIKibEE7_M_addrEv(ptr noundef nonnull align 4 dereferenceable(8) %0) #8 comdat align 2 {
  %2 = alloca ptr, align 8
  store ptr %0, ptr %2, align 8
  %3 = load ptr, ptr %2, align 8
  %4 = getelementptr inbounds %"struct.__gnu_cxx::__aligned_membuf", ptr %3, i32 0, i32 0
  ret ptr %4
}

; Function Attrs: mustprogress noinline nounwind optnone uwtable
define linkonce_odr dso_local noundef ptr @_ZNKSt8_Rb_treeIiSt4pairIKibESt10_Select1stIS2_ESt4lessIiESaIS2_EE9_M_mbeginEv(ptr noundef nonnull align 8 dereferenceable(48) %0) #8 comdat align 2 {
  %2 = alloca ptr, align 8
  store ptr %0, ptr %2, align 8
  %3 = load ptr, ptr %2, align 8
  %4 = getelementptr inbounds %"class.std::_Rb_tree.1", ptr %3, i32 0, i32 0
  %5 = getelementptr inbounds i8, ptr %4, i64 8
  %6 = getelementptr inbounds %"struct.std::_Rb_tree_header", ptr %5, i32 0, i32 0
  %7 = getelementptr inbounds %"struct.std::_Rb_tree_node_base", ptr %6, i32 0, i32 1
  %8 = load ptr, ptr %7, align 8
  ret ptr %8
}

; Function Attrs: mustprogress noinline nounwind optnone uwtable
define linkonce_odr dso_local ptr @_ZNSt8_Rb_treeIiSt4pairIKibESt10_Select1stIS2_ESt4lessIiESaIS2_EE3endEv(ptr noundef nonnull align 8 dereferenceable(48) %0) #8 comdat align 2 {
  %2 = alloca %"struct.std::_Rb_tree_iterator", align 8
  %3 = alloca ptr, align 8
  store ptr %0, ptr %3, align 8
  %4 = load ptr, ptr %3, align 8
  %5 = getelementptr inbounds %"class.std::_Rb_tree.1", ptr %4, i32 0, i32 0
  %6 = getelementptr inbounds i8, ptr %5, i64 8
  %7 = getelementptr inbounds %"struct.std::_Rb_tree_header", ptr %6, i32 0, i32 0
  call void @_ZNSt17_Rb_tree_iteratorISt4pairIKibEEC2EPSt18_Rb_tree_node_base(ptr noundef nonnull align 8 dereferenceable(8) %2, ptr noundef %7) #3
  %8 = getelementptr inbounds %"struct.std::_Rb_tree_iterator", ptr %2, i32 0, i32 0
  %9 = load ptr, ptr %8, align 8
  ret ptr %9
}

; Function Attrs: mustprogress noinline nounwind optnone uwtable
define linkonce_odr dso_local void @_ZNKSt8_Rb_treeIiSt4pairIKibESt10_Select1stIS2_ESt4lessIiESaIS2_EE8key_compEv(ptr noundef nonnull align 8 dereferenceable(48) %0) #8 comdat align 2 {
  %2 = alloca ptr, align 8
  store ptr %0, ptr %2, align 8
  %3 = load ptr, ptr %2, align 8
  %4 = getelementptr inbounds %"class.std::_Rb_tree.1", ptr %3, i32 0, i32 0
  %5 = getelementptr inbounds %"struct.std::_Rb_tree_key_compare", ptr %4, i32 0, i32 0
  ret void
}

; Function Attrs: mustprogress noinline nounwind optnone uwtable
define linkonce_odr dso_local noundef ptr @_ZNSt13_Rb_tree_nodeISt4pairIKibEE9_M_valptrEv(ptr noundef nonnull align 8 dereferenceable(40) %0) #8 comdat align 2 {
  %2 = alloca ptr, align 8
  store ptr %0, ptr %2, align 8
  %3 = load ptr, ptr %2, align 8
  %4 = getelementptr inbounds %"struct.std::_Rb_tree_node", ptr %3, i32 0, i32 1
  %5 = call noundef ptr @_ZN9__gnu_cxx16__aligned_membufISt4pairIKibEE6_M_ptrEv(ptr noundef nonnull align 4 dereferenceable(8) %4) #3
  ret ptr %5
}

; Function Attrs: mustprogress noinline nounwind optnone uwtable
define linkonce_odr dso_local noundef ptr @_ZN9__gnu_cxx16__aligned_membufISt4pairIKibEE6_M_ptrEv(ptr noundef nonnull align 4 dereferenceable(8) %0) #8 comdat align 2 {
  %2 = alloca ptr, align 8
  store ptr %0, ptr %2, align 8
  %3 = load ptr, ptr %2, align 8
  %4 = call noundef ptr @_ZN9__gnu_cxx16__aligned_membufISt4pairIKibEE7_M_addrEv(ptr noundef nonnull align 4 dereferenceable(8) %3) #3
  ret ptr %4
}

; Function Attrs: mustprogress noinline nounwind optnone uwtable
define linkonce_odr dso_local noundef ptr @_ZN9__gnu_cxx16__aligned_membufISt4pairIKibEE7_M_addrEv(ptr noundef nonnull align 4 dereferenceable(8) %0) #8 comdat align 2 {
  %2 = alloca ptr, align 8
  store ptr %0, ptr %2, align 8
  %3 = load ptr, ptr %2, align 8
  %4 = getelementptr inbounds %"struct.__gnu_cxx::__aligned_membuf", ptr %3, i32 0, i32 0
  ret ptr %4
}

; Function Attrs: noinline optnone uwtable
define linkonce_odr dso_local void @_ZNSt8_Rb_treeIiSt4pairIKibESt10_Select1stIS2_ESt4lessIiESaIS2_EE10_Auto_nodeC2IJRKSt21piecewise_construct_tSt5tupleIJOiEESE_IJEEEEERS8_DpOT_(ptr noundef nonnull align 8 dereferenceable(16) %0, ptr noundef nonnull align 8 dereferenceable(48) %1, ptr noundef nonnull align 1 dereferenceable(1) %2, ptr noundef nonnull align 8 dereferenceable(8) %3, ptr noundef nonnull align 1 dereferenceable(1) %4) unnamed_addr #11 comdat align 2 {
  %6 = alloca ptr, align 8
  %7 = alloca ptr, align 8
  %8 = alloca ptr, align 8
  %9 = alloca ptr, align 8
  %10 = alloca ptr, align 8
  store ptr %0, ptr %6, align 8
  store ptr %1, ptr %7, align 8
  store ptr %2, ptr %8, align 8
  store ptr %3, ptr %9, align 8
  store ptr %4, ptr %10, align 8
  %11 = load ptr, ptr %6, align 8
  %12 = getelementptr inbounds %"struct.std::_Rb_tree<int, std::pair<const int, bool>, std::_Select1st<std::pair<const int, bool>>, std::less<int>>::_Auto_node", ptr %11, i32 0, i32 0
  %13 = load ptr, ptr %7, align 8
  store ptr %13, ptr %12, align 8
  %14 = getelementptr inbounds %"struct.std::_Rb_tree<int, std::pair<const int, bool>, std::_Select1st<std::pair<const int, bool>>, std::less<int>>::_Auto_node", ptr %11, i32 0, i32 1
  %15 = load ptr, ptr %7, align 8
  %16 = load ptr, ptr %8, align 8
  %17 = load ptr, ptr %9, align 8
  %18 = load ptr, ptr %10, align 8
  %19 = call noundef ptr @_ZNSt8_Rb_treeIiSt4pairIKibESt10_Select1stIS2_ESt4lessIiESaIS2_EE14_M_create_nodeIJRKSt21piecewise_construct_tSt5tupleIJOiEESD_IJEEEEEPSt13_Rb_tree_nodeIS2_EDpOT_(ptr noundef nonnull align 8 dereferenceable(48) %15, ptr noundef nonnull align 1 dereferenceable(1) %16, ptr noundef nonnull align 8 dereferenceable(8) %17, ptr noundef nonnull align 1 dereferenceable(1) %18)
  store ptr %19, ptr %14, align 8
  ret void
}

; Function Attrs: mustprogress noinline optnone uwtable
define linkonce_odr dso_local { ptr, ptr } @_ZNSt8_Rb_treeIiSt4pairIKibESt10_Select1stIS2_ESt4lessIiESaIS2_EE29_M_get_insert_hint_unique_posESt23_Rb_tree_const_iteratorIS2_ERS1_(ptr noundef nonnull align 8 dereferenceable(48) %0, ptr %1, ptr noundef nonnull align 4 dereferenceable(4) %2) #5 comdat align 2 {
  %4 = alloca %"struct.std::pair.23", align 8
  %5 = alloca %"struct.std::_Rb_tree_const_iterator", align 8
  %6 = alloca ptr, align 8
  %7 = alloca ptr, align 8
  %8 = alloca %"struct.std::_Rb_tree_iterator", align 8
  %9 = alloca ptr, align 8
  %10 = alloca %"struct.std::_Rb_tree_iterator", align 8
  %11 = alloca ptr, align 8
  %12 = alloca %"struct.std::_Rb_tree_iterator", align 8
  %13 = alloca ptr, align 8
  %14 = alloca ptr, align 8
  %15 = alloca ptr, align 8
  %16 = getelementptr inbounds %"struct.std::_Rb_tree_const_iterator", ptr %5, i32 0, i32 0
  store ptr %1, ptr %16, align 8
  store ptr %0, ptr %6, align 8
  store ptr %2, ptr %7, align 8
  %17 = load ptr, ptr %6, align 8
  %18 = call ptr @_ZNKSt23_Rb_tree_const_iteratorISt4pairIKibEE13_M_const_castEv(ptr noundef nonnull align 8 dereferenceable(8) %5) #3
  %19 = getelementptr inbounds %"struct.std::_Rb_tree_iterator", ptr %8, i32 0, i32 0
  store ptr %18, ptr %19, align 8
  %20 = getelementptr inbounds %"struct.std::_Rb_tree_iterator", ptr %8, i32 0, i32 0
  %21 = load ptr, ptr %20, align 8
  %22 = call noundef ptr @_ZNSt8_Rb_treeIiSt4pairIKibESt10_Select1stIS2_ESt4lessIiESaIS2_EE6_M_endEv(ptr noundef nonnull align 8 dereferenceable(48) %17) #3
  %23 = icmp eq ptr %21, %22
  br i1 %23, label %24, label %44

24:                                               ; preds = %3
  %25 = call noundef i64 @_ZNKSt8_Rb_treeIiSt4pairIKibESt10_Select1stIS2_ESt4lessIiESaIS2_EE4sizeEv(ptr noundef nonnull align 8 dereferenceable(48) %17) #3
  %26 = icmp ugt i64 %25, 0
  br i1 %26, label %27, label %37

27:                                               ; preds = %24
  %28 = getelementptr inbounds %"class.std::_Rb_tree.1", ptr %17, i32 0, i32 0
  %29 = getelementptr inbounds %"struct.std::_Rb_tree_key_compare", ptr %28, i32 0, i32 0
  %30 = call noundef nonnull align 8 dereferenceable(8) ptr @_ZNSt8_Rb_treeIiSt4pairIKibESt10_Select1stIS2_ESt4lessIiESaIS2_EE12_M_rightmostEv(ptr noundef nonnull align 8 dereferenceable(48) %17) #3
  %31 = load ptr, ptr %30, align 8
  %32 = call noundef nonnull align 4 dereferenceable(4) ptr @_ZNSt8_Rb_treeIiSt4pairIKibESt10_Select1stIS2_ESt4lessIiESaIS2_EE6_S_keyEPKSt18_Rb_tree_node_base(ptr noundef %31)
  %33 = load ptr, ptr %7, align 8
  %34 = call noundef zeroext i1 @_ZNKSt4lessIiEclERKiS2_(ptr noundef nonnull align 1 dereferenceable(1) %29, ptr noundef nonnull align 4 dereferenceable(4) %32, ptr noundef nonnull align 4 dereferenceable(4) %33)
  br i1 %34, label %35, label %37

35:                                               ; preds = %27
  store ptr null, ptr %9, align 8
  %36 = call noundef nonnull align 8 dereferenceable(8) ptr @_ZNSt8_Rb_treeIiSt4pairIKibESt10_Select1stIS2_ESt4lessIiESaIS2_EE12_M_rightmostEv(ptr noundef nonnull align 8 dereferenceable(48) %17) #3
  call void @_ZNSt4pairIPSt18_Rb_tree_node_baseS1_EC2IS1_S1_Lb1EEERKS1_S5_(ptr noundef nonnull align 8 dereferenceable(16) %4, ptr noundef nonnull align 8 dereferenceable(8) %9, ptr noundef nonnull align 8 dereferenceable(8) %36)
  br label %131

37:                                               ; preds = %27, %24
  %38 = load ptr, ptr %7, align 8
  %39 = call { ptr, ptr } @_ZNSt8_Rb_treeIiSt4pairIKibESt10_Select1stIS2_ESt4lessIiESaIS2_EE24_M_get_insert_unique_posERS1_(ptr noundef nonnull align 8 dereferenceable(48) %17, ptr noundef nonnull align 4 dereferenceable(4) %38)
  %40 = getelementptr inbounds { ptr, ptr }, ptr %4, i32 0, i32 0
  %41 = extractvalue { ptr, ptr } %39, 0
  store ptr %41, ptr %40, align 8
  %42 = getelementptr inbounds { ptr, ptr }, ptr %4, i32 0, i32 1
  %43 = extractvalue { ptr, ptr } %39, 1
  store ptr %43, ptr %42, align 8
  br label %131

44:                                               ; preds = %3
  %45 = getelementptr inbounds %"class.std::_Rb_tree.1", ptr %17, i32 0, i32 0
  %46 = getelementptr inbounds %"struct.std::_Rb_tree_key_compare", ptr %45, i32 0, i32 0
  %47 = load ptr, ptr %7, align 8
  %48 = getelementptr inbounds %"struct.std::_Rb_tree_iterator", ptr %8, i32 0, i32 0
  %49 = load ptr, ptr %48, align 8
  %50 = call noundef nonnull align 4 dereferenceable(4) ptr @_ZNSt8_Rb_treeIiSt4pairIKibESt10_Select1stIS2_ESt4lessIiESaIS2_EE6_S_keyEPKSt18_Rb_tree_node_base(ptr noundef %49)
  %51 = call noundef zeroext i1 @_ZNKSt4lessIiEclERKiS2_(ptr noundef nonnull align 1 dereferenceable(1) %46, ptr noundef nonnull align 4 dereferenceable(4) %47, ptr noundef nonnull align 4 dereferenceable(4) %50)
  br i1 %51, label %52, label %87

52:                                               ; preds = %44
  call void @llvm.memcpy.p0.p0.i64(ptr align 8 %10, ptr align 8 %8, i64 8, i1 false)
  %53 = getelementptr inbounds %"struct.std::_Rb_tree_iterator", ptr %8, i32 0, i32 0
  %54 = load ptr, ptr %53, align 8
  %55 = call noundef nonnull align 8 dereferenceable(8) ptr @_ZNSt8_Rb_treeIiSt4pairIKibESt10_Select1stIS2_ESt4lessIiESaIS2_EE11_M_leftmostEv(ptr noundef nonnull align 8 dereferenceable(48) %17) #3
  %56 = load ptr, ptr %55, align 8
  %57 = icmp eq ptr %54, %56
  br i1 %57, label %58, label %61

58:                                               ; preds = %52
  %59 = call noundef nonnull align 8 dereferenceable(8) ptr @_ZNSt8_Rb_treeIiSt4pairIKibESt10_Select1stIS2_ESt4lessIiESaIS2_EE11_M_leftmostEv(ptr noundef nonnull align 8 dereferenceable(48) %17) #3
  %60 = call noundef nonnull align 8 dereferenceable(8) ptr @_ZNSt8_Rb_treeIiSt4pairIKibESt10_Select1stIS2_ESt4lessIiESaIS2_EE11_M_leftmostEv(ptr noundef nonnull align 8 dereferenceable(48) %17) #3
  call void @_ZNSt4pairIPSt18_Rb_tree_node_baseS1_EC2IRS1_S4_Lb1EEEOT_OT0_(ptr noundef nonnull align 8 dereferenceable(16) %4, ptr noundef nonnull align 8 dereferenceable(8) %59, ptr noundef nonnull align 8 dereferenceable(8) %60)
  br label %131

61:                                               ; preds = %52
  %62 = getelementptr inbounds %"class.std::_Rb_tree.1", ptr %17, i32 0, i32 0
  %63 = getelementptr inbounds %"struct.std::_Rb_tree_key_compare", ptr %62, i32 0, i32 0
  %64 = call noundef nonnull align 8 dereferenceable(8) ptr @_ZNSt17_Rb_tree_iteratorISt4pairIKibEEmmEv(ptr noundef nonnull align 8 dereferenceable(8) %10) #3
  %65 = getelementptr inbounds %"struct.std::_Rb_tree_iterator", ptr %64, i32 0, i32 0
  %66 = load ptr, ptr %65, align 8
  %67 = call noundef nonnull align 4 dereferenceable(4) ptr @_ZNSt8_Rb_treeIiSt4pairIKibESt10_Select1stIS2_ESt4lessIiESaIS2_EE6_S_keyEPKSt18_Rb_tree_node_base(ptr noundef %66)
  %68 = load ptr, ptr %7, align 8
  %69 = call noundef zeroext i1 @_ZNKSt4lessIiEclERKiS2_(ptr noundef nonnull align 1 dereferenceable(1) %63, ptr noundef nonnull align 4 dereferenceable(4) %67, ptr noundef nonnull align 4 dereferenceable(4) %68)
  br i1 %69, label %70, label %80

70:                                               ; preds = %61
  %71 = getelementptr inbounds %"struct.std::_Rb_tree_iterator", ptr %10, i32 0, i32 0
  %72 = load ptr, ptr %71, align 8
  %73 = call noundef ptr @_ZNSt8_Rb_treeIiSt4pairIKibESt10_Select1stIS2_ESt4lessIiESaIS2_EE8_S_rightEPSt18_Rb_tree_node_base(ptr noundef %72) #3
  %74 = icmp eq ptr %73, null
  br i1 %74, label %75, label %77

75:                                               ; preds = %70
  store ptr null, ptr %11, align 8
  %76 = getelementptr inbounds %"struct.std::_Rb_tree_iterator", ptr %10, i32 0, i32 0
  call void @_ZNSt4pairIPSt18_Rb_tree_node_baseS1_EC2IS1_S1_Lb1EEERKS1_S5_(ptr noundef nonnull align 8 dereferenceable(16) %4, ptr noundef nonnull align 8 dereferenceable(8) %11, ptr noundef nonnull align 8 dereferenceable(8) %76)
  br label %131

77:                                               ; preds = %70
  %78 = getelementptr inbounds %"struct.std::_Rb_tree_iterator", ptr %8, i32 0, i32 0
  %79 = getelementptr inbounds %"struct.std::_Rb_tree_iterator", ptr %8, i32 0, i32 0
  call void @_ZNSt4pairIPSt18_Rb_tree_node_baseS1_EC2IRS1_S4_Lb1EEEOT_OT0_(ptr noundef nonnull align 8 dereferenceable(16) %4, ptr noundef nonnull align 8 dereferenceable(8) %78, ptr noundef nonnull align 8 dereferenceable(8) %79)
  br label %131

80:                                               ; preds = %61
  %81 = load ptr, ptr %7, align 8
  %82 = call { ptr, ptr } @_ZNSt8_Rb_treeIiSt4pairIKibESt10_Select1stIS2_ESt4lessIiESaIS2_EE24_M_get_insert_unique_posERS1_(ptr noundef nonnull align 8 dereferenceable(48) %17, ptr noundef nonnull align 4 dereferenceable(4) %81)
  %83 = getelementptr inbounds { ptr, ptr }, ptr %4, i32 0, i32 0
  %84 = extractvalue { ptr, ptr } %82, 0
  store ptr %84, ptr %83, align 8
  %85 = getelementptr inbounds { ptr, ptr }, ptr %4, i32 0, i32 1
  %86 = extractvalue { ptr, ptr } %82, 1
  store ptr %86, ptr %85, align 8
  br label %131

87:                                               ; preds = %44
  %88 = getelementptr inbounds %"class.std::_Rb_tree.1", ptr %17, i32 0, i32 0
  %89 = getelementptr inbounds %"struct.std::_Rb_tree_key_compare", ptr %88, i32 0, i32 0
  %90 = getelementptr inbounds %"struct.std::_Rb_tree_iterator", ptr %8, i32 0, i32 0
  %91 = load ptr, ptr %90, align 8
  %92 = call noundef nonnull align 4 dereferenceable(4) ptr @_ZNSt8_Rb_treeIiSt4pairIKibESt10_Select1stIS2_ESt4lessIiESaIS2_EE6_S_keyEPKSt18_Rb_tree_node_base(ptr noundef %91)
  %93 = load ptr, ptr %7, align 8
  %94 = call noundef zeroext i1 @_ZNKSt4lessIiEclERKiS2_(ptr noundef nonnull align 1 dereferenceable(1) %89, ptr noundef nonnull align 4 dereferenceable(4) %92, ptr noundef nonnull align 4 dereferenceable(4) %93)
  br i1 %94, label %95, label %129

95:                                               ; preds = %87
  call void @llvm.memcpy.p0.p0.i64(ptr align 8 %12, ptr align 8 %8, i64 8, i1 false)
  %96 = getelementptr inbounds %"struct.std::_Rb_tree_iterator", ptr %8, i32 0, i32 0
  %97 = load ptr, ptr %96, align 8
  %98 = call noundef nonnull align 8 dereferenceable(8) ptr @_ZNSt8_Rb_treeIiSt4pairIKibESt10_Select1stIS2_ESt4lessIiESaIS2_EE12_M_rightmostEv(ptr noundef nonnull align 8 dereferenceable(48) %17) #3
  %99 = load ptr, ptr %98, align 8
  %100 = icmp eq ptr %97, %99
  br i1 %100, label %101, label %103

101:                                              ; preds = %95
  store ptr null, ptr %13, align 8
  %102 = call noundef nonnull align 8 dereferenceable(8) ptr @_ZNSt8_Rb_treeIiSt4pairIKibESt10_Select1stIS2_ESt4lessIiESaIS2_EE12_M_rightmostEv(ptr noundef nonnull align 8 dereferenceable(48) %17) #3
  call void @_ZNSt4pairIPSt18_Rb_tree_node_baseS1_EC2IS1_S1_Lb1EEERKS1_S5_(ptr noundef nonnull align 8 dereferenceable(16) %4, ptr noundef nonnull align 8 dereferenceable(8) %13, ptr noundef nonnull align 8 dereferenceable(8) %102)
  br label %131

103:                                              ; preds = %95
  %104 = getelementptr inbounds %"class.std::_Rb_tree.1", ptr %17, i32 0, i32 0
  %105 = getelementptr inbounds %"struct.std::_Rb_tree_key_compare", ptr %104, i32 0, i32 0
  %106 = load ptr, ptr %7, align 8
  %107 = call noundef nonnull align 8 dereferenceable(8) ptr @_ZNSt17_Rb_tree_iteratorISt4pairIKibEEppEv(ptr noundef nonnull align 8 dereferenceable(8) %12) #3
  %108 = getelementptr inbounds %"struct.std::_Rb_tree_iterator", ptr %107, i32 0, i32 0
  %109 = load ptr, ptr %108, align 8
  %110 = call noundef nonnull align 4 dereferenceable(4) ptr @_ZNSt8_Rb_treeIiSt4pairIKibESt10_Select1stIS2_ESt4lessIiESaIS2_EE6_S_keyEPKSt18_Rb_tree_node_base(ptr noundef %109)
  %111 = call noundef zeroext i1 @_ZNKSt4lessIiEclERKiS2_(ptr noundef nonnull align 1 dereferenceable(1) %105, ptr noundef nonnull align 4 dereferenceable(4) %106, ptr noundef nonnull align 4 dereferenceable(4) %110)
  br i1 %111, label %112, label %122

112:                                              ; preds = %103
  %113 = getelementptr inbounds %"struct.std::_Rb_tree_iterator", ptr %8, i32 0, i32 0
  %114 = load ptr, ptr %113, align 8
  %115 = call noundef ptr @_ZNSt8_Rb_treeIiSt4pairIKibESt10_Select1stIS2_ESt4lessIiESaIS2_EE8_S_rightEPSt18_Rb_tree_node_base(ptr noundef %114) #3
  %116 = icmp eq ptr %115, null
  br i1 %116, label %117, label %119

117:                                              ; preds = %112
  store ptr null, ptr %14, align 8
  %118 = getelementptr inbounds %"struct.std::_Rb_tree_iterator", ptr %8, i32 0, i32 0
  call void @_ZNSt4pairIPSt18_Rb_tree_node_baseS1_EC2IS1_S1_Lb1EEERKS1_S5_(ptr noundef nonnull align 8 dereferenceable(16) %4, ptr noundef nonnull align 8 dereferenceable(8) %14, ptr noundef nonnull align 8 dereferenceable(8) %118)
  br label %131

119:                                              ; preds = %112
  %120 = getelementptr inbounds %"struct.std::_Rb_tree_iterator", ptr %12, i32 0, i32 0
  %121 = getelementptr inbounds %"struct.std::_Rb_tree_iterator", ptr %12, i32 0, i32 0
  call void @_ZNSt4pairIPSt18_Rb_tree_node_baseS1_EC2IRS1_S4_Lb1EEEOT_OT0_(ptr noundef nonnull align 8 dereferenceable(16) %4, ptr noundef nonnull align 8 dereferenceable(8) %120, ptr noundef nonnull align 8 dereferenceable(8) %121)
  br label %131

122:                                              ; preds = %103
  %123 = load ptr, ptr %7, align 8
  %124 = call { ptr, ptr } @_ZNSt8_Rb_treeIiSt4pairIKibESt10_Select1stIS2_ESt4lessIiESaIS2_EE24_M_get_insert_unique_posERS1_(ptr noundef nonnull align 8 dereferenceable(48) %17, ptr noundef nonnull align 4 dereferenceable(4) %123)
  %125 = getelementptr inbounds { ptr, ptr }, ptr %4, i32 0, i32 0
  %126 = extractvalue { ptr, ptr } %124, 0
  store ptr %126, ptr %125, align 8
  %127 = getelementptr inbounds { ptr, ptr }, ptr %4, i32 0, i32 1
  %128 = extractvalue { ptr, ptr } %124, 1
  store ptr %128, ptr %127, align 8
  br label %131

129:                                              ; preds = %87
  %130 = getelementptr inbounds %"struct.std::_Rb_tree_iterator", ptr %8, i32 0, i32 0
  store ptr null, ptr %15, align 8
  call void @_ZNSt4pairIPSt18_Rb_tree_node_baseS1_EC2IS1_S1_Lb1EEERKS1_S5_(ptr noundef nonnull align 8 dereferenceable(16) %4, ptr noundef nonnull align 8 dereferenceable(8) %130, ptr noundef nonnull align 8 dereferenceable(8) %15)
  br label %131

131:                                              ; preds = %129, %122, %119, %117, %101, %80, %77, %75, %58, %37, %35
  %132 = load { ptr, ptr }, ptr %4, align 8
  ret { ptr, ptr } %132
}

; Function Attrs: mustprogress noinline optnone uwtable
define linkonce_odr dso_local noundef nonnull align 4 dereferenceable(4) ptr @_ZNKSt8_Rb_treeIiSt4pairIKibESt10_Select1stIS2_ESt4lessIiESaIS2_EE10_Auto_node6_M_keyEv(ptr noundef nonnull align 8 dereferenceable(16) %0) #5 comdat align 2 {
  %2 = alloca ptr, align 8
  store ptr %0, ptr %2, align 8
  %3 = load ptr, ptr %2, align 8
  %4 = getelementptr inbounds %"struct.std::_Rb_tree<int, std::pair<const int, bool>, std::_Select1st<std::pair<const int, bool>>, std::less<int>>::_Auto_node", ptr %3, i32 0, i32 1
  %5 = load ptr, ptr %4, align 8
  %6 = call noundef nonnull align 4 dereferenceable(4) ptr @_ZNSt8_Rb_treeIiSt4pairIKibESt10_Select1stIS2_ESt4lessIiESaIS2_EE6_S_keyEPKSt13_Rb_tree_nodeIS2_E(ptr noundef %5)
  ret ptr %6
}

; Function Attrs: mustprogress noinline optnone uwtable
define linkonce_odr dso_local ptr @_ZNSt8_Rb_treeIiSt4pairIKibESt10_Select1stIS2_ESt4lessIiESaIS2_EE10_Auto_node9_M_insertES0_IPSt18_Rb_tree_node_baseSB_E(ptr noundef nonnull align 8 dereferenceable(16) %0, ptr %1, ptr %2) #5 comdat align 2 {
  %4 = alloca %"struct.std::_Rb_tree_iterator", align 8
  %5 = alloca %"struct.std::pair.23", align 8
  %6 = alloca ptr, align 8
  %7 = getelementptr inbounds { ptr, ptr }, ptr %5, i32 0, i32 0
  store ptr %1, ptr %7, align 8
  %8 = getelementptr inbounds { ptr, ptr }, ptr %5, i32 0, i32 1
  store ptr %2, ptr %8, align 8
  store ptr %0, ptr %6, align 8
  %9 = load ptr, ptr %6, align 8
  %10 = getelementptr inbounds %"struct.std::_Rb_tree<int, std::pair<const int, bool>, std::_Select1st<std::pair<const int, bool>>, std::less<int>>::_Auto_node", ptr %9, i32 0, i32 0
  %11 = load ptr, ptr %10, align 8
  %12 = getelementptr inbounds %"struct.std::pair.23", ptr %5, i32 0, i32 0
  %13 = load ptr, ptr %12, align 8
  %14 = getelementptr inbounds %"struct.std::pair.23", ptr %5, i32 0, i32 1
  %15 = load ptr, ptr %14, align 8
  %16 = getelementptr inbounds %"struct.std::_Rb_tree<int, std::pair<const int, bool>, std::_Select1st<std::pair<const int, bool>>, std::less<int>>::_Auto_node", ptr %9, i32 0, i32 1
  %17 = load ptr, ptr %16, align 8
  %18 = call ptr @_ZNSt8_Rb_treeIiSt4pairIKibESt10_Select1stIS2_ESt4lessIiESaIS2_EE14_M_insert_nodeEPSt18_Rb_tree_node_baseSA_PSt13_Rb_tree_nodeIS2_E(ptr noundef nonnull align 8 dereferenceable(48) %11, ptr noundef %13, ptr noundef %15, ptr noundef %17)
  %19 = getelementptr inbounds %"struct.std::_Rb_tree_iterator", ptr %4, i32 0, i32 0
  store ptr %18, ptr %19, align 8
  %20 = getelementptr inbounds %"struct.std::_Rb_tree<int, std::pair<const int, bool>, std::_Select1st<std::pair<const int, bool>>, std::less<int>>::_Auto_node", ptr %9, i32 0, i32 1
  store ptr null, ptr %20, align 8
  %21 = getelementptr inbounds %"struct.std::_Rb_tree_iterator", ptr %4, i32 0, i32 0
  %22 = load ptr, ptr %21, align 8
  ret ptr %22
}

; Function Attrs: noinline nounwind optnone uwtable
define linkonce_odr dso_local void @_ZNSt8_Rb_treeIiSt4pairIKibESt10_Select1stIS2_ESt4lessIiESaIS2_EE10_Auto_nodeD2Ev(ptr noundef nonnull align 8 dereferenceable(16) %0) unnamed_addr #6 comdat align 2 {
  %2 = alloca ptr, align 8
  store ptr %0, ptr %2, align 8
  %3 = load ptr, ptr %2, align 8
  %4 = getelementptr inbounds %"struct.std::_Rb_tree<int, std::pair<const int, bool>, std::_Select1st<std::pair<const int, bool>>, std::less<int>>::_Auto_node", ptr %3, i32 0, i32 1
  %5 = load ptr, ptr %4, align 8
  %6 = icmp ne ptr %5, null
  br i1 %6, label %7, label %12

7:                                                ; preds = %1
  %8 = getelementptr inbounds %"struct.std::_Rb_tree<int, std::pair<const int, bool>, std::_Select1st<std::pair<const int, bool>>, std::less<int>>::_Auto_node", ptr %3, i32 0, i32 0
  %9 = load ptr, ptr %8, align 8
  %10 = getelementptr inbounds %"struct.std::_Rb_tree<int, std::pair<const int, bool>, std::_Select1st<std::pair<const int, bool>>, std::less<int>>::_Auto_node", ptr %3, i32 0, i32 1
  %11 = load ptr, ptr %10, align 8
  call void @_ZNSt8_Rb_treeIiSt4pairIKibESt10_Select1stIS2_ESt4lessIiESaIS2_EE12_M_drop_nodeEPSt13_Rb_tree_nodeIS2_E(ptr noundef nonnull align 8 dereferenceable(48) %9, ptr noundef %11) #3
  br label %12

12:                                               ; preds = %7, %1
  ret void
}

; Function Attrs: mustprogress noinline optnone uwtable
define linkonce_odr dso_local noundef ptr @_ZNSt8_Rb_treeIiSt4pairIKibESt10_Select1stIS2_ESt4lessIiESaIS2_EE14_M_create_nodeIJRKSt21piecewise_construct_tSt5tupleIJOiEESD_IJEEEEEPSt13_Rb_tree_nodeIS2_EDpOT_(ptr noundef nonnull align 8 dereferenceable(48) %0, ptr noundef nonnull align 1 dereferenceable(1) %1, ptr noundef nonnull align 8 dereferenceable(8) %2, ptr noundef nonnull align 1 dereferenceable(1) %3) #5 comdat align 2 {
  %5 = alloca ptr, align 8
  %6 = alloca ptr, align 8
  %7 = alloca ptr, align 8
  %8 = alloca ptr, align 8
  %9 = alloca ptr, align 8
  store ptr %0, ptr %5, align 8
  store ptr %1, ptr %6, align 8
  store ptr %2, ptr %7, align 8
  store ptr %3, ptr %8, align 8
  %10 = load ptr, ptr %5, align 8
  %11 = call noundef ptr @_ZNSt8_Rb_treeIiSt4pairIKibESt10_Select1stIS2_ESt4lessIiESaIS2_EE11_M_get_nodeEv(ptr noundef nonnull align 8 dereferenceable(48) %10)
  store ptr %11, ptr %9, align 8
  %12 = load ptr, ptr %9, align 8
  %13 = load ptr, ptr %6, align 8
  %14 = load ptr, ptr %7, align 8
  %15 = load ptr, ptr %8, align 8
  call void @_ZNSt8_Rb_treeIiSt4pairIKibESt10_Select1stIS2_ESt4lessIiESaIS2_EE17_M_construct_nodeIJRKSt21piecewise_construct_tSt5tupleIJOiEESD_IJEEEEEvPSt13_Rb_tree_nodeIS2_EDpOT_(ptr noundef nonnull align 8 dereferenceable(48) %10, ptr noundef %12, ptr noundef nonnull align 1 dereferenceable(1) %13, ptr noundef nonnull align 8 dereferenceable(8) %14, ptr noundef nonnull align 1 dereferenceable(1) %15)
  %16 = load ptr, ptr %9, align 8
  ret ptr %16
}

; Function Attrs: mustprogress noinline optnone uwtable
define linkonce_odr dso_local noundef ptr @_ZNSt8_Rb_treeIiSt4pairIKibESt10_Select1stIS2_ESt4lessIiESaIS2_EE11_M_get_nodeEv(ptr noundef nonnull align 8 dereferenceable(48) %0) #5 comdat align 2 {
  %2 = alloca ptr, align 8
  store ptr %0, ptr %2, align 8
  %3 = load ptr, ptr %2, align 8
  %4 = call noundef nonnull align 1 dereferenceable(1) ptr @_ZNSt8_Rb_treeIiSt4pairIKibESt10_Select1stIS2_ESt4lessIiESaIS2_EE21_M_get_Node_allocatorEv(ptr noundef nonnull align 8 dereferenceable(48) %3) #3
  %5 = call noundef ptr @_ZNSt16allocator_traitsISaISt13_Rb_tree_nodeISt4pairIKibEEEE8allocateERS5_m(ptr noundef nonnull align 1 dereferenceable(1) %4, i64 noundef 1)
  ret ptr %5
}

; Function Attrs: mustprogress noinline optnone uwtable
define linkonce_odr dso_local void @_ZNSt8_Rb_treeIiSt4pairIKibESt10_Select1stIS2_ESt4lessIiESaIS2_EE17_M_construct_nodeIJRKSt21piecewise_construct_tSt5tupleIJOiEESD_IJEEEEEvPSt13_Rb_tree_nodeIS2_EDpOT_(ptr noundef nonnull align 8 dereferenceable(48) %0, ptr noundef %1, ptr noundef nonnull align 1 dereferenceable(1) %2, ptr noundef nonnull align 8 dereferenceable(8) %3, ptr noundef nonnull align 1 dereferenceable(1) %4) #5 comdat align 2 personality ptr @__gxx_personality_v0 {
  %6 = alloca ptr, align 8
  %7 = alloca ptr, align 8
  %8 = alloca ptr, align 8
  %9 = alloca ptr, align 8
  %10 = alloca ptr, align 8
  %11 = alloca ptr, align 8
  %12 = alloca i32, align 4
  store ptr %0, ptr %6, align 8
  store ptr %1, ptr %7, align 8
  store ptr %2, ptr %8, align 8
  store ptr %3, ptr %9, align 8
  store ptr %4, ptr %10, align 8
  %13 = load ptr, ptr %6, align 8
  %14 = load ptr, ptr %7, align 8
  %15 = call noundef nonnull align 1 dereferenceable(1) ptr @_ZNSt8_Rb_treeIiSt4pairIKibESt10_Select1stIS2_ESt4lessIiESaIS2_EE21_M_get_Node_allocatorEv(ptr noundef nonnull align 8 dereferenceable(48) %13) #3
  %16 = load ptr, ptr %7, align 8
  %17 = call noundef ptr @_ZNSt13_Rb_tree_nodeISt4pairIKibEE9_M_valptrEv(ptr noundef nonnull align 8 dereferenceable(40) %16)
  %18 = load ptr, ptr %8, align 8
  %19 = load ptr, ptr %9, align 8
  %20 = load ptr, ptr %10, align 8
  invoke void @_ZNSt16allocator_traitsISaISt13_Rb_tree_nodeISt4pairIKibEEEE9constructIS3_JRKSt21piecewise_construct_tSt5tupleIJOiEESB_IJEEEEEvRS5_PT_DpOT0_(ptr noundef nonnull align 1 dereferenceable(1) %15, ptr noundef %17, ptr noundef nonnull align 1 dereferenceable(1) %18, ptr noundef nonnull align 8 dereferenceable(8) %19, ptr noundef nonnull align 1 dereferenceable(1) %20)
          to label %21 unwind label %22

21:                                               ; preds = %5
  br label %36

22:                                               ; preds = %5
  %23 = landingpad { ptr, i32 }
          catch ptr null
  %24 = extractvalue { ptr, i32 } %23, 0
  store ptr %24, ptr %11, align 8
  %25 = extractvalue { ptr, i32 } %23, 1
  store i32 %25, ptr %12, align 4
  br label %26

26:                                               ; preds = %22
  %27 = load ptr, ptr %11, align 8
  %28 = call ptr @__cxa_begin_catch(ptr %27) #3
  %29 = load ptr, ptr %7, align 8
  %30 = load ptr, ptr %7, align 8
  call void @_ZNSt8_Rb_treeIiSt4pairIKibESt10_Select1stIS2_ESt4lessIiESaIS2_EE11_M_put_nodeEPSt13_Rb_tree_nodeIS2_E(ptr noundef nonnull align 8 dereferenceable(48) %13, ptr noundef %30) #3
  invoke void @__cxa_rethrow() #18
          to label %45 unwind label %31

31:                                               ; preds = %26
  %32 = landingpad { ptr, i32 }
          cleanup
  %33 = extractvalue { ptr, i32 } %32, 0
  store ptr %33, ptr %11, align 8
  %34 = extractvalue { ptr, i32 } %32, 1
  store i32 %34, ptr %12, align 4
  invoke void @__cxa_end_catch()
          to label %35 unwind label %42

35:                                               ; preds = %31
  br label %37

36:                                               ; preds = %21
  ret void

37:                                               ; preds = %35
  %38 = load ptr, ptr %11, align 8
  %39 = load i32, ptr %12, align 4
  %40 = insertvalue { ptr, i32 } undef, ptr %38, 0
  %41 = insertvalue { ptr, i32 } %40, i32 %39, 1
  resume { ptr, i32 } %41

42:                                               ; preds = %31
  %43 = landingpad { ptr, i32 }
          catch ptr null
  %44 = extractvalue { ptr, i32 } %43, 0
  call void @__clang_call_terminate(ptr %44) #17
  unreachable

45:                                               ; preds = %26
  unreachable
}

; Function Attrs: mustprogress noinline optnone uwtable
define linkonce_odr dso_local noundef ptr @_ZNSt16allocator_traitsISaISt13_Rb_tree_nodeISt4pairIKibEEEE8allocateERS5_m(ptr noundef nonnull align 1 dereferenceable(1) %0, i64 noundef %1) #5 comdat align 2 {
  %3 = alloca ptr, align 8
  %4 = alloca i64, align 8
  store ptr %0, ptr %3, align 8
  store i64 %1, ptr %4, align 8
  %5 = load ptr, ptr %3, align 8
  %6 = load i64, ptr %4, align 8
  %7 = call noundef ptr @_ZNSt15__new_allocatorISt13_Rb_tree_nodeISt4pairIKibEEE8allocateEmPKv(ptr noundef nonnull align 1 dereferenceable(1) %5, i64 noundef %6, ptr noundef null)
  ret ptr %7
}

; Function Attrs: mustprogress noinline nounwind optnone uwtable
define linkonce_odr dso_local noundef nonnull align 1 dereferenceable(1) ptr @_ZNSt8_Rb_treeIiSt4pairIKibESt10_Select1stIS2_ESt4lessIiESaIS2_EE21_M_get_Node_allocatorEv(ptr noundef nonnull align 8 dereferenceable(48) %0) #8 comdat align 2 {
  %2 = alloca ptr, align 8
  store ptr %0, ptr %2, align 8
  %3 = load ptr, ptr %2, align 8
  %4 = getelementptr inbounds %"class.std::_Rb_tree.1", ptr %3, i32 0, i32 0
  ret ptr %4
}

; Function Attrs: mustprogress noinline optnone uwtable
define linkonce_odr dso_local noundef ptr @_ZNSt15__new_allocatorISt13_Rb_tree_nodeISt4pairIKibEEE8allocateEmPKv(ptr noundef nonnull align 1 dereferenceable(1) %0, i64 noundef %1, ptr noundef %2) #5 comdat align 2 {
  %4 = alloca ptr, align 8
  %5 = alloca i64, align 8
  %6 = alloca ptr, align 8
  store ptr %0, ptr %4, align 8
  store i64 %1, ptr %5, align 8
  store ptr %2, ptr %6, align 8
  %7 = load ptr, ptr %4, align 8
  %8 = load i64, ptr %5, align 8
  %9 = call noundef i64 @_ZNKSt15__new_allocatorISt13_Rb_tree_nodeISt4pairIKibEEE11_M_max_sizeEv(ptr noundef nonnull align 1 dereferenceable(1) %7) #3
  %10 = icmp ugt i64 %8, %9
  br i1 %10, label %11, label %16

11:                                               ; preds = %3
  %12 = load i64, ptr %5, align 8
  %13 = icmp ugt i64 %12, 461168601842738790
  br i1 %13, label %14, label %15

14:                                               ; preds = %11
  call void @_ZSt28__throw_bad_array_new_lengthv() #18
  unreachable

15:                                               ; preds = %11
  call void @_ZSt17__throw_bad_allocv() #18
  unreachable

16:                                               ; preds = %3
  %17 = load i64, ptr %5, align 8
  %18 = mul i64 %17, 40
  %19 = call noalias noundef nonnull ptr @_Znwm(i64 noundef %18) #19
  ret ptr %19
}

; Function Attrs: mustprogress noinline nounwind optnone uwtable
define linkonce_odr dso_local noundef i64 @_ZNKSt15__new_allocatorISt13_Rb_tree_nodeISt4pairIKibEEE11_M_max_sizeEv(ptr noundef nonnull align 1 dereferenceable(1) %0) #8 comdat align 2 {
  %2 = alloca ptr, align 8
  store ptr %0, ptr %2, align 8
  %3 = load ptr, ptr %2, align 8
  ret i64 230584300921369395
}

; Function Attrs: noreturn
declare void @_ZSt28__throw_bad_array_new_lengthv() #12

; Function Attrs: noreturn
declare void @_ZSt17__throw_bad_allocv() #12

; Function Attrs: nobuiltin allocsize(0)
declare noundef nonnull ptr @_Znwm(i64 noundef) #13

; Function Attrs: mustprogress noinline optnone uwtable
define linkonce_odr dso_local void @_ZNSt16allocator_traitsISaISt13_Rb_tree_nodeISt4pairIKibEEEE9constructIS3_JRKSt21piecewise_construct_tSt5tupleIJOiEESB_IJEEEEEvRS5_PT_DpOT0_(ptr noundef nonnull align 1 dereferenceable(1) %0, ptr noundef %1, ptr noundef nonnull align 1 dereferenceable(1) %2, ptr noundef nonnull align 8 dereferenceable(8) %3, ptr noundef nonnull align 1 dereferenceable(1) %4) #5 comdat align 2 {
  %6 = alloca ptr, align 8
  %7 = alloca ptr, align 8
  %8 = alloca ptr, align 8
  %9 = alloca ptr, align 8
  %10 = alloca ptr, align 8
  store ptr %0, ptr %6, align 8
  store ptr %1, ptr %7, align 8
  store ptr %2, ptr %8, align 8
  store ptr %3, ptr %9, align 8
  store ptr %4, ptr %10, align 8
  %11 = load ptr, ptr %6, align 8
  %12 = load ptr, ptr %7, align 8
  %13 = load ptr, ptr %8, align 8
  %14 = load ptr, ptr %9, align 8
  %15 = load ptr, ptr %10, align 8
  call void @_ZNSt15__new_allocatorISt13_Rb_tree_nodeISt4pairIKibEEE9constructIS3_JRKSt21piecewise_construct_tSt5tupleIJOiEESA_IJEEEEEvPT_DpOT0_(ptr noundef nonnull align 1 dereferenceable(1) %11, ptr noundef %12, ptr noundef nonnull align 1 dereferenceable(1) %13, ptr noundef nonnull align 8 dereferenceable(8) %14, ptr noundef nonnull align 1 dereferenceable(1) %15)
  ret void
}

; Function Attrs: mustprogress noinline nounwind optnone uwtable
define linkonce_odr dso_local void @_ZNSt8_Rb_treeIiSt4pairIKibESt10_Select1stIS2_ESt4lessIiESaIS2_EE11_M_put_nodeEPSt13_Rb_tree_nodeIS2_E(ptr noundef nonnull align 8 dereferenceable(48) %0, ptr noundef %1) #8 comdat align 2 personality ptr @__gxx_personality_v0 {
  %3 = alloca ptr, align 8
  %4 = alloca ptr, align 8
  store ptr %0, ptr %3, align 8
  store ptr %1, ptr %4, align 8
  %5 = load ptr, ptr %3, align 8
  %6 = call noundef nonnull align 1 dereferenceable(1) ptr @_ZNSt8_Rb_treeIiSt4pairIKibESt10_Select1stIS2_ESt4lessIiESaIS2_EE21_M_get_Node_allocatorEv(ptr noundef nonnull align 8 dereferenceable(48) %5) #3
  %7 = load ptr, ptr %4, align 8
  invoke void @_ZNSt16allocator_traitsISaISt13_Rb_tree_nodeISt4pairIKibEEEE10deallocateERS5_PS4_m(ptr noundef nonnull align 1 dereferenceable(1) %6, ptr noundef %7, i64 noundef 1)
          to label %8 unwind label %9

8:                                                ; preds = %2
  ret void

9:                                                ; preds = %2
  %10 = landingpad { ptr, i32 }
          catch ptr null
  %11 = extractvalue { ptr, i32 } %10, 0
  call void @__clang_call_terminate(ptr %11) #17
  unreachable
}

declare void @__cxa_rethrow()

declare void @__cxa_end_catch()

; Function Attrs: mustprogress noinline optnone uwtable
define linkonce_odr dso_local void @_ZNSt15__new_allocatorISt13_Rb_tree_nodeISt4pairIKibEEE9constructIS3_JRKSt21piecewise_construct_tSt5tupleIJOiEESA_IJEEEEEvPT_DpOT0_(ptr noundef nonnull align 1 dereferenceable(1) %0, ptr noundef %1, ptr noundef nonnull align 1 dereferenceable(1) %2, ptr noundef nonnull align 8 dereferenceable(8) %3, ptr noundef nonnull align 1 dereferenceable(1) %4) #5 comdat align 2 {
  %6 = alloca ptr, align 8
  %7 = alloca ptr, align 8
  %8 = alloca ptr, align 8
  %9 = alloca ptr, align 8
  %10 = alloca ptr, align 8
  %11 = alloca %"struct.std::piecewise_construct_t", align 1
  %12 = alloca %"class.std::tuple", align 8
  %13 = alloca %"class.std::tuple.22", align 1
  store ptr %0, ptr %6, align 8
  store ptr %1, ptr %7, align 8
  store ptr %2, ptr %8, align 8
  store ptr %3, ptr %9, align 8
  store ptr %4, ptr %10, align 8
  %14 = load ptr, ptr %6, align 8
  %15 = load ptr, ptr %7, align 8
  %16 = load ptr, ptr %8, align 8
  %17 = load ptr, ptr %9, align 8
  call void @_ZNSt5tupleIJOiEEC2EOS1_(ptr noundef nonnull align 8 dereferenceable(8) %12, ptr noundef nonnull align 8 dereferenceable(8) %17) #3
  %18 = load ptr, ptr %10, align 8
  call void @_ZNSt4pairIKibEC2IJOiEJEEESt21piecewise_construct_tSt5tupleIJDpT_EES5_IJDpT0_EE(ptr noundef nonnull align 4 dereferenceable(5) %15, ptr noundef %12)
  ret void
}

; Function Attrs: noinline nounwind optnone uwtable
define linkonce_odr dso_local void @_ZNSt5tupleIJOiEEC2EOS1_(ptr noundef nonnull align 8 dereferenceable(8) %0, ptr noundef nonnull align 8 dereferenceable(8) %1) unnamed_addr #6 comdat align 2 {
  %3 = alloca ptr, align 8
  %4 = alloca ptr, align 8
  store ptr %0, ptr %3, align 8
  store ptr %1, ptr %4, align 8
  %5 = load ptr, ptr %3, align 8
  %6 = load ptr, ptr %4, align 8
  call void @_ZNSt11_Tuple_implILm0EJOiEEC2EOS1_(ptr noundef nonnull align 8 dereferenceable(8) %5, ptr noundef nonnull align 8 dereferenceable(8) %6) #3
  ret void
}

; Function Attrs: noinline optnone uwtable
define linkonce_odr dso_local void @_ZNSt4pairIKibEC2IJOiEJEEESt21piecewise_construct_tSt5tupleIJDpT_EES5_IJDpT0_EE(ptr noundef nonnull align 4 dereferenceable(5) %0, ptr noundef %1) unnamed_addr #11 comdat align 2 {
  %3 = alloca %"struct.std::piecewise_construct_t", align 1
  %4 = alloca %"class.std::tuple.22", align 1
  %5 = alloca ptr, align 8
  %6 = alloca %"struct.std::_Index_tuple", align 1
  %7 = alloca %"struct.std::_Index_tuple.26", align 1
  store ptr %0, ptr %5, align 8
  %8 = load ptr, ptr %5, align 8
  call void @_ZNSt4pairIKibEC2IJOiEJLm0EEJEJEEERSt5tupleIJDpT_EERS4_IJDpT1_EESt12_Index_tupleIJXspT0_EEESD_IJXspT2_EEE(ptr noundef nonnull align 4 dereferenceable(5) %8, ptr noundef nonnull align 8 dereferenceable(8) %1, ptr noundef nonnull align 1 dereferenceable(1) %4)
  ret void
}

; Function Attrs: noinline nounwind optnone uwtable
define linkonce_odr dso_local void @_ZNSt11_Tuple_implILm0EJOiEEC2EOS1_(ptr noundef nonnull align 8 dereferenceable(8) %0, ptr noundef nonnull align 8 dereferenceable(8) %1) unnamed_addr #6 comdat align 2 {
  %3 = alloca ptr, align 8
  %4 = alloca ptr, align 8
  store ptr %0, ptr %3, align 8
  store ptr %1, ptr %4, align 8
  %5 = load ptr, ptr %3, align 8
  %6 = load ptr, ptr %4, align 8
  call void @llvm.memcpy.p0.p0.i64(ptr align 8 %5, ptr align 8 %6, i64 8, i1 false)
  ret void
}

; Function Attrs: noinline nounwind optnone uwtable
define linkonce_odr dso_local void @_ZNSt4pairIKibEC2IJOiEJLm0EEJEJEEERSt5tupleIJDpT_EERS4_IJDpT1_EESt12_Index_tupleIJXspT0_EEESD_IJXspT2_EEE(ptr noundef nonnull align 4 dereferenceable(5) %0, ptr noundef nonnull align 8 dereferenceable(8) %1, ptr noundef nonnull align 1 dereferenceable(1) %2) unnamed_addr #6 comdat align 2 {
  %4 = alloca %"struct.std::_Index_tuple", align 1
