; ModuleID = './divide_and_conquer/strassen_matrix_multiplication.cpp'
source_filename = "./divide_and_conquer/strassen_matrix_multiplication.cpp"
target datalayout = "e-m:e-p270:32:32-p271:32:32-p272:64:64-i64:64-f80:128-n8:16:32:64-S128"
target triple = "x86_64-pc-linux-gnu"

%"class.std::ios_base::Init" = type { i8 }
%"class.std::basic_ostream" = type { ptr, %"class.std::basic_ios" }
%"class.std::basic_ios" = type { %"class.std::ios_base", ptr, i8, i8, ptr, ptr, ptr, ptr }
%"class.std::ios_base" = type { ptr, i64, i64, i32, i32, i32, ptr, %"struct.std::ios_base::_Words", [8 x %"struct.std::ios_base::_Words"], i32, ptr, %"class.std::locale" }
%"struct.std::ios_base::_Words" = type { ptr, i64 }
%"class.std::locale" = type { ptr }
%"class.divide_and_conquer::strassens_multiplication::Matrix" = type { %"class.std::vector" }
%"class.std::vector" = type { %"struct.std::_Vector_base" }
%"struct.std::_Vector_base" = type { %"struct.std::_Vector_base<std::vector<unsigned long>, std::allocator<std::vector<unsigned long>>>::_Vector_impl" }
%"struct.std::_Vector_base<std::vector<unsigned long>, std::allocator<std::vector<unsigned long>>>::_Vector_impl" = type { %"struct.std::_Vector_base<std::vector<unsigned long>, std::allocator<std::vector<unsigned long>>>::_Vector_impl_data" }
%"struct.std::_Vector_base<std::vector<unsigned long>, std::allocator<std::vector<unsigned long>>>::_Vector_impl_data" = type { ptr, ptr, ptr }
%"class.std::chrono::time_point" = type { %"class.std::chrono::duration" }
%"class.std::chrono::duration" = type { i64 }
%"class.std::chrono::duration.5" = type { double }
%"class.std::vector.0" = type { %"struct.std::_Vector_base.1" }
%"struct.std::_Vector_base.1" = type { %"struct.std::_Vector_base<unsigned long, std::allocator<unsigned long>>::_Vector_impl" }
%"struct.std::_Vector_base<unsigned long, std::allocator<unsigned long>>::_Vector_impl" = type { %"struct.std::_Vector_base<unsigned long, std::allocator<unsigned long>>::_Vector_impl_data" }
%"struct.std::_Vector_base<unsigned long, std::allocator<unsigned long>>::_Vector_impl_data" = type { ptr, ptr, ptr }
%"class.std::allocator.2" = type { i8 }
%"struct.std::pair" = type { i64, i64 }
%"class.__gnu_cxx::__normal_iterator" = type { ptr }
%"struct.std::integral_constant" = type { i8 }
%"struct.std::random_access_iterator_tag" = type { i8 }
%"class.__gnu_cxx::__normal_iterator.6" = type { ptr }

$_ZN18divide_and_conquer24strassens_multiplication6MatrixImbEC2ImmEET_S4_ = comdat any

$_ZN18divide_and_conquer24strassens_multiplication6MatrixImbEixImmEERSt6vectorImSaImEET_ = comdat any

$_ZNSt6vectorImSaImEEixEm = comdat any

$_ZNK18divide_and_conquer24strassens_multiplication6MatrixImbEmlImbEES2_RKNS1_IT_NSt9enable_ifIXoosr3std11is_integralIS4_EE5valuesr3std17is_floating_pointIS4_EE5valueEbE4typeEEE = comdat any

$_ZNSt6chronomiINS_3_V212system_clockENS_8durationIlSt5ratioILl1ELl1000000000EEEES6_EENSt11common_typeIJT0_T1_EE4typeERKNS_10time_pointIT_S8_EERKNSC_ISD_S9_EE = comdat any

$_ZNSt6chrono8durationIdSt5ratioILl1ELl1EEEC2IlS1_ILl1ELl1000000000EEvEERKNS0_IT_T0_EE = comdat any

$_ZNKSt6chrono8durationIdSt5ratioILl1ELl1EEE5countEv = comdat any

$_ZNK18divide_and_conquer24strassens_multiplication6MatrixImbE20naive_multiplicationImbEES2_RKNS1_IT_NSt9enable_ifIXoosr3std11is_integralIS4_EE5valuesr3std17is_floating_pointIS4_EE5valueEbE4typeEEE = comdat any

$_ZNK18divide_and_conquer24strassens_multiplication6MatrixImbEeqERKS2_ = comdat any

$_ZN18divide_and_conquer24strassens_multiplication6MatrixImbED2Ev = comdat any

$_ZNSt6vectorIS_ImSaImEESaIS1_EEC2Ev = comdat any

$_ZNSt6vectorIS_ImSaImEESaIS1_EE12emplace_backIJS1_EEEvDpOT_ = comdat any

$_ZNSaImEC2Ev = comdat any

$_ZNSt6vectorImSaImEEC2EmRKmRKS0_ = comdat any

$_ZNSt6vectorImSaImEED2Ev = comdat any

$_ZNSaImED2Ev = comdat any

$_ZNSt6vectorIS_ImSaImEESaIS1_EED2Ev = comdat any

$_ZNSt12_Vector_baseISt6vectorImSaImEESaIS2_EEC2Ev = comdat any

$_ZNSt12_Vector_baseISt6vectorImSaImEESaIS2_EE12_Vector_implC2Ev = comdat any

$_ZNSaISt6vectorImSaImEEEC2Ev = comdat any

$_ZNSt12_Vector_baseISt6vectorImSaImEESaIS2_EE17_Vector_impl_dataC2Ev = comdat any

$_ZNSt15__new_allocatorISt6vectorImSaImEEEC2Ev = comdat any

$_ZNSt16allocator_traitsISaISt6vectorImSaImEEEE9constructIS2_JS2_EEEvRS3_PT_DpOT0_ = comdat any

$_ZNSt6vectorIS_ImSaImEESaIS1_EE17_M_realloc_insertIJS1_EEEvN9__gnu_cxx17__normal_iteratorIPS1_S3_EEDpOT_ = comdat any

$_ZNSt6vectorIS_ImSaImEESaIS1_EE3endEv = comdat any

$_ZNSt15__new_allocatorISt6vectorImSaImEEE9constructIS2_JS2_EEEvPT_DpOT0_ = comdat any

$_ZNSt6vectorImSaImEEC2EOS1_ = comdat any

$_ZNSt12_Vector_baseImSaImEEC2EOS1_ = comdat any

$_ZNSt12_Vector_baseImSaImEE12_Vector_implC2EOS2_ = comdat any

$_ZNSt12_Vector_baseImSaImEE17_Vector_impl_dataC2EOS2_ = comdat any

$_ZNSt15__new_allocatorImEC2ERKS0_ = comdat any

$_ZNKSt6vectorIS_ImSaImEESaIS1_EE12_M_check_lenEmPKc = comdat any

$_ZN9__gnu_cxxmiIPSt6vectorImSaImEES1_IS3_SaIS3_EEEENS_17__normal_iteratorIT_T0_E15difference_typeERKSA_SD_ = comdat any

$_ZNSt6vectorIS_ImSaImEESaIS1_EE5beginEv = comdat any

$_ZNSt12_Vector_baseISt6vectorImSaImEESaIS2_EE11_M_allocateEm = comdat any

$_ZNSt6vectorIS_ImSaImEESaIS1_EE11_S_relocateEPS1_S4_S4_RS2_ = comdat any

$_ZNK9__gnu_cxx17__normal_iteratorIPSt6vectorImSaImEES1_IS3_SaIS3_EEE4baseEv = comdat any

$_ZNSt12_Vector_baseISt6vectorImSaImEESaIS2_EE19_M_get_Tp_allocatorEv = comdat any

$_ZNSt12_Vector_baseISt6vectorImSaImEESaIS2_EE13_M_deallocateEPS2_m = comdat any

$_ZNKSt6vectorIS_ImSaImEESaIS1_EE8max_sizeEv = comdat any

$_ZNKSt6vectorIS_ImSaImEESaIS1_EE4sizeEv = comdat any

$_ZSt3maxImERKT_S2_S2_ = comdat any

$_ZNSt6vectorIS_ImSaImEESaIS1_EE11_S_max_sizeERKS2_ = comdat any

$_ZNKSt12_Vector_baseISt6vectorImSaImEESaIS2_EE19_M_get_Tp_allocatorEv = comdat any

$_ZNSt16allocator_traitsISaISt6vectorImSaImEEEE8max_sizeERKS3_ = comdat any

$_ZSt3minImERKT_S2_S2_ = comdat any

$__clang_call_terminate = comdat any

$_ZNKSt15__new_allocatorISt6vectorImSaImEEE8max_sizeEv = comdat any

$_ZNKSt15__new_allocatorISt6vectorImSaImEEE11_M_max_sizeEv = comdat any

$_ZN9__gnu_cxx17__normal_iteratorIPSt6vectorImSaImEES1_IS3_SaIS3_EEEC2ERKS4_ = comdat any

$_ZNSt16allocator_traitsISaISt6vectorImSaImEEEE8allocateERS3_m = comdat any

$_ZNSt15__new_allocatorISt6vectorImSaImEEE8allocateEmPKv = comdat any

$_ZNSt6vectorIS_ImSaImEESaIS1_EE14_S_do_relocateEPS1_S4_S4_RS2_St17integral_constantIbLb1EE = comdat any

$_ZSt12__relocate_aIPSt6vectorImSaImEES3_SaIS2_EET0_T_S6_S5_RT1_ = comdat any

$_ZSt14__relocate_a_1IPSt6vectorImSaImEES3_SaIS2_EET0_T_S6_S5_RT1_ = comdat any

$_ZSt12__niter_baseIPSt6vectorImSaImEEET_S4_ = comdat any

$_ZSt19__relocate_object_aISt6vectorImSaImEES2_SaIS2_EEvPT_PT0_RT1_ = comdat any

$_ZNSt16allocator_traitsISaISt6vectorImSaImEEEE7destroyIS2_EEvRS3_PT_ = comdat any

$_ZNSt15__new_allocatorISt6vectorImSaImEEE7destroyIS2_EEvPT_ = comdat any

$_ZNSt16allocator_traitsISaISt6vectorImSaImEEEE10deallocateERS3_PS2_m = comdat any

$_ZNSt15__new_allocatorISt6vectorImSaImEEE10deallocateEPS2_m = comdat any

$_ZNSt15__new_allocatorImEC2Ev = comdat any

$_ZNSt6vectorImSaImEE17_S_check_init_lenEmRKS0_ = comdat any

$_ZNSt12_Vector_baseImSaImEEC2EmRKS0_ = comdat any

$_ZNSt6vectorImSaImEE18_M_fill_initializeEmRKm = comdat any

$_ZNSt12_Vector_baseImSaImEED2Ev = comdat any

$_ZNSt6vectorImSaImEE11_S_max_sizeERKS0_ = comdat any

$_ZNSaImEC2ERKS_ = comdat any

$_ZNSt16allocator_traitsISaImEE8max_sizeERKS0_ = comdat any

$_ZNKSt15__new_allocatorImE8max_sizeEv = comdat any

$_ZNKSt15__new_allocatorImE11_M_max_sizeEv = comdat any

$_ZNSt12_Vector_baseImSaImEE12_Vector_implC2ERKS0_ = comdat any

$_ZNSt12_Vector_baseImSaImEE17_M_create_storageEm = comdat any

$_ZNSt12_Vector_baseImSaImEE12_Vector_implD2Ev = comdat any

$_ZNSt12_Vector_baseImSaImEE17_Vector_impl_dataC2Ev = comdat any

$_ZNSt12_Vector_baseImSaImEE11_M_allocateEm = comdat any

$_ZNSt16allocator_traitsISaImEE8allocateERS0_m = comdat any

$_ZNSt15__new_allocatorImE8allocateEmPKv = comdat any

$_ZNSt15__new_allocatorImED2Ev = comdat any

$_ZSt24__uninitialized_fill_n_aIPmmmmET_S1_T0_RKT1_RSaIT2_E = comdat any

$_ZNSt12_Vector_baseImSaImEE19_M_get_Tp_allocatorEv = comdat any

$_ZSt20uninitialized_fill_nIPmmmET_S1_T0_RKT1_ = comdat any

$_ZNSt22__uninitialized_fill_nILb1EE15__uninit_fill_nIPmmmEET_S3_T0_RKT1_ = comdat any

$_ZSt6fill_nIPmmmET_S1_T0_RKT1_ = comdat any

$_ZSt10__fill_n_aIPmmmET_S1_T0_RKT1_St26random_access_iterator_tag = comdat any

$_ZSt17__size_to_integerm = comdat any

$_ZSt19__iterator_categoryIPmENSt15iterator_traitsIT_E17iterator_categoryERKS2_ = comdat any

$_ZSt8__fill_aIPmmEvT_S1_RKT0_ = comdat any

$_ZSt9__fill_a1IPmmEN9__gnu_cxx11__enable_ifIXsr11__is_scalarIT0_EE7__valueEvE6__typeET_S6_RKS3_ = comdat any

$_ZNSt12_Vector_baseImSaImEE13_M_deallocateEPmm = comdat any

$_ZNSt16allocator_traitsISaImEE10deallocateERS0_Pmm = comdat any

$_ZNSt15__new_allocatorImE10deallocateEPmm = comdat any

$_ZSt8_DestroyIPmmEvT_S1_RSaIT0_E = comdat any

$_ZSt8_DestroyIPmEvT_S1_ = comdat any

$_ZNSt12_Destroy_auxILb1EE9__destroyIPmEEvT_S3_ = comdat any

$_ZSt8_DestroyIPSt6vectorImSaImEES2_EvT_S4_RSaIT0_E = comdat any

$_ZNSt12_Vector_baseISt6vectorImSaImEESaIS2_EED2Ev = comdat any

$_ZSt8_DestroyIPSt6vectorImSaImEEEvT_S4_ = comdat any

$_ZNSt12_Destroy_auxILb0EE9__destroyIPSt6vectorImSaImEEEEvT_S6_ = comdat any

$_ZSt8_DestroyISt6vectorImSaImEEEvPT_ = comdat any

$_ZNSt12_Vector_baseISt6vectorImSaImEESaIS2_EE12_Vector_implD2Ev = comdat any

$_ZNSaISt6vectorImSaImEEED2Ev = comdat any

$_ZNSt15__new_allocatorISt6vectorImSaImEEED2Ev = comdat any

$_ZNSt6vectorIS_ImSaImEESaIS1_EEixEm = comdat any

$_ZNKSt6vectorIS_ImSaImEESaIS1_EEixEm = comdat any

$_ZNKSt6vectorImSaImEE4sizeEv = comdat any

$_ZNK18divide_and_conquer24strassens_multiplication6MatrixImbE4sizeEv = comdat any

$_ZNK18divide_and_conquer24strassens_multiplication6MatrixImbE24strassens_multiplicationImbEES2_RKNS1_IT_NSt9enable_ifIXoosr3std11is_integralIS4_EE5valuesr3std17is_floating_pointIS4_EE5valueEbE4typeEEE = comdat any

$_ZNSt4pairImmEC2ImmLb1EEEOT_OT0_ = comdat any

$_ZNK18divide_and_conquer24strassens_multiplication6MatrixImbE5sliceEmmmm = comdat any

$_ZNK18divide_and_conquer24strassens_multiplication6MatrixImbEmiImbEES2_RKNS1_IT_NSt9enable_ifIXoosr3std11is_integralIS4_EE5valuesr3std17is_floating_pointIS4_EE5valueEbE4typeEEE = comdat any

$_ZNK18divide_and_conquer24strassens_multiplication6MatrixImbEplImbEES2_RKNS1_IT_NSt9enable_ifIXoosr3std11is_integralIS4_EE5valuesr3std17is_floating_pointIS4_EE5valueEbE4typeEEE = comdat any

$_ZN18divide_and_conquer24strassens_multiplication6MatrixImbE7h_stackImmEEvRKNS1_IT_NSt9enable_ifIXoosr3std11is_integralIS4_EE5valuesr3std17is_floating_pointIS4_EE5valueEbE4typeEEE = comdat any

$_ZN18divide_and_conquer24strassens_multiplication6MatrixImbE7v_stackImmEEvRKNS1_IT_NSt9enable_ifIXoosr3std11is_integralIS4_EE5valuesr3std17is_floating_pointIS4_EE5valueEbE4typeEEE = comdat any

$_ZNKSt6vectorImSaImEEixEm = comdat any

$_ZSteqImmEbRKSt4pairIT_T0_ES5_ = comdat any

$_ZNSt6vectorImSaImEE9push_backERKm = comdat any

$_ZNSt16allocator_traitsISaImEE9constructImJRKmEEEvRS0_PT_DpOT0_ = comdat any

$_ZNSt6vectorImSaImEE17_M_realloc_insertIJRKmEEEvN9__gnu_cxx17__normal_iteratorIPmS1_EEDpOT_ = comdat any

$_ZNSt6vectorImSaImEE3endEv = comdat any

$_ZNSt15__new_allocatorImE9constructImJRKmEEEvPT_DpOT0_ = comdat any

$_ZNKSt6vectorImSaImEE12_M_check_lenEmPKc = comdat any

$_ZN9__gnu_cxxmiIPmSt6vectorImSaImEEEENS_17__normal_iteratorIT_T0_E15difference_typeERKS8_SB_ = comdat any

$_ZNSt6vectorImSaImEE5beginEv = comdat any

$_ZNSt6vectorImSaImEE11_S_relocateEPmS2_S2_RS0_ = comdat any

$_ZNK9__gnu_cxx17__normal_iteratorIPmSt6vectorImSaImEEE4baseEv = comdat any

$_ZNKSt6vectorImSaImEE8max_sizeEv = comdat any

$_ZNKSt12_Vector_baseImSaImEE19_M_get_Tp_allocatorEv = comdat any

$_ZN9__gnu_cxx17__normal_iteratorIPmSt6vectorImSaImEEEC2ERKS1_ = comdat any

$_ZNSt6vectorImSaImEE14_S_do_relocateEPmS2_S2_RS0_St17integral_constantIbLb1EE = comdat any

$_ZSt12__relocate_aIPmS0_SaImEET0_T_S3_S2_RT1_ = comdat any

$_ZSt14__relocate_a_1ImmENSt9enable_ifIXsr3std24__is_bitwise_relocatableIT_EE5valueEPS1_E4typeES2_S2_S2_RSaIT0_E = comdat any

$_ZSt12__niter_baseIPmET_S1_ = comdat any

$_ZNSt6vectorImSaImEEC2EmRKS0_ = comdat any

$_ZNSt6vectorIS_ImSaImEESaIS1_EE4backEv = comdat any

$_ZNSt6vectorImSaImEE21_M_default_initializeEm = comdat any

$_ZSt27__uninitialized_default_n_aIPmmmET_S1_T0_RSaIT1_E = comdat any

$_ZSt25__uninitialized_default_nIPmmET_S1_T0_ = comdat any

$_ZNSt27__uninitialized_default_n_1ILb1EE18__uninit_default_nIPmmEET_S3_T0_ = comdat any

$_ZSt10_ConstructImJEEvPT_DpOT0_ = comdat any

$_ZNK9__gnu_cxx17__normal_iteratorIPSt6vectorImSaImEES1_IS3_SaIS3_EEEmiEl = comdat any

$_ZNK9__gnu_cxx17__normal_iteratorIPSt6vectorImSaImEES1_IS3_SaIS3_EEEdeEv = comdat any

$_ZNSt6chronomiIlSt5ratioILl1ELl1000000000EElS2_EENSt11common_typeIJNS_8durationIT_T0_EENS4_IT1_T2_EEEE4typeERKS7_RKSA_ = comdat any

$_ZNKSt6chrono10time_pointINS_3_V212system_clockENS_8durationIlSt5ratioILl1ELl1000000000EEEEE16time_since_epochEv = comdat any

$_ZNKSt6chrono8durationIlSt5ratioILl1ELl1000000000EEE5countEv = comdat any

$_ZNSt6chrono8durationIlSt5ratioILl1ELl1000000000EEEC2IlvEERKT_ = comdat any

$_ZNSt6chrono13duration_castINS_8durationIdSt5ratioILl1ELl1EEEElS2_ILl1ELl1000000000EEEENSt9enable_ifIXsr13__is_durationIT_EE5valueES7_E4typeERKNS1_IT0_T1_EE = comdat any

$_ZNSt6chrono20__duration_cast_implINS_8durationIdSt5ratioILl1ELl1EEEES2_ILl1ELl1000000000EEdLb1ELb0EE6__castIlS5_EES4_RKNS1_IT_T0_EE = comdat any

$_ZNSt6chrono8durationIdSt5ratioILl1ELl1EEEC2IdvEERKT_ = comdat any

@_ZStL8__ioinit = internal global %"class.std::ios_base::Init" zeroinitializer, align 1
@__dso_handle = external hidden global i8
@_ZSt4cout = external global %"class.std::basic_ostream", align 8
@.str = private unnamed_addr constant [16 x i8] c"Strassen time: \00", align 1
@.str.1 = private unnamed_addr constant [2 x i8] c"s\00", align 1
@.str.2 = private unnamed_addr constant [14 x i8] c"Normal time: \00", align 1
@.str.3 = private unnamed_addr constant [13 x i8] c"Mat3 == conf\00", align 1
@.str.4 = private unnamed_addr constant [56 x i8] c"./divide_and_conquer/strassen_matrix_multiplication.cpp\00", align 1
@__PRETTY_FUNCTION__._ZL4testv = private unnamed_addr constant [12 x i8] c"void test()\00", align 1
@.str.5 = private unnamed_addr constant [26 x i8] c"vector::_M_realloc_insert\00", align 1
@.str.6 = private unnamed_addr constant [49 x i8] c"cannot create std::vector larger than max_size()\00", align 1
@.str.7 = private unnamed_addr constant [36 x i8] c"_mat[0].size() == other._mat.size()\00", align 1
@__PRETTY_FUNCTION__._ZNK18divide_and_conquer24strassens_multiplication6MatrixImbEmlImbEES2_RKNS1_IT_NSt9enable_ifIXoosr3std11is_integralIS4_EE5valuesr3std17is_floating_pointIS4_EE5valueEbE4typeEEE = private unnamed_addr constant [189 x i8] c"Matrix<T, type-parameter-0-1> divide_and_conquer::strassens_multiplication::Matrix<unsigned long, bool>::operator*(const Matrix<Number> &) const [T = unsigned long, Number = unsigned long]\00", align 1
@.str.8 = private unnamed_addr constant [29 x i8] c"this->size() == other.size()\00", align 1
@__PRETTY_FUNCTION__._ZNK18divide_and_conquer24strassens_multiplication6MatrixImbEmiImbEES2_RKNS1_IT_NSt9enable_ifIXoosr3std11is_integralIS4_EE5valuesr3std17is_floating_pointIS4_EE5valueEbE4typeEEE = private unnamed_addr constant [189 x i8] c"Matrix<T, type-parameter-0-1> divide_and_conquer::strassens_multiplication::Matrix<unsigned long, bool>::operator-(const Matrix<Number> &) const [T = unsigned long, Number = unsigned long]\00", align 1
@__PRETTY_FUNCTION__._ZNK18divide_and_conquer24strassens_multiplication6MatrixImbEplImbEES2_RKNS1_IT_NSt9enable_ifIXoosr3std11is_integralIS4_EE5valuesr3std17is_floating_pointIS4_EE5valueEbE4typeEEE = private unnamed_addr constant [189 x i8] c"Matrix<T, type-parameter-0-1> divide_and_conquer::strassens_multiplication::Matrix<unsigned long, bool>::operator+(const Matrix<Number> &) const [T = unsigned long, Number = unsigned long]\00", align 1
@.str.9 = private unnamed_addr constant [33 x i8] c"_mat.size() == other._mat.size()\00", align 1
@__PRETTY_FUNCTION__._ZN18divide_and_conquer24strassens_multiplication6MatrixImbE7h_stackImmEEvRKNS1_IT_NSt9enable_ifIXoosr3std11is_integralIS4_EE5valuesr3std17is_floating_pointIS4_EE5valueEbE4typeEEE = private unnamed_addr constant [156 x i8] c"void divide_and_conquer::strassens_multiplication::Matrix<unsigned long, bool>::h_stack(const Matrix<Number> &) [T = unsigned long, Number = unsigned long]\00", align 1
@.str.10 = private unnamed_addr constant [39 x i8] c"_mat[0].size() == other._mat[0].size()\00", align 1
@__PRETTY_FUNCTION__._ZN18divide_and_conquer24strassens_multiplication6MatrixImbE7v_stackImmEEvRKNS1_IT_NSt9enable_ifIXoosr3std11is_integralIS4_EE5valuesr3std17is_floating_pointIS4_EE5valueEbE4typeEEE = private unnamed_addr constant [156 x i8] c"void divide_and_conquer::strassens_multiplication::Matrix<unsigned long, bool>::v_stack(const Matrix<Number> &) [T = unsigned long, Number = unsigned long]\00", align 1
@llvm.global_ctors = appending global [1 x { i32, ptr, ptr }] [{ i32, ptr, ptr } { i32 65535, ptr @_GLOBAL__sub_I_strassen_matrix_multiplication.cpp, ptr null }]

; Function Attrs: noinline uwtable
define internal void @__cxx_global_var_init() #0 section ".text.startup" {
  call void @_ZNSt8ios_base4InitC1Ev(ptr noundef nonnull align 1 dereferenceable(1) @_ZStL8__ioinit)
  %1 = call i32 @__cxa_atexit(ptr @_ZNSt8ios_base4InitD1Ev, ptr @_ZStL8__ioinit, ptr @__dso_handle) #3
  ret void
}

declare void @_ZNSt8ios_base4InitC1Ev(ptr noundef nonnull align 1 dereferenceable(1)) unnamed_addr #1

; Function Attrs: nounwind
declare void @_ZNSt8ios_base4InitD1Ev(ptr noundef nonnull align 1 dereferenceable(1)) unnamed_addr #2

; Function Attrs: nounwind
declare i32 @__cxa_atexit(ptr, ptr, ptr) #3

; Function Attrs: mustprogress noinline norecurse optnone uwtable
define dso_local noundef i32 @main() #4 {
  %1 = alloca i32, align 4
  store i32 0, ptr %1, align 4
  call void @_ZL4testv()
  ret i32 0
}

; Function Attrs: mustprogress noinline optnone uwtable
define internal void @_ZL4testv() #5 personality ptr @__gxx_personality_v0 {
  %1 = alloca i64, align 8
  %2 = alloca %"class.divide_and_conquer::strassens_multiplication::Matrix", align 8
  %3 = alloca i64, align 8
  %4 = alloca i64, align 8
  %5 = alloca ptr, align 8
  %6 = alloca i32, align 4
  %7 = alloca %"class.divide_and_conquer::strassens_multiplication::Matrix", align 8
  %8 = alloca i64, align 8
  %9 = alloca i64, align 8
  %10 = alloca %"class.std::chrono::time_point", align 8
  %11 = alloca %"class.divide_and_conquer::strassens_multiplication::Matrix", align 8
  %12 = alloca %"class.std::chrono::time_point", align 8
  %13 = alloca %"class.std::chrono::duration.5", align 8
  %14 = alloca %"class.std::chrono::duration", align 8
  %15 = alloca %"class.std::chrono::time_point", align 8
  %16 = alloca %"class.divide_and_conquer::strassens_multiplication::Matrix", align 8
  %17 = alloca %"class.std::chrono::time_point", align 8
  %18 = alloca %"class.std::chrono::duration.5", align 8
  %19 = alloca %"class.std::chrono::duration", align 8
  store i64 512, ptr %1, align 8
  call void @_ZN18divide_and_conquer24strassens_multiplication6MatrixImbEC2ImmEET_S4_(ptr noundef nonnull align 8 dereferenceable(24) %2, i64 noundef 512, i64 noundef 512)
  store i64 0, ptr %3, align 8
  br label %20

20:                                               ; preds = %44, %0
  %21 = load i64, ptr %3, align 8
  %22 = icmp ult i64 %21, 512
  br i1 %22, label %23, label %47

23:                                               ; preds = %20
  store i64 0, ptr %4, align 8
  br label %24

24:                                               ; preds = %36, %23
  %25 = load i64, ptr %4, align 8
  %26 = icmp ult i64 %25, 512
  br i1 %26, label %27, label %43

27:                                               ; preds = %24
  %28 = load i64, ptr %3, align 8
  %29 = load i64, ptr %4, align 8
  %30 = add i64 %28, %29
  %31 = load i64, ptr %3, align 8
  %32 = invoke noundef nonnull align 8 dereferenceable(24) ptr @_ZN18divide_and_conquer24strassens_multiplication6MatrixImbEixImmEERSt6vectorImSaImEET_(ptr noundef nonnull align 8 dereferenceable(24) %2, i64 noundef %31)
          to label %33 unwind label %39

33:                                               ; preds = %27
  %34 = load i64, ptr %4, align 8
  %35 = call noundef nonnull align 8 dereferenceable(8) ptr @_ZNSt6vectorImSaImEEixEm(ptr noundef nonnull align 8 dereferenceable(24) %32, i64 noundef %34) #3
  store i64 %30, ptr %35, align 8
  br label %36

36:                                               ; preds = %33
  %37 = load i64, ptr %4, align 8
  %38 = add i64 %37, 1
  store i64 %38, ptr %4, align 8
  br label %24, !llvm.loop !6

39:                                               ; preds = %47, %27
  %40 = landingpad { ptr, i32 }
          cleanup
  %41 = extractvalue { ptr, i32 } %40, 0
  store ptr %41, ptr %5, align 8
  %42 = extractvalue { ptr, i32 } %40, 1
  store i32 %42, ptr %6, align 4
  br label %136

43:                                               ; preds = %24
  br label %44

44:                                               ; preds = %43
  %45 = load i64, ptr %3, align 8
  %46 = add i64 %45, 1
  store i64 %46, ptr %3, align 8
  br label %20, !llvm.loop !8

47:                                               ; preds = %20
  invoke void @_ZN18divide_and_conquer24strassens_multiplication6MatrixImbEC2ImmEET_S4_(ptr noundef nonnull align 8 dereferenceable(24) %7, i64 noundef 512, i64 noundef 512)
          to label %48 unwind label %39

48:                                               ; preds = %47
  store i64 0, ptr %8, align 8
  br label %49

49:                                               ; preds = %74, %48
  %50 = load i64, ptr %8, align 8
  %51 = icmp ult i64 %50, 512
  br i1 %51, label %52, label %77

52:                                               ; preds = %49
  store i64 0, ptr %9, align 8
  br label %53

53:                                               ; preds = %66, %52
  %54 = load i64, ptr %9, align 8
  %55 = icmp ult i64 %54, 512
  br i1 %55, label %56, label %73

56:                                               ; preds = %53
  %57 = load i64, ptr %8, align 8
  %58 = add i64 2, %57
  %59 = load i64, ptr %9, align 8
  %60 = add i64 %58, %59
  %61 = load i64, ptr %8, align 8
  %62 = invoke noundef nonnull align 8 dereferenceable(24) ptr @_ZN18divide_and_conquer24strassens_multiplication6MatrixImbEixImmEERSt6vectorImSaImEET_(ptr noundef nonnull align 8 dereferenceable(24) %7, i64 noundef %61)
          to label %63 unwind label %69

63:                                               ; preds = %56
  %64 = load i64, ptr %9, align 8
  %65 = call noundef nonnull align 8 dereferenceable(8) ptr @_ZNSt6vectorImSaImEEixEm(ptr noundef nonnull align 8 dereferenceable(24) %62, i64 noundef %64) #3
  store i64 %60, ptr %65, align 8
  br label %66

66:                                               ; preds = %63
  %67 = load i64, ptr %9, align 8
  %68 = add i64 %67, 1
  store i64 %68, ptr %9, align 8
  br label %53, !llvm.loop !9

69:                                               ; preds = %77, %56
  %70 = landingpad { ptr, i32 }
          cleanup
  %71 = extractvalue { ptr, i32 } %70, 0
  store ptr %71, ptr %5, align 8
  %72 = extractvalue { ptr, i32 } %70, 1
  store i32 %72, ptr %6, align 4
  br label %135

73:                                               ; preds = %53
  br label %74

74:                                               ; preds = %73
  %75 = load i64, ptr %8, align 8
  %76 = add i64 %75, 1
  store i64 %76, ptr %8, align 8
  br label %49, !llvm.loop !10

77:                                               ; preds = %49
  %78 = call i64 @_ZNSt6chrono3_V212system_clock3nowEv() #3
  %79 = getelementptr inbounds %"class.std::chrono::time_point", ptr %10, i32 0, i32 0
  %80 = getelementptr inbounds %"class.std::chrono::duration", ptr %79, i32 0, i32 0
  store i64 %78, ptr %80, align 8
  invoke void @_ZNK18divide_and_conquer24strassens_multiplication6MatrixImbEmlImbEES2_RKNS1_IT_NSt9enable_ifIXoosr3std11is_integralIS4_EE5valuesr3std17is_floating_pointIS4_EE5valueEbE4typeEEE(ptr sret(%"class.divide_and_conquer::strassens_multiplication::Matrix") align 8 %11, ptr noundef nonnull align 8 dereferenceable(24) %7, ptr noundef nonnull align 8 dereferenceable(24) %2)
          to label %81 unwind label %69

81:                                               ; preds = %77
  %82 = call i64 @_ZNSt6chrono3_V212system_clock3nowEv() #3
  %83 = getelementptr inbounds %"class.std::chrono::time_point", ptr %12, i32 0, i32 0
  %84 = getelementptr inbounds %"class.std::chrono::duration", ptr %83, i32 0, i32 0
  store i64 %82, ptr %84, align 8
  %85 = invoke i64 @_ZNSt6chronomiINS_3_V212system_clockENS_8durationIlSt5ratioILl1ELl1000000000EEEES6_EENSt11common_typeIJT0_T1_EE4typeERKNS_10time_pointIT_S8_EERKNSC_ISD_S9_EE(ptr noundef nonnull align 8 dereferenceable(8) %12, ptr noundef nonnull align 8 dereferenceable(8) %10)
          to label %86 unwind label %124

86:                                               ; preds = %81
  %87 = getelementptr inbounds %"class.std::chrono::duration", ptr %14, i32 0, i32 0
  store i64 %85, ptr %87, align 8
  invoke void @_ZNSt6chrono8durationIdSt5ratioILl1ELl1EEEC2IlS1_ILl1ELl1000000000EEvEERKNS0_IT_T0_EE(ptr noundef nonnull align 8 dereferenceable(8) %13, ptr noundef nonnull align 8 dereferenceable(8) %14)
          to label %88 unwind label %124

88:                                               ; preds = %86
  %89 = invoke noundef nonnull align 8 dereferenceable(8) ptr @_ZStlsISt11char_traitsIcEERSt13basic_ostreamIcT_ES5_PKc(ptr noundef nonnull align 8 dereferenceable(8) @_ZSt4cout, ptr noundef @.str)
          to label %90 unwind label %124

90:                                               ; preds = %88
  %91 = invoke noundef double @_ZNKSt6chrono8durationIdSt5ratioILl1ELl1EEE5countEv(ptr noundef nonnull align 8 dereferenceable(8) %13)
          to label %92 unwind label %124

92:                                               ; preds = %90
  %93 = invoke noundef nonnull align 8 dereferenceable(8) ptr @_ZNSolsEd(ptr noundef nonnull align 8 dereferenceable(8) %89, double noundef %91)
          to label %94 unwind label %124

94:                                               ; preds = %92
  %95 = invoke noundef nonnull align 8 dereferenceable(8) ptr @_ZStlsISt11char_traitsIcEERSt13basic_ostreamIcT_ES5_PKc(ptr noundef nonnull align 8 dereferenceable(8) %93, ptr noundef @.str.1)
          to label %96 unwind label %124

96:                                               ; preds = %94
  %97 = invoke noundef nonnull align 8 dereferenceable(8) ptr @_ZNSolsEPFRSoS_E(ptr noundef nonnull align 8 dereferenceable(8) %95, ptr noundef @_ZSt4endlIcSt11char_traitsIcEERSt13basic_ostreamIT_T0_ES6_)
          to label %98 unwind label %124

98:                                               ; preds = %96
  %99 = call i64 @_ZNSt6chrono3_V212system_clock3nowEv() #3
  %100 = getelementptr inbounds %"class.std::chrono::time_point", ptr %15, i32 0, i32 0
  %101 = getelementptr inbounds %"class.std::chrono::duration", ptr %100, i32 0, i32 0
  store i64 %99, ptr %101, align 8
  call void @llvm.memcpy.p0.p0.i64(ptr align 8 %10, ptr align 8 %15, i64 8, i1 false)
  invoke void @_ZNK18divide_and_conquer24strassens_multiplication6MatrixImbE20naive_multiplicationImbEES2_RKNS1_IT_NSt9enable_ifIXoosr3std11is_integralIS4_EE5valuesr3std17is_floating_pointIS4_EE5valueEbE4typeEEE(ptr sret(%"class.divide_and_conquer::strassens_multiplication::Matrix") align 8 %16, ptr noundef nonnull align 8 dereferenceable(24) %7, ptr noundef nonnull align 8 dereferenceable(24) %2)
          to label %102 unwind label %124

102:                                              ; preds = %98
  %103 = call i64 @_ZNSt6chrono3_V212system_clock3nowEv() #3
  %104 = getelementptr inbounds %"class.std::chrono::time_point", ptr %17, i32 0, i32 0
  %105 = getelementptr inbounds %"class.std::chrono::duration", ptr %104, i32 0, i32 0
  store i64 %103, ptr %105, align 8
  call void @llvm.memcpy.p0.p0.i64(ptr align 8 %12, ptr align 8 %17, i64 8, i1 false)
  %106 = invoke i64 @_ZNSt6chronomiINS_3_V212system_clockENS_8durationIlSt5ratioILl1ELl1000000000EEEES6_EENSt11common_typeIJT0_T1_EE4typeERKNS_10time_pointIT_S8_EERKNSC_ISD_S9_EE(ptr noundef nonnull align 8 dereferenceable(8) %12, ptr noundef nonnull align 8 dereferenceable(8) %10)
          to label %107 unwind label %128

107:                                              ; preds = %102
  %108 = getelementptr inbounds %"class.std::chrono::duration", ptr %19, i32 0, i32 0
  store i64 %106, ptr %108, align 8
  invoke void @_ZNSt6chrono8durationIdSt5ratioILl1ELl1EEEC2IlS1_ILl1ELl1000000000EEvEERKNS0_IT_T0_EE(ptr noundef nonnull align 8 dereferenceable(8) %18, ptr noundef nonnull align 8 dereferenceable(8) %19)
          to label %109 unwind label %128

109:                                              ; preds = %107
  call void @llvm.memcpy.p0.p0.i64(ptr align 8 %13, ptr align 8 %18, i64 8, i1 false)
  %110 = invoke noundef nonnull align 8 dereferenceable(8) ptr @_ZStlsISt11char_traitsIcEERSt13basic_ostreamIcT_ES5_PKc(ptr noundef nonnull align 8 dereferenceable(8) @_ZSt4cout, ptr noundef @.str.2)
          to label %111 unwind label %128

111:                                              ; preds = %109
  %112 = invoke noundef double @_ZNKSt6chrono8durationIdSt5ratioILl1ELl1EEE5countEv(ptr noundef nonnull align 8 dereferenceable(8) %13)
          to label %113 unwind label %128

113:                                              ; preds = %111
  %114 = invoke noundef nonnull align 8 dereferenceable(8) ptr @_ZNSolsEd(ptr noundef nonnull align 8 dereferenceable(8) %110, double noundef %112)
          to label %115 unwind label %128

115:                                              ; preds = %113
  %116 = invoke noundef nonnull align 8 dereferenceable(8) ptr @_ZStlsISt11char_traitsIcEERSt13basic_ostreamIcT_ES5_PKc(ptr noundef nonnull align 8 dereferenceable(8) %114, ptr noundef @.str.1)
          to label %117 unwind label %128

117:                                              ; preds = %115
  %118 = invoke noundef nonnull align 8 dereferenceable(8) ptr @_ZNSolsEPFRSoS_E(ptr noundef nonnull align 8 dereferenceable(8) %116, ptr noundef @_ZSt4endlIcSt11char_traitsIcEERSt13basic_ostreamIT_T0_ES6_)
          to label %119 unwind label %128

119:                                              ; preds = %117
  %120 = invoke noundef zeroext i1 @_ZNK18divide_and_conquer24strassens_multiplication6MatrixImbEeqERKS2_(ptr noundef nonnull align 8 dereferenceable(24) %11, ptr noundef nonnull align 8 dereferenceable(24) %16)
          to label %121 unwind label %128

121:                                              ; preds = %119
  br i1 %120, label %122, label %123

122:                                              ; preds = %121
  br label %133

123:                                              ; preds = %121
  call void @__assert_fail(ptr noundef @.str.3, ptr noundef @.str.4, i32 noundef 461, ptr noundef @__PRETTY_FUNCTION__._ZL4testv) #15
  unreachable

124:                                              ; preds = %98, %96, %94, %92, %90, %88, %86, %81
  %125 = landingpad { ptr, i32 }
          cleanup
  %126 = extractvalue { ptr, i32 } %125, 0
  store ptr %126, ptr %5, align 8
  %127 = extractvalue { ptr, i32 } %125, 1
  store i32 %127, ptr %6, align 4
  br label %134

128:                                              ; preds = %119, %117, %115, %113, %111, %109, %107, %102
  %129 = landingpad { ptr, i32 }
          cleanup
  %130 = extractvalue { ptr, i32 } %129, 0
  store ptr %130, ptr %5, align 8
  %131 = extractvalue { ptr, i32 } %129, 1
  store i32 %131, ptr %6, align 4
  call void @_ZN18divide_and_conquer24strassens_multiplication6MatrixImbED2Ev(ptr noundef nonnull align 8 dereferenceable(24) %16) #3
  br label %134

132:                                              ; No predecessors!
  br label %133

133:                                              ; preds = %132, %122
  call void @_ZN18divide_and_conquer24strassens_multiplication6MatrixImbED2Ev(ptr noundef nonnull align 8 dereferenceable(24) %16) #3
  call void @_ZN18divide_and_conquer24strassens_multiplication6MatrixImbED2Ev(ptr noundef nonnull align 8 dereferenceable(24) %11) #3
  call void @_ZN18divide_and_conquer24strassens_multiplication6MatrixImbED2Ev(ptr noundef nonnull align 8 dereferenceable(24) %7) #3
  call void @_ZN18divide_and_conquer24strassens_multiplication6MatrixImbED2Ev(ptr noundef nonnull align 8 dereferenceable(24) %2) #3
  ret void

134:                                              ; preds = %128, %124
  call void @_ZN18divide_and_conquer24strassens_multiplication6MatrixImbED2Ev(ptr noundef nonnull align 8 dereferenceable(24) %11) #3
  br label %135

135:                                              ; preds = %134, %69
  call void @_ZN18divide_and_conquer24strassens_multiplication6MatrixImbED2Ev(ptr noundef nonnull align 8 dereferenceable(24) %7) #3
  br label %136

136:                                              ; preds = %135, %39
  call void @_ZN18divide_and_conquer24strassens_multiplication6MatrixImbED2Ev(ptr noundef nonnull align 8 dereferenceable(24) %2) #3
  br label %137

137:                                              ; preds = %136
  %138 = load ptr, ptr %5, align 8
  %139 = load i32, ptr %6, align 4
  %140 = insertvalue { ptr, i32 } undef, ptr %138, 0
  %141 = insertvalue { ptr, i32 } %140, i32 %139, 1
  resume { ptr, i32 } %141
}

; Function Attrs: noinline optnone uwtable
define linkonce_odr dso_local void @_ZN18divide_and_conquer24strassens_multiplication6MatrixImbEC2ImmEET_S4_(ptr noundef nonnull align 8 dereferenceable(24) %0, i64 noundef %1, i64 noundef %2) unnamed_addr #6 comdat align 2 personality ptr @__gxx_personality_v0 {
  %4 = alloca ptr, align 8
  %5 = alloca i64, align 8
  %6 = alloca i64, align 8
  %7 = alloca i64, align 8
  %8 = alloca %"class.std::vector.0", align 8
  %9 = alloca i64, align 8
  %10 = alloca %"class.std::allocator.2", align 1
  %11 = alloca ptr, align 8
  %12 = alloca i32, align 4
  store ptr %0, ptr %4, align 8
  store i64 %1, ptr %5, align 8
  store i64 %2, ptr %6, align 8
  %13 = load ptr, ptr %4, align 8
  %14 = getelementptr inbounds %"class.divide_and_conquer::strassens_multiplication::Matrix", ptr %13, i32 0, i32 0
  call void @_ZNSt6vectorIS_ImSaImEESaIS1_EEC2Ev(ptr noundef nonnull align 8 dereferenceable(24) %14) #3
  store i64 0, ptr %7, align 8
  br label %15

15:                                               ; preds = %24, %3
  %16 = load i64, ptr %7, align 8
  %17 = load i64, ptr %5, align 8
  %18 = icmp ult i64 %16, %17
  br i1 %18, label %19, label %36

19:                                               ; preds = %15
  %20 = getelementptr inbounds %"class.divide_and_conquer::strassens_multiplication::Matrix", ptr %13, i32 0, i32 0
  %21 = load i64, ptr %6, align 8
  store i64 0, ptr %9, align 8
  call void @_ZNSaImEC2Ev(ptr noundef nonnull align 1 dereferenceable(1) %10) #3
  invoke void @_ZNSt6vectorImSaImEEC2EmRKmRKS0_(ptr noundef nonnull align 8 dereferenceable(24) %8, i64 noundef %21, ptr noundef nonnull align 8 dereferenceable(8) %9, ptr noundef nonnull align 1 dereferenceable(1) %10)
          to label %22 unwind label %27

22:                                               ; preds = %19
  invoke void @_ZNSt6vectorIS_ImSaImEESaIS1_EE12emplace_backIJS1_EEEvDpOT_(ptr noundef nonnull align 8 dereferenceable(24) %20, ptr noundef nonnull align 8 dereferenceable(24) %8)
          to label %23 unwind label %31

23:                                               ; preds = %22
  call void @_ZNSt6vectorImSaImEED2Ev(ptr noundef nonnull align 8 dereferenceable(24) %8) #3
  call void @_ZNSaImED2Ev(ptr noundef nonnull align 1 dereferenceable(1) %10) #3
  br label %24

24:                                               ; preds = %23
  %25 = load i64, ptr %7, align 8
  %26 = add i64 %25, 1
  store i64 %26, ptr %7, align 8
  br label %15, !llvm.loop !11

27:                                               ; preds = %19
  %28 = landingpad { ptr, i32 }
          cleanup
  %29 = extractvalue { ptr, i32 } %28, 0
  store ptr %29, ptr %11, align 8
  %30 = extractvalue { ptr, i32 } %28, 1
  store i32 %30, ptr %12, align 4
  br label %35

31:                                               ; preds = %22
  %32 = landingpad { ptr, i32 }
          cleanup
  %33 = extractvalue { ptr, i32 } %32, 0
  store ptr %33, ptr %11, align 8
  %34 = extractvalue { ptr, i32 } %32, 1
  store i32 %34, ptr %12, align 4
  call void @_ZNSt6vectorImSaImEED2Ev(ptr noundef nonnull align 8 dereferenceable(24) %8) #3
  br label %35

35:                                               ; preds = %31, %27
  call void @_ZNSaImED2Ev(ptr noundef nonnull align 1 dereferenceable(1) %10) #3
  call void @_ZNSt6vectorIS_ImSaImEESaIS1_EED2Ev(ptr noundef nonnull align 8 dereferenceable(24) %14) #3
  br label %37

36:                                               ; preds = %15
  ret void

37:                                               ; preds = %35
  %38 = load ptr, ptr %11, align 8
  %39 = load i32, ptr %12, align 4
  %40 = insertvalue { ptr, i32 } undef, ptr %38, 0
  %41 = insertvalue { ptr, i32 } %40, i32 %39, 1
  resume { ptr, i32 } %41
}

; Function Attrs: mustprogress noinline nounwind optnone uwtable
define linkonce_odr dso_local noundef nonnull align 8 dereferenceable(24) ptr @_ZN18divide_and_conquer24strassens_multiplication6MatrixImbEixImmEERSt6vectorImSaImEET_(ptr noundef nonnull align 8 dereferenceable(24) %0, i64 noundef %1) #7 comdat align 2 {
  %3 = alloca ptr, align 8
  %4 = alloca i64, align 8
  store ptr %0, ptr %3, align 8
  store i64 %1, ptr %4, align 8
  %5 = load ptr, ptr %3, align 8
  %6 = getelementptr inbounds %"class.divide_and_conquer::strassens_multiplication::Matrix", ptr %5, i32 0, i32 0
  %7 = load i64, ptr %4, align 8
  %8 = call noundef nonnull align 8 dereferenceable(24) ptr @_ZNSt6vectorIS_ImSaImEESaIS1_EEixEm(ptr noundef nonnull align 8 dereferenceable(24) %6, i64 noundef %7) #3
  ret ptr %8
}

declare i32 @__gxx_personality_v0(...)

; Function Attrs: mustprogress noinline nounwind optnone uwtable
define linkonce_odr dso_local noundef nonnull align 8 dereferenceable(8) ptr @_ZNSt6vectorImSaImEEixEm(ptr noundef nonnull align 8 dereferenceable(24) %0, i64 noundef %1) #7 comdat align 2 {
  %3 = alloca ptr, align 8
  %4 = alloca i64, align 8
  store ptr %0, ptr %3, align 8
  store i64 %1, ptr %4, align 8
  %5 = load ptr, ptr %3, align 8
  %6 = getelementptr inbounds %"struct.std::_Vector_base.1", ptr %5, i32 0, i32 0
  %7 = getelementptr inbounds %"struct.std::_Vector_base<unsigned long, std::allocator<unsigned long>>::_Vector_impl_data", ptr %6, i32 0, i32 0
  %8 = load ptr, ptr %7, align 8
  %9 = load i64, ptr %4, align 8
  %10 = getelementptr inbounds i64, ptr %8, i64 %9
  ret ptr %10
}

; Function Attrs: nounwind
declare i64 @_ZNSt6chrono3_V212system_clock3nowEv() #2

; Function Attrs: mustprogress noinline optnone uwtable
define linkonce_odr dso_local void @_ZNK18divide_and_conquer24strassens_multiplication6MatrixImbEmlImbEES2_RKNS1_IT_NSt9enable_ifIXoosr3std11is_integralIS4_EE5valuesr3std17is_floating_pointIS4_EE5valueEbE4typeEEE(ptr noalias sret(%"class.divide_and_conquer::strassens_multiplication::Matrix") align 8 %0, ptr noundef nonnull align 8 dereferenceable(24) %1, ptr noundef nonnull align 8 dereferenceable(24) %2) #5 comdat align 2 {
  %4 = alloca ptr, align 8
  %5 = alloca ptr, align 8
  %6 = alloca ptr, align 8
  %7 = alloca %"struct.std::pair", align 8
  %8 = alloca i64, align 8
  %9 = alloca i64, align 8
  store ptr %0, ptr %4, align 8
  store ptr %1, ptr %5, align 8
  store ptr %2, ptr %6, align 8
  %10 = load ptr, ptr %5, align 8
  %11 = getelementptr inbounds %"class.divide_and_conquer::strassens_multiplication::Matrix", ptr %10, i32 0, i32 0
  %12 = call noundef nonnull align 8 dereferenceable(24) ptr @_ZNKSt6vectorIS_ImSaImEESaIS1_EEixEm(ptr noundef nonnull align 8 dereferenceable(24) %11, i64 noundef 0) #3
  %13 = call noundef i64 @_ZNKSt6vectorImSaImEE4sizeEv(ptr noundef nonnull align 8 dereferenceable(24) %12) #3
  %14 = load ptr, ptr %6, align 8
  %15 = getelementptr inbounds %"class.divide_and_conquer::strassens_multiplication::Matrix", ptr %14, i32 0, i32 0
  %16 = call noundef i64 @_ZNKSt6vectorIS_ImSaImEESaIS1_EE4sizeEv(ptr noundef nonnull align 8 dereferenceable(24) %15) #3
  %17 = icmp eq i64 %13, %16
  br i1 %17, label %18, label %19

18:                                               ; preds = %3
  br label %21

19:                                               ; preds = %3
  call void @__assert_fail(ptr noundef @.str.7, ptr noundef @.str.4, i32 noundef 256, ptr noundef @__PRETTY_FUNCTION__._ZNK18divide_and_conquer24strassens_multiplication6MatrixImbEmlImbEES2_RKNS1_IT_NSt9enable_ifIXoosr3std11is_integralIS4_EE5valuesr3std17is_floating_pointIS4_EE5valueEbE4typeEEE) #15
  unreachable

20:                                               ; No predecessors!
  br label %21

21:                                               ; preds = %20, %18
  %22 = call { i64, i64 } @_ZNK18divide_and_conquer24strassens_multiplication6MatrixImbE4sizeEv(ptr noundef nonnull align 8 dereferenceable(24) %10)
  %23 = getelementptr inbounds { i64, i64 }, ptr %7, i32 0, i32 0
  %24 = extractvalue { i64, i64 } %22, 0
  store i64 %24, ptr %23, align 8
  %25 = getelementptr inbounds { i64, i64 }, ptr %7, i32 0, i32 1
  %26 = extractvalue { i64, i64 } %22, 1
  store i64 %26, ptr %25, align 8
  %27 = getelementptr inbounds %"struct.std::pair", ptr %7, i32 0, i32 0
  %28 = load i64, ptr %27, align 8
  store i64 %28, ptr %8, align 8
  %29 = getelementptr inbounds %"struct.std::pair", ptr %7, i32 0, i32 1
  %30 = load i64, ptr %29, align 8
  store i64 %30, ptr %9, align 8
  %31 = load i64, ptr %8, align 8
  %32 = load i64, ptr %9, align 8
  %33 = icmp eq i64 %31, %32
  br i1 %33, label %34, label %40

34:                                               ; preds = %21
  %35 = load i64, ptr %8, align 8
  %36 = and i64 %35, 1
  %37 = icmp eq i64 %36, 0
  br i1 %37, label %38, label %40

38:                                               ; preds = %34
  %39 = load ptr, ptr %6, align 8
  call void @_ZNK18divide_and_conquer24strassens_multiplication6MatrixImbE24strassens_multiplicationImbEES2_RKNS1_IT_NSt9enable_ifIXoosr3std11is_integralIS4_EE5valuesr3std17is_floating_pointIS4_EE5valueEbE4typeEEE(ptr sret(%"class.divide_and_conquer::strassens_multiplication::Matrix") align 8 %0, ptr noundef nonnull align 8 dereferenceable(24) %10, ptr noundef nonnull align 8 dereferenceable(24) %39)
  br label %42

40:                                               ; preds = %34, %21
  %41 = load ptr, ptr %6, align 8
  call void @_ZNK18divide_and_conquer24strassens_multiplication6MatrixImbE20naive_multiplicationImbEES2_RKNS1_IT_NSt9enable_ifIXoosr3std11is_integralIS4_EE5valuesr3std17is_floating_pointIS4_EE5valueEbE4typeEEE(ptr sret(%"class.divide_and_conquer::strassens_multiplication::Matrix") align 8 %0, ptr noundef nonnull align 8 dereferenceable(24) %10, ptr noundef nonnull align 8 dereferenceable(24) %41)
  br label %42

42:                                               ; preds = %40, %38
  ret void
}

; Function Attrs: mustprogress noinline optnone uwtable
define linkonce_odr dso_local i64 @_ZNSt6chronomiINS_3_V212system_clockENS_8durationIlSt5ratioILl1ELl1000000000EEEES6_EENSt11common_typeIJT0_T1_EE4typeERKNS_10time_pointIT_S8_EERKNSC_ISD_S9_EE(ptr noundef nonnull align 8 dereferenceable(8) %0, ptr noundef nonnull align 8 dereferenceable(8) %1) #5 comdat {
  %3 = alloca %"class.std::chrono::duration", align 8
  %4 = alloca ptr, align 8
  %5 = alloca ptr, align 8
  %6 = alloca %"class.std::chrono::duration", align 8
  %7 = alloca %"class.std::chrono::duration", align 8
  store ptr %0, ptr %4, align 8
  store ptr %1, ptr %5, align 8
  %8 = load ptr, ptr %4, align 8
  %9 = call i64 @_ZNKSt6chrono10time_pointINS_3_V212system_clockENS_8durationIlSt5ratioILl1ELl1000000000EEEEE16time_since_epochEv(ptr noundef nonnull align 8 dereferenceable(8) %8)
  %10 = getelementptr inbounds %"class.std::chrono::duration", ptr %6, i32 0, i32 0
  store i64 %9, ptr %10, align 8
  %11 = load ptr, ptr %5, align 8
  %12 = call i64 @_ZNKSt6chrono10time_pointINS_3_V212system_clockENS_8durationIlSt5ratioILl1ELl1000000000EEEEE16time_since_epochEv(ptr noundef nonnull align 8 dereferenceable(8) %11)
  %13 = getelementptr inbounds %"class.std::chrono::duration", ptr %7, i32 0, i32 0
  store i64 %12, ptr %13, align 8
  %14 = call i64 @_ZNSt6chronomiIlSt5ratioILl1ELl1000000000EElS2_EENSt11common_typeIJNS_8durationIT_T0_EENS4_IT1_T2_EEEE4typeERKS7_RKSA_(ptr noundef nonnull align 8 dereferenceable(8) %6, ptr noundef nonnull align 8 dereferenceable(8) %7)
  %15 = getelementptr inbounds %"class.std::chrono::duration", ptr %3, i32 0, i32 0
  store i64 %14, ptr %15, align 8
  %16 = getelementptr inbounds %"class.std::chrono::duration", ptr %3, i32 0, i32 0
  %17 = load i64, ptr %16, align 8
  ret i64 %17
}

; Function Attrs: noinline optnone uwtable
define linkonce_odr dso_local void @_ZNSt6chrono8durationIdSt5ratioILl1ELl1EEEC2IlS1_ILl1ELl1000000000EEvEERKNS0_IT_T0_EE(ptr noundef nonnull align 8 dereferenceable(8) %0, ptr noundef nonnull align 8 dereferenceable(8) %1) unnamed_addr #6 comdat align 2 {
  %3 = alloca ptr, align 8
  %4 = alloca ptr, align 8
  %5 = alloca %"class.std::chrono::duration.5", align 8
  store ptr %0, ptr %3, align 8
  store ptr %1, ptr %4, align 8
  %6 = load ptr, ptr %3, align 8
  %7 = getelementptr inbounds %"class.std::chrono::duration.5", ptr %6, i32 0, i32 0
  %8 = load ptr, ptr %4, align 8
  %9 = call double @_ZNSt6chrono13duration_castINS_8durationIdSt5ratioILl1ELl1EEEElS2_ILl1ELl1000000000EEEENSt9enable_ifIXsr13__is_durationIT_EE5valueES7_E4typeERKNS1_IT0_T1_EE(ptr noundef nonnull align 8 dereferenceable(8) %8)
  %10 = getelementptr inbounds %"class.std::chrono::duration.5", ptr %5, i32 0, i32 0
  store double %9, ptr %10, align 8
  %11 = call noundef double @_ZNKSt6chrono8durationIdSt5ratioILl1ELl1EEE5countEv(ptr noundef nonnull align 8 dereferenceable(8) %5)
  store double %11, ptr %7, align 8
  ret void
}

declare noundef nonnull align 8 dereferenceable(8) ptr @_ZStlsISt11char_traitsIcEERSt13basic_ostreamIcT_ES5_PKc(ptr noundef nonnull align 8 dereferenceable(8), ptr noundef) #1

declare noundef nonnull align 8 dereferenceable(8) ptr @_ZNSolsEd(ptr noundef nonnull align 8 dereferenceable(8), double noundef) #1

; Function Attrs: mustprogress noinline nounwind optnone uwtable
define linkonce_odr dso_local noundef double @_ZNKSt6chrono8durationIdSt5ratioILl1ELl1EEE5countEv(ptr noundef nonnull align 8 dereferenceable(8) %0) #7 comdat align 2 {
  %2 = alloca ptr, align 8
  store ptr %0, ptr %2, align 8
  %3 = load ptr, ptr %2, align 8
  %4 = getelementptr inbounds %"class.std::chrono::duration.5", ptr %3, i32 0, i32 0
  %5 = load double, ptr %4, align 8
  ret double %5
}

declare noundef nonnull align 8 dereferenceable(8) ptr @_ZNSolsEPFRSoS_E(ptr noundef nonnull align 8 dereferenceable(8), ptr noundef) #1

declare noundef nonnull align 8 dereferenceable(8) ptr @_ZSt4endlIcSt11char_traitsIcEERSt13basic_ostreamIT_T0_ES6_(ptr noundef nonnull align 8 dereferenceable(8)) #1

; Function Attrs: argmemonly nocallback nofree nounwind willreturn
declare void @llvm.memcpy.p0.p0.i64(ptr noalias nocapture writeonly, ptr noalias nocapture readonly, i64, i1 immarg) #8

; Function Attrs: mustprogress noinline optnone uwtable
define linkonce_odr dso_local void @_ZNK18divide_and_conquer24strassens_multiplication6MatrixImbE20naive_multiplicationImbEES2_RKNS1_IT_NSt9enable_ifIXoosr3std11is_integralIS4_EE5valuesr3std17is_floating_pointIS4_EE5valueEbE4typeEEE(ptr noalias sret(%"class.divide_and_conquer::strassens_multiplication::Matrix") align 8 %0, ptr noundef nonnull align 8 dereferenceable(24) %1, ptr noundef nonnull align 8 dereferenceable(24) %2) #5 comdat align 2 {
  %4 = alloca ptr, align 8
  %5 = alloca ptr, align 8
  %6 = alloca ptr, align 8
  %7 = alloca i1, align 1
  %8 = alloca i64, align 8
  %9 = alloca i64, align 8
  %10 = alloca i64, align 8
  store ptr %0, ptr %4, align 8
  store ptr %1, ptr %5, align 8
  store ptr %2, ptr %6, align 8
  %11 = load ptr, ptr %5, align 8
  store i1 false, ptr %7, align 1
  %12 = getelementptr inbounds %"class.divide_and_conquer::strassens_multiplication::Matrix", ptr %11, i32 0, i32 0
  %13 = call noundef i64 @_ZNKSt6vectorIS_ImSaImEESaIS1_EE4sizeEv(ptr noundef nonnull align 8 dereferenceable(24) %12) #3
  %14 = load ptr, ptr %6, align 8
  %15 = getelementptr inbounds %"class.divide_and_conquer::strassens_multiplication::Matrix", ptr %14, i32 0, i32 0
  %16 = call noundef nonnull align 8 dereferenceable(24) ptr @_ZNKSt6vectorIS_ImSaImEESaIS1_EEixEm(ptr noundef nonnull align 8 dereferenceable(24) %15, i64 noundef 0) #3
  %17 = call noundef i64 @_ZNKSt6vectorImSaImEE4sizeEv(ptr noundef nonnull align 8 dereferenceable(24) %16) #3
  call void @_ZN18divide_and_conquer24strassens_multiplication6MatrixImbEC2ImmEET_S4_(ptr noundef nonnull align 8 dereferenceable(24) %0, i64 noundef %13, i64 noundef %17)
  store i64 0, ptr %8, align 8
  br label %18

18:                                               ; preds = %68, %3
  %19 = load i64, ptr %8, align 8
  %20 = getelementptr inbounds %"class.divide_and_conquer::strassens_multiplication::Matrix", ptr %11, i32 0, i32 0
  %21 = call noundef i64 @_ZNKSt6vectorIS_ImSaImEESaIS1_EE4sizeEv(ptr noundef nonnull align 8 dereferenceable(24) %20) #3
  %22 = icmp ult i64 %19, %21
  br i1 %22, label %23, label %71

23:                                               ; preds = %18
  store i64 0, ptr %9, align 8
  br label %24

24:                                               ; preds = %64, %23
  %25 = load i64, ptr %9, align 8
  %26 = getelementptr inbounds %"class.divide_and_conquer::strassens_multiplication::Matrix", ptr %11, i32 0, i32 0
  %27 = call noundef nonnull align 8 dereferenceable(24) ptr @_ZNKSt6vectorIS_ImSaImEESaIS1_EEixEm(ptr noundef nonnull align 8 dereferenceable(24) %26, i64 noundef 0) #3
  %28 = call noundef i64 @_ZNKSt6vectorImSaImEE4sizeEv(ptr noundef nonnull align 8 dereferenceable(24) %27) #3
  %29 = icmp ult i64 %25, %28
  br i1 %29, label %30, label %67

30:                                               ; preds = %24
  store i64 0, ptr %10, align 8
  br label %31

31:                                               ; preds = %60, %30
  %32 = load i64, ptr %10, align 8
  %33 = load ptr, ptr %6, align 8
  %34 = getelementptr inbounds %"class.divide_and_conquer::strassens_multiplication::Matrix", ptr %33, i32 0, i32 0
  %35 = call noundef nonnull align 8 dereferenceable(24) ptr @_ZNKSt6vectorIS_ImSaImEESaIS1_EEixEm(ptr noundef nonnull align 8 dereferenceable(24) %34, i64 noundef 0) #3
  %36 = call noundef i64 @_ZNKSt6vectorImSaImEE4sizeEv(ptr noundef nonnull align 8 dereferenceable(24) %35) #3
  %37 = icmp ult i64 %32, %36
  br i1 %37, label %38, label %63

38:                                               ; preds = %31
  %39 = getelementptr inbounds %"class.divide_and_conquer::strassens_multiplication::Matrix", ptr %11, i32 0, i32 0
  %40 = load i64, ptr %8, align 8
  %41 = call noundef nonnull align 8 dereferenceable(24) ptr @_ZNKSt6vectorIS_ImSaImEESaIS1_EEixEm(ptr noundef nonnull align 8 dereferenceable(24) %39, i64 noundef %40) #3
  %42 = load i64, ptr %9, align 8
  %43 = call noundef nonnull align 8 dereferenceable(8) ptr @_ZNKSt6vectorImSaImEEixEm(ptr noundef nonnull align 8 dereferenceable(24) %41, i64 noundef %42) #3
  %44 = load i64, ptr %43, align 8
  %45 = load ptr, ptr %6, align 8
  %46 = getelementptr inbounds %"class.divide_and_conquer::strassens_multiplication::Matrix", ptr %45, i32 0, i32 0
  %47 = load i64, ptr %9, align 8
  %48 = call noundef nonnull align 8 dereferenceable(24) ptr @_ZNKSt6vectorIS_ImSaImEESaIS1_EEixEm(ptr noundef nonnull align 8 dereferenceable(24) %46, i64 noundef %47) #3
  %49 = load i64, ptr %10, align 8
  %50 = call noundef nonnull align 8 dereferenceable(8) ptr @_ZNKSt6vectorImSaImEEixEm(ptr noundef nonnull align 8 dereferenceable(24) %48, i64 noundef %49) #3
  %51 = load i64, ptr %50, align 8
  %52 = mul i64 %44, %51
  %53 = getelementptr inbounds %"class.divide_and_conquer::strassens_multiplication::Matrix", ptr %0, i32 0, i32 0
  %54 = load i64, ptr %8, align 8
  %55 = call noundef nonnull align 8 dereferenceable(24) ptr @_ZNSt6vectorIS_ImSaImEESaIS1_EEixEm(ptr noundef nonnull align 8 dereferenceable(24) %53, i64 noundef %54) #3
  %56 = load i64, ptr %10, align 8
  %57 = call noundef nonnull align 8 dereferenceable(8) ptr @_ZNSt6vectorImSaImEEixEm(ptr noundef nonnull align 8 dereferenceable(24) %55, i64 noundef %56) #3
  %58 = load i64, ptr %57, align 8
  %59 = add i64 %58, %52
  store i64 %59, ptr %57, align 8
  br label %60

60:                                               ; preds = %38
  %61 = load i64, ptr %10, align 8
  %62 = add i64 %61, 1
  store i64 %62, ptr %10, align 8
  br label %31, !llvm.loop !12

63:                                               ; preds = %31
  br label %64

64:                                               ; preds = %63
  %65 = load i64, ptr %9, align 8
  %66 = add i64 %65, 1
  store i64 %66, ptr %9, align 8
  br label %24, !llvm.loop !13

67:                                               ; preds = %24
  br label %68

68:                                               ; preds = %67
  %69 = load i64, ptr %8, align 8
  %70 = add i64 %69, 1
  store i64 %70, ptr %8, align 8
  br label %18, !llvm.loop !14

71:                                               ; preds = %18
  store i1 true, ptr %7, align 1
  %72 = load i1, ptr %7, align 1
  br i1 %72, label %74, label %73

73:                                               ; preds = %71
  call void @_ZN18divide_and_conquer24strassens_multiplication6MatrixImbED2Ev(ptr noundef nonnull align 8 dereferenceable(24) %0) #3
  br label %74

74:                                               ; preds = %73, %71
  ret void
}

; Function Attrs: mustprogress noinline nounwind optnone uwtable
define linkonce_odr dso_local noundef zeroext i1 @_ZNK18divide_and_conquer24strassens_multiplication6MatrixImbEeqERKS2_(ptr noundef nonnull align 8 dereferenceable(24) %0, ptr noundef nonnull align 8 dereferenceable(24) %1) #7 comdat align 2 {
  %3 = alloca i1, align 1
  %4 = alloca ptr, align 8
  %5 = alloca ptr, align 8
  %6 = alloca i64, align 8
  %7 = alloca i64, align 8
  store ptr %0, ptr %4, align 8
  store ptr %1, ptr %5, align 8
  %8 = load ptr, ptr %4, align 8
  %9 = getelementptr inbounds %"class.divide_and_conquer::strassens_multiplication::Matrix", ptr %8, i32 0, i32 0
  %10 = call noundef i64 @_ZNKSt6vectorIS_ImSaImEESaIS1_EE4sizeEv(ptr noundef nonnull align 8 dereferenceable(24) %9) #3
  %11 = load ptr, ptr %5, align 8
  %12 = getelementptr inbounds %"class.divide_and_conquer::strassens_multiplication::Matrix", ptr %11, i32 0, i32 0
  %13 = call noundef i64 @_ZNKSt6vectorIS_ImSaImEESaIS1_EE4sizeEv(ptr noundef nonnull align 8 dereferenceable(24) %12) #3
  %14 = icmp ne i64 %10, %13
  br i1 %14, label %24, label %15

15:                                               ; preds = %2
  %16 = getelementptr inbounds %"class.divide_and_conquer::strassens_multiplication::Matrix", ptr %8, i32 0, i32 0
  %17 = call noundef nonnull align 8 dereferenceable(24) ptr @_ZNKSt6vectorIS_ImSaImEESaIS1_EEixEm(ptr noundef nonnull align 8 dereferenceable(24) %16, i64 noundef 0) #3
  %18 = call noundef i64 @_ZNKSt6vectorImSaImEE4sizeEv(ptr noundef nonnull align 8 dereferenceable(24) %17) #3
  %19 = load ptr, ptr %5, align 8
  %20 = getelementptr inbounds %"class.divide_and_conquer::strassens_multiplication::Matrix", ptr %19, i32 0, i32 0
  %21 = call noundef nonnull align 8 dereferenceable(24) ptr @_ZNKSt6vectorIS_ImSaImEESaIS1_EEixEm(ptr noundef nonnull align 8 dereferenceable(24) %20, i64 noundef 0) #3
  %22 = call noundef i64 @_ZNKSt6vectorImSaImEE4sizeEv(ptr noundef nonnull align 8 dereferenceable(24) %21) #3
  %23 = icmp ne i64 %18, %22
  br i1 %23, label %24, label %25

24:                                               ; preds = %15, %2
  store i1 false, ptr %3, align 1
  br label %64

25:                                               ; preds = %15
  store i64 0, ptr %6, align 8
  br label %26

26:                                               ; preds = %60, %25
  %27 = load i64, ptr %6, align 8
  %28 = getelementptr inbounds %"class.divide_and_conquer::strassens_multiplication::Matrix", ptr %8, i32 0, i32 0
  %29 = call noundef i64 @_ZNKSt6vectorIS_ImSaImEESaIS1_EE4sizeEv(ptr noundef nonnull align 8 dereferenceable(24) %28) #3
  %30 = icmp ult i64 %27, %29
  br i1 %30, label %31, label %63

31:                                               ; preds = %26
  store i64 0, ptr %7, align 8
  br label %32

32:                                               ; preds = %56, %31
  %33 = load i64, ptr %7, align 8
  %34 = getelementptr inbounds %"class.divide_and_conquer::strassens_multiplication::Matrix", ptr %8, i32 0, i32 0
  %35 = load i64, ptr %6, align 8
  %36 = call noundef nonnull align 8 dereferenceable(24) ptr @_ZNKSt6vectorIS_ImSaImEESaIS1_EEixEm(ptr noundef nonnull align 8 dereferenceable(24) %34, i64 noundef %35) #3
  %37 = call noundef i64 @_ZNKSt6vectorImSaImEE4sizeEv(ptr noundef nonnull align 8 dereferenceable(24) %36) #3
  %38 = icmp ult i64 %33, %37
  br i1 %38, label %39, label %59

39:                                               ; preds = %32
  %40 = getelementptr inbounds %"class.divide_and_conquer::strassens_multiplication::Matrix", ptr %8, i32 0, i32 0
  %41 = load i64, ptr %6, align 8
  %42 = call noundef nonnull align 8 dereferenceable(24) ptr @_ZNKSt6vectorIS_ImSaImEESaIS1_EEixEm(ptr noundef nonnull align 8 dereferenceable(24) %40, i64 noundef %41) #3
  %43 = load i64, ptr %7, align 8
  %44 = call noundef nonnull align 8 dereferenceable(8) ptr @_ZNKSt6vectorImSaImEEixEm(ptr noundef nonnull align 8 dereferenceable(24) %42, i64 noundef %43) #3
  %45 = load i64, ptr %44, align 8
  %46 = load ptr, ptr %5, align 8
  %47 = getelementptr inbounds %"class.divide_and_conquer::strassens_multiplication::Matrix", ptr %46, i32 0, i32 0
  %48 = load i64, ptr %6, align 8
  %49 = call noundef nonnull align 8 dereferenceable(24) ptr @_ZNKSt6vectorIS_ImSaImEESaIS1_EEixEm(ptr noundef nonnull align 8 dereferenceable(24) %47, i64 noundef %48) #3
  %50 = load i64, ptr %7, align 8
  %51 = call noundef nonnull align 8 dereferenceable(8) ptr @_ZNKSt6vectorImSaImEEixEm(ptr noundef nonnull align 8 dereferenceable(24) %49, i64 noundef %50) #3
  %52 = load i64, ptr %51, align 8
  %53 = icmp ne i64 %45, %52
  br i1 %53, label %54, label %55

54:                                               ; preds = %39
  store i1 false, ptr %3, align 1
  br label %64

55:                                               ; preds = %39
  br label %56

56:                                               ; preds = %55
  %57 = load i64, ptr %7, align 8
  %58 = add i64 %57, 1
  store i64 %58, ptr %7, align 8
  br label %32, !llvm.loop !15

59:                                               ; preds = %32
  br label %60

60:                                               ; preds = %59
  %61 = load i64, ptr %6, align 8
  %62 = add i64 %61, 1
  store i64 %62, ptr %6, align 8
  br label %26, !llvm.loop !16

63:                                               ; preds = %26
  store i1 true, ptr %3, align 1
  br label %64

64:                                               ; preds = %63, %54, %24
  %65 = load i1, ptr %3, align 1
  ret i1 %65
}

; Function Attrs: noreturn nounwind
declare void @__assert_fail(ptr noundef, ptr noundef, i32 noundef, ptr noundef) #9

; Function Attrs: noinline nounwind optnone uwtable
define linkonce_odr dso_local void @_ZN18divide_and_conquer24strassens_multiplication6MatrixImbED2Ev(ptr noundef nonnull align 8 dereferenceable(24) %0) unnamed_addr #10 comdat align 2 {
  %2 = alloca ptr, align 8
  store ptr %0, ptr %2, align 8
  %3 = load ptr, ptr %2, align 8
  %4 = getelementptr inbounds %"class.divide_and_conquer::strassens_multiplication::Matrix", ptr %3, i32 0, i32 0
  call void @_ZNSt6vectorIS_ImSaImEESaIS1_EED2Ev(ptr noundef nonnull align 8 dereferenceable(24) %4) #3
  ret void
}

; Function Attrs: noinline nounwind optnone uwtable
define linkonce_odr dso_local void @_ZNSt6vectorIS_ImSaImEESaIS1_EEC2Ev(ptr noundef nonnull align 8 dereferenceable(24) %0) unnamed_addr #10 comdat align 2 {
  %2 = alloca ptr, align 8
  store ptr %0, ptr %2, align 8
  %3 = load ptr, ptr %2, align 8
  call void @_ZNSt12_Vector_baseISt6vectorImSaImEESaIS2_EEC2Ev(ptr noundef nonnull align 8 dereferenceable(24) %3) #3
  ret void
}

; Function Attrs: mustprogress noinline optnone uwtable
define linkonce_odr dso_local void @_ZNSt6vectorIS_ImSaImEESaIS1_EE12emplace_backIJS1_EEEvDpOT_(ptr noundef nonnull align 8 dereferenceable(24) %0, ptr noundef nonnull align 8 dereferenceable(24) %1) #5 comdat align 2 {
  %3 = alloca ptr, align 8
  %4 = alloca ptr, align 8
  %5 = alloca %"class.__gnu_cxx::__normal_iterator", align 8
  store ptr %0, ptr %3, align 8
  store ptr %1, ptr %4, align 8
  %6 = load ptr, ptr %3, align 8
  %7 = getelementptr inbounds %"struct.std::_Vector_base", ptr %6, i32 0, i32 0
  %8 = getelementptr inbounds %"struct.std::_Vector_base<std::vector<unsigned long>, std::allocator<std::vector<unsigned long>>>::_Vector_impl_data", ptr %7, i32 0, i32 1
  %9 = load ptr, ptr %8, align 8
  %10 = getelementptr inbounds %"struct.std::_Vector_base", ptr %6, i32 0, i32 0
  %11 = getelementptr inbounds %"struct.std::_Vector_base<std::vector<unsigned long>, std::allocator<std::vector<unsigned long>>>::_Vector_impl_data", ptr %10, i32 0, i32 2
  %12 = load ptr, ptr %11, align 8
  %13 = icmp ne ptr %9, %12
  br i1 %13, label %14, label %24

14:                                               ; preds = %2
  %15 = getelementptr inbounds %"struct.std::_Vector_base", ptr %6, i32 0, i32 0
  %16 = getelementptr inbounds %"struct.std::_Vector_base", ptr %6, i32 0, i32 0
  %17 = getelementptr inbounds %"struct.std::_Vector_base<std::vector<unsigned long>, std::allocator<std::vector<unsigned long>>>::_Vector_impl_data", ptr %16, i32 0, i32 1
  %18 = load ptr, ptr %17, align 8
  %19 = load ptr, ptr %4, align 8
  call void @_ZNSt16allocator_traitsISaISt6vectorImSaImEEEE9constructIS2_JS2_EEEvRS3_PT_DpOT0_(ptr noundef nonnull align 1 dereferenceable(1) %15, ptr noundef %18, ptr noundef nonnull align 8 dereferenceable(24) %19) #3
  %20 = getelementptr inbounds %"struct.std::_Vector_base", ptr %6, i32 0, i32 0
  %21 = getelementptr inbounds %"struct.std::_Vector_base<std::vector<unsigned long>, std::allocator<std::vector<unsigned long>>>::_Vector_impl_data", ptr %20, i32 0, i32 1
  %22 = load ptr, ptr %21, align 8
  %23 = getelementptr inbounds %"class.std::vector.0", ptr %22, i32 1
  store ptr %23, ptr %21, align 8
  br label %30

24:                                               ; preds = %2
  %25 = call ptr @_ZNSt6vectorIS_ImSaImEESaIS1_EE3endEv(ptr noundef nonnull align 8 dereferenceable(24) %6) #3
  %26 = getelementptr inbounds %"class.__gnu_cxx::__normal_iterator", ptr %5, i32 0, i32 0
  store ptr %25, ptr %26, align 8
  %27 = load ptr, ptr %4, align 8
  %28 = getelementptr inbounds %"class.__gnu_cxx::__normal_iterator", ptr %5, i32 0, i32 0
  %29 = load ptr, ptr %28, align 8
  call void @_ZNSt6vectorIS_ImSaImEESaIS1_EE17_M_realloc_insertIJS1_EEEvN9__gnu_cxx17__normal_iteratorIPS1_S3_EEDpOT_(ptr noundef nonnull align 8 dereferenceable(24) %6, ptr %29, ptr noundef nonnull align 8 dereferenceable(24) %27)
  br label %30

30:                                               ; preds = %24, %14
  ret void
}

; Function Attrs: noinline nounwind optnone uwtable
define linkonce_odr dso_local void @_ZNSaImEC2Ev(ptr noundef nonnull align 1 dereferenceable(1) %0) unnamed_addr #10 comdat align 2 {
  %2 = alloca ptr, align 8
  store ptr %0, ptr %2, align 8
  %3 = load ptr, ptr %2, align 8
  call void @_ZNSt15__new_allocatorImEC2Ev(ptr noundef nonnull align 1 dereferenceable(1) %3) #3
  ret void
}

; Function Attrs: noinline optnone uwtable
define linkonce_odr dso_local void @_ZNSt6vectorImSaImEEC2EmRKmRKS0_(ptr noundef nonnull align 8 dereferenceable(24) %0, i64 noundef %1, ptr noundef nonnull align 8 dereferenceable(8) %2, ptr noundef nonnull align 1 dereferenceable(1) %3) unnamed_addr #6 comdat align 2 personality ptr @__gxx_personality_v0 {
  %5 = alloca ptr, align 8
  %6 = alloca i64, align 8
  %7 = alloca ptr, align 8
  %8 = alloca ptr, align 8
  %9 = alloca ptr, align 8
  %10 = alloca i32, align 4
  store ptr %0, ptr %5, align 8
  store i64 %1, ptr %6, align 8
  store ptr %2, ptr %7, align 8
  store ptr %3, ptr %8, align 8
  %11 = load ptr, ptr %5, align 8
  %12 = load i64, ptr %6, align 8
  %13 = load ptr, ptr %8, align 8
  %14 = call noundef i64 @_ZNSt6vectorImSaImEE17_S_check_init_lenEmRKS0_(i64 noundef %12, ptr noundef nonnull align 1 dereferenceable(1) %13)
  %15 = load ptr, ptr %8, align 8
  call void @_ZNSt12_Vector_baseImSaImEEC2EmRKS0_(ptr noundef nonnull align 8 dereferenceable(24) %11, i64 noundef %14, ptr noundef nonnull align 1 dereferenceable(1) %15)
  %16 = load i64, ptr %6, align 8
  %17 = load ptr, ptr %7, align 8
  invoke void @_ZNSt6vectorImSaImEE18_M_fill_initializeEmRKm(ptr noundef nonnull align 8 dereferenceable(24) %11, i64 noundef %16, ptr noundef nonnull align 8 dereferenceable(8) %17)
          to label %18 unwind label %19

18:                                               ; preds = %4
  ret void

19:                                               ; preds = %4
  %20 = landingpad { ptr, i32 }
          cleanup
  %21 = extractvalue { ptr, i32 } %20, 0
  store ptr %21, ptr %9, align 8
  %22 = extractvalue { ptr, i32 } %20, 1
  store i32 %22, ptr %10, align 4
  call void @_ZNSt12_Vector_baseImSaImEED2Ev(ptr noundef nonnull align 8 dereferenceable(24) %11) #3
  br label %23

23:                                               ; preds = %19
  %24 = load ptr, ptr %9, align 8
  %25 = load i32, ptr %10, align 4
  %26 = insertvalue { ptr, i32 } undef, ptr %24, 0
  %27 = insertvalue { ptr, i32 } %26, i32 %25, 1
  resume { ptr, i32 } %27
}

; Function Attrs: noinline nounwind optnone uwtable
define linkonce_odr dso_local void @_ZNSt6vectorImSaImEED2Ev(ptr noundef nonnull align 8 dereferenceable(24) %0) unnamed_addr #10 comdat align 2 personality ptr @__gxx_personality_v0 {
  %2 = alloca ptr, align 8
  store ptr %0, ptr %2, align 8
  %3 = load ptr, ptr %2, align 8
  %4 = getelementptr inbounds %"struct.std::_Vector_base.1", ptr %3, i32 0, i32 0
  %5 = getelementptr inbounds %"struct.std::_Vector_base<unsigned long, std::allocator<unsigned long>>::_Vector_impl_data", ptr %4, i32 0, i32 0
  %6 = load ptr, ptr %5, align 8
  %7 = getelementptr inbounds %"struct.std::_Vector_base.1", ptr %3, i32 0, i32 0
  %8 = getelementptr inbounds %"struct.std::_Vector_base<unsigned long, std::allocator<unsigned long>>::_Vector_impl_data", ptr %7, i32 0, i32 1
  %9 = load ptr, ptr %8, align 8
  %10 = call noundef nonnull align 1 dereferenceable(1) ptr @_ZNSt12_Vector_baseImSaImEE19_M_get_Tp_allocatorEv(ptr noundef nonnull align 8 dereferenceable(24) %3) #3
  invoke void @_ZSt8_DestroyIPmmEvT_S1_RSaIT0_E(ptr noundef %6, ptr noundef %9, ptr noundef nonnull align 1 dereferenceable(1) %10)
          to label %11 unwind label %12

11:                                               ; preds = %1
  call void @_ZNSt12_Vector_baseImSaImEED2Ev(ptr noundef nonnull align 8 dereferenceable(24) %3) #3
  ret void

12:                                               ; preds = %1
  %13 = landingpad { ptr, i32 }
          catch ptr null
  %14 = extractvalue { ptr, i32 } %13, 0
  call void @__clang_call_terminate(ptr %14) #15
  unreachable
}

; Function Attrs: noinline nounwind optnone uwtable
define linkonce_odr dso_local void @_ZNSaImED2Ev(ptr noundef nonnull align 1 dereferenceable(1) %0) unnamed_addr #10 comdat align 2 {
  %2 = alloca ptr, align 8
  store ptr %0, ptr %2, align 8
  %3 = load ptr, ptr %2, align 8
  call void @_ZNSt15__new_allocatorImED2Ev(ptr noundef nonnull align 1 dereferenceable(1) %3) #3
  ret void
}

; Function Attrs: noinline nounwind optnone uwtable
define linkonce_odr dso_local void @_ZNSt6vectorIS_ImSaImEESaIS1_EED2Ev(ptr noundef nonnull align 8 dereferenceable(24) %0) unnamed_addr #10 comdat align 2 personality ptr @__gxx_personality_v0 {
  %2 = alloca ptr, align 8
  store ptr %0, ptr %2, align 8
  %3 = load ptr, ptr %2, align 8
  %4 = getelementptr inbounds %"struct.std::_Vector_base", ptr %3, i32 0, i32 0
  %5 = getelementptr inbounds %"struct.std::_Vector_base<std::vector<unsigned long>, std::allocator<std::vector<unsigned long>>>::_Vector_impl_data", ptr %4, i32 0, i32 0
  %6 = load ptr, ptr %5, align 8
  %7 = getelementptr inbounds %"struct.std::_Vector_base", ptr %3, i32 0, i32 0
  %8 = getelementptr inbounds %"struct.std::_Vector_base<std::vector<unsigned long>, std::allocator<std::vector<unsigned long>>>::_Vector_impl_data", ptr %7, i32 0, i32 1
  %9 = load ptr, ptr %8, align 8
  %10 = call noundef nonnull align 1 dereferenceable(1) ptr @_ZNSt12_Vector_baseISt6vectorImSaImEESaIS2_EE19_M_get_Tp_allocatorEv(ptr noundef nonnull align 8 dereferenceable(24) %3) #3
  invoke void @_ZSt8_DestroyIPSt6vectorImSaImEES2_EvT_S4_RSaIT0_E(ptr noundef %6, ptr noundef %9, ptr noundef nonnull align 1 dereferenceable(1) %10)
          to label %11 unwind label %12

11:                                               ; preds = %1
  call void @_ZNSt12_Vector_baseISt6vectorImSaImEESaIS2_EED2Ev(ptr noundef nonnull align 8 dereferenceable(24) %3) #3
  ret void

12:                                               ; preds = %1
  %13 = landingpad { ptr, i32 }
          catch ptr null
  %14 = extractvalue { ptr, i32 } %13, 0
  call void @__clang_call_terminate(ptr %14) #15
  unreachable
}

; Function Attrs: noinline nounwind optnone uwtable
define linkonce_odr dso_local void @_ZNSt12_Vector_baseISt6vectorImSaImEESaIS2_EEC2Ev(ptr noundef nonnull align 8 dereferenceable(24) %0) unnamed_addr #10 comdat align 2 {
  %2 = alloca ptr, align 8
  store ptr %0, ptr %2, align 8
  %3 = load ptr, ptr %2, align 8
  %4 = getelementptr inbounds %"struct.std::_Vector_base", ptr %3, i32 0, i32 0
  call void @_ZNSt12_Vector_baseISt6vectorImSaImEESaIS2_EE12_Vector_implC2Ev(ptr noundef nonnull align 8 dereferenceable(24) %4) #3
  ret void
}

; Function Attrs: noinline nounwind optnone uwtable
define linkonce_odr dso_local void @_ZNSt12_Vector_baseISt6vectorImSaImEESaIS2_EE12_Vector_implC2Ev(ptr noundef nonnull align 8 dereferenceable(24) %0) unnamed_addr #10 comdat align 2 {
  %2 = alloca ptr, align 8
  store ptr %0, ptr %2, align 8
  %3 = load ptr, ptr %2, align 8
  call void @_ZNSaISt6vectorImSaImEEEC2Ev(ptr noundef nonnull align 1 dereferenceable(1) %3) #3
  call void @_ZNSt12_Vector_baseISt6vectorImSaImEESaIS2_EE17_Vector_impl_dataC2Ev(ptr noundef nonnull align 8 dereferenceable(24) %3) #3
  ret void
}

; Function Attrs: noinline nounwind optnone uwtable
define linkonce_odr dso_local void @_ZNSaISt6vectorImSaImEEEC2Ev(ptr noundef nonnull align 1 dereferenceable(1) %0) unnamed_addr #10 comdat align 2 {
  %2 = alloca ptr, align 8
  store ptr %0, ptr %2, align 8
  %3 = load ptr, ptr %2, align 8
  call void @_ZNSt15__new_allocatorISt6vectorImSaImEEEC2Ev(ptr noundef nonnull align 1 dereferenceable(1) %3) #3
  ret void
}

; Function Attrs: noinline nounwind optnone uwtable
define linkonce_odr dso_local void @_ZNSt12_Vector_baseISt6vectorImSaImEESaIS2_EE17_Vector_impl_dataC2Ev(ptr noundef nonnull align 8 dereferenceable(24) %0) unnamed_addr #10 comdat align 2 {
  %2 = alloca ptr, align 8
  store ptr %0, ptr %2, align 8
  %3 = load ptr, ptr %2, align 8
  %4 = getelementptr inbounds %"struct.std::_Vector_base<std::vector<unsigned long>, std::allocator<std::vector<unsigned long>>>::_Vector_impl_data", ptr %3, i32 0, i32 0
  store ptr null, ptr %4, align 8
  %5 = getelementptr inbounds %"struct.std::_Vector_base<std::vector<unsigned long>, std::allocator<std::vector<unsigned long>>>::_Vector_impl_data", ptr %3, i32 0, i32 1
  store ptr null, ptr %5, align 8
  %6 = getelementptr inbounds %"struct.std::_Vector_base<std::vector<unsigned long>, std::allocator<std::vector<unsigned long>>>::_Vector_impl_data", ptr %3, i32 0, i32 2
  store ptr null, ptr %6, align 8
  ret void
}

; Function Attrs: noinline nounwind optnone uwtable
define linkonce_odr dso_local void @_ZNSt15__new_allocatorISt6vectorImSaImEEEC2Ev(ptr noundef nonnull align 1 dereferenceable(1) %0) unnamed_addr #10 comdat align 2 {
  %2 = alloca ptr, align 8
  store ptr %0, ptr %2, align 8
  %3 = load ptr, ptr %2, align 8
  ret void
}

; Function Attrs: mustprogress noinline nounwind optnone uwtable
define linkonce_odr dso_local void @_ZNSt16allocator_traitsISaISt6vectorImSaImEEEE9constructIS2_JS2_EEEvRS3_PT_DpOT0_(ptr noundef nonnull align 1 dereferenceable(1) %0, ptr noundef %1, ptr noundef nonnull align 8 dereferenceable(24) %2) #7 comdat align 2 {
  %4 = alloca ptr, align 8
  %5 = alloca ptr, align 8
  %6 = alloca ptr, align 8
  store ptr %0, ptr %4, align 8
  store ptr %1, ptr %5, align 8
  store ptr %2, ptr %6, align 8
  %7 = load ptr, ptr %4, align 8
  %8 = load ptr, ptr %5, align 8
  %9 = load ptr, ptr %6, align 8
  call void @_ZNSt15__new_allocatorISt6vectorImSaImEEE9constructIS2_JS2_EEEvPT_DpOT0_(ptr noundef nonnull align 1 dereferenceable(1) %7, ptr noundef %8, ptr noundef nonnull align 8 dereferenceable(24) %9) #3
  ret void
}

; Function Attrs: mustprogress noinline optnone uwtable
define linkonce_odr dso_local void @_ZNSt6vectorIS_ImSaImEESaIS1_EE17_M_realloc_insertIJS1_EEEvN9__gnu_cxx17__normal_iteratorIPS1_S3_EEDpOT_(ptr noundef nonnull align 8 dereferenceable(24) %0, ptr %1, ptr noundef nonnull align 8 dereferenceable(24) %2) #5 comdat align 2 {
  %4 = alloca %"class.__gnu_cxx::__normal_iterator", align 8
  %5 = alloca ptr, align 8
  %6 = alloca ptr, align 8
  %7 = alloca i64, align 8
  %8 = alloca ptr, align 8
  %9 = alloca ptr, align 8
  %10 = alloca i64, align 8
  %11 = alloca %"class.__gnu_cxx::__normal_iterator", align 8
  %12 = alloca ptr, align 8
  %13 = alloca ptr, align 8
  %14 = getelementptr inbounds %"class.__gnu_cxx::__normal_iterator", ptr %4, i32 0, i32 0
  store ptr %1, ptr %14, align 8
  store ptr %0, ptr %5, align 8
  store ptr %2, ptr %6, align 8
  %15 = load ptr, ptr %5, align 8
  %16 = call noundef i64 @_ZNKSt6vectorIS_ImSaImEESaIS1_EE12_M_check_lenEmPKc(ptr noundef nonnull align 8 dereferenceable(24) %15, i64 noundef 1, ptr noundef @.str.5)
  store i64 %16, ptr %7, align 8
  %17 = getelementptr inbounds %"struct.std::_Vector_base", ptr %15, i32 0, i32 0
  %18 = getelementptr inbounds %"struct.std::_Vector_base<std::vector<unsigned long>, std::allocator<std::vector<unsigned long>>>::_Vector_impl_data", ptr %17, i32 0, i32 0
  %19 = load ptr, ptr %18, align 8
  store ptr %19, ptr %8, align 8
  %20 = getelementptr inbounds %"struct.std::_Vector_base", ptr %15, i32 0, i32 0
  %21 = getelementptr inbounds %"struct.std::_Vector_base<std::vector<unsigned long>, std::allocator<std::vector<unsigned long>>>::_Vector_impl_data", ptr %20, i32 0, i32 1
  %22 = load ptr, ptr %21, align 8
  store ptr %22, ptr %9, align 8
  %23 = call ptr @_ZNSt6vectorIS_ImSaImEESaIS1_EE5beginEv(ptr noundef nonnull align 8 dereferenceable(24) %15) #3
  %24 = getelementptr inbounds %"class.__gnu_cxx::__normal_iterator", ptr %11, i32 0, i32 0
  store ptr %23, ptr %24, align 8
  %25 = call noundef i64 @_ZN9__gnu_cxxmiIPSt6vectorImSaImEES1_IS3_SaIS3_EEEENS_17__normal_iteratorIT_T0_E15difference_typeERKSA_SD_(ptr noundef nonnull align 8 dereferenceable(8) %4, ptr noundef nonnull align 8 dereferenceable(8) %11) #3
  store i64 %25, ptr %10, align 8
  %26 = load i64, ptr %7, align 8
  %27 = call noundef ptr @_ZNSt12_Vector_baseISt6vectorImSaImEESaIS2_EE11_M_allocateEm(ptr noundef nonnull align 8 dereferenceable(24) %15, i64 noundef %26)
  store ptr %27, ptr %12, align 8
  %28 = load ptr, ptr %12, align 8
  store ptr %28, ptr %13, align 8
  %29 = getelementptr inbounds %"struct.std::_Vector_base", ptr %15, i32 0, i32 0
  %30 = load ptr, ptr %12, align 8
  %31 = load i64, ptr %10, align 8
  %32 = getelementptr inbounds %"class.std::vector.0", ptr %30, i64 %31
  %33 = load ptr, ptr %6, align 8
  call void @_ZNSt16allocator_traitsISaISt6vectorImSaImEEEE9constructIS2_JS2_EEEvRS3_PT_DpOT0_(ptr noundef nonnull align 1 dereferenceable(1) %29, ptr noundef %32, ptr noundef nonnull align 8 dereferenceable(24) %33) #3
  store ptr null, ptr %13, align 8
  %34 = load ptr, ptr %8, align 8
  %35 = call noundef nonnull align 8 dereferenceable(8) ptr @_ZNK9__gnu_cxx17__normal_iteratorIPSt6vectorImSaImEES1_IS3_SaIS3_EEE4baseEv(ptr noundef nonnull align 8 dereferenceable(8) %4) #3
  %36 = load ptr, ptr %35, align 8
  %37 = load ptr, ptr %12, align 8
  %38 = call noundef nonnull align 1 dereferenceable(1) ptr @_ZNSt12_Vector_baseISt6vectorImSaImEESaIS2_EE19_M_get_Tp_allocatorEv(ptr noundef nonnull align 8 dereferenceable(24) %15) #3
  %39 = call noundef ptr @_ZNSt6vectorIS_ImSaImEESaIS1_EE11_S_relocateEPS1_S4_S4_RS2_(ptr noundef %34, ptr noundef %36, ptr noundef %37, ptr noundef nonnull align 1 dereferenceable(1) %38) #3
  store ptr %39, ptr %13, align 8
  %40 = load ptr, ptr %13, align 8
  %41 = getelementptr inbounds %"class.std::vector.0", ptr %40, i32 1
  store ptr %41, ptr %13, align 8
  %42 = call noundef nonnull align 8 dereferenceable(8) ptr @_ZNK9__gnu_cxx17__normal_iteratorIPSt6vectorImSaImEES1_IS3_SaIS3_EEE4baseEv(ptr noundef nonnull align 8 dereferenceable(8) %4) #3
  %43 = load ptr, ptr %42, align 8
  %44 = load ptr, ptr %9, align 8
  %45 = load ptr, ptr %13, align 8
  %46 = call noundef nonnull align 1 dereferenceable(1) ptr @_ZNSt12_Vector_baseISt6vectorImSaImEESaIS2_EE19_M_get_Tp_allocatorEv(ptr noundef nonnull align 8 dereferenceable(24) %15) #3
  %47 = call noundef ptr @_ZNSt6vectorIS_ImSaImEESaIS1_EE11_S_relocateEPS1_S4_S4_RS2_(ptr noundef %43, ptr noundef %44, ptr noundef %45, ptr noundef nonnull align 1 dereferenceable(1) %46) #3
  store ptr %47, ptr %13, align 8
  %48 = load ptr, ptr %8, align 8
  %49 = getelementptr inbounds %"struct.std::_Vector_base", ptr %15, i32 0, i32 0
  %50 = getelementptr inbounds %"struct.std::_Vector_base<std::vector<unsigned long>, std::allocator<std::vector<unsigned long>>>::_Vector_impl_data", ptr %49, i32 0, i32 2
  %51 = load ptr, ptr %50, align 8
  %52 = load ptr, ptr %8, align 8
  %53 = ptrtoint ptr %51 to i64
  %54 = ptrtoint ptr %52 to i64
  %55 = sub i64 %53, %54
  %56 = sdiv exact i64 %55, 24
  call void @_ZNSt12_Vector_baseISt6vectorImSaImEESaIS2_EE13_M_deallocateEPS2_m(ptr noundef nonnull align 8 dereferenceable(24) %15, ptr noundef %48, i64 noundef %56)
  %57 = load ptr, ptr %12, align 8
  %58 = getelementptr inbounds %"struct.std::_Vector_base", ptr %15, i32 0, i32 0
  %59 = getelementptr inbounds %"struct.std::_Vector_base<std::vector<unsigned long>, std::allocator<std::vector<unsigned long>>>::_Vector_impl_data", ptr %58, i32 0, i32 0
  store ptr %57, ptr %59, align 8
  %60 = load ptr, ptr %13, align 8
  %61 = getelementptr inbounds %"struct.std::_Vector_base", ptr %15, i32 0, i32 0
  %62 = getelementptr inbounds %"struct.std::_Vector_base<std::vector<unsigned long>, std::allocator<std::vector<unsigned long>>>::_Vector_impl_data", ptr %61, i32 0, i32 1
  store ptr %60, ptr %62, align 8
  %63 = load ptr, ptr %12, align 8
  %64 = load i64, ptr %7, align 8
  %65 = getelementptr inbounds %"class.std::vector.0", ptr %63, i64 %64
  %66 = getelementptr inbounds %"struct.std::_Vector_base", ptr %15, i32 0, i32 0
  %67 = getelementptr inbounds %"struct.std::_Vector_base<std::vector<unsigned long>, std::allocator<std::vector<unsigned long>>>::_Vector_impl_data", ptr %66, i32 0, i32 2
  store ptr %65, ptr %67, align 8
  ret void
}

; Function Attrs: mustprogress noinline nounwind optnone uwtable
define linkonce_odr dso_local ptr @_ZNSt6vectorIS_ImSaImEESaIS1_EE3endEv(ptr noundef nonnull align 8 dereferenceable(24) %0) #7 comdat align 2 {
  %2 = alloca %"class.__gnu_cxx::__normal_iterator", align 8
  %3 = alloca ptr, align 8
  store ptr %0, ptr %3, align 8
  %4 = load ptr, ptr %3, align 8
  %5 = getelementptr inbounds %"struct.std::_Vector_base", ptr %4, i32 0, i32 0
  %6 = getelementptr inbounds %"struct.std::_Vector_base<std::vector<unsigned long>, std::allocator<std::vector<unsigned long>>>::_Vector_impl_data", ptr %5, i32 0, i32 1
  call void @_ZN9__gnu_cxx17__normal_iteratorIPSt6vectorImSaImEES1_IS3_SaIS3_EEEC2ERKS4_(ptr noundef nonnull align 8 dereferenceable(8) %2, ptr noundef nonnull align 8 dereferenceable(8) %6) #3
  %7 = getelementptr inbounds %"class.__gnu_cxx::__normal_iterator", ptr %2, i32 0, i32 0
  %8 = load ptr, ptr %7, align 8
  ret ptr %8
}

; Function Attrs: mustprogress noinline nounwind optnone uwtable
define linkonce_odr dso_local void @_ZNSt15__new_allocatorISt6vectorImSaImEEE9constructIS2_JS2_EEEvPT_DpOT0_(ptr noundef nonnull align 1 dereferenceable(1) %0, ptr noundef %1, ptr noundef nonnull align 8 dereferenceable(24) %2) #7 comdat align 2 {
  %4 = alloca ptr, align 8
  %5 = alloca ptr, align 8
  %6 = alloca ptr, align 8
  store ptr %0, ptr %4, align 8
  store ptr %1, ptr %5, align 8
  store ptr %2, ptr %6, align 8
  %7 = load ptr, ptr %4, align 8
  %8 = load ptr, ptr %5, align 8
  %9 = load ptr, ptr %6, align 8
  call void @_ZNSt6vectorImSaImEEC2EOS1_(ptr noundef nonnull align 8 dereferenceable(24) %8, ptr noundef nonnull align 8 dereferenceable(24) %9) #3
  ret void
}

; Function Attrs: noinline nounwind optnone uwtable
define linkonce_odr dso_local void @_ZNSt6vectorImSaImEEC2EOS1_(ptr noundef nonnull align 8 dereferenceable(24) %0, ptr noundef nonnull align 8 dereferenceable(24) %1) unnamed_addr #10 comdat align 2 {
  %3 = alloca ptr, align 8
  %4 = alloca ptr, align 8
  store ptr %0, ptr %3, align 8
  store ptr %1, ptr %4, align 8
  %5 = load ptr, ptr %3, align 8
  %6 = load ptr, ptr %4, align 8
  call void @_ZNSt12_Vector_baseImSaImEEC2EOS1_(ptr noundef nonnull align 8 dereferenceable(24) %5, ptr noundef nonnull align 8 dereferenceable(24) %6) #3
  ret void
}

; Function Attrs: noinline nounwind optnone uwtable
define linkonce_odr dso_local void @_ZNSt12_Vector_baseImSaImEEC2EOS1_(ptr noundef nonnull align 8 dereferenceable(24) %0, ptr noundef nonnull align 8 dereferenceable(24) %1) unnamed_addr #10 comdat align 2 {
  %3 = alloca ptr, align 8
  %4 = alloca ptr, align 8
  store ptr %0, ptr %3, align 8
  store ptr %1, ptr %4, align 8
  %5 = load ptr, ptr %3, align 8
  %6 = getelementptr inbounds %"struct.std::_Vector_base.1", ptr %5, i32 0, i32 0
  %7 = load ptr, ptr %4, align 8
  %8 = getelementptr inbounds %"struct.std::_Vector_base.1", ptr %7, i32 0, i32 0
  call void @_ZNSt12_Vector_baseImSaImEE12_Vector_implC2EOS2_(ptr noundef nonnull align 8 dereferenceable(24) %6, ptr noundef nonnull align 8 dereferenceable(24) %8) #3
  ret void
}

; Function Attrs: noinline nounwind optnone uwtable
define linkonce_odr dso_local void @_ZNSt12_Vector_baseImSaImEE12_Vector_implC2EOS2_(ptr noundef nonnull align 8 dereferenceable(24) %0, ptr noundef nonnull align 8 dereferenceable(24) %1) unnamed_addr #10 comdat align 2 {
  %3 = alloca ptr, align 8
  %4 = alloca ptr, align 8
  store ptr %0, ptr %3, align 8
  store ptr %1, ptr %4, align 8
  %5 = load ptr, ptr %3, align 8
  %6 = load ptr, ptr %4, align 8
  call void @_ZNSaImEC2ERKS_(ptr noundef nonnull align 1 dereferenceable(1) %5, ptr noundef nonnull align 1 dereferenceable(1) %6) #3
  %7 = load ptr, ptr %4, align 8
  call void @_ZNSt12_Vector_baseImSaImEE17_Vector_impl_dataC2EOS2_(ptr noundef nonnull align 8 dereferenceable(24) %5, ptr noundef nonnull align 8 dereferenceable(24) %7) #3
  ret void
}

; Function Attrs: noinline nounwind optnone uwtable
define linkonce_odr dso_local void @_ZNSt12_Vector_baseImSaImEE17_Vector_impl_dataC2EOS2_(ptr noundef nonnull align 8 dereferenceable(24) %0, ptr noundef nonnull align 8 dereferenceable(24) %1) unnamed_addr #10 comdat align 2 {
  %3 = alloca ptr, align 8
  %4 = alloca ptr, align 8
  store ptr %0, ptr %3, align 8
  store ptr %1, ptr %4, align 8
  %5 = load ptr, ptr %3, align 8
  %6 = getelementptr inbounds %"struct.std::_Vector_base<unsigned long, std::allocator<unsigned long>>::_Vector_impl_data", ptr %5, i32 0, i32 0
  %7 = load ptr, ptr %4, align 8
  %8 = getelementptr inbounds %"struct.std::_Vector_base<unsigned long, std::allocator<unsigned long>>::_Vector_impl_data", ptr %7, i32 0, i32 0
  %9 = load ptr, ptr %8, align 8
  store ptr %9, ptr %6, align 8
  %10 = getelementptr inbounds %"struct.std::_Vector_base<unsigned long, std::allocator<unsigned long>>::_Vector_impl_data", ptr %5, i32 0, i32 1
  %11 = load ptr, ptr %4, align 8
  %12 = getelementptr inbounds %"struct.std::_Vector_base<unsigned long, std::allocator<unsigned long>>::_Vector_impl_data", ptr %11, i32 0, i32 1
  %13 = load ptr, ptr %12, align 8
  store ptr %13, ptr %10, align 8
  %14 = getelementptr inbounds %"struct.std::_Vector_base<unsigned long, std::allocator<unsigned long>>::_Vector_impl_data", ptr %5, i32 0, i32 2
  %15 = load ptr, ptr %4, align 8
  %16 = getelementptr inbounds %"struct.std::_Vector_base<unsigned long, std::allocator<unsigned long>>::_Vector_impl_data", ptr %15, i32 0, i32 2
  %17 = load ptr, ptr %16, align 8
  store ptr %17, ptr %14, align 8
  %18 = load ptr, ptr %4, align 8
  %19 = getelementptr inbounds %"struct.std::_Vector_base<unsigned long, std::allocator<unsigned long>>::_Vector_impl_data", ptr %18, i32 0, i32 2
  store ptr null, ptr %19, align 8
  %20 = load ptr, ptr %4, align 8
  %21 = getelementptr inbounds %"struct.std::_Vector_base<unsigned long, std::allocator<unsigned long>>::_Vector_impl_data", ptr %20, i32 0, i32 1
  store ptr null, ptr %21, align 8
  %22 = load ptr, ptr %4, align 8
  %23 = getelementptr inbounds %"struct.std::_Vector_base<unsigned long, std::allocator<unsigned long>>::_Vector_impl_data", ptr %22, i32 0, i32 0
  store ptr null, ptr %23, align 8
  ret void
}

; Function Attrs: noinline nounwind optnone uwtable
define linkonce_odr dso_local void @_ZNSt15__new_allocatorImEC2ERKS0_(ptr noundef nonnull align 1 dereferenceable(1) %0, ptr noundef nonnull align 1 dereferenceable(1) %1) unnamed_addr #10 comdat align 2 {
  %3 = alloca ptr, align 8
  %4 = alloca ptr, align 8
  store ptr %0, ptr %3, align 8
  store ptr %1, ptr %4, align 8
  %5 = load ptr, ptr %3, align 8
  ret void
}

; Function Attrs: mustprogress noinline optnone uwtable
define linkonce_odr dso_local noundef i64 @_ZNKSt6vectorIS_ImSaImEESaIS1_EE12_M_check_lenEmPKc(ptr noundef nonnull align 8 dereferenceable(24) %0, i64 noundef %1, ptr noundef %2) #5 comdat align 2 {
  %4 = alloca ptr, align 8
  %5 = alloca i64, align 8
  %6 = alloca ptr, align 8
  %7 = alloca i64, align 8
  %8 = alloca i64, align 8
  store ptr %0, ptr %4, align 8
  store i64 %1, ptr %5, align 8
  store ptr %2, ptr %6, align 8
  %9 = load ptr, ptr %4, align 8
  %10 = call noundef i64 @_ZNKSt6vectorIS_ImSaImEESaIS1_EE8max_sizeEv(ptr noundef nonnull align 8 dereferenceable(24) %9) #3
  %11 = call noundef i64 @_ZNKSt6vectorIS_ImSaImEESaIS1_EE4sizeEv(ptr noundef nonnull align 8 dereferenceable(24) %9) #3
  %12 = sub i64 %10, %11
  %13 = load i64, ptr %5, align 8
  %14 = icmp ult i64 %12, %13
  br i1 %14, label %15, label %17

15:                                               ; preds = %3
  %16 = load ptr, ptr %6, align 8
  call void @_ZSt20__throw_length_errorPKc(ptr noundef %16) #16
  unreachable

17:                                               ; preds = %3
  %18 = call noundef i64 @_ZNKSt6vectorIS_ImSaImEESaIS1_EE4sizeEv(ptr noundef nonnull align 8 dereferenceable(24) %9) #3
  %19 = call noundef i64 @_ZNKSt6vectorIS_ImSaImEESaIS1_EE4sizeEv(ptr noundef nonnull align 8 dereferenceable(24) %9) #3
  store i64 %19, ptr %8, align 8
  %20 = call noundef nonnull align 8 dereferenceable(8) ptr @_ZSt3maxImERKT_S2_S2_(ptr noundef nonnull align 8 dereferenceable(8) %8, ptr noundef nonnull align 8 dereferenceable(8) %5)
  %21 = load i64, ptr %20, align 8
  %22 = add i64 %18, %21
  store i64 %22, ptr %7, align 8
  %23 = load i64, ptr %7, align 8
  %24 = call noundef i64 @_ZNKSt6vectorIS_ImSaImEESaIS1_EE4sizeEv(ptr noundef nonnull align 8 dereferenceable(24) %9) #3
  %25 = icmp ult i64 %23, %24
  br i1 %25, label %30, label %26

26:                                               ; preds = %17
  %27 = load i64, ptr %7, align 8
  %28 = call noundef i64 @_ZNKSt6vectorIS_ImSaImEESaIS1_EE8max_sizeEv(ptr noundef nonnull align 8 dereferenceable(24) %9) #3
  %29 = icmp ugt i64 %27, %28
  br i1 %29, label %30, label %32

30:                                               ; preds = %26, %17
  %31 = call noundef i64 @_ZNKSt6vectorIS_ImSaImEESaIS1_EE8max_sizeEv(ptr noundef nonnull align 8 dereferenceable(24) %9) #3
  br label %34

32:                                               ; preds = %26
  %33 = load i64, ptr %7, align 8
  br label %34

34:                                               ; preds = %32, %30
  %35 = phi i64 [ %31, %30 ], [ %33, %32 ]
  ret i64 %35
}

; Function Attrs: mustprogress noinline nounwind optnone uwtable
define linkonce_odr dso_local noundef i64 @_ZN9__gnu_cxxmiIPSt6vectorImSaImEES1_IS3_SaIS3_EEEENS_17__normal_iteratorIT_T0_E15difference_typeERKSA_SD_(ptr noundef nonnull align 8 dereferenceable(8) %0, ptr noundef nonnull align 8 dereferenceable(8) %1) #7 comdat {
  %3 = alloca ptr, align 8
  %4 = alloca ptr, align 8
  store ptr %0, ptr %3, align 8
  store ptr %1, ptr %4, align 8
  %5 = load ptr, ptr %3, align 8
  %6 = call noundef nonnull align 8 dereferenceable(8) ptr @_ZNK9__gnu_cxx17__normal_iteratorIPSt6vectorImSaImEES1_IS3_SaIS3_EEE4baseEv(ptr noundef nonnull align 8 dereferenceable(8) %5) #3
  %7 = load ptr, ptr %6, align 8
  %8 = load ptr, ptr %4, align 8
  %9 = call noundef nonnull align 8 dereferenceable(8) ptr @_ZNK9__gnu_cxx17__normal_iteratorIPSt6vectorImSaImEES1_IS3_SaIS3_EEE4baseEv(ptr noundef nonnull align 8 dereferenceable(8) %8) #3
  %10 = load ptr, ptr %9, align 8
  %11 = ptrtoint ptr %7 to i64
  %12 = ptrtoint ptr %10 to i64
  %13 = sub i64 %11, %12
  %14 = sdiv exact i64 %13, 24
  ret i64 %14
}

; Function Attrs: mustprogress noinline nounwind optnone uwtable
define linkonce_odr dso_local ptr @_ZNSt6vectorIS_ImSaImEESaIS1_EE5beginEv(ptr noundef nonnull align 8 dereferenceable(24) %0) #7 comdat align 2 {
  %2 = alloca %"class.__gnu_cxx::__normal_iterator", align 8
  %3 = alloca ptr, align 8
  store ptr %0, ptr %3, align 8
  %4 = load ptr, ptr %3, align 8
  %5 = getelementptr inbounds %"struct.std::_Vector_base", ptr %4, i32 0, i32 0
  %6 = getelementptr inbounds %"struct.std::_Vector_base<std::vector<unsigned long>, std::allocator<std::vector<unsigned long>>>::_Vector_impl_data", ptr %5, i32 0, i32 0
  call void @_ZN9__gnu_cxx17__normal_iteratorIPSt6vectorImSaImEES1_IS3_SaIS3_EEEC2ERKS4_(ptr noundef nonnull align 8 dereferenceable(8) %2, ptr noundef nonnull align 8 dereferenceable(8) %6) #3
  %7 = getelementptr inbounds %"class.__gnu_cxx::__normal_iterator", ptr %2, i32 0, i32 0
  %8 = load ptr, ptr %7, align 8
  ret ptr %8
}

; Function Attrs: mustprogress noinline optnone uwtable
define linkonce_odr dso_local noundef ptr @_ZNSt12_Vector_baseISt6vectorImSaImEESaIS2_EE11_M_allocateEm(ptr noundef nonnull align 8 dereferenceable(24) %0, i64 noundef %1) #5 comdat align 2 {
  %3 = alloca ptr, align 8
  %4 = alloca i64, align 8
  store ptr %0, ptr %3, align 8
  store i64 %1, ptr %4, align 8
  %5 = load ptr, ptr %3, align 8
  %6 = load i64, ptr %4, align 8
  %7 = icmp ne i64 %6, 0
  br i1 %7, label %8, label %12

8:                                                ; preds = %2
  %9 = getelementptr inbounds %"struct.std::_Vector_base", ptr %5, i32 0, i32 0
  %10 = load i64, ptr %4, align 8
  %11 = call noundef ptr @_ZNSt16allocator_traitsISaISt6vectorImSaImEEEE8allocateERS3_m(ptr noundef nonnull align 1 dereferenceable(1) %9, i64 noundef %10)
  br label %13

12:                                               ; preds = %2
  br label %13

13:                                               ; preds = %12, %8
  %14 = phi ptr [ %11, %8 ], [ null, %12 ]
  ret ptr %14
}

; Function Attrs: mustprogress noinline nounwind optnone uwtable
define linkonce_odr dso_local noundef ptr @_ZNSt6vectorIS_ImSaImEESaIS1_EE11_S_relocateEPS1_S4_S4_RS2_(ptr noundef %0, ptr noundef %1, ptr noundef %2, ptr noundef nonnull align 1 dereferenceable(1) %3) #7 comdat align 2 {
  %5 = alloca ptr, align 8
  %6 = alloca ptr, align 8
  %7 = alloca ptr, align 8
  %8 = alloca ptr, align 8
  %9 = alloca %"struct.std::integral_constant", align 1
  store ptr %0, ptr %5, align 8
  store ptr %1, ptr %6, align 8
  store ptr %2, ptr %7, align 8
  store ptr %3, ptr %8, align 8
  %10 = load ptr, ptr %5, align 8
  %11 = load ptr, ptr %6, align 8
  %12 = load ptr, ptr %7, align 8
  %13 = load ptr, ptr %8, align 8
  %14 = call noundef ptr @_ZNSt6vectorIS_ImSaImEESaIS1_EE14_S_do_relocateEPS1_S4_S4_RS2_St17integral_constantIbLb1EE(ptr noundef %10, ptr noundef %11, ptr noundef %12, ptr noundef nonnull align 1 dereferenceable(1) %13) #3
  ret ptr %14
}

; Function Attrs: mustprogress noinline nounwind optnone uwtable
define linkonce_odr dso_local noundef nonnull align 8 dereferenceable(8) ptr @_ZNK9__gnu_cxx17__normal_iteratorIPSt6vectorImSaImEES1_IS3_SaIS3_EEE4baseEv(ptr noundef nonnull align 8 dereferenceable(8) %0) #7 comdat align 2 {
  %2 = alloca ptr, align 8
  store ptr %0, ptr %2, align 8
  %3 = load ptr, ptr %2, align 8
  %4 = getelementptr inbounds %"class.__gnu_cxx::__normal_iterator", ptr %3, i32 0, i32 0
  ret ptr %4
}

; Function Attrs: mustprogress noinline nounwind optnone uwtable
define linkonce_odr dso_local noundef nonnull align 1 dereferenceable(1) ptr @_ZNSt12_Vector_baseISt6vectorImSaImEESaIS2_EE19_M_get_Tp_allocatorEv(ptr noundef nonnull align 8 dereferenceable(24) %0) #7 comdat align 2 {
  %2 = alloca ptr, align 8
  store ptr %0, ptr %2, align 8
  %3 = load ptr, ptr %2, align 8
  %4 = getelementptr inbounds %"struct.std::_Vector_base", ptr %3, i32 0, i32 0
  ret ptr %4
}

; Function Attrs: mustprogress noinline optnone uwtable
define linkonce_odr dso_local void @_ZNSt12_Vector_baseISt6vectorImSaImEESaIS2_EE13_M_deallocateEPS2_m(ptr noundef nonnull align 8 dereferenceable(24) %0, ptr noundef %1, i64 noundef %2) #5 comdat align 2 {
  %4 = alloca ptr, align 8
  %5 = alloca ptr, align 8
  %6 = alloca i64, align 8
  store ptr %0, ptr %4, align 8
  store ptr %1, ptr %5, align 8
  store i64 %2, ptr %6, align 8
  %7 = load ptr, ptr %4, align 8
  %8 = load ptr, ptr %5, align 8
  %9 = icmp ne ptr %8, null
  br i1 %9, label %10, label %14

10:                                               ; preds = %3
  %11 = getelementptr inbounds %"struct.std::_Vector_base", ptr %7, i32 0, i32 0
  %12 = load ptr, ptr %5, align 8
  %13 = load i64, ptr %6, align 8
  call void @_ZNSt16allocator_traitsISaISt6vectorImSaImEEEE10deallocateERS3_PS2_m(ptr noundef nonnull align 1 dereferenceable(1) %11, ptr noundef %12, i64 noundef %13)
  br label %14

14:                                               ; preds = %10, %3
  ret void
}

; Function Attrs: mustprogress noinline nounwind optnone uwtable
define linkonce_odr dso_local noundef i64 @_ZNKSt6vectorIS_ImSaImEESaIS1_EE8max_sizeEv(ptr noundef nonnull align 8 dereferenceable(24) %0) #7 comdat align 2 {
  %2 = alloca ptr, align 8
  store ptr %0, ptr %2, align 8
  %3 = load ptr, ptr %2, align 8
  %4 = call noundef nonnull align 1 dereferenceable(1) ptr @_ZNKSt12_Vector_baseISt6vectorImSaImEESaIS2_EE19_M_get_Tp_allocatorEv(ptr noundef nonnull align 8 dereferenceable(24) %3) #3
  %5 = call noundef i64 @_ZNSt6vectorIS_ImSaImEESaIS1_EE11_S_max_sizeERKS2_(ptr noundef nonnull align 1 dereferenceable(1) %4) #3
  ret i64 %5
}

; Function Attrs: mustprogress noinline nounwind optnone uwtable
define linkonce_odr dso_local noundef i64 @_ZNKSt6vectorIS_ImSaImEESaIS1_EE4sizeEv(ptr noundef nonnull align 8 dereferenceable(24) %0) #7 comdat align 2 {
  %2 = alloca ptr, align 8
  store ptr %0, ptr %2, align 8
  %3 = load ptr, ptr %2, align 8
  %4 = getelementptr inbounds %"struct.std::_Vector_base", ptr %3, i32 0, i32 0
  %5 = getelementptr inbounds %"struct.std::_Vector_base<std::vector<unsigned long>, std::allocator<std::vector<unsigned long>>>::_Vector_impl_data", ptr %4, i32 0, i32 1
  %6 = load ptr, ptr %5, align 8
  %7 = getelementptr inbounds %"struct.std::_Vector_base", ptr %3, i32 0, i32 0
  %8 = getelementptr inbounds %"struct.std::_Vector_base<std::vector<unsigned long>, std::allocator<std::vector<unsigned long>>>::_Vector_impl_data", ptr %7, i32 0, i32 0
  %9 = load ptr, ptr %8, align 8
  %10 = ptrtoint ptr %6 to i64
  %11 = ptrtoint ptr %9 to i64
  %12 = sub i64 %10, %11
  %13 = sdiv exact i64 %12, 24
  ret i64 %13
}

; Function Attrs: noreturn
declare void @_ZSt20__throw_length_errorPKc(ptr noundef) #11

; Function Attrs: mustprogress noinline nounwind optnone uwtable
define linkonce_odr dso_local noundef nonnull align 8 dereferenceable(8) ptr @_ZSt3maxImERKT_S2_S2_(ptr noundef nonnull align 8 dereferenceable(8) %0, ptr noundef nonnull align 8 dereferenceable(8) %1) #7 comdat {
  %3 = alloca ptr, align 8
  %4 = alloca ptr, align 8
  %5 = alloca ptr, align 8
  store ptr %0, ptr %4, align 8
  store ptr %1, ptr %5, align 8
  %6 = load ptr, ptr %4, align 8
  %7 = load i64, ptr %6, align 8
  %8 = load ptr, ptr %5, align 8
  %9 = load i64, ptr %8, align 8
  %10 = icmp ult i64 %7, %9
  br i1 %10, label %11, label %13

11:                                               ; preds = %2
  %12 = load ptr, ptr %5, align 8
  store ptr %12, ptr %3, align 8
  br label %15

13:                                               ; preds = %2
  %14 = load ptr, ptr %4, align 8
  store ptr %14, ptr %3, align 8
  br label %15

15:                                               ; preds = %13, %11
  %16 = load ptr, ptr %3, align 8
  ret ptr %16
}

; Function Attrs: mustprogress noinline nounwind optnone uwtable
define linkonce_odr dso_local noundef i64 @_ZNSt6vectorIS_ImSaImEESaIS1_EE11_S_max_sizeERKS2_(ptr noundef nonnull align 1 dereferenceable(1) %0) #7 comdat align 2 personality ptr @__gxx_personality_v0 {
  %2 = alloca ptr, align 8
  %3 = alloca i64, align 8
  %4 = alloca i64, align 8
  store ptr %0, ptr %2, align 8
  store i64 384307168202282325, ptr %3, align 8
  %5 = load ptr, ptr %2, align 8
  %6 = call noundef i64 @_ZNSt16allocator_traitsISaISt6vectorImSaImEEEE8max_sizeERKS3_(ptr noundef nonnull align 1 dereferenceable(1) %5) #3
  store i64 %6, ptr %4, align 8
  %7 = invoke noundef nonnull align 8 dereferenceable(8) ptr @_ZSt3minImERKT_S2_S2_(ptr noundef nonnull align 8 dereferenceable(8) %3, ptr noundef nonnull align 8 dereferenceable(8) %4)
          to label %8 unwind label %10

8:                                                ; preds = %1
  %9 = load i64, ptr %7, align 8
  ret i64 %9

10:                                               ; preds = %1
  %11 = landingpad { ptr, i32 }
          catch ptr null
  %12 = extractvalue { ptr, i32 } %11, 0
  call void @__clang_call_terminate(ptr %12) #15
  unreachable
}

; Function Attrs: mustprogress noinline nounwind optnone uwtable
define linkonce_odr dso_local noundef nonnull align 1 dereferenceable(1) ptr @_ZNKSt12_Vector_baseISt6vectorImSaImEESaIS2_EE19_M_get_Tp_allocatorEv(ptr noundef nonnull align 8 dereferenceable(24) %0) #7 comdat align 2 {
  %2 = alloca ptr, align 8
  store ptr %0, ptr %2, align 8
  %3 = load ptr, ptr %2, align 8
  %4 = getelementptr inbounds %"struct.std::_Vector_base", ptr %3, i32 0, i32 0
  ret ptr %4
}

; Function Attrs: mustprogress noinline nounwind optnone uwtable
define linkonce_odr dso_local noundef i64 @_ZNSt16allocator_traitsISaISt6vectorImSaImEEEE8max_sizeERKS3_(ptr noundef nonnull align 1 dereferenceable(1) %0) #7 comdat align 2 {
  %2 = alloca ptr, align 8
  store ptr %0, ptr %2, align 8
  %3 = load ptr, ptr %2, align 8
  %4 = call noundef i64 @_ZNKSt15__new_allocatorISt6vectorImSaImEEE8max_sizeEv(ptr noundef nonnull align 1 dereferenceable(1) %3) #3
  ret i64 %4
}

; Function Attrs: mustprogress noinline nounwind optnone uwtable
define linkonce_odr dso_local noundef nonnull align 8 dereferenceable(8) ptr @_ZSt3minImERKT_S2_S2_(ptr noundef nonnull align 8 dereferenceable(8) %0, ptr noundef nonnull align 8 dereferenceable(8) %1) #7 comdat {
  %3 = alloca ptr, align 8
  %4 = alloca ptr, align 8
  %5 = alloca ptr, align 8
  store ptr %0, ptr %4, align 8
  store ptr %1, ptr %5, align 8
  %6 = load ptr, ptr %5, align 8
  %7 = load i64, ptr %6, align 8
  %8 = load ptr, ptr %4, align 8
  %9 = load i64, ptr %8, align 8
  %10 = icmp ult i64 %7, %9
  br i1 %10, label %11, label %13

11:                                               ; preds = %2
  %12 = load ptr, ptr %5, align 8
  store ptr %12, ptr %3, align 8
  br label %15

13:                                               ; preds = %2
  %14 = load ptr, ptr %4, align 8
  store ptr %14, ptr %3, align 8
  br label %15

15:                                               ; preds = %13, %11
  %16 = load ptr, ptr %3, align 8
  ret ptr %16
}

; Function Attrs: noinline noreturn nounwind
define linkonce_odr hidden void @__clang_call_terminate(ptr %0) #12 comdat {
  %2 = call ptr @__cxa_begin_catch(ptr %0) #3
  call void @_ZSt9terminatev() #15
  unreachable
}

declare ptr @__cxa_begin_catch(ptr)

declare void @_ZSt9terminatev()

; Function Attrs: mustprogress noinline nounwind optnone uwtable
define linkonce_odr dso_local noundef i64 @_ZNKSt15__new_allocatorISt6vectorImSaImEEE8max_sizeEv(ptr noundef nonnull align 1 dereferenceable(1) %0) #7 comdat align 2 {
  %2 = alloca ptr, align 8
  store ptr %0, ptr %2, align 8
  %3 = load ptr, ptr %2, align 8
  %4 = call noundef i64 @_ZNKSt15__new_allocatorISt6vectorImSaImEEE11_M_max_sizeEv(ptr noundef nonnull align 1 dereferenceable(1) %3) #3
  ret i64 %4
}

; Function Attrs: mustprogress noinline nounwind optnone uwtable
define linkonce_odr dso_local noundef i64 @_ZNKSt15__new_allocatorISt6vectorImSaImEEE11_M_max_sizeEv(ptr noundef nonnull align 1 dereferenceable(1) %0) #7 comdat align 2 {
  %2 = alloca ptr, align 8
  store ptr %0, ptr %2, align 8
  %3 = load ptr, ptr %2, align 8
  ret i64 384307168202282325
}

; Function Attrs: noinline nounwind optnone uwtable
define linkonce_odr dso_local void @_ZN9__gnu_cxx17__normal_iteratorIPSt6vectorImSaImEES1_IS3_SaIS3_EEEC2ERKS4_(ptr noundef nonnull align 8 dereferenceable(8) %0, ptr noundef nonnull align 8 dereferenceable(8) %1) unnamed_addr #10 comdat align 2 {
  %3 = alloca ptr, align 8
  %4 = alloca ptr, align 8
  store ptr %0, ptr %3, align 8
  store ptr %1, ptr %4, align 8
  %5 = load ptr, ptr %3, align 8
  %6 = getelementptr inbounds %"class.__gnu_cxx::__normal_iterator", ptr %5, i32 0, i32 0
  %7 = load ptr, ptr %4, align 8
  %8 = load ptr, ptr %7, align 8
  store ptr %8, ptr %6, align 8
  ret void
}

; Function Attrs: mustprogress noinline optnone uwtable
define linkonce_odr dso_local noundef ptr @_ZNSt16allocator_traitsISaISt6vectorImSaImEEEE8allocateERS3_m(ptr noundef nonnull align 1 dereferenceable(1) %0, i64 noundef %1) #5 comdat align 2 {
  %3 = alloca ptr, align 8
  %4 = alloca i64, align 8
  store ptr %0, ptr %3, align 8
  store i64 %1, ptr %4, align 8
  %5 = load ptr, ptr %3, align 8
  %6 = load i64, ptr %4, align 8
  %7 = call noundef ptr @_ZNSt15__new_allocatorISt6vectorImSaImEEE8allocateEmPKv(ptr noundef nonnull align 1 dereferenceable(1) %5, i64 noundef %6, ptr noundef null)
  ret ptr %7
}

; Function Attrs: mustprogress noinline optnone uwtable
define linkonce_odr dso_local noundef ptr @_ZNSt15__new_allocatorISt6vectorImSaImEEE8allocateEmPKv(ptr noundef nonnull align 1 dereferenceable(1) %0, i64 noundef %1, ptr noundef %2) #5 comdat align 2 {
  %4 = alloca ptr, align 8
  %5 = alloca i64, align 8
  %6 = alloca ptr, align 8
  store ptr %0, ptr %4, align 8
  store i64 %1, ptr %5, align 8
  store ptr %2, ptr %6, align 8
  %7 = load ptr, ptr %4, align 8
  %8 = load i64, ptr %5, align 8
  %9 = call noundef i64 @_ZNKSt15__new_allocatorISt6vectorImSaImEEE11_M_max_sizeEv(ptr noundef nonnull align 1 dereferenceable(1) %7) #3
  %10 = icmp ugt i64 %8, %9
  br i1 %10, label %11, label %16

11:                                               ; preds = %3
  %12 = load i64, ptr %5, align 8
  %13 = icmp ugt i64 %12, 768614336404564650
  br i1 %13, label %14, label %15

14:                                               ; preds = %11
  call void @_ZSt28__throw_bad_array_new_lengthv() #16
  unreachable

15:                                               ; preds = %11
  call void @_ZSt17__throw_bad_allocv() #16
  unreachable

16:                                               ; preds = %3
  %17 = load i64, ptr %5, align 8
  %18 = mul i64 %17, 24
  %19 = call noalias noundef nonnull ptr @_Znwm(i64 noundef %18) #17
  ret ptr %19
}

; Function Attrs: noreturn
declare void @_ZSt28__throw_bad_array_new_lengthv() #11

; Function Attrs: noreturn
declare void @_ZSt17__throw_bad_allocv() #11

; Function Attrs: nobuiltin allocsize(0)
declare noundef nonnull ptr @_Znwm(i64 noundef) #13

; Function Attrs: mustprogress noinline nounwind optnone uwtable
define linkonce_odr dso_local noundef ptr @_ZNSt6vectorIS_ImSaImEESaIS1_EE14_S_do_relocateEPS1_S4_S4_RS2_St17integral_constantIbLb1EE(ptr noundef %0, ptr noundef %1, ptr noundef %2, ptr noundef nonnull align 1 dereferenceable(1) %3) #7 comdat align 2 {
  %5 = alloca %"struct.std::integral_constant", align 1
  %6 = alloca ptr, align 8
  %7 = alloca ptr, align 8
  %8 = alloca ptr, align 8
  %9 = alloca ptr, align 8
  store ptr %0, ptr %6, align 8
  store ptr %1, ptr %7, align 8
  store ptr %2, ptr %8, align 8
  store ptr %3, ptr %9, align 8
  %10 = load ptr, ptr %6, align 8
  %11 = load ptr, ptr %7, align 8
  %12 = load ptr, ptr %8, align 8
  %13 = load ptr, ptr %9, align 8
  %14 = call noundef ptr @_ZSt12__relocate_aIPSt6vectorImSaImEES3_SaIS2_EET0_T_S6_S5_RT1_(ptr noundef %10, ptr noundef %11, ptr noundef %12, ptr noundef nonnull align 1 dereferenceable(1) %13) #3
  ret ptr %14
}

; Function Attrs: mustprogress noinline nounwind optnone uwtable
define linkonce_odr dso_local noundef ptr @_ZSt12__relocate_aIPSt6vectorImSaImEES3_SaIS2_EET0_T_S6_S5_RT1_(ptr noundef %0, ptr noundef %1, ptr noundef %2, ptr noundef nonnull align 1 dereferenceable(1) %3) #7 comdat {
  %5 = alloca ptr, align 8
  %6 = alloca ptr, align 8
  %7 = alloca ptr, align 8
  %8 = alloca ptr, align 8
  store ptr %0, ptr %5, align 8
  store ptr %1, ptr %6, align 8
  store ptr %2, ptr %7, align 8
  store ptr %3, ptr %8, align 8
  %9 = load ptr, ptr %5, align 8
  %10 = call noundef ptr @_ZSt12__niter_baseIPSt6vectorImSaImEEET_S4_(ptr noundef %9) #3
  %11 = load ptr, ptr %6, align 8
  %12 = call noundef ptr @_ZSt12__niter_baseIPSt6vectorImSaImEEET_S4_(ptr noundef %11) #3
  %13 = load ptr, ptr %7, align 8
  %14 = call noundef ptr @_ZSt12__niter_baseIPSt6vectorImSaImEEET_S4_(ptr noundef %13) #3
  %15 = load ptr, ptr %8, align 8
  %16 = call noundef ptr @_ZSt14__relocate_a_1IPSt6vectorImSaImEES3_SaIS2_EET0_T_S6_S5_RT1_(ptr noundef %10, ptr noundef %12, ptr noundef %14, ptr noundef nonnull align 1 dereferenceable(1) %15) #3
  ret ptr %16
}

; Function Attrs: mustprogress noinline nounwind optnone uwtable
define linkonce_odr dso_local noundef ptr @_ZSt14__relocate_a_1IPSt6vectorImSaImEES3_SaIS2_EET0_T_S6_S5_RT1_(ptr noundef %0, ptr noundef %1, ptr noundef %2, ptr noundef nonnull align 1 dereferenceable(1) %3) #7 comdat {
  %5 = alloca ptr, align 8
  %6 = alloca ptr, align 8
  %7 = alloca ptr, align 8
  %8 = alloca ptr, align 8
  %9 = alloca ptr, align 8
  store ptr %0, ptr %5, align 8
  store ptr %1, ptr %6, align 8
  store ptr %2, ptr %7, align 8
  store ptr %3, ptr %8, align 8
  %10 = load ptr, ptr %7, align 8
  store ptr %10, ptr %9, align 8
  br label %11

11:                                               ; preds = %19, %4
  %12 = load ptr, ptr %5, align 8
  %13 = load ptr, ptr %6, align 8
  %14 = icmp ne ptr %12, %13
  br i1 %14, label %15, label %24

15:                                               ; preds = %11
  %16 = load ptr, ptr %9, align 8
  %17 = load ptr, ptr %5, align 8
  %18 = load ptr, ptr %8, align 8
  call void @_ZSt19__relocate_object_aISt6vectorImSaImEES2_SaIS2_EEvPT_PT0_RT1_(ptr noundef %16, ptr noundef %17, ptr noundef nonnull align 1 dereferenceable(1) %18) #3
  br label %19

19:                                               ; preds = %15
  %20 = load ptr, ptr %5, align 8
  %21 = getelementptr inbounds %"class.std::vector.0", ptr %20, i32 1
  store ptr %21, ptr %5, align 8
  %22 = load ptr, ptr %9, align 8
  %23 = getelementptr inbounds %"class.std::vector.0", ptr %22, i32 1
  store ptr %23, ptr %9, align 8
  br label %11, !llvm.loop !17

24:                                               ; preds = %11
  %25 = load ptr, ptr %9, align 8
  ret ptr %25
}

; Function Attrs: mustprogress noinline nounwind optnone uwtable
define linkonce_odr dso_local noundef ptr @_ZSt12__niter_baseIPSt6vectorImSaImEEET_S4_(ptr noundef %0) #7 comdat {
  %2 = alloca ptr, align 8
  store ptr %0, ptr %2, align 8
  %3 = load ptr, ptr %2, align 8
  ret ptr %3
}

; Function Attrs: mustprogress noinline nounwind optnone uwtable
define linkonce_odr dso_local void @_ZSt19__relocate_object_aISt6vectorImSaImEES2_SaIS2_EEvPT_PT0_RT1_(ptr noalias noundef %0, ptr noalias noundef %1, ptr noundef nonnull align 1 dereferenceable(1) %2) #7 comdat {
  %4 = alloca ptr, align 8
  %5 = alloca ptr, align 8
  %6 = alloca ptr, align 8
  store ptr %0, ptr %4, align 8
  store ptr %1, ptr %5, align 8
  store ptr %2, ptr %6, align 8
  %7 = load ptr, ptr %6, align 8
  %8 = load ptr, ptr %4, align 8
  %9 = load ptr, ptr %5, align 8
  call void @_ZNSt16allocator_traitsISaISt6vectorImSaImEEEE9constructIS2_JS2_EEEvRS3_PT_DpOT0_(ptr noundef nonnull align 1 dereferenceable(1) %7, ptr noundef %8, ptr noundef nonnull align 8 dereferenceable(24) %9) #3
  %10 = load ptr, ptr %6, align 8
  %11 = load ptr, ptr %5, align 8
  call void @_ZNSt16allocator_traitsISaISt6vectorImSaImEEEE7destroyIS2_EEvRS3_PT_(ptr noundef nonnull align 1 dereferenceable(1) %10, ptr noundef %11) #3
  ret void
}

; Function Attrs: mustprogress noinline nounwind optnone uwtable
define linkonce_odr dso_local void @_ZNSt16allocator_traitsISaISt6vectorImSaImEEEE7destroyIS2_EEvRS3_PT_(ptr noundef nonnull align 1 dereferenceable(1) %0, ptr noundef %1) #7 comdat align 2 {
  %3 = alloca ptr, align 8
  %4 = alloca ptr, align 8
  store ptr %0, ptr %3, align 8
  store ptr %1, ptr %4, align 8
  %5 = load ptr, ptr %3, align 8
  %6 = load ptr, ptr %4, align 8
  call void @_ZNSt15__new_allocatorISt6vectorImSaImEEE7destroyIS2_EEvPT_(ptr noundef nonnull align 1 dereferenceable(1) %5, ptr noundef %6) #3
  ret void
}

; Function Attrs: mustprogress noinline nounwind optnone uwtable
define linkonce_odr dso_local void @_ZNSt15__new_allocatorISt6vectorImSaImEEE7destroyIS2_EEvPT_(ptr noundef nonnull align 1 dereferenceable(1) %0, ptr noundef %1) #7 comdat align 2 {
  %3 = alloca ptr, align 8
  %4 = alloca ptr, align 8
  store ptr %0, ptr %3, align 8
  store ptr %1, ptr %4, align 8
  %5 = load ptr, ptr %3, align 8
  %6 = load ptr, ptr %4, align 8
  call void @_ZNSt6vectorImSaImEED2Ev(ptr noundef nonnull align 8 dereferenceable(24) %6) #3
  ret void
}

; Function Attrs: mustprogress noinline optnone uwtable
define linkonce_odr dso_local void @_ZNSt16allocator_traitsISaISt6vectorImSaImEEEE10deallocateERS3_PS2_m(ptr noundef nonnull align 1 dereferenceable(1) %0, ptr noundef %1, i64 noundef %2) #5 comdat align 2 {
  %4 = alloca ptr, align 8
  %5 = alloca ptr, align 8
  %6 = alloca i64, align 8
  store ptr %0, ptr %4, align 8
  store ptr %1, ptr %5, align 8
  store i64 %2, ptr %6, align 8
  %7 = load ptr, ptr %4, align 8
  %8 = load ptr, ptr %5, align 8
  %9 = load i64, ptr %6, align 8
  call void @_ZNSt15__new_allocatorISt6vectorImSaImEEE10deallocateEPS2_m(ptr noundef nonnull align 1 dereferenceable(1) %7, ptr noundef %8, i64 noundef %9)
  ret void
}

; Function Attrs: mustprogress noinline nounwind optnone uwtable
define linkonce_odr dso_local void @_ZNSt15__new_allocatorISt6vectorImSaImEEE10deallocateEPS2_m(ptr noundef nonnull align 1 dereferenceable(1) %0, ptr noundef %1, i64 noundef %2) #7 comdat align 2 {
  %4 = alloca ptr, align 8
  %5 = alloca ptr, align 8
  %6 = alloca i64, align 8
  store ptr %0, ptr %4, align 8
  store ptr %1, ptr %5, align 8
  store i64 %2, ptr %6, align 8
  %7 = load ptr, ptr %4, align 8
  %8 = load ptr, ptr %5, align 8
  call void @_ZdlPv(ptr noundef %8) #18
  ret void
}

; Function Attrs: nobuiltin nounwind
declare void @_ZdlPv(ptr noundef) #14

; Function Attrs: noinline nounwind optnone uwtable
define linkonce_odr dso_local void @_ZNSt15__new_allocatorImEC2Ev(ptr noundef nonnull align 1 dereferenceable(1) %0) unnamed_addr #10 comdat align 2 {
  %2 = alloca ptr, align 8
  store ptr %0, ptr %2, align 8
  %3 = load ptr, ptr %2, align 8
  ret void
}

; Function Attrs: mustprogress noinline optnone uwtable
define linkonce_odr dso_local noundef i64 @_ZNSt6vectorImSaImEE17_S_check_init_lenEmRKS0_(i64 noundef %0, ptr noundef nonnull align 1 dereferenceable(1) %1) #5 comdat align 2 {
  %3 = alloca i64, align 8
  %4 = alloca ptr, align 8
  %5 = alloca %"class.std::allocator.2", align 1
  store i64 %0, ptr %3, align 8
  store ptr %1, ptr %4, align 8
  %6 = load i64, ptr %3, align 8
  %7 = load ptr, ptr %4, align 8
  call void @_ZNSaImEC2ERKS_(ptr noundef nonnull align 1 dereferenceable(1) %5, ptr noundef nonnull align 1 dereferenceable(1) %7) #3
  %8 = call noundef i64 @_ZNSt6vectorImSaImEE11_S_max_sizeERKS0_(ptr noundef nonnull align 1 dereferenceable(1) %5) #3
  %9 = icmp ugt i64 %6, %8
  call void @_ZNSaImED2Ev(ptr noundef nonnull align 1 dereferenceable(1) %5) #3
  br i1 %9, label %10, label %11

10:                                               ; preds = %2
  call void @_ZSt20__throw_length_errorPKc(ptr noundef @.str.6) #16
  unreachable

11:                                               ; preds = %2
  %12 = load i64, ptr %3, align 8
  ret i64 %12
}

; Function Attrs: noinline optnone uwtable
define linkonce_odr dso_local void @_ZNSt12_Vector_baseImSaImEEC2EmRKS0_(ptr noundef nonnull align 8 dereferenceable(24) %0, i64 noundef %1, ptr noundef nonnull align 1 dereferenceable(1) %2) unnamed_addr #6 comdat align 2 personality ptr @__gxx_personality_v0 {
  %4 = alloca ptr, align 8
  %5 = alloca i64, align 8
  %6 = alloca ptr, align 8
  %7 = alloca ptr, align 8
  %8 = alloca i32, align 4
  store ptr %0, ptr %4, align 8
  store i64 %1, ptr %5, align 8
  store ptr %2, ptr %6, align 8
  %9 = load ptr, ptr %4, align 8
  %10 = getelementptr inbounds %"struct.std::_Vector_base.1", ptr %9, i32 0, i32 0
  %11 = load ptr, ptr %6, align 8
  call void @_ZNSt12_Vector_baseImSaImEE12_Vector_implC2ERKS0_(ptr noundef nonnull align 8 dereferenceable(24) %10, ptr noundef nonnull align 1 dereferenceable(1) %11) #3
  %12 = load i64, ptr %5, align 8
  invoke void @_ZNSt12_Vector_baseImSaImEE17_M_create_storageEm(ptr noundef nonnull align 8 dereferenceable(24) %9, i64 noundef %12)
          to label %13 unwind label %14

13:                                               ; preds = %3
  ret void

14:                                               ; preds = %3
  %15 = landingpad { ptr, i32 }
          cleanup
  %16 = extractvalue { ptr, i32 } %15, 0
  store ptr %16, ptr %7, align 8
  %17 = extractvalue { ptr, i32 } %15, 1
  store i32 %17, ptr %8, align 4
  call void @_ZNSt12_Vector_baseImSaImEE12_Vector_implD2Ev(ptr noundef nonnull align 8 dereferenceable(24) %10) #3
  br label %18

18:                                               ; preds = %14
  %19 = load ptr, ptr %7, align 8
  %20 = load i32, ptr %8, align 4
  %21 = insertvalue { ptr, i32 } undef, ptr %19, 0
  %22 = insertvalue { ptr, i32 } %21, i32 %20, 1
  resume { ptr, i32 } %22
}

; Function Attrs: mustprogress noinline optnone uwtable
define linkonce_odr dso_local void @_ZNSt6vectorImSaImEE18_M_fill_initializeEmRKm(ptr noundef nonnull align 8 dereferenceable(24) %0, i64 noundef %1, ptr noundef nonnull align 8 dereferenceable(8) %2) #5 comdat align 2 {
  %4 = alloca ptr, align 8
  %5 = alloca i64, align 8
  %6 = alloca ptr, align 8
  store ptr %0, ptr %4, align 8
  store i64 %1, ptr %5, align 8
  store ptr %2, ptr %6, align 8
  %7 = load ptr, ptr %4, align 8
  %8 = getelementptr inbounds %"struct.std::_Vector_base.1", ptr %7, i32 0, i32 0
  %9 = getelementptr inbounds %"struct.std::_Vector_base<unsigned long, std::allocator<unsigned long>>::_Vector_impl_data", ptr %8, i32 0, i32 0
  %10 = load ptr, ptr %9, align 8
  %11 = load i64, ptr %5, align 8
  %12 = load ptr, ptr %6, align 8
  %13 = call noundef nonnull align 1 dereferenceable(1) ptr @_ZNSt12_Vector_baseImSaImEE19_M_get_Tp_allocatorEv(ptr noundef nonnull align 8 dereferenceable(24) %7) #3
  %14 = call noundef ptr @_ZSt24__uninitialized_fill_n_aIPmmmmET_S1_T0_RKT1_RSaIT2_E(ptr noundef %10, i64 noundef %11, ptr noundef nonnull align 8 dereferenceable(8) %12, ptr noundef nonnull align 1 dereferenceable(1) %13)
  %15 = getelementptr inbounds %"struct.std::_Vector_base.1", ptr %7, i32 0, i32 0
  %16 = getelementptr inbounds %"struct.std::_Vector_base<unsigned long, std::allocator<unsigned long>>::_Vector_impl_data", ptr %15, i32 0, i32 1
  store ptr %14, ptr %16, align 8
  ret void
}

; Function Attrs: noinline nounwind optnone uwtable
define linkonce_odr dso_local void @_ZNSt12_Vector_baseImSaImEED2Ev(ptr noundef nonnull align 8 dereferenceable(24) %0) unnamed_addr #10 comdat align 2 personality ptr @__gxx_personality_v0 {
  %2 = alloca ptr, align 8
  store ptr %0, ptr %2, align 8
  %3 = load ptr, ptr %2, align 8
  %4 = getelementptr inbounds %"struct.std::_Vector_base.1", ptr %3, i32 0, i32 0
  %5 = getelementptr inbounds %"struct.std::_Vector_base<unsigned long, std::allocator<unsigned long>>::_Vector_impl_data", ptr %4, i32 0, i32 0
  %6 = load ptr, ptr %5, align 8
  %7 = getelementptr inbounds %"struct.std::_Vector_base.1", ptr %3, i32 0, i32 0
  %8 = getelementptr inbounds %"struct.std::_Vector_base<unsigned long, std::allocator<unsigned long>>::_Vector_impl_data", ptr %7, i32 0, i32 2
  %9 = load ptr, ptr %8, align 8
  %10 = getelementptr inbounds %"struct.std::_Vector_base.1", ptr %3, i32 0, i32 0
  %11 = getelementptr inbounds %"struct.std::_Vector_base<unsigned long, std::allocator<unsigned long>>::_Vector_impl_data", ptr %10, i32 0, i32 0
  %12 = load ptr, ptr %11, align 8
  %13 = ptrtoint ptr %9 to i64
  %14 = ptrtoint ptr %12 to i64
  %15 = sub i64 %13, %14
  %16 = sdiv exact i64 %15, 8
  invoke void @_ZNSt12_Vector_baseImSaImEE13_M_deallocateEPmm(ptr noundef nonnull align 8 dereferenceable(24) %3, ptr noundef %6, i64 noundef %16)
          to label %17 unwind label %19

17:                                               ; preds = %1
  %18 = getelementptr inbounds %"struct.std::_Vector_base.1", ptr %3, i32 0, i32 0
  call void @_ZNSt12_Vector_baseImSaImEE12_Vector_implD2Ev(ptr noundef nonnull align 8 dereferenceable(24) %18) #3
  ret void

19:                                               ; preds = %1
  %20 = landingpad { ptr, i32 }
          catch ptr null
  %21 = extractvalue { ptr, i32 } %20, 0
  call void @__clang_call_terminate(ptr %21) #15
  unreachable
}

; Function Attrs: mustprogress noinline nounwind optnone uwtable
define linkonce_odr dso_local noundef i64 @_ZNSt6vectorImSaImEE11_S_max_sizeERKS0_(ptr noundef nonnull align 1 dereferenceable(1) %0) #7 comdat align 2 {
  %2 = alloca ptr, align 8
  %3 = alloca i64, align 8
  %4 = alloca i64, align 8
  store ptr %0, ptr %2, align 8
  store i64 1152921504606846975, ptr %3, align 8
  %5 = load ptr, ptr %2, align 8
  %6 = call noundef i64 @_ZNSt16allocator_traitsISaImEE8max_sizeERKS0_(ptr noundef nonnull align 1 dereferenceable(1) %5) #3
  store i64 %6, ptr %4, align 8
  %7 = call noundef nonnull align 8 dereferenceable(8) ptr @_ZSt3minImERKT_S2_S2_(ptr noundef nonnull align 8 dereferenceable(8) %3, ptr noundef nonnull align 8 dereferenceable(8) %4)
  %8 = load i64, ptr %7, align 8
  ret i64 %8
}

; Function Attrs: noinline nounwind optnone uwtable
define linkonce_odr dso_local void @_ZNSaImEC2ERKS_(ptr noundef nonnull align 1 dereferenceable(1) %0, ptr noundef nonnull align 1 dereferenceable(1) %1) unnamed_addr #10 comdat align 2 {
  %3 = alloca ptr, align 8
  %4 = alloca ptr, align 8
  store ptr %0, ptr %3, align 8
  store ptr %1, ptr %4, align 8
  %5 = load ptr, ptr %3, align 8
  %6 = load ptr, ptr %4, align 8
  call void @_ZNSt15__new_allocatorImEC2ERKS0_(ptr noundef nonnull align 1 dereferenceable(1) %5, ptr noundef nonnull align 1 dereferenceable(1) %6) #3
  ret void
}

; Function Attrs: mustprogress noinline nounwind optnone uwtable
define linkonce_odr dso_local noundef i64 @_ZNSt16allocator_traitsISaImEE8max_sizeERKS0_(ptr noundef nonnull align 1 dereferenceable(1) %0) #7 comdat align 2 {
  %2 = alloca ptr, align 8
  store ptr %0, ptr %2, align 8
  %3 = load ptr, ptr %2, align 8
  %4 = call noundef i64 @_ZNKSt15__new_allocatorImE8max_sizeEv(ptr noundef nonnull align 1 dereferenceable(1) %3) #3
  ret i64 %4
}

; Function Attrs: mustprogress noinline nounwind optnone uwtable
define linkonce_odr dso_local noundef i64 @_ZNKSt15__new_allocatorImE8max_sizeEv(ptr noundef nonnull align 1 dereferenceable(1) %0) #7 comdat align 2 {
  %2 = alloca ptr, align 8
  store ptr %0, ptr %2, align 8
  %3 = load ptr, ptr %2, align 8
  %4 = call noundef i64 @_ZNKSt15__new_allocatorImE11_M_max_sizeEv(ptr noundef nonnull align 1 dereferenceable(1) %3) #3
  ret i64 %4
}

; Function Attrs: mustprogress noinline nounwind optnone uwtable
define linkonce_odr dso_local noundef i64 @_ZNKSt15__new_allocatorImE11_M_max_sizeEv(ptr noundef nonnull align 1 dereferenceable(1) %0) #7 comdat align 2 {
  %2 = alloca ptr, align 8
  store ptr %0, ptr %2, align 8
  %3 = load ptr, ptr %2, align 8
  ret i64 1152921504606846975
}

; Function Attrs: noinline nounwind optnone uwtable
define linkonce_odr dso_local void @_ZNSt12_Vector_baseImSaImEE12_Vector_implC2ERKS0_(ptr noundef nonnull align 8 dereferenceable(24) %0, ptr noundef nonnull align 1 dereferenceable(1) %1) unnamed_addr #10 comdat align 2 {
  %3 = alloca ptr, align 8
  %4 = alloca ptr, align 8
  store ptr %0, ptr %3, align 8
  store ptr %1, ptr %4, align 8
  %5 = load ptr, ptr %3, align 8
  %6 = load ptr, ptr %4, align 8
  call void @_ZNSaImEC2ERKS_(ptr noundef nonnull align 1 dereferenceable(1) %5, ptr noundef nonnull align 1 dereferenceable(1) %6) #3
  call void @_ZNSt12_Vector_baseImSaImEE17_Vector_impl_dataC2Ev(ptr noundef nonnull align 8 dereferenceable(24) %5) #3
  ret void
}

; Function Attrs: mustprogress noinline optnone uwtable
define linkonce_odr dso_local void @_ZNSt12_Vector_baseImSaImEE17_M_create_storageEm(ptr noundef nonnull align 8 dereferenceable(24) %0, i64 noundef %1) #5 comdat align 2 {
  %3 = alloca ptr, align 8
  %4 = alloca i64, align 8
  store ptr %0, ptr %3, align 8
  store i64 %1, ptr %4, align 8
  %5 = load ptr, ptr %3, align 8
  %6 = load i64, ptr %4, align 8
  %7 = call noundef ptr @_ZNSt12_Vector_baseImSaImEE11_M_allocateEm(ptr noundef nonnull align 8 dereferenceable(24) %5, i64 noundef %6)
  %8 = getelementptr inbounds %"struct.std::_Vector_base.1", ptr %5, i32 0, i32 0
  %9 = getelementptr inbounds %"struct.std::_Vector_base<unsigned long, std::allocator<unsigned long>>::_Vector_impl_data", ptr %8, i32 0, i32 0
  store ptr %7, ptr %9, align 8
  %10 = getelementptr inbounds %"struct.std::_Vector_base.1", ptr %5, i32 0, i32 0
  %11 = getelementptr inbounds %"struct.std::_Vector_base<unsigned long, std::allocator<unsigned long>>::_Vector_impl_data", ptr %10, i32 0, i32 0
  %12 = load ptr, ptr %11, align 8
  %13 = getelementptr inbounds %"struct.std::_Vector_base.1", ptr %5, i32 0, i32 0
  %14 = getelementptr inbounds %"struct.std::_Vector_base<unsigned long, std::allocator<unsigned long>>::_Vector_impl_data", ptr %13, i32 0, i32 1
  store ptr %12, ptr %14, align 8
  %15 = getelementptr inbounds %"struct.std::_Vector_base.1", ptr %5, i32 0, i32 0
  %16 = getelementptr inbounds %"struct.std::_Vector_base<unsigned long, std::allocator<unsigned long>>::_Vector_impl_data", ptr %15, i32 0, i32 0
  %17 = load ptr, ptr %16, align 8
  %18 = load i64, ptr %4, align 8
  %19 = getelementptr inbounds i64, ptr %17, i64 %18
  %20 = getelementptr inbounds %"struct.std::_Vector_base.1", ptr %5, i32 0, i32 0
  %21 = getelementptr inbounds %"struct.std::_Vector_base<unsigned long, std::allocator<unsigned long>>::_Vector_impl_data", ptr %20, i32 0, i32 2
  store ptr %19, ptr %21, align 8
  ret void
}

; Function Attrs: noinline nounwind optnone uwtable
define linkonce_odr dso_local void @_ZNSt12_Vector_baseImSaImEE12_Vector_implD2Ev(ptr noundef nonnull align 8 dereferenceable(24) %0) unnamed_addr #10 comdat align 2 {
  %2 = alloca ptr, align 8
  store ptr %0, ptr %2, align 8
  %3 = load ptr, ptr %2, align 8
  call void @_ZNSaImED2Ev(ptr noundef nonnull align 1 dereferenceable(1) %3) #3
  ret void
}

; Function Attrs: noinline nounwind optnone uwtable
define linkonce_odr dso_local void @_ZNSt12_Vector_baseImSaImEE17_Vector_impl_dataC2Ev(ptr noundef nonnull align 8 dereferenceable(24) %0) unnamed_addr #10 comdat align 2 {
  %2 = alloca ptr, align 8
  store ptr %0, ptr %2, align 8
  %3 = load ptr, ptr %2, align 8
  %4 = getelementptr inbounds %"struct.std::_Vector_base<unsigned long, std::allocator<unsigned long>>::_Vector_impl_data", ptr %3, i32 0, i32 0
  store ptr null, ptr %4, align 8
  %5 = getelementptr inbounds %"struct.std::_Vector_base<unsigned long, std::allocator<unsigned long>>::_Vector_impl_data", ptr %3, i32 0, i32 1
  store ptr null, ptr %5, align 8
  %6 = getelementptr inbounds %"struct.std::_Vector_base<unsigned long, std::allocator<unsigned long>>::_Vector_impl_data", ptr %3, i32 0, i32 2
  store ptr null, ptr %6, align 8
  ret void
}

; Function Attrs: mustprogress noinline optnone uwtable
define linkonce_odr dso_local noundef ptr @_ZNSt12_Vector_baseImSaImEE11_M_allocateEm(ptr noundef nonnull align 8 dereferenceable(24) %0, i64 noundef %1) #5 comdat align 2 {
  %3 = alloca ptr, align 8
  %4 = alloca i64, align 8
  store ptr %0, ptr %3, align 8
  store i64 %1, ptr %4, align 8
  %5 = load ptr, ptr %3, align 8
  %6 = load i64, ptr %4, align 8
  %7 = icmp ne i64 %6, 0
  br i1 %7, label %8, label %12

8:                                                ; preds = %2
  %9 = getelementptr inbounds %"struct.std::_Vector_base.1", ptr %5, i32 0, i32 0
  %10 = load i64, ptr %4, align 8
  %11 = call noundef ptr @_ZNSt16allocator_traitsISaImEE8allocateERS0_m(ptr noundef nonnull align 1 dereferenceable(1) %9, i64 noundef %10)
  br label %13

12:                                               ; preds = %2
  br label %13

13:                                               ; preds = %12, %8
  %14 = phi ptr [ %11, %8 ], [ null, %12 ]
  ret ptr %14
}

; Function Attrs: mustprogress noinline optnone uwtable
define linkonce_odr dso_local noundef ptr @_ZNSt16allocator_traitsISaImEE8allocateERS0_m(ptr noundef nonnull align 1 dereferenceable(1) %0, i64 noundef %1) #5 comdat align 2 {
  %3 = alloca ptr, align 8
  %4 = alloca i64, align 8
  store ptr %0, ptr %3, align 8
  store i64 %1, ptr %4, align 8
  %5 = load ptr, ptr %3, align 8
  %6 = load i64, ptr %4, align 8
  %7 = call noundef ptr @_ZNSt15__new_allocatorImE8allocateEmPKv(ptr noundef nonnull align 1 dereferenceable(1) %5, i64 noundef %6, ptr noundef null)
  ret ptr %7
}

; Function Attrs: mustprogress noinline optnone uwtable
define linkonce_odr dso_local noundef ptr @_ZNSt15__new_allocatorImE8allocateEmPKv(ptr noundef nonnull align 1 dereferenceable(1) %0, i64 noundef %1, ptr noundef %2) #5 comdat align 2 {
  %4 = alloca ptr, align 8
  %5 = alloca i64, align 8
  %6 = alloca ptr, align 8
  store ptr %0, ptr %4, align 8
  store i64 %1, ptr %5, align 8
  store ptr %2, ptr %6, align 8
  %7 = load ptr, ptr %4, align 8
  %8 = load i64, ptr %5, align 8
  %9 = call noundef i64 @_ZNKSt15__new_allocatorImE11_M_max_sizeEv(ptr noundef nonnull align 1 dereferenceable(1) %7) #3
  %10 = icmp ugt i64 %8, %9
  br i1 %10, label %11, label %16

11:                                               ; preds = %3
  %12 = load i64, ptr %5, align 8
  %13 = icmp ugt i64 %12, 2305843009213693951
  br i1 %13, label %14, label %15

14:                                               ; preds = %11
  call void @_ZSt28__throw_bad_array_new_lengthv() #16
  unreachable

15:                                               ; preds = %11
  call void @_ZSt17__throw_bad_allocv() #16
  unreachable

16:                                               ; preds = %3
  %17 = load i64, ptr %5, align 8
  %18 = mul i64 %17, 8
  %19 = call noalias noundef nonnull ptr @_Znwm(i64 noundef %18) #17
  ret ptr %19
}

; Function Attrs: noinline nounwind optnone uwtable
define linkonce_odr dso_local void @_ZNSt15__new_allocatorImED2Ev(ptr noundef nonnull align 1 dereferenceable(1) %0) unnamed_addr #10 comdat align 2 {
  %2 = alloca ptr, align 8
  store ptr %0, ptr %2, align 8
  %3 = load ptr, ptr %2, align 8
  ret void
}

; Function Attrs: mustprogress noinline optnone uwtable
define linkonce_odr dso_local noundef ptr @_ZSt24__uninitialized_fill_n_aIPmmmmET_S1_T0_RKT1_RSaIT2_E(ptr noundef %0, i64 noundef %1, ptr noundef nonnull align 8 dereferenceable(8) %2, ptr noundef nonnull align 1 dereferenceable(1) %3) #5 comdat {
  %5 = alloca ptr, align 8
  %6 = alloca i64, align 8
  %7 = alloca ptr, align 8
  %8 = alloca ptr, align 8
  store ptr %0, ptr %5, align 8
  store i64 %1, ptr %6, align 8
  store ptr %2, ptr %7, align 8
  store ptr %3, ptr %8, align 8
  %9 = load ptr, ptr %5, align 8
  %10 = load i64, ptr %6, align 8
  %11 = load ptr, ptr %7, align 8
  %12 = call noundef ptr @_ZSt20uninitialized_fill_nIPmmmET_S1_T0_RKT1_(ptr noundef %9, i64 noundef %10, ptr noundef nonnull align 8 dereferenceable(8) %11)
  ret ptr %12
}

; Function Attrs: mustprogress noinline nounwind optnone uwtable
define linkonce_odr dso_local noundef nonnull align 1 dereferenceable(1) ptr @_ZNSt12_Vector_baseImSaImEE19_M_get_Tp_allocatorEv(ptr noundef nonnull align 8 dereferenceable(24) %0) #7 comdat align 2 {
  %2 = alloca ptr, align 8
  store ptr %0, ptr %2, align 8
  %3 = load ptr, ptr %2, align 8
  %4 = getelementptr inbounds %"struct.std::_Vector_base.1", ptr %3, i32 0, i32 0
  ret ptr %4
}

; Function Attrs: mustprogress noinline optnone uwtable
define linkonce_odr dso_local noundef ptr @_ZSt20uninitialized_fill_nIPmmmET_S1_T0_RKT1_(ptr noundef %0, i64 noundef %1, ptr noundef nonnull align 8 dereferenceable(8) %2) #5 comdat {
  %4 = alloca ptr, align 8
  %5 = alloca i64, align 8
  %6 = alloca ptr, align 8
  %7 = alloca i8, align 1
  store ptr %0, ptr %4, align 8
  store i64 %1, ptr %5, align 8
  store ptr %2, ptr %6, align 8
  store i8 1, ptr %7, align 1
  %8 = load ptr, ptr %4, align 8
  %9 = load i64, ptr %5, align 8
  %10 = load ptr, ptr %6, align 8
  %11 = call noundef ptr @_ZNSt22__uninitialized_fill_nILb1EE15__uninit_fill_nIPmmmEET_S3_T0_RKT1_(ptr noundef %8, i64 noundef %9, ptr noundef nonnull align 8 dereferenceable(8) %10)
  ret ptr %11
}

; Function Attrs: mustprogress noinline optnone uwtable
define linkonce_odr dso_local noundef ptr @_ZNSt22__uninitialized_fill_nILb1EE15__uninit_fill_nIPmmmEET_S3_T0_RKT1_(ptr noundef %0, i64 noundef %1, ptr noundef nonnull align 8 dereferenceable(8) %2) #5 comdat align 2 {
  %4 = alloca ptr, align 8
  %5 = alloca i64, align 8
  %6 = alloca ptr, align 8
  store ptr %0, ptr %4, align 8
  store i64 %1, ptr %5, align 8
  store ptr %2, ptr %6, align 8
  %7 = load ptr, ptr %4, align 8
  %8 = load i64, ptr %5, align 8
  %9 = load ptr, ptr %6, align 8
  %10 = call noundef ptr @_ZSt6fill_nIPmmmET_S1_T0_RKT1_(ptr noundef %7, i64 noundef %8, ptr noundef nonnull align 8 dereferenceable(8) %9)
  ret ptr %10
}

; Function Attrs: mustprogress noinline optnone uwtable
define linkonce_odr dso_local noundef ptr @_ZSt6fill_nIPmmmET_S1_T0_RKT1_(ptr noundef %0, i64 noundef %1, ptr noundef nonnull align 8 dereferenceable(8) %2) #5 comdat {
  %4 = alloca ptr, align 8
  %5 = alloca i64, align 8
  %6 = alloca ptr, align 8
  %7 = alloca %"struct.std::random_access_iterator_tag", align 1
  %8 = alloca %"struct.std::random_access_iterator_tag", align 1
  store ptr %0, ptr %4, align 8
  store i64 %1, ptr %5, align 8
  store ptr %2, ptr %6, align 8
  %9 = load ptr, ptr %4, align 8
  %10 = load i64, ptr %5, align 8
  %11 = call noundef i64 @_ZSt17__size_to_integerm(i64 noundef %10)
  %12 = load ptr, ptr %6, align 8
  call void @_ZSt19__iterator_categoryIPmENSt15iterator_traitsIT_E17iterator_categoryERKS2_(ptr noundef nonnull align 8 dereferenceable(8) %4)
  %13 = call noundef ptr @_ZSt10__fill_n_aIPmmmET_S1_T0_RKT1_St26random_access_iterator_tag(ptr noundef %9, i64 noundef %11, ptr noundef nonnull align 8 dereferenceable(8) %12)
  ret ptr %13
}

; Function Attrs: mustprogress noinline optnone uwtable
define linkonce_odr dso_local noundef ptr @_ZSt10__fill_n_aIPmmmET_S1_T0_RKT1_St26random_access_iterator_tag(ptr noundef %0, i64 noundef %1, ptr noundef nonnull align 8 dereferenceable(8) %2) #5 comdat {
  %4 = alloca ptr, align 8
  %5 = alloca %"struct.std::random_access_iterator_tag", align 1
  %6 = alloca ptr, align 8
  %7 = alloca i64, align 8
  %8 = alloca ptr, align 8
  store ptr %0, ptr %6, align 8
  store i64 %1, ptr %7, align 8
  store ptr %2, ptr %8, align 8
  %9 = load i64, ptr %7, align 8
  %10 = icmp ule i64 %9, 0
  br i1 %10, label %11, label %13

11:                                               ; preds = %3
  %12 = load ptr, ptr %6, align 8
  store ptr %12, ptr %4, align 8
  br label %22

13:                                               ; preds = %3
  %14 = load ptr, ptr %6, align 8
  %15 = load ptr, ptr %6, align 8
  %16 = load i64, ptr %7, align 8
  %17 = getelementptr inbounds i64, ptr %15, i64 %16
  %18 = load ptr, ptr %8, align 8
  call void @_ZSt8__fill_aIPmmEvT_S1_RKT0_(ptr noundef %14, ptr noundef %17, ptr noundef nonnull align 8 dereferenceable(8) %18)
  %19 = load ptr, ptr %6, align 8
  %20 = load i64, ptr %7, align 8
  %21 = getelementptr inbounds i64, ptr %19, i64 %20
  store ptr %21, ptr %4, align 8
  br label %22

22:                                               ; preds = %13, %11
  %23 = load ptr, ptr %4, align 8
  ret ptr %23
}

; Function Attrs: mustprogress noinline nounwind optnone uwtable
define linkonce_odr dso_local noundef i64 @_ZSt17__size_to_integerm(i64 noundef %0) #7 comdat {
  %2 = alloca i64, align 8
  store i64 %0, ptr %2, align 8
  %3 = load i64, ptr %2, align 8
  ret i64 %3
}

; Function Attrs: mustprogress noinline nounwind optnone uwtable
define linkonce_odr dso_local void @_ZSt19__iterator_categoryIPmENSt15iterator_traitsIT_E17iterator_categoryERKS2_(ptr noundef nonnull align 8 dereferenceable(8) %0) #7 comdat {
  %2 = alloca ptr, align 8
  store ptr %0, ptr %2, align 8
  ret void
}

; Function Attrs: mustprogress noinline optnone uwtable
define linkonce_odr dso_local void @_ZSt8__fill_aIPmmEvT_S1_RKT0_(ptr noundef %0, ptr noundef %1, ptr noundef nonnull align 8 dereferenceable(8) %2) #5 comdat {
  %4 = alloca ptr, align 8
  %5 = alloca ptr, align 8
  %6 = alloca ptr, align 8
  store ptr %0, ptr %4, align 8
  store ptr %1, ptr %5, align 8
  store ptr %2, ptr %6, align 8
  %7 = load ptr, ptr %4, align 8
  %8 = load ptr, ptr %5, align 8
  %9 = load ptr, ptr %6, align 8
  call void @_ZSt9__fill_a1IPmmEN9__gnu_cxx11__enable_ifIXsr11__is_scalarIT0_EE7__valueEvE6__typeET_S6_RKS3_(ptr noundef %7, ptr noundef %8, ptr noundef nonnull align 8 dereferenceable(8) %9)
  ret void
}

; Function Attrs: mustprogress noinline nounwind optnone uwtable
define linkonce_odr dso_local void @_ZSt9__fill_a1IPmmEN9__gnu_cxx11__enable_ifIXsr11__is_scalarIT0_EE7__valueEvE6__typeET_S6_RKS3_(ptr noundef %0, ptr noundef %1, ptr noundef nonnull align 8 dereferenceable(8) %2) #7 comdat {
  %4 = alloca ptr, align 8
  %5 = alloca ptr, align 8
  %6 = alloca ptr, align 8
  %7 = alloca i64, align 8
  store ptr %0, ptr %4, align 8
  store ptr %1, ptr %5, align 8
  store ptr %2, ptr %6, align 8
  %8 = load ptr, ptr %6, align 8
  %9 = load i64, ptr %8, align 8
  store i64 %9, ptr %7, align 8
  br label %10

10:                                               ; preds = %17, %3
  %11 = load ptr, ptr %4, align 8
  %12 = load ptr, ptr %5, align 8
  %13 = icmp ne ptr %11, %12
  br i1 %13, label %14, label %20

14:                                               ; preds = %10
  %15 = load i64, ptr %7, align 8
  %16 = load ptr, ptr %4, align 8
  store i64 %15, ptr %16, align 8
  br label %17

17:                                               ; preds = %14
  %18 = load ptr, ptr %4, align 8
  %19 = getelementptr inbounds i64, ptr %18, i32 1
  store ptr %19, ptr %4, align 8
  br label %10, !llvm.loop !18

20:                                               ; preds = %10
  ret void
}

; Function Attrs: mustprogress noinline optnone uwtable
define linkonce_odr dso_local void @_ZNSt12_Vector_baseImSaImEE13_M_deallocateEPmm(ptr noundef nonnull align 8 dereferenceable(24) %0, ptr noundef %1, i64 noundef %2) #5 comdat align 2 {
  %4 = alloca ptr, align 8
  %5 = alloca ptr, align 8
  %6 = alloca i64, align 8
  store ptr %0, ptr %4, align 8
  store ptr %1, ptr %5, align 8
  store i64 %2, ptr %6, align 8
  %7 = load ptr, ptr %4, align 8
  %8 = load ptr, ptr %5, align 8
  %9 = icmp ne ptr %8, null
  br i1 %9, label %10, label %14

10:                                               ; preds = %3
  %11 = getelementptr inbounds %"struct.std::_Vector_base.1", ptr %7, i32 0, i32 0
  %12 = load ptr, ptr %5, align 8
  %13 = load i64, ptr %6, align 8
  call void @_ZNSt16allocator_traitsISaImEE10deallocateERS0_Pmm(ptr noundef nonnull align 1 dereferenceable(1) %11, ptr noundef %12, i64 noundef %13)
  br label %14

14:                                               ; preds = %10, %3
  ret void
}

; Function Attrs: mustprogress noinline optnone uwtable
define linkonce_odr dso_local void @_ZNSt16allocator_traitsISaImEE10deallocateERS0_Pmm(ptr noundef nonnull align 1 dereferenceable(1) %0, ptr noundef %1, i64 noundef %2) #5 comdat align 2 {
  %4 = alloca ptr, align 8
  %5 = alloca ptr, align 8
  %6 = alloca i64, align 8
  store ptr %0, ptr %4, align 8
  store ptr %1, ptr %5, align 8
  store i64 %2, ptr %6, align 8
  %7 = load ptr, ptr %4, align 8
  %8 = load ptr, ptr %5, align 8
  %9 = load i64, ptr %6, align 8
  call void @_ZNSt15__new_allocatorImE10deallocateEPmm(ptr noundef nonnull align 1 dereferenceable(1) %7, ptr noundef %8, i64 noundef %9)
  ret void
}

; Function Attrs: mustprogress noinline nounwind optnone uwtable
define linkonce_odr dso_local void @_ZNSt15__new_allocatorImE10deallocateEPmm(ptr noundef nonnull align 1 dereferenceable(1) %0, ptr noundef %1, i64 noundef %2) #7 comdat align 2 {
  %4 = alloca ptr, align 8
  %5 = alloca ptr, align 8
  %6 = alloca i64, align 8
  store ptr %0, ptr %4, align 8
  store ptr %1, ptr %5, align 8
  store i64 %2, ptr %6, align 8
  %7 = load ptr, ptr %4, align 8
  %8 = load ptr, ptr %5, align 8
  call void @_ZdlPv(ptr noundef %8) #18
  ret void
}

; Function Attrs: mustprogress noinline optnone uwtable
define linkonce_odr dso_local void @_ZSt8_DestroyIPmmEvT_S1_RSaIT0_E(ptr noundef %0, ptr noundef %1, ptr noundef nonnull align 1 dereferenceable(1) %2) #5 comdat {
  %4 = alloca ptr, align 8
  %5 = alloca ptr, align 8
  %6 = alloca ptr, align 8
  store ptr %0, ptr %4, align 8
  store ptr %1, ptr %5, align 8
  store ptr %2, ptr %6, align 8
  %7 = load ptr, ptr %4, align 8
  %8 = load ptr, ptr %5, align 8
  call void @_ZSt8_DestroyIPmEvT_S1_(ptr noundef %7, ptr noundef %8)
  ret void
}

; Function Attrs: mustprogress noinline optnone uwtable
define linkonce_odr dso_local void @_ZSt8_DestroyIPmEvT_S1_(ptr noundef %0, ptr noundef %1) #5 comdat {
  %3 = alloca ptr, align 8
  %4 = alloca ptr, align 8
  store ptr %0, ptr %3, align 8
  store ptr %1, ptr %4, align 8
  %5 = load ptr, ptr %3, align 8
  %6 = load ptr, ptr %4, align 8
  call void @_ZNSt12_Destroy_auxILb1EE9__destroyIPmEEvT_S3_(ptr noundef %5, ptr noundef %6)
  ret void
}

; Function Attrs: mustprogress noinline nounwind optnone uwtable
define linkonce_odr dso_local void @_ZNSt12_Destroy_auxILb1EE9__destroyIPmEEvT_S3_(ptr noundef %0, ptr noundef %1) #7 comdat align 2 {
  %3 = alloca ptr, align 8
  %4 = alloca ptr, align 8
  store ptr %0, ptr %3, align 8
  store ptr %1, ptr %4, align 8
  ret void
}

; Function Attrs: mustprogress noinline optnone uwtable
define linkonce_odr dso_local void @_ZSt8_DestroyIPSt6vectorImSaImEES2_EvT_S4_RSaIT0_E(ptr noundef %0, ptr noundef %1, ptr noundef nonnull align 1 dereferenceable(1) %2) #5 comdat {
  %4 = alloca ptr, align 8
  %5 = alloca ptr, align 8
  %6 = alloca ptr, align 8
  store ptr %0, ptr %4, align 8
  store ptr %1, ptr %5, align 8
  store ptr %2, ptr %6, align 8
  %7 = load ptr, ptr %4, align 8
  %8 = load ptr, ptr %5, align 8
  call void @_ZSt8_DestroyIPSt6vectorImSaImEEEvT_S4_(ptr noundef %7, ptr noundef %8)
  ret void
}

; Function Attrs: noinline nounwind optnone uwtable
define linkonce_odr dso_local void @_ZNSt12_Vector_baseISt6vectorImSaImEESaIS2_EED2Ev(ptr noundef nonnull align 8 dereferenceable(24) %0) unnamed_addr #10 comdat align 2 personality ptr @__gxx_personality_v0 {
  %2 = alloca ptr, align 8
  store ptr %0, ptr %2, align 8
  %3 = load ptr, ptr %2, align 8
  %4 = getelementptr inbounds %"struct.std::_Vector_base", ptr %3, i32 0, i32 0
  %5 = getelementptr inbounds %"struct.std::_Vector_base<std::vector<unsigned long>, std::allocator<std::vector<unsigned long>>>::_Vector_impl_data", ptr %4, i32 0, i32 0
  %6 = load ptr, ptr %5, align 8
  %7 = getelementptr inbounds %"struct.std::_Vector_base", ptr %3, i32 0, i32 0
  %8 = getelementptr inbounds %"struct.std::_Vector_base<std::vector<unsigned long>, std::allocator<std::vector<unsigned long>>>::_Vector_impl_data", ptr %7, i32 0, i32 2
  %9 = load ptr, ptr %8, align 8
  %10 = getelementptr inbounds %"struct.std::_Vector_base", ptr %3, i32 0, i32 0
  %11 = getelementptr inbounds %"struct.std::_Vector_base<std::vector<unsigned long>, std::allocator<std::vector<unsigned long>>>::_Vector_impl_data", ptr %10, i32 0, i32 0
  %12 = load ptr, ptr %11, align 8
  %13 = ptrtoint ptr %9 to i64
  %14 = ptrtoint ptr %12 to i64
  %15 = sub i64 %13, %14
  %16 = sdiv exact i64 %15, 24
  invoke void @_ZNSt12_Vector_baseISt6vectorImSaImEESaIS2_EE13_M_deallocateEPS2_m(ptr noundef nonnull align 8 dereferenceable(24) %3, ptr noundef %6, i64 noundef %16)
          to label %17 unwind label %19

17:                                               ; preds = %1
  %18 = getelementptr inbounds %"struct.std::_Vector_base", ptr %3, i32 0, i32 0
  call void @_ZNSt12_Vector_baseISt6vectorImSaImEESaIS2_EE12_Vector_implD2Ev(ptr noundef nonnull align 8 dereferenceable(24) %18) #3
  ret void

19:                                               ; preds = %1
  %20 = landingpad { ptr, i32 }
          catch ptr null
  %21 = extractvalue { ptr, i32 } %20, 0
  call void @__clang_call_terminate(ptr %21) #15
  unreachable
}

; Function Attrs: mustprogress noinline optnone uwtable
define linkonce_odr dso_local void @_ZSt8_DestroyIPSt6vectorImSaImEEEvT_S4_(ptr noundef %0, ptr noundef %1) #5 comdat {
  %3 = alloca ptr, align 8
  %4 = alloca ptr, align 8
  store ptr %0, ptr %3, align 8
  store ptr %1, ptr %4, align 8
  %5 = load ptr, ptr %3, align 8
  %6 = load ptr, ptr %4, align 8
  call void @_ZNSt12_Destroy_auxILb0EE9__destroyIPSt6vectorImSaImEEEEvT_S6_(ptr noundef %5, ptr noundef %6)
  ret void
}

; Function Attrs: mustprogress noinline optnone uwtable
define linkonce_odr dso_local void @_ZNSt12_Destroy_auxILb0EE9__destroyIPSt6vectorImSaImEEEEvT_S6_(ptr noundef %0, ptr noundef %1) #5 comdat align 2 {
  %3 = alloca ptr, align 8
  %4 = alloca ptr, align 8
  store ptr %0, ptr %3, align 8
  store ptr %1, ptr %4, align 8
  br label %5

5:                                                ; preds = %11, %2
  %6 = load ptr, ptr %3, align 8
  %7 = load ptr, ptr %4, align 8
  %8 = icmp ne ptr %6, %7
  br i1 %8, label %9, label %14

9:                                                ; preds = %5
  %10 = load ptr, ptr %3, align 8
  call void @_ZSt8_DestroyISt6vectorImSaImEEEvPT_(ptr noundef %10)
  br label %11

11:                                               ; preds = %9
  %12 = load ptr, ptr %3, align 8
  %13 = getelementptr inbounds %"class.std::vector.0", ptr %12, i32 1
  store ptr %13, ptr %3, align 8
  br label %5, !llvm.loop !19

14:                                               ; preds = %5
  ret void
}

; Function Attrs: mustprogress noinline nounwind optnone uwtable
define linkonce_odr dso_local void @_ZSt8_DestroyISt6vectorImSaImEEEvPT_(ptr noundef %0) #7 comdat {
  %2 = alloca ptr, align 8
  store ptr %0, ptr %2, align 8
  %3 = load ptr, ptr %2, align 8
  call void @_ZNSt6vectorImSaImEED2Ev(ptr noundef nonnull align 8 dereferenceable(24) %3) #3
  ret void
}

; Function Attrs: noinline nounwind optnone uwtable
define linkonce_odr dso_local void @_ZNSt12_Vector_baseISt6vectorImSaImEESaIS2_EE12_Vector_implD2Ev(ptr noundef nonnull align 8 dereferenceable(24) %0) unnamed_addr #10 comdat align 2 {
  %2 = alloca ptr, align 8
  store ptr %0, ptr %2, align 8
  %3 = load ptr, ptr %2, align 8
  call void @_ZNSaISt6vectorImSaImEEED2Ev(ptr noundef nonnull align 1 dereferenceable(1) %3) #3
  ret void
}

; Function Attrs: noinline nounwind optnone uwtable
define linkonce_odr dso_local void @_ZNSaISt6vectorImSaImEEED2Ev(ptr noundef nonnull align 1 dereferenceable(1) %0) unnamed_addr #10 comdat align 2 {
  %2 = alloca ptr, align 8
  store ptr %0, ptr %2, align 8
  %3 = load ptr, ptr %2, align 8
  call void @_ZNSt15__new_allocatorISt6vectorImSaImEEED2Ev(ptr noundef nonnull align 1 dereferenceable(1) %3) #3
  ret void
}

; Function Attrs: noinline nounwind optnone uwtable
define linkonce_odr dso_local void @_ZNSt15__new_allocatorISt6vectorImSaImEEED2Ev(ptr noundef nonnull align 1 dereferenceable(1) %0) unnamed_addr #10 comdat align 2 {
  %2 = alloca ptr, align 8
  store ptr %0, ptr %2, align 8
  %3 = load ptr, ptr %2, align 8
  ret void
}

; Function Attrs: mustprogress noinline nounwind optnone uwtable
define linkonce_odr dso_local noundef nonnull align 8 dereferenceable(24) ptr @_ZNSt6vectorIS_ImSaImEESaIS1_EEixEm(ptr noundef nonnull align 8 dereferenceable(24) %0, i64 noundef %1) #7 comdat align 2 {
  %3 = alloca ptr, align 8
  %4 = alloca i64, align 8
  store ptr %0, ptr %3, align 8
  store i64 %1, ptr %4, align 8
  %5 = load ptr, ptr %3, align 8
  %6 = getelementptr inbounds %"struct.std::_Vector_base", ptr %5, i32 0, i32 0
  %7 = getelementptr inbounds %"struct.std::_Vector_base<std::vector<unsigned long>, std::allocator<std::vector<unsigned long>>>::_Vector_impl_data", ptr %6, i32 0, i32 0
  %8 = load ptr, ptr %7, align 8
  %9 = load i64, ptr %4, align 8
  %10 = getelementptr inbounds %"class.std::vector.0", ptr %8, i64 %9
  ret ptr %10
}

; Function Attrs: mustprogress noinline nounwind optnone uwtable
define linkonce_odr dso_local noundef nonnull align 8 dereferenceable(24) ptr @_ZNKSt6vectorIS_ImSaImEESaIS1_EEixEm(ptr noundef nonnull align 8 dereferenceable(24) %0, i64 noundef %1) #7 comdat align 2 {
  %3 = alloca ptr, align 8
  %4 = alloca i64, align 8
  store ptr %0, ptr %3, align 8
  store i64 %1, ptr %4, align 8
  %5 = load ptr, ptr %3, align 8
  %6 = getelementptr inbounds %"struct.std::_Vector_base", ptr %5, i32 0, i32 0
  %7 = getelementptr inbounds %"struct.std::_Vector_base<std::vector<unsigned long>, std::allocator<std::vector<unsigned long>>>::_Vector_impl_data", ptr %6, i32 0, i32 0
  %8 = load ptr, ptr %7, align 8
  %9 = load i64, ptr %4, align 8
  %10 = getelementptr inbounds %"class.std::vector.0", ptr %8, i64 %9
  ret ptr %10
}

; Function Attrs: mustprogress noinline nounwind optnone uwtable
define linkonce_odr dso_local noundef i64 @_ZNKSt6vectorImSaImEE4sizeEv(ptr noundef nonnull align 8 dereferenceable(24) %0) #7 comdat align 2 {
  %2 = alloca ptr, align 8
  store ptr %0, ptr %2, align 8
  %3 = load ptr, ptr %2, align 8
  %4 = getelementptr inbounds %"struct.std::_Vector_base.1", ptr %3, i32 0, i32 0
  %5 = getelementptr inbounds %"struct.std::_Vector_base<unsigned long, std::allocator<unsigned long>>::_Vector_impl_data", ptr %4, i32 0, i32 1
  %6 = load ptr, ptr %5, align 8
  %7 = getelementptr inbounds %"struct.std::_Vector_base.1", ptr %3, i32 0, i32 0
  %8 = getelementptr inbounds %"struct.std::_Vector_base<unsigned long, std::allocator<unsigned long>>::_Vector_impl_data", ptr %7, i32 0, i32 0
  %9 = load ptr, ptr %8, align 8
  %10 = ptrtoint ptr %6 to i64
  %11 = ptrtoint ptr %9 to i64
  %12 = sub i64 %10, %11
  %13 = sdiv exact i64 %12, 8
  ret i64 %13
}

; Function Attrs: mustprogress noinline optnone uwtable
define linkonce_odr dso_local { i64, i64 } @_ZNK18divide_and_conquer24strassens_multiplication6MatrixImbE4sizeEv(ptr noundef nonnull align 8 dereferenceable(24) %0) #5 comdat align 2 {
  %2 = alloca %"struct.std::pair", align 8
  %3 = alloca ptr, align 8
  %4 = alloca i64, align 8
  %5 = alloca i64, align 8
  store ptr %0, ptr %3, align 8
  %6 = load ptr, ptr %3, align 8
  %7 = getelementptr inbounds %"class.divide_and_conquer::strassens_multiplication::Matrix", ptr %6, i32 0, i32 0
  %8 = call noundef i64 @_ZNKSt6vectorIS_ImSaImEESaIS1_EE4sizeEv(ptr noundef nonnull align 8 dereferenceable(24) %7) #3
  store i64 %8, ptr %4, align 8
  %9 = getelementptr inbounds %"class.divide_and_conquer::strassens_multiplication::Matrix", ptr %6, i32 0, i32 0
  %10 = call noundef nonnull align 8 dereferenceable(24) ptr @_ZNKSt6vectorIS_ImSaImEESaIS1_EEixEm(ptr noundef nonnull align 8 dereferenceable(24) %9, i64 noundef 0) #3
  %11 = call noundef i64 @_ZNKSt6vectorImSaImEE4sizeEv(ptr noundef nonnull align 8 dereferenceable(24) %10) #3
  store i64 %11, ptr %5, align 8
  call void @_ZNSt4pairImmEC2ImmLb1EEEOT_OT0_(ptr noundef nonnull align 8 dereferenceable(16) %2, ptr noundef nonnull align 8 dereferenceable(8) %4, ptr noundef nonnull align 8 dereferenceable(8) %5)
  %12 = load { i64, i64 }, ptr %2, align 8
  ret { i64, i64 } %12
}

; Function Attrs: mustprogress noinline optnone uwtable
define linkonce_odr dso_local void @_ZNK18divide_and_conquer24strassens_multiplication6MatrixImbE24strassens_multiplicationImbEES2_RKNS1_IT_NSt9enable_ifIXoosr3std11is_integralIS4_EE5valuesr3std17is_floating_pointIS4_EE5valueEbE4typeEEE(ptr noalias sret(%"class.divide_and_conquer::strassens_multiplication::Matrix") align 8 %0, ptr noundef nonnull align 8 dereferenceable(24) %1, ptr noundef nonnull align 8 dereferenceable(24) %2) #5 comdat align 2 personality ptr @__gxx_personality_v0 {
  %4 = alloca ptr, align 8
  %5 = alloca ptr, align 8
  %6 = alloca ptr, align 8
  %7 = alloca i64, align 8
  %8 = alloca %"class.divide_and_conquer::strassens_multiplication::Matrix", align 8
  %9 = alloca %"class.divide_and_conquer::strassens_multiplication::Matrix", align 8
  %10 = alloca ptr, align 8
  %11 = alloca i32, align 4
  %12 = alloca %"class.divide_and_conquer::strassens_multiplication::Matrix", align 8
  %13 = alloca %"class.divide_and_conquer::strassens_multiplication::Matrix", align 8
  %14 = alloca %"class.divide_and_conquer::strassens_multiplication::Matrix", align 8
  %15 = alloca %"class.divide_and_conquer::strassens_multiplication::Matrix", align 8
  %16 = alloca %"class.divide_and_conquer::strassens_multiplication::Matrix", align 8
  %17 = alloca %"class.divide_and_conquer::strassens_multiplication::Matrix", align 8
  %18 = alloca %"class.divide_and_conquer::strassens_multiplication::Matrix", align 8
  %19 = alloca %"class.divide_and_conquer::strassens_multiplication::Matrix", align 8
  %20 = alloca %"class.divide_and_conquer::strassens_multiplication::Matrix", align 8
  %21 = alloca %"class.divide_and_conquer::strassens_multiplication::Matrix", align 8
  %22 = alloca %"class.divide_and_conquer::strassens_multiplication::Matrix", align 8
  %23 = alloca %"class.divide_and_conquer::strassens_multiplication::Matrix", align 8
  %24 = alloca %"class.divide_and_conquer::strassens_multiplication::Matrix", align 8
  %25 = alloca %"class.divide_and_conquer::strassens_multiplication::Matrix", align 8
  %26 = alloca %"class.divide_and_conquer::strassens_multiplication::Matrix", align 8
  %27 = alloca %"class.divide_and_conquer::strassens_multiplication::Matrix", align 8
  %28 = alloca %"class.divide_and_conquer::strassens_multiplication::Matrix", align 8
  %29 = alloca %"class.divide_and_conquer::strassens_multiplication::Matrix", align 8
  %30 = alloca %"class.divide_and_conquer::strassens_multiplication::Matrix", align 8
  %31 = alloca %"class.divide_and_conquer::strassens_multiplication::Matrix", align 8
  %32 = alloca %"class.divide_and_conquer::strassens_multiplication::Matrix", align 8
  %33 = alloca %"class.divide_and_conquer::strassens_multiplication::Matrix", align 8
  %34 = alloca %"class.divide_and_conquer::strassens_multiplication::Matrix", align 8
  %35 = alloca i1, align 1
  %36 = alloca %"class.divide_and_conquer::strassens_multiplication::Matrix", align 8
  %37 = alloca %"class.divide_and_conquer::strassens_multiplication::Matrix", align 8
  %38 = alloca %"class.divide_and_conquer::strassens_multiplication::Matrix", align 8
  %39 = alloca %"class.divide_and_conquer::strassens_multiplication::Matrix", align 8
  %40 = alloca %"class.divide_and_conquer::strassens_multiplication::Matrix", align 8
  %41 = alloca %"class.divide_and_conquer::strassens_multiplication::Matrix", align 8
  %42 = alloca %"class.divide_and_conquer::strassens_multiplication::Matrix", align 8
  store ptr %0, ptr %4, align 8
  store ptr %1, ptr %5, align 8
  store ptr %2, ptr %6, align 8
  %43 = load ptr, ptr %5, align 8
  %44 = getelementptr inbounds %"class.divide_and_conquer::strassens_multiplication::Matrix", ptr %43, i32 0, i32 0
  %45 = call noundef i64 @_ZNKSt6vectorIS_ImSaImEESaIS1_EE4sizeEv(ptr noundef nonnull align 8 dereferenceable(24) %44) #3
  store i64 %45, ptr %7, align 8
  %46 = load i64, ptr %7, align 8
  %47 = icmp ule i64 %46, 64
  br i1 %47, label %52, label %48

48:                                               ; preds = %3
  %49 = load i64, ptr %7, align 8
  %50 = and i64 %49, 1
  %51 = icmp ne i64 %50, 0
  br i1 %51, label %52, label %54

52:                                               ; preds = %48, %3
  %53 = load ptr, ptr %6, align 8
  call void @_ZNK18divide_and_conquer24strassens_multiplication6MatrixImbE20naive_multiplicationImbEES2_RKNS1_IT_NSt9enable_ifIXoosr3std11is_integralIS4_EE5valuesr3std17is_floating_pointIS4_EE5valueEbE4typeEEE(ptr sret(%"class.divide_and_conquer::strassens_multiplication::Matrix") align 8 %0, ptr noundef nonnull align 8 dereferenceable(24) %43, ptr noundef nonnull align 8 dereferenceable(24) %53)
  br label %292

54:                                               ; preds = %48
  %55 = load i64, ptr %7, align 8
  %56 = lshr i64 %55, 1
  %57 = load i64, ptr %7, align 8
  %58 = lshr i64 %57, 1
  call void @_ZNK18divide_and_conquer24strassens_multiplication6MatrixImbE5sliceEmmmm(ptr sret(%"class.divide_and_conquer::strassens_multiplication::Matrix") align 8 %8, ptr noundef nonnull align 8 dereferenceable(24) %43, i64 noundef 0, i64 noundef %56, i64 noundef 0, i64 noundef %58)
  %59 = load i64, ptr %7, align 8
  %60 = lshr i64 %59, 1
  %61 = load i64, ptr %7, align 8
  %62 = lshr i64 %61, 1
  %63 = load i64, ptr %7, align 8
  invoke void @_ZNK18divide_and_conquer24strassens_multiplication6MatrixImbE5sliceEmmmm(ptr sret(%"class.divide_and_conquer::strassens_multiplication::Matrix") align 8 %9, ptr noundef nonnull align 8 dereferenceable(24) %43, i64 noundef 0, i64 noundef %60, i64 noundef %62, i64 noundef %63)
          to label %64 unwind label %135

64:                                               ; preds = %54
  %65 = load i64, ptr %7, align 8
  %66 = lshr i64 %65, 1
  %67 = load i64, ptr %7, align 8
  %68 = load i64, ptr %7, align 8
  %69 = lshr i64 %68, 1
  invoke void @_ZNK18divide_and_conquer24strassens_multiplication6MatrixImbE5sliceEmmmm(ptr sret(%"class.divide_and_conquer::strassens_multiplication::Matrix") align 8 %12, ptr noundef nonnull align 8 dereferenceable(24) %43, i64 noundef %66, i64 noundef %67, i64 noundef 0, i64 noundef %69)
          to label %70 unwind label %139

70:                                               ; preds = %64
  %71 = load i64, ptr %7, align 8
  %72 = lshr i64 %71, 1
  %73 = load i64, ptr %7, align 8
  %74 = load i64, ptr %7, align 8
  %75 = lshr i64 %74, 1
  %76 = load i64, ptr %7, align 8
  invoke void @_ZNK18divide_and_conquer24strassens_multiplication6MatrixImbE5sliceEmmmm(ptr sret(%"class.divide_and_conquer::strassens_multiplication::Matrix") align 8 %13, ptr noundef nonnull align 8 dereferenceable(24) %43, i64 noundef %72, i64 noundef %73, i64 noundef %75, i64 noundef %76)
          to label %77 unwind label %143

77:                                               ; preds = %70
  %78 = load ptr, ptr %6, align 8
  %79 = load i64, ptr %7, align 8
  %80 = lshr i64 %79, 1
  %81 = load i64, ptr %7, align 8
  %82 = lshr i64 %81, 1
  invoke void @_ZNK18divide_and_conquer24strassens_multiplication6MatrixImbE5sliceEmmmm(ptr sret(%"class.divide_and_conquer::strassens_multiplication::Matrix") align 8 %14, ptr noundef nonnull align 8 dereferenceable(24) %78, i64 noundef 0, i64 noundef %80, i64 noundef 0, i64 noundef %82)
          to label %83 unwind label %147

83:                                               ; preds = %77
  %84 = load ptr, ptr %6, align 8
  %85 = load i64, ptr %7, align 8
  %86 = lshr i64 %85, 1
  %87 = load i64, ptr %7, align 8
  %88 = lshr i64 %87, 1
  %89 = load i64, ptr %7, align 8
  invoke void @_ZNK18divide_and_conquer24strassens_multiplication6MatrixImbE5sliceEmmmm(ptr sret(%"class.divide_and_conquer::strassens_multiplication::Matrix") align 8 %15, ptr noundef nonnull align 8 dereferenceable(24) %84, i64 noundef 0, i64 noundef %86, i64 noundef %88, i64 noundef %89)
          to label %90 unwind label %151

90:                                               ; preds = %83
  %91 = load ptr, ptr %6, align 8
  %92 = load i64, ptr %7, align 8
  %93 = lshr i64 %92, 1
  %94 = load i64, ptr %7, align 8
  %95 = load i64, ptr %7, align 8
  %96 = lshr i64 %95, 1
  invoke void @_ZNK18divide_and_conquer24strassens_multiplication6MatrixImbE5sliceEmmmm(ptr sret(%"class.divide_and_conquer::strassens_multiplication::Matrix") align 8 %16, ptr noundef nonnull align 8 dereferenceable(24) %91, i64 noundef %93, i64 noundef %94, i64 noundef 0, i64 noundef %96)
          to label %97 unwind label %155

97:                                               ; preds = %90
  %98 = load ptr, ptr %6, align 8
  %99 = load i64, ptr %7, align 8
  %100 = lshr i64 %99, 1
  %101 = load i64, ptr %7, align 8
  %102 = load i64, ptr %7, align 8
  %103 = lshr i64 %102, 1
  %104 = load i64, ptr %7, align 8
  invoke void @_ZNK18divide_and_conquer24strassens_multiplication6MatrixImbE5sliceEmmmm(ptr sret(%"class.divide_and_conquer::strassens_multiplication::Matrix") align 8 %17, ptr noundef nonnull align 8 dereferenceable(24) %98, i64 noundef %100, i64 noundef %101, i64 noundef %103, i64 noundef %104)
          to label %105 unwind label %159

105:                                              ; preds = %97
  invoke void @_ZNK18divide_and_conquer24strassens_multiplication6MatrixImbEmiImbEES2_RKNS1_IT_NSt9enable_ifIXoosr3std11is_integralIS4_EE5valuesr3std17is_floating_pointIS4_EE5valueEbE4typeEEE(ptr sret(%"class.divide_and_conquer::strassens_multiplication::Matrix") align 8 %19, ptr noundef nonnull align 8 dereferenceable(24) %15, ptr noundef nonnull align 8 dereferenceable(24) %17)
          to label %106 unwind label %163

106:                                              ; preds = %105
  invoke void @_ZNK18divide_and_conquer24strassens_multiplication6MatrixImbE24strassens_multiplicationImbEES2_RKNS1_IT_NSt9enable_ifIXoosr3std11is_integralIS4_EE5valuesr3std17is_floating_pointIS4_EE5valueEbE4typeEEE(ptr sret(%"class.divide_and_conquer::strassens_multiplication::Matrix") align 8 %18, ptr noundef nonnull align 8 dereferenceable(24) %8, ptr noundef nonnull align 8 dereferenceable(24) %19)
          to label %107 unwind label %167

107:                                              ; preds = %106
  call void @_ZN18divide_and_conquer24strassens_multiplication6MatrixImbED2Ev(ptr noundef nonnull align 8 dereferenceable(24) %19) #3
  invoke void @_ZNK18divide_and_conquer24strassens_multiplication6MatrixImbEplImbEES2_RKNS1_IT_NSt9enable_ifIXoosr3std11is_integralIS4_EE5valuesr3std17is_floating_pointIS4_EE5valueEbE4typeEEE(ptr sret(%"class.divide_and_conquer::strassens_multiplication::Matrix") align 8 %21, ptr noundef nonnull align 8 dereferenceable(24) %8, ptr noundef nonnull align 8 dereferenceable(24) %9)
          to label %108 unwind label %171

108:                                              ; preds = %107
  invoke void @_ZNK18divide_and_conquer24strassens_multiplication6MatrixImbE24strassens_multiplicationImbEES2_RKNS1_IT_NSt9enable_ifIXoosr3std11is_integralIS4_EE5valuesr3std17is_floating_pointIS4_EE5valueEbE4typeEEE(ptr sret(%"class.divide_and_conquer::strassens_multiplication::Matrix") align 8 %20, ptr noundef nonnull align 8 dereferenceable(24) %21, ptr noundef nonnull align 8 dereferenceable(24) %17)
          to label %109 unwind label %175

109:                                              ; preds = %108
  call void @_ZN18divide_and_conquer24strassens_multiplication6MatrixImbED2Ev(ptr noundef nonnull align 8 dereferenceable(24) %21) #3
  invoke void @_ZNK18divide_and_conquer24strassens_multiplication6MatrixImbEplImbEES2_RKNS1_IT_NSt9enable_ifIXoosr3std11is_integralIS4_EE5valuesr3std17is_floating_pointIS4_EE5valueEbE4typeEEE(ptr sret(%"class.divide_and_conquer::strassens_multiplication::Matrix") align 8 %23, ptr noundef nonnull align 8 dereferenceable(24) %12, ptr noundef nonnull align 8 dereferenceable(24) %13)
          to label %110 unwind label %179

110:                                              ; preds = %109
  invoke void @_ZNK18divide_and_conquer24strassens_multiplication6MatrixImbE24strassens_multiplicationImbEES2_RKNS1_IT_NSt9enable_ifIXoosr3std11is_integralIS4_EE5valuesr3std17is_floating_pointIS4_EE5valueEbE4typeEEE(ptr sret(%"class.divide_and_conquer::strassens_multiplication::Matrix") align 8 %22, ptr noundef nonnull align 8 dereferenceable(24) %23, ptr noundef nonnull align 8 dereferenceable(24) %14)
          to label %111 unwind label %183

111:                                              ; preds = %110
  call void @_ZN18divide_and_conquer24strassens_multiplication6MatrixImbED2Ev(ptr noundef nonnull align 8 dereferenceable(24) %23) #3
  invoke void @_ZNK18divide_and_conquer24strassens_multiplication6MatrixImbEmiImbEES2_RKNS1_IT_NSt9enable_ifIXoosr3std11is_integralIS4_EE5valuesr3std17is_floating_pointIS4_EE5valueEbE4typeEEE(ptr sret(%"class.divide_and_conquer::strassens_multiplication::Matrix") align 8 %25, ptr noundef nonnull align 8 dereferenceable(24) %16, ptr noundef nonnull align 8 dereferenceable(24) %14)
          to label %112 unwind label %187

112:                                              ; preds = %111
  invoke void @_ZNK18divide_and_conquer24strassens_multiplication6MatrixImbE24strassens_multiplicationImbEES2_RKNS1_IT_NSt9enable_ifIXoosr3std11is_integralIS4_EE5valuesr3std17is_floating_pointIS4_EE5valueEbE4typeEEE(ptr sret(%"class.divide_and_conquer::strassens_multiplication::Matrix") align 8 %24, ptr noundef nonnull align 8 dereferenceable(24) %13, ptr noundef nonnull align 8 dereferenceable(24) %25)
          to label %113 unwind label %191

113:                                              ; preds = %112
  call void @_ZN18divide_and_conquer24strassens_multiplication6MatrixImbED2Ev(ptr noundef nonnull align 8 dereferenceable(24) %25) #3
  invoke void @_ZNK18divide_and_conquer24strassens_multiplication6MatrixImbEplImbEES2_RKNS1_IT_NSt9enable_ifIXoosr3std11is_integralIS4_EE5valuesr3std17is_floating_pointIS4_EE5valueEbE4typeEEE(ptr sret(%"class.divide_and_conquer::strassens_multiplication::Matrix") align 8 %27, ptr noundef nonnull align 8 dereferenceable(24) %8, ptr noundef nonnull align 8 dereferenceable(24) %13)
          to label %114 unwind label %195

114:                                              ; preds = %113
  invoke void @_ZNK18divide_and_conquer24strassens_multiplication6MatrixImbEplImbEES2_RKNS1_IT_NSt9enable_ifIXoosr3std11is_integralIS4_EE5valuesr3std17is_floating_pointIS4_EE5valueEbE4typeEEE(ptr sret(%"class.divide_and_conquer::strassens_multiplication::Matrix") align 8 %28, ptr noundef nonnull align 8 dereferenceable(24) %14, ptr noundef nonnull align 8 dereferenceable(24) %17)
          to label %115 unwind label %199

115:                                              ; preds = %114
  invoke void @_ZNK18divide_and_conquer24strassens_multiplication6MatrixImbE24strassens_multiplicationImbEES2_RKNS1_IT_NSt9enable_ifIXoosr3std11is_integralIS4_EE5valuesr3std17is_floating_pointIS4_EE5valueEbE4typeEEE(ptr sret(%"class.divide_and_conquer::strassens_multiplication::Matrix") align 8 %26, ptr noundef nonnull align 8 dereferenceable(24) %27, ptr noundef nonnull align 8 dereferenceable(24) %28)
          to label %116 unwind label %203

116:                                              ; preds = %115
  call void @_ZN18divide_and_conquer24strassens_multiplication6MatrixImbED2Ev(ptr noundef nonnull align 8 dereferenceable(24) %28) #3
  call void @_ZN18divide_and_conquer24strassens_multiplication6MatrixImbED2Ev(ptr noundef nonnull align 8 dereferenceable(24) %27) #3
  invoke void @_ZNK18divide_and_conquer24strassens_multiplication6MatrixImbEmiImbEES2_RKNS1_IT_NSt9enable_ifIXoosr3std11is_integralIS4_EE5valuesr3std17is_floating_pointIS4_EE5valueEbE4typeEEE(ptr sret(%"class.divide_and_conquer::strassens_multiplication::Matrix") align 8 %30, ptr noundef nonnull align 8 dereferenceable(24) %9, ptr noundef nonnull align 8 dereferenceable(24) %13)
          to label %117 unwind label %208

117:                                              ; preds = %116
  invoke void @_ZNK18divide_and_conquer24strassens_multiplication6MatrixImbEplImbEES2_RKNS1_IT_NSt9enable_ifIXoosr3std11is_integralIS4_EE5valuesr3std17is_floating_pointIS4_EE5valueEbE4typeEEE(ptr sret(%"class.divide_and_conquer::strassens_multiplication::Matrix") align 8 %31, ptr noundef nonnull align 8 dereferenceable(24) %16, ptr noundef nonnull align 8 dereferenceable(24) %17)
          to label %118 unwind label %212

118:                                              ; preds = %117
  invoke void @_ZNK18divide_and_conquer24strassens_multiplication6MatrixImbE24strassens_multiplicationImbEES2_RKNS1_IT_NSt9enable_ifIXoosr3std11is_integralIS4_EE5valuesr3std17is_floating_pointIS4_EE5valueEbE4typeEEE(ptr sret(%"class.divide_and_conquer::strassens_multiplication::Matrix") align 8 %29, ptr noundef nonnull align 8 dereferenceable(24) %30, ptr noundef nonnull align 8 dereferenceable(24) %31)
          to label %119 unwind label %216

119:                                              ; preds = %118
  call void @_ZN18divide_and_conquer24strassens_multiplication6MatrixImbED2Ev(ptr noundef nonnull align 8 dereferenceable(24) %31) #3
  call void @_ZN18divide_and_conquer24strassens_multiplication6MatrixImbED2Ev(ptr noundef nonnull align 8 dereferenceable(24) %30) #3
  invoke void @_ZNK18divide_and_conquer24strassens_multiplication6MatrixImbEmiImbEES2_RKNS1_IT_NSt9enable_ifIXoosr3std11is_integralIS4_EE5valuesr3std17is_floating_pointIS4_EE5valueEbE4typeEEE(ptr sret(%"class.divide_and_conquer::strassens_multiplication::Matrix") align 8 %33, ptr noundef nonnull align 8 dereferenceable(24) %8, ptr noundef nonnull align 8 dereferenceable(24) %12)
          to label %120 unwind label %221

120:                                              ; preds = %119
  invoke void @_ZNK18divide_and_conquer24strassens_multiplication6MatrixImbEplImbEES2_RKNS1_IT_NSt9enable_ifIXoosr3std11is_integralIS4_EE5valuesr3std17is_floating_pointIS4_EE5valueEbE4typeEEE(ptr sret(%"class.divide_and_conquer::strassens_multiplication::Matrix") align 8 %34, ptr noundef nonnull align 8 dereferenceable(24) %14, ptr noundef nonnull align 8 dereferenceable(24) %15)
          to label %121 unwind label %225

121:                                              ; preds = %120
  invoke void @_ZNK18divide_and_conquer24strassens_multiplication6MatrixImbE24strassens_multiplicationImbEES2_RKNS1_IT_NSt9enable_ifIXoosr3std11is_integralIS4_EE5valuesr3std17is_floating_pointIS4_EE5valueEbE4typeEEE(ptr sret(%"class.divide_and_conquer::strassens_multiplication::Matrix") align 8 %32, ptr noundef nonnull align 8 dereferenceable(24) %33, ptr noundef nonnull align 8 dereferenceable(24) %34)
          to label %122 unwind label %229

122:                                              ; preds = %121
  call void @_ZN18divide_and_conquer24strassens_multiplication6MatrixImbED2Ev(ptr noundef nonnull align 8 dereferenceable(24) %34) #3
  call void @_ZN18divide_and_conquer24strassens_multiplication6MatrixImbED2Ev(ptr noundef nonnull align 8 dereferenceable(24) %33) #3
  store i1 false, ptr %35, align 1
  invoke void @_ZNK18divide_and_conquer24strassens_multiplication6MatrixImbEplImbEES2_RKNS1_IT_NSt9enable_ifIXoosr3std11is_integralIS4_EE5valuesr3std17is_floating_pointIS4_EE5valueEbE4typeEEE(ptr sret(%"class.divide_and_conquer::strassens_multiplication::Matrix") align 8 %37, ptr noundef nonnull align 8 dereferenceable(24) %26, ptr noundef nonnull align 8 dereferenceable(24) %24)
          to label %123 unwind label %234

123:                                              ; preds = %122
  invoke void @_ZNK18divide_and_conquer24strassens_multiplication6MatrixImbEmiImbEES2_RKNS1_IT_NSt9enable_ifIXoosr3std11is_integralIS4_EE5valuesr3std17is_floating_pointIS4_EE5valueEbE4typeEEE(ptr sret(%"class.divide_and_conquer::strassens_multiplication::Matrix") align 8 %36, ptr noundef nonnull align 8 dereferenceable(24) %37, ptr noundef nonnull align 8 dereferenceable(24) %20)
          to label %124 unwind label %238

124:                                              ; preds = %123
  invoke void @_ZNK18divide_and_conquer24strassens_multiplication6MatrixImbEplImbEES2_RKNS1_IT_NSt9enable_ifIXoosr3std11is_integralIS4_EE5valuesr3std17is_floating_pointIS4_EE5valueEbE4typeEEE(ptr sret(%"class.divide_and_conquer::strassens_multiplication::Matrix") align 8 %0, ptr noundef nonnull align 8 dereferenceable(24) %36, ptr noundef nonnull align 8 dereferenceable(24) %29)
          to label %125 unwind label %242

125:                                              ; preds = %124
  call void @_ZN18divide_and_conquer24strassens_multiplication6MatrixImbED2Ev(ptr noundef nonnull align 8 dereferenceable(24) %36) #3
  call void @_ZN18divide_and_conquer24strassens_multiplication6MatrixImbED2Ev(ptr noundef nonnull align 8 dereferenceable(24) %37) #3
  invoke void @_ZNK18divide_and_conquer24strassens_multiplication6MatrixImbEplImbEES2_RKNS1_IT_NSt9enable_ifIXoosr3std11is_integralIS4_EE5valuesr3std17is_floating_pointIS4_EE5valueEbE4typeEEE(ptr sret(%"class.divide_and_conquer::strassens_multiplication::Matrix") align 8 %38, ptr noundef nonnull align 8 dereferenceable(24) %18, ptr noundef nonnull align 8 dereferenceable(24) %20)
          to label %126 unwind label %247

126:                                              ; preds = %125
  invoke void @_ZNK18divide_and_conquer24strassens_multiplication6MatrixImbEplImbEES2_RKNS1_IT_NSt9enable_ifIXoosr3std11is_integralIS4_EE5valuesr3std17is_floating_pointIS4_EE5valueEbE4typeEEE(ptr sret(%"class.divide_and_conquer::strassens_multiplication::Matrix") align 8 %39, ptr noundef nonnull align 8 dereferenceable(24) %22, ptr noundef nonnull align 8 dereferenceable(24) %24)
          to label %127 unwind label %251

127:                                              ; preds = %126
  invoke void @_ZNK18divide_and_conquer24strassens_multiplication6MatrixImbEplImbEES2_RKNS1_IT_NSt9enable_ifIXoosr3std11is_integralIS4_EE5valuesr3std17is_floating_pointIS4_EE5valueEbE4typeEEE(ptr sret(%"class.divide_and_conquer::strassens_multiplication::Matrix") align 8 %42, ptr noundef nonnull align 8 dereferenceable(24) %18, ptr noundef nonnull align 8 dereferenceable(24) %26)
          to label %128 unwind label %255

128:                                              ; preds = %127
  invoke void @_ZNK18divide_and_conquer24strassens_multiplication6MatrixImbEmiImbEES2_RKNS1_IT_NSt9enable_ifIXoosr3std11is_integralIS4_EE5valuesr3std17is_floating_pointIS4_EE5valueEbE4typeEEE(ptr sret(%"class.divide_and_conquer::strassens_multiplication::Matrix") align 8 %41, ptr noundef nonnull align 8 dereferenceable(24) %42, ptr noundef nonnull align 8 dereferenceable(24) %22)
          to label %129 unwind label %259

129:                                              ; preds = %128
  invoke void @_ZNK18divide_and_conquer24strassens_multiplication6MatrixImbEmiImbEES2_RKNS1_IT_NSt9enable_ifIXoosr3std11is_integralIS4_EE5valuesr3std17is_floating_pointIS4_EE5valueEbE4typeEEE(ptr sret(%"class.divide_and_conquer::strassens_multiplication::Matrix") align 8 %40, ptr noundef nonnull align 8 dereferenceable(24) %41, ptr noundef nonnull align 8 dereferenceable(24) %32)
          to label %130 unwind label %263

130:                                              ; preds = %129
  call void @_ZN18divide_and_conquer24strassens_multiplication6MatrixImbED2Ev(ptr noundef nonnull align 8 dereferenceable(24) %41) #3
  call void @_ZN18divide_and_conquer24strassens_multiplication6MatrixImbED2Ev(ptr noundef nonnull align 8 dereferenceable(24) %42) #3
  invoke void @_ZN18divide_and_conquer24strassens_multiplication6MatrixImbE7h_stackImmEEvRKNS1_IT_NSt9enable_ifIXoosr3std11is_integralIS4_EE5valuesr3std17is_floating_pointIS4_EE5valueEbE4typeEEE(ptr noundef nonnull align 8 dereferenceable(24) %39, ptr noundef nonnull align 8 dereferenceable(24) %40)
          to label %131 unwind label %268

131:                                              ; preds = %130
  invoke void @_ZN18divide_and_conquer24strassens_multiplication6MatrixImbE7h_stackImmEEvRKNS1_IT_NSt9enable_ifIXoosr3std11is_integralIS4_EE5valuesr3std17is_floating_pointIS4_EE5valueEbE4typeEEE(ptr noundef nonnull align 8 dereferenceable(24) %0, ptr noundef nonnull align 8 dereferenceable(24) %38)
          to label %132 unwind label %268

132:                                              ; preds = %131
  invoke void @_ZN18divide_and_conquer24strassens_multiplication6MatrixImbE7v_stackImmEEvRKNS1_IT_NSt9enable_ifIXoosr3std11is_integralIS4_EE5valuesr3std17is_floating_pointIS4_EE5valueEbE4typeEEE(ptr noundef nonnull align 8 dereferenceable(24) %0, ptr noundef nonnull align 8 dereferenceable(24) %39)
          to label %133 unwind label %268

133:                                              ; preds = %132
  store i1 true, ptr %35, align 1
  call void @_ZN18divide_and_conquer24strassens_multiplication6MatrixImbED2Ev(ptr noundef nonnull align 8 dereferenceable(24) %40) #3
  call void @_ZN18divide_and_conquer24strassens_multiplication6MatrixImbED2Ev(ptr noundef nonnull align 8 dereferenceable(24) %39) #3
  call void @_ZN18divide_and_conquer24strassens_multiplication6MatrixImbED2Ev(ptr noundef nonnull align 8 dereferenceable(24) %38) #3
  %134 = load i1, ptr %35, align 1
  br i1 %134, label %275, label %274

135:                                              ; preds = %54
  %136 = landingpad { ptr, i32 }
          cleanup
  %137 = extractvalue { ptr, i32 } %136, 0
  store ptr %137, ptr %10, align 8
  %138 = extractvalue { ptr, i32 } %136, 1
  store i32 %138, ptr %11, align 4
  br label %291

139:                                              ; preds = %64
  %140 = landingpad { ptr, i32 }
          cleanup
  %141 = extractvalue { ptr, i32 } %140, 0
  store ptr %141, ptr %10, align 8
  %142 = extractvalue { ptr, i32 } %140, 1
  store i32 %142, ptr %11, align 4
  br label %290

143:                                              ; preds = %70
  %144 = landingpad { ptr, i32 }
          cleanup
  %145 = extractvalue { ptr, i32 } %144, 0
  store ptr %145, ptr %10, align 8
  %146 = extractvalue { ptr, i32 } %144, 1
  store i32 %146, ptr %11, align 4
  br label %289

147:                                              ; preds = %77
  %148 = landingpad { ptr, i32 }
          cleanup
  %149 = extractvalue { ptr, i32 } %148, 0
  store ptr %149, ptr %10, align 8
  %150 = extractvalue { ptr, i32 } %148, 1
  store i32 %150, ptr %11, align 4
  br label %288

151:                                              ; preds = %83
  %152 = landingpad { ptr, i32 }
          cleanup
  %153 = extractvalue { ptr, i32 } %152, 0
  store ptr %153, ptr %10, align 8
  %154 = extractvalue { ptr, i32 } %152, 1
  store i32 %154, ptr %11, align 4
  br label %287

155:                                              ; preds = %90
  %156 = landingpad { ptr, i32 }
          cleanup
  %157 = extractvalue { ptr, i32 } %156, 0
  store ptr %157, ptr %10, align 8
  %158 = extractvalue { ptr, i32 } %156, 1
  store i32 %158, ptr %11, align 4
  br label %286

159:                                              ; preds = %97
  %160 = landingpad { ptr, i32 }
          cleanup
  %161 = extractvalue { ptr, i32 } %160, 0
  store ptr %161, ptr %10, align 8
  %162 = extractvalue { ptr, i32 } %160, 1
  store i32 %162, ptr %11, align 4
  br label %285

163:                                              ; preds = %105
  %164 = landingpad { ptr, i32 }
          cleanup
  %165 = extractvalue { ptr, i32 } %164, 0
  store ptr %165, ptr %10, align 8
  %166 = extractvalue { ptr, i32 } %164, 1
  store i32 %166, ptr %11, align 4
  br label %284

167:                                              ; preds = %106
  %168 = landingpad { ptr, i32 }
          cleanup
  %169 = extractvalue { ptr, i32 } %168, 0
  store ptr %169, ptr %10, align 8
  %170 = extractvalue { ptr, i32 } %168, 1
  store i32 %170, ptr %11, align 4
  call void @_ZN18divide_and_conquer24strassens_multiplication6MatrixImbED2Ev(ptr noundef nonnull align 8 dereferenceable(24) %19) #3
  br label %284

171:                                              ; preds = %107
  %172 = landingpad { ptr, i32 }
          cleanup
  %173 = extractvalue { ptr, i32 } %172, 0
  store ptr %173, ptr %10, align 8
  %174 = extractvalue { ptr, i32 } %172, 1
  store i32 %174, ptr %11, align 4
  br label %283

175:                                              ; preds = %108
  %176 = landingpad { ptr, i32 }
          cleanup
  %177 = extractvalue { ptr, i32 } %176, 0
  store ptr %177, ptr %10, align 8
  %178 = extractvalue { ptr, i32 } %176, 1
  store i32 %178, ptr %11, align 4
  call void @_ZN18divide_and_conquer24strassens_multiplication6MatrixImbED2Ev(ptr noundef nonnull align 8 dereferenceable(24) %21) #3
  br label %283

179:                                              ; preds = %109
  %180 = landingpad { ptr, i32 }
          cleanup
  %181 = extractvalue { ptr, i32 } %180, 0
  store ptr %181, ptr %10, align 8
  %182 = extractvalue { ptr, i32 } %180, 1
  store i32 %182, ptr %11, align 4
  br label %282

183:                                              ; preds = %110
  %184 = landingpad { ptr, i32 }
          cleanup
  %185 = extractvalue { ptr, i32 } %184, 0
  store ptr %185, ptr %10, align 8
  %186 = extractvalue { ptr, i32 } %184, 1
  store i32 %186, ptr %11, align 4
  call void @_ZN18divide_and_conquer24strassens_multiplication6MatrixImbED2Ev(ptr noundef nonnull align 8 dereferenceable(24) %23) #3
  br label %282

187:                                              ; preds = %111
  %188 = landingpad { ptr, i32 }
          cleanup
  %189 = extractvalue { ptr, i32 } %188, 0
  store ptr %189, ptr %10, align 8
  %190 = extractvalue { ptr, i32 } %188, 1
  store i32 %190, ptr %11, align 4
  br label %281

191:                                              ; preds = %112
  %192 = landingpad { ptr, i32 }
          cleanup
  %193 = extractvalue { ptr, i32 } %192, 0
  store ptr %193, ptr %10, align 8
  %194 = extractvalue { ptr, i32 } %192, 1
  store i32 %194, ptr %11, align 4
  call void @_ZN18divide_and_conquer24strassens_multiplication6MatrixImbED2Ev(ptr noundef nonnull align 8 dereferenceable(24) %25) #3
  br label %281

195:                                              ; preds = %113
  %196 = landingpad { ptr, i32 }
          cleanup
  %197 = extractvalue { ptr, i32 } %196, 0
  store ptr %197, ptr %10, align 8
  %198 = extractvalue { ptr, i32 } %196, 1
  store i32 %198, ptr %11, align 4
  br label %280

199:                                              ; preds = %114
  %200 = landingpad { ptr, i32 }
          cleanup
  %201 = extractvalue { ptr, i32 } %200, 0
  store ptr %201, ptr %10, align 8
  %202 = extractvalue { ptr, i32 } %200, 1
  store i32 %202, ptr %11, align 4
  br label %207

203:                                              ; preds = %115
  %204 = landingpad { ptr, i32 }
          cleanup
  %205 = extractvalue { ptr, i32 } %204, 0
  store ptr %205, ptr %10, align 8
  %206 = extractvalue { ptr, i32 } %204, 1
  store i32 %206, ptr %11, align 4
  call void @_ZN18divide_and_conquer24strassens_multiplication6MatrixImbED2Ev(ptr noundef nonnull align 8 dereferenceable(24) %28) #3
  br label %207

207:                                              ; preds = %203, %199
  call void @_ZN18divide_and_conquer24strassens_multiplication6MatrixImbED2Ev(ptr noundef nonnull align 8 dereferenceable(24) %27) #3
  br label %280

208:                                              ; preds = %116
  %209 = landingpad { ptr, i32 }
          cleanup
  %210 = extractvalue { ptr, i32 } %209, 0
  store ptr %210, ptr %10, align 8
  %211 = extractvalue { ptr, i32 } %209, 1
  store i32 %211, ptr %11, align 4
  br label %279

212:                                              ; preds = %117
  %213 = landingpad { ptr, i32 }
          cleanup
  %214 = extractvalue { ptr, i32 } %213, 0
  store ptr %214, ptr %10, align 8
  %215 = extractvalue { ptr, i32 } %213, 1
  store i32 %215, ptr %11, align 4
  br label %220

216:                                              ; preds = %118
  %217 = landingpad { ptr, i32 }
          cleanup
  %218 = extractvalue { ptr, i32 } %217, 0
  store ptr %218, ptr %10, align 8
  %219 = extractvalue { ptr, i32 } %217, 1
  store i32 %219, ptr %11, align 4
  call void @_ZN18divide_and_conquer24strassens_multiplication6MatrixImbED2Ev(ptr noundef nonnull align 8 dereferenceable(24) %31) #3
  br label %220

220:                                              ; preds = %216, %212
  call void @_ZN18divide_and_conquer24strassens_multiplication6MatrixImbED2Ev(ptr noundef nonnull align 8 dereferenceable(24) %30) #3
  br label %279

221:                                              ; preds = %119
  %222 = landingpad { ptr, i32 }
          cleanup
  %223 = extractvalue { ptr, i32 } %222, 0
  store ptr %223, ptr %10, align 8
  %224 = extractvalue { ptr, i32 } %222, 1
  store i32 %224, ptr %11, align 4
  br label %278

225:                                              ; preds = %120
  %226 = landingpad { ptr, i32 }
          cleanup
  %227 = extractvalue { ptr, i32 } %226, 0
  store ptr %227, ptr %10, align 8
  %228 = extractvalue { ptr, i32 } %226, 1
  store i32 %228, ptr %11, align 4
  br label %233

229:                                              ; preds = %121
  %230 = landingpad { ptr, i32 }
          cleanup
  %231 = extractvalue { ptr, i32 } %230, 0
  store ptr %231, ptr %10, align 8
  %232 = extractvalue { ptr, i32 } %230, 1
  store i32 %232, ptr %11, align 4
  call void @_ZN18divide_and_conquer24strassens_multiplication6MatrixImbED2Ev(ptr noundef nonnull align 8 dereferenceable(24) %34) #3
  br label %233

233:                                              ; preds = %229, %225
  call void @_ZN18divide_and_conquer24strassens_multiplication6MatrixImbED2Ev(ptr noundef nonnull align 8 dereferenceable(24) %33) #3
  br label %278

234:                                              ; preds = %122
  %235 = landingpad { ptr, i32 }
          cleanup
  %236 = extractvalue { ptr, i32 } %235, 0
  store ptr %236, ptr %10, align 8
  %237 = extractvalue { ptr, i32 } %235, 1
  store i32 %237, ptr %11, align 4
  br label %277

238:                                              ; preds = %123
  %239 = landingpad { ptr, i32 }
          cleanup
  %240 = extractvalue { ptr, i32 } %239, 0
  store ptr %240, ptr %10, align 8
  %241 = extractvalue { ptr, i32 } %239, 1
  store i32 %241, ptr %11, align 4
  br label %246

242:                                              ; preds = %124
  %243 = landingpad { ptr, i32 }
          cleanup
  %244 = extractvalue { ptr, i32 } %243, 0
  store ptr %244, ptr %10, align 8
  %245 = extractvalue { ptr, i32 } %243, 1
  store i32 %245, ptr %11, align 4
  call void @_ZN18divide_and_conquer24strassens_multiplication6MatrixImbED2Ev(ptr noundef nonnull align 8 dereferenceable(24) %36) #3
  br label %246

246:                                              ; preds = %242, %238
  call void @_ZN18divide_and_conquer24strassens_multiplication6MatrixImbED2Ev(ptr noundef nonnull align 8 dereferenceable(24) %37) #3
  br label %277

247:                                              ; preds = %125
  %248 = landingpad { ptr, i32 }
          cleanup
  %249 = extractvalue { ptr, i32 } %248, 0
  store ptr %249, ptr %10, align 8
  %250 = extractvalue { ptr, i32 } %248, 1
  store i32 %250, ptr %11, align 4
  br label %276

251:                                              ; preds = %126
  %252 = landingpad { ptr, i32 }
          cleanup
  %253 = extractvalue { ptr, i32 } %252, 0
  store ptr %253, ptr %10, align 8
  %254 = extractvalue { ptr, i32 } %252, 1
  store i32 %254, ptr %11, align 4
  br label %273

255:                                              ; preds = %127
  %256 = landingpad { ptr, i32 }
          cleanup
  %257 = extractvalue { ptr, i32 } %256, 0
  store ptr %257, ptr %10, align 8
  %258 = extractvalue { ptr, i32 } %256, 1
  store i32 %258, ptr %11, align 4
  br label %272

259:                                              ; preds = %128
  %260 = landingpad { ptr, i32 }
          cleanup
  %261 = extractvalue { ptr, i32 } %260, 0
  store ptr %261, ptr %10, align 8
  %262 = extractvalue { ptr, i32 } %260, 1
  store i32 %262, ptr %11, align 4
  br label %267

263:                                              ; preds = %129
  %264 = landingpad { ptr, i32 }
          cleanup
  %265 = extractvalue { ptr, i32 } %264, 0
  store ptr %265, ptr %10, align 8
  %266 = extractvalue { ptr, i32 } %264, 1
  store i32 %266, ptr %11, align 4
  call void @_ZN18divide_and_conquer24strassens_multiplication6MatrixImbED2Ev(ptr noundef nonnull align 8 dereferenceable(24) %41) #3
  br label %267

267:                                              ; preds = %263, %259
  call void @_ZN18divide_and_conquer24strassens_multiplication6MatrixImbED2Ev(ptr noundef nonnull align 8 dereferenceable(24) %42) #3
  br label %272

268:                                              ; preds = %132, %131, %130
  %269 = landingpad { ptr, i32 }
          cleanup
  %270 = extractvalue { ptr, i32 } %269, 0
  store ptr %270, ptr %10, align 8
  %271 = extractvalue { ptr, i32 } %269, 1
  store i32 %271, ptr %11, align 4
  call void @_ZN18divide_and_conquer24strassens_multiplication6MatrixImbED2Ev(ptr noundef nonnull align 8 dereferenceable(24) %40) #3
  br label %272

272:                                              ; preds = %268, %267, %255
  call void @_ZN18divide_and_conquer24strassens_multiplication6MatrixImbED2Ev(ptr noundef nonnull align 8 dereferenceable(24) %39) #3
  br label %273

273:                                              ; preds = %272, %251
  call void @_ZN18divide_and_conquer24strassens_multiplication6MatrixImbED2Ev(ptr noundef nonnull align 8 dereferenceable(24) %38) #3
  br label %276

274:                                              ; preds = %133
  call void @_ZN18divide_and_conquer24strassens_multiplication6MatrixImbED2Ev(ptr noundef nonnull align 8 dereferenceable(24) %0) #3
  br label %275

275:                                              ; preds = %274, %133
  call void @_ZN18divide_and_conquer24strassens_multiplication6MatrixImbED2Ev(ptr noundef nonnull align 8 dereferenceable(24) %32) #3
  call void @_ZN18divide_and_conquer24strassens_multiplication6MatrixImbED2Ev(ptr noundef nonnull align 8 dereferenceable(24) %29) #3
  call void @_ZN18divide_and_conquer24strassens_multiplication6MatrixImbED2Ev(ptr noundef nonnull align 8 dereferenceable(24) %26) #3
  call void @_ZN18divide_and_conquer24strassens_multiplication6MatrixImbED2Ev(ptr noundef nonnull align 8 dereferenceable(24) %24) #3
  call void @_ZN18divide_and_conquer24strassens_multiplication6MatrixImbED2Ev(ptr noundef nonnull align 8 dereferenceable(24) %22) #3
  call void @_ZN18divide_and_conquer24strassens_multiplication6MatrixImbED2Ev(ptr noundef nonnull align 8 dereferenceable(24) %20) #3
  call void @_ZN18divide_and_conquer24strassens_multiplication6MatrixImbED2Ev(ptr noundef nonnull align 8 dereferenceable(24) %18) #3
  call void @_ZN18divide_and_conquer24strassens_multiplication6MatrixImbED2Ev(ptr noundef nonnull align 8 dereferenceable(24) %17) #3
  call void @_ZN18divide_and_conquer24strassens_multiplication6MatrixImbED2Ev(ptr noundef nonnull align 8 dereferenceable(24) %16) #3
  call void @_ZN18divide_and_conquer24strassens_multiplication6MatrixImbED2Ev(ptr noundef nonnull align 8 dereferenceable(24) %15) #3
  call void @_ZN18divide_and_conquer24strassens_multiplication6MatrixImbED2Ev(ptr noundef nonnull align 8 dereferenceable(24) %14) #3
  call void @_ZN18divide_and_conquer24strassens_multiplication6MatrixImbED2Ev(ptr noundef nonnull align 8 dereferenceable(24) %13) #3
  call void @_ZN18divide_and_conquer24strassens_multiplication6MatrixImbED2Ev(ptr noundef nonnull align 8 dereferenceable(24) %12) #3
  call void @_ZN18divide_and_conquer24strassens_multiplication6MatrixImbED2Ev(ptr noundef nonnull align 8 dereferenceable(24) %9) #3
  call void @_ZN18divide_and_conquer24strassens_multiplication6MatrixImbED2Ev(ptr noundef nonnull align 8 dereferenceable(24) %8) #3
  br label %292

276:                                              ; preds = %273, %247
  call void @_ZN18divide_and_conquer24strassens_multiplication6MatrixImbED2Ev(ptr noundef nonnull align 8 dereferenceable(24) %0) #3
  br label %277

277:                                              ; preds = %276, %246, %234
  call void @_ZN18divide_and_conquer24strassens_multiplication6MatrixImbED2Ev(ptr noundef nonnull align 8 dereferenceable(24) %32) #3
  br label %278

278:                                              ; preds = %277, %233, %221
  call void @_ZN18divide_and_conquer24strassens_multiplication6MatrixImbED2Ev(ptr noundef nonnull align 8 dereferenceable(24) %29) #3
  br label %279

279:                                              ; preds = %278, %220, %208
  call void @_ZN18divide_and_conquer24strassens_multiplication6MatrixImbED2Ev(ptr noundef nonnull align 8 dereferenceable(24) %26) #3
  br label %280

280:                                              ; preds = %279, %207, %195
  call void @_ZN18divide_and_conquer24strassens_multiplication6MatrixImbED2Ev(ptr noundef nonnull align 8 dereferenceable(24) %24) #3
  br label %281

281:                                              ; preds = %280, %191, %187
  call void @_ZN18divide_and_conquer24strassens_multiplication6MatrixImbED2Ev(ptr noundef nonnull align 8 dereferenceable(24) %22) #3
  br label %282

282:                                              ; preds = %281, %183, %179
  call void @_ZN18divide_and_conquer24strassens_multiplication6MatrixImbED2Ev(ptr noundef nonnull align 8 dereferenceable(24) %20) #3
  br label %283

283:                                              ; preds = %282, %175, %171
  call void @_ZN18divide_and_conquer24strassens_multiplication6MatrixImbED2Ev(ptr noundef nonnull align 8 dereferenceable(24) %18) #3
  br label %284

284:                                              ; preds = %283, %167, %163
  call void @_ZN18divide_and_conquer24strassens_multiplication6MatrixImbED2Ev(ptr noundef nonnull align 8 dereferenceable(24) %17) #3
  br label %285

285:                                              ; preds = %284, %159
  call void @_ZN18divide_and_conquer24strassens_multiplication6MatrixImbED2Ev(ptr noundef nonnull align 8 dereferenceable(24) %16) #3
  br label %286

286:                                              ; preds = %285, %155
  call void @_ZN18divide_and_conquer24strassens_multiplication6MatrixImbED2Ev(ptr noundef nonnull align 8 dereferenceable(24) %15) #3
  br label %287

287:                                              ; preds = %286, %151
  call void @_ZN18divide_and_conquer24strassens_multiplication6MatrixImbED2Ev(ptr noundef nonnull align 8 dereferenceable(24) %14) #3
  br label %288

288:                                              ; preds = %287, %147
  call void @_ZN18divide_and_conquer24strassens_multiplication6MatrixImbED2Ev(ptr noundef nonnull align 8 dereferenceable(24) %13) #3
  br label %289

289:                                              ; preds = %288, %143
  call void @_ZN18divide_and_conquer24strassens_multiplication6MatrixImbED2Ev(ptr noundef nonnull align 8 dereferenceable(24) %12) #3
  br label %290

290:                                              ; preds = %289, %139
  call void @_ZN18divide_and_conquer24strassens_multiplication6MatrixImbED2Ev(ptr noundef nonnull align 8 dereferenceable(24) %9) #3
  br label %291

291:                                              ; preds = %290, %135
  call void @_ZN18divide_and_conquer24strassens_multiplication6MatrixImbED2Ev(ptr noundef nonnull align 8 dereferenceable(24) %8) #3
  br label %293

292:                                              ; preds = %275, %52
  ret void

293:                                              ; preds = %291
  %294 = load ptr, ptr %10, align 8
  %295 = load i32, ptr %11, align 4
  %296 = insertvalue { ptr, i32 } undef, ptr %294, 0
  %297 = insertvalue { ptr, i32 } %296, i32 %295, 1
  resume { ptr, i32 } %297
}

; Function Attrs: noinline nounwind optnone uwtable
define linkonce_odr dso_local void @_ZNSt4pairImmEC2ImmLb1EEEOT_OT0_(ptr noundef nonnull align 8 dereferenceable(16) %0, ptr noundef nonnull align 8 dereferenceable(8) %1, ptr noundef nonnull align 8 dereferenceable(8) %2) unnamed_addr #10 comdat align 2 {
  %4 = alloca ptr, align 8
  %5 = alloca ptr, align 8
  %6 = alloca ptr, align 8
  store ptr %0, ptr %4, align 8
  store ptr %1, ptr %5, align 8
  store ptr %2, ptr %6, align 8
  %7 = load ptr, ptr %4, align 8
  %8 = getelementptr inbounds %"struct.std::pair", ptr %7, i32 0, i32 0
  %9 = load ptr, ptr %5, align 8
  %10 = load i64, ptr %9, align 8
  store i64 %10, ptr %8, align 8
  %11 = getelementptr inbounds %"struct.std::pair", ptr %7, i32 0, i32 1
  %12 = load ptr, ptr %6, align 8
  %13 = load i64, ptr %12, align 8
  store i64 %13, ptr %11, align 8
  ret void
}

; Function Attrs: mustprogress noinline optnone uwtable
define linkonce_odr dso_local void @_ZNK18divide_and_conquer24strassens_multiplication6MatrixImbE5sliceEmmmm(ptr noalias sret(%"class.divide_and_conquer::strassens_multiplication::Matrix") align 8 %0, ptr noundef nonnull align 8 dereferenceable(24) %1, i64 noundef %2, i64 noundef %3, i64 noundef %4, i64 noundef %5) #5 comdat align 2 {
  %7 = alloca ptr, align 8
  %8 = alloca ptr, align 8
  %9 = alloca i64, align 8
  %10 = alloca i64, align 8
  %11 = alloca i64, align 8
  %12 = alloca i64, align 8
  %13 = alloca i64, align 8
  %14 = alloca i64, align 8
  %15 = alloca i1, align 1
  %16 = alloca i64, align 8
  %17 = alloca i64, align 8
  %18 = alloca i64, align 8
  store ptr %0, ptr %7, align 8
  store ptr %1, ptr %8, align 8
  store i64 %2, ptr %9, align 8
  store i64 %3, ptr %10, align 8
  store i64 %4, ptr %11, align 8
  store i64 %5, ptr %12, align 8
  %19 = load ptr, ptr %8, align 8
  %20 = load i64, ptr %10, align 8
  %21 = icmp ne i64 %20, -1
  br i1 %21, label %22, label %24

22:                                               ; preds = %6
  %23 = load i64, ptr %10, align 8
  br label %27

24:                                               ; preds = %6
  %25 = getelementptr inbounds %"class.divide_and_conquer::strassens_multiplication::Matrix", ptr %19, i32 0, i32 0
  %26 = call noundef i64 @_ZNKSt6vectorIS_ImSaImEESaIS1_EE4sizeEv(ptr noundef nonnull align 8 dereferenceable(24) %25) #3
  br label %27

27:                                               ; preds = %24, %22
  %28 = phi i64 [ %23, %22 ], [ %26, %24 ]
  %29 = load i64, ptr %9, align 8
  %30 = sub i64 %28, %29
  store i64 %30, ptr %13, align 8
  %31 = load i64, ptr %12, align 8
  %32 = icmp ne i64 %31, -1
  br i1 %32, label %33, label %35

33:                                               ; preds = %27
  %34 = load i64, ptr %12, align 8
  br label %39

35:                                               ; preds = %27
  %36 = getelementptr inbounds %"class.divide_and_conquer::strassens_multiplication::Matrix", ptr %19, i32 0, i32 0
  %37 = call noundef nonnull align 8 dereferenceable(24) ptr @_ZNKSt6vectorIS_ImSaImEESaIS1_EEixEm(ptr noundef nonnull align 8 dereferenceable(24) %36, i64 noundef 0) #3
  %38 = call noundef i64 @_ZNKSt6vectorImSaImEE4sizeEv(ptr noundef nonnull align 8 dereferenceable(24) %37) #3
  br label %39

39:                                               ; preds = %35, %33
  %40 = phi i64 [ %34, %33 ], [ %38, %35 ]
  %41 = load i64, ptr %11, align 8
  %42 = icmp ne i64 %41, -1
  br i1 %42, label %43, label %45

43:                                               ; preds = %39
  %44 = load i64, ptr %11, align 8
  br label %46

45:                                               ; preds = %39
  br label %46

46:                                               ; preds = %45, %43
  %47 = phi i64 [ %44, %43 ], [ 0, %45 ]
  %48 = sub i64 %40, %47
  store i64 %48, ptr %14, align 8
  store i1 false, ptr %15, align 1
  %49 = load i64, ptr %13, align 8
  %50 = load i64, ptr %14, align 8
  call void @_ZN18divide_and_conquer24strassens_multiplication6MatrixImbEC2ImmEET_S4_(ptr noundef nonnull align 8 dereferenceable(24) %0, i64 noundef %49, i64 noundef %50)
  %51 = load i64, ptr %11, align 8
  %52 = icmp ne i64 %51, -1
  br i1 %52, label %53, label %55

53:                                               ; preds = %46
  %54 = load i64, ptr %11, align 8
  br label %56

55:                                               ; preds = %46
  br label %56

56:                                               ; preds = %55, %53
  %57 = phi i64 [ %54, %53 ], [ 0, %55 ]
  store i64 %57, ptr %16, align 8
  store i64 0, ptr %17, align 8
  br label %58

58:                                               ; preds = %87, %56
  %59 = load i64, ptr %17, align 8
  %60 = load i64, ptr %13, align 8
  %61 = icmp ult i64 %59, %60
  br i1 %61, label %62, label %90

62:                                               ; preds = %58
  store i64 0, ptr %18, align 8
  br label %63

63:                                               ; preds = %83, %62
  %64 = load i64, ptr %18, align 8
  %65 = load i64, ptr %14, align 8
  %66 = icmp ult i64 %64, %65
  br i1 %66, label %67, label %86

67:                                               ; preds = %63
  %68 = getelementptr inbounds %"class.divide_and_conquer::strassens_multiplication::Matrix", ptr %19, i32 0, i32 0
  %69 = load i64, ptr %17, align 8
  %70 = load i64, ptr %9, align 8
  %71 = add i64 %69, %70
  %72 = call noundef nonnull align 8 dereferenceable(24) ptr @_ZNKSt6vectorIS_ImSaImEESaIS1_EEixEm(ptr noundef nonnull align 8 dereferenceable(24) %68, i64 noundef %71) #3
  %73 = load i64, ptr %18, align 8
  %74 = load i64, ptr %16, align 8
  %75 = add i64 %73, %74
  %76 = call noundef nonnull align 8 dereferenceable(8) ptr @_ZNKSt6vectorImSaImEEixEm(ptr noundef nonnull align 8 dereferenceable(24) %72, i64 noundef %75) #3
  %77 = load i64, ptr %76, align 8
  %78 = getelementptr inbounds %"class.divide_and_conquer::strassens_multiplication::Matrix", ptr %0, i32 0, i32 0
  %79 = load i64, ptr %17, align 8
  %80 = call noundef nonnull align 8 dereferenceable(24) ptr @_ZNSt6vectorIS_ImSaImEESaIS1_EEixEm(ptr noundef nonnull align 8 dereferenceable(24) %78, i64 noundef %79) #3
  %81 = load i64, ptr %18, align 8
  %82 = call noundef nonnull align 8 dereferenceable(8) ptr @_ZNSt6vectorImSaImEEixEm(ptr noundef nonnull align 8 dereferenceable(24) %80, i64 noundef %81) #3
  store i64 %77, ptr %82, align 8
  br label %83

83:                                               ; preds = %67
  %84 = load i64, ptr %18, align 8
  %85 = add i64 %84, 1
  store i64 %85, ptr %18, align 8
  br label %63, !llvm.loop !20

86:                                               ; preds = %63
  br label %87

87:                                               ; preds = %86
  %88 = load i64, ptr %17, align 8
  %89 = add i64 %88, 1
  store i64 %89, ptr %17, align 8
  br label %58, !llvm.loop !21

90:                                               ; preds = %58
  store i1 true, ptr %15, align 1
  %91 = load i1, ptr %15, align 1
  br i1 %91, label %93, label %92

92:                                               ; preds = %90
  call void @_ZN18divide_and_conquer24strassens_multiplication6MatrixImbED2Ev(ptr noundef nonnull align 8 dereferenceable(24) %0) #3
  br label %93

93:                                               ; preds = %92, %90
  ret void
}

; Function Attrs: mustprogress noinline optnone uwtable
define linkonce_odr dso_local void @_ZNK18divide_and_conquer24strassens_multiplication6MatrixImbEmiImbEES2_RKNS1_IT_NSt9enable_ifIXoosr3std11is_integralIS4_EE5valuesr3std17is_floating_pointIS4_EE5valueEbE4typeEEE(ptr noalias sret(%"class.divide_and_conquer::strassens_multiplication::Matrix") align 8 %0, ptr noundef nonnull align 8 dereferenceable(24) %1, ptr noundef nonnull align 8 dereferenceable(24) %2) #5 comdat align 2 {
  %4 = alloca ptr, align 8
  %5 = alloca ptr, align 8
  %6 = alloca ptr, align 8
  %7 = alloca %"struct.std::pair", align 8
  %8 = alloca %"struct.std::pair", align 8
  %9 = alloca i1, align 1
  %10 = alloca i64, align 8
  %11 = alloca i64, align 8
  store ptr %0, ptr %4, align 8
  store ptr %1, ptr %5, align 8
  store ptr %2, ptr %6, align 8
  %12 = load ptr, ptr %5, align 8
  %13 = call { i64, i64 } @_ZNK18divide_and_conquer24strassens_multiplication6MatrixImbE4sizeEv(ptr noundef nonnull align 8 dereferenceable(24) %12)
  %14 = getelementptr inbounds { i64, i64 }, ptr %7, i32 0, i32 0
  %15 = extractvalue { i64, i64 } %13, 0
  store i64 %15, ptr %14, align 8
  %16 = getelementptr inbounds { i64, i64 }, ptr %7, i32 0, i32 1
  %17 = extractvalue { i64, i64 } %13, 1
  store i64 %17, ptr %16, align 8
  %18 = load ptr, ptr %6, align 8
  %19 = call { i64, i64 } @_ZNK18divide_and_conquer24strassens_multiplication6MatrixImbE4sizeEv(ptr noundef nonnull align 8 dereferenceable(24) %18)
  %20 = getelementptr inbounds { i64, i64 }, ptr %8, i32 0, i32 0
  %21 = extractvalue { i64, i64 } %19, 0
  store i64 %21, ptr %20, align 8
  %22 = getelementptr inbounds { i64, i64 }, ptr %8, i32 0, i32 1
  %23 = extractvalue { i64, i64 } %19, 1
  store i64 %23, ptr %22, align 8
  %24 = call noundef zeroext i1 @_ZSteqImmEbRKSt4pairIT_T0_ES5_(ptr noundef nonnull align 8 dereferenceable(16) %7, ptr noundef nonnull align 8 dereferenceable(16) %8)
  br i1 %24, label %25, label %26

25:                                               ; preds = %3
  br label %28

26:                                               ; preds = %3
  call void @__assert_fail(ptr noundef @.str.8, ptr noundef @.str.4, i32 noundef 215, ptr noundef @__PRETTY_FUNCTION__._ZNK18divide_and_conquer24strassens_multiplication6MatrixImbEmiImbEES2_RKNS1_IT_NSt9enable_ifIXoosr3std11is_integralIS4_EE5valuesr3std17is_floating_pointIS4_EE5valueEbE4typeEEE) #15
  unreachable

27:                                               ; No predecessors!
  br label %28

28:                                               ; preds = %27, %25
  store i1 false, ptr %9, align 1
  %29 = getelementptr inbounds %"class.divide_and_conquer::strassens_multiplication::Matrix", ptr %12, i32 0, i32 0
  %30 = call noundef i64 @_ZNKSt6vectorIS_ImSaImEESaIS1_EE4sizeEv(ptr noundef nonnull align 8 dereferenceable(24) %29) #3
  %31 = getelementptr inbounds %"class.divide_and_conquer::strassens_multiplication::Matrix", ptr %12, i32 0, i32 0
  %32 = call noundef nonnull align 8 dereferenceable(24) ptr @_ZNKSt6vectorIS_ImSaImEESaIS1_EEixEm(ptr noundef nonnull align 8 dereferenceable(24) %31, i64 noundef 0) #3
  %33 = call noundef i64 @_ZNKSt6vectorImSaImEE4sizeEv(ptr noundef nonnull align 8 dereferenceable(24) %32) #3
  call void @_ZN18divide_and_conquer24strassens_multiplication6MatrixImbEC2ImmEET_S4_(ptr noundef nonnull align 8 dereferenceable(24) %0, i64 noundef %30, i64 noundef %33)
  store i64 0, ptr %10, align 8
  br label %34

34:                                               ; preds = %71, %28
  %35 = load i64, ptr %10, align 8
  %36 = getelementptr inbounds %"class.divide_and_conquer::strassens_multiplication::Matrix", ptr %12, i32 0, i32 0
  %37 = call noundef i64 @_ZNKSt6vectorIS_ImSaImEESaIS1_EE4sizeEv(ptr noundef nonnull align 8 dereferenceable(24) %36) #3
  %38 = icmp ult i64 %35, %37
  br i1 %38, label %39, label %74

39:                                               ; preds = %34
  store i64 0, ptr %11, align 8
  br label %40

40:                                               ; preds = %67, %39
  %41 = load i64, ptr %11, align 8
  %42 = getelementptr inbounds %"class.divide_and_conquer::strassens_multiplication::Matrix", ptr %12, i32 0, i32 0
  %43 = load i64, ptr %10, align 8
  %44 = call noundef nonnull align 8 dereferenceable(24) ptr @_ZNKSt6vectorIS_ImSaImEESaIS1_EEixEm(ptr noundef nonnull align 8 dereferenceable(24) %42, i64 noundef %43) #3
  %45 = call noundef i64 @_ZNKSt6vectorImSaImEE4sizeEv(ptr noundef nonnull align 8 dereferenceable(24) %44) #3
  %46 = icmp ult i64 %41, %45
  br i1 %46, label %47, label %70

47:                                               ; preds = %40
  %48 = getelementptr inbounds %"class.divide_and_conquer::strassens_multiplication::Matrix", ptr %12, i32 0, i32 0
  %49 = load i64, ptr %10, align 8
  %50 = call noundef nonnull align 8 dereferenceable(24) ptr @_ZNKSt6vectorIS_ImSaImEESaIS1_EEixEm(ptr noundef nonnull align 8 dereferenceable(24) %48, i64 noundef %49) #3
  %51 = load i64, ptr %11, align 8
  %52 = call noundef nonnull align 8 dereferenceable(8) ptr @_ZNKSt6vectorImSaImEEixEm(ptr noundef nonnull align 8 dereferenceable(24) %50, i64 noundef %51) #3
  %53 = load i64, ptr %52, align 8
  %54 = load ptr, ptr %6, align 8
  %55 = getelementptr inbounds %"class.divide_and_conquer::strassens_multiplication::Matrix", ptr %54, i32 0, i32 0
  %56 = load i64, ptr %10, align 8
  %57 = call noundef nonnull align 8 dereferenceable(24) ptr @_ZNKSt6vectorIS_ImSaImEESaIS1_EEixEm(ptr noundef nonnull align 8 dereferenceable(24) %55, i64 noundef %56) #3
  %58 = load i64, ptr %11, align 8
  %59 = call noundef nonnull align 8 dereferenceable(8) ptr @_ZNKSt6vectorImSaImEEixEm(ptr noundef nonnull align 8 dereferenceable(24) %57, i64 noundef %58) #3
  %60 = load i64, ptr %59, align 8
  %61 = sub i64 %53, %60
  %62 = getelementptr inbounds %"class.divide_and_conquer::strassens_multiplication::Matrix", ptr %0, i32 0, i32 0
  %63 = load i64, ptr %10, align 8
  %64 = call noundef nonnull align 8 dereferenceable(24) ptr @_ZNSt6vectorIS_ImSaImEESaIS1_EEixEm(ptr noundef nonnull align 8 dereferenceable(24) %62, i64 noundef %63) #3
  %65 = load i64, ptr %11, align 8
  %66 = call noundef nonnull align 8 dereferenceable(8) ptr @_ZNSt6vectorImSaImEEixEm(ptr noundef nonnull align 8 dereferenceable(24) %64, i64 noundef %65) #3
  store i64 %61, ptr %66, align 8
  br label %67

67:                                               ; preds = %47
  %68 = load i64, ptr %11, align 8
  %69 = add i64 %68, 1
  store i64 %69, ptr %11, align 8
  br label %40, !llvm.loop !22

70:                                               ; preds = %40
  br label %71

71:                                               ; preds = %70
  %72 = load i64, ptr %10, align 8
  %73 = add i64 %72, 1
  store i64 %73, ptr %10, align 8
  br label %34, !llvm.loop !23

74:                                               ; preds = %34
  store i1 true, ptr %9, align 1
  %75 = load i1, ptr %9, align 1
  br i1 %75, label %77, label %76

76:                                               ; preds = %74
  call void @_ZN18divide_and_conquer24strassens_multiplication6MatrixImbED2Ev(ptr noundef nonnull align 8 dereferenceable(24) %0) #3
  br label %77

77:                                               ; preds = %76, %74
  ret void
}

; Function Attrs: mustprogress noinline optnone uwtable
define linkonce_odr dso_local void @_ZNK18divide_and_conquer24strassens_multiplication6MatrixImbEplImbEES2_RKNS1_IT_NSt9enable_ifIXoosr3std11is_integralIS4_EE5valuesr3std17is_floating_pointIS4_EE5valueEbE4typeEEE(ptr noalias sret(%"class.divide_and_conquer::strassens_multiplication::Matrix") align 8 %0, ptr noundef nonnull align 8 dereferenceable(24) %1, ptr noundef nonnull align 8 dereferenceable(24) %2) #5 comdat align 2 {
  %4 = alloca ptr, align 8
  %5 = alloca ptr, align 8
  %6 = alloca ptr, align 8
  %7 = alloca %"struct.std::pair", align 8
  %8 = alloca %"struct.std::pair", align 8
  %9 = alloca i1, align 1
  %10 = alloca i64, align 8
  %11 = alloca i64, align 8
  store ptr %0, ptr %4, align 8
  store ptr %1, ptr %5, align 8
  store ptr %2, ptr %6, align 8
  %12 = load ptr, ptr %5, align 8
  %13 = call { i64, i64 } @_ZNK18divide_and_conquer24strassens_multiplication6MatrixImbE4sizeEv(ptr noundef nonnull align 8 dereferenceable(24) %12)
  %14 = getelementptr inbounds { i64, i64 }, ptr %7, i32 0, i32 0
  %15 = extractvalue { i64, i64 } %13, 0
  store i64 %15, ptr %14, align 8
  %16 = getelementptr inbounds { i64, i64 }, ptr %7, i32 0, i32 1
  %17 = extractvalue { i64, i64 } %13, 1
  store i64 %17, ptr %16, align 8
  %18 = load ptr, ptr %6, align 8
  %19 = call { i64, i64 } @_ZNK18divide_and_conquer24strassens_multiplication6MatrixImbE4sizeEv(ptr noundef nonnull align 8 dereferenceable(24) %18)
  %20 = getelementptr inbounds { i64, i64 }, ptr %8, i32 0, i32 0
  %21 = extractvalue { i64, i64 } %19, 0
  store i64 %21, ptr %20, align 8
  %22 = getelementptr inbounds { i64, i64 }, ptr %8, i32 0, i32 1
  %23 = extractvalue { i64, i64 } %19, 1
  store i64 %23, ptr %22, align 8
  %24 = call noundef zeroext i1 @_ZSteqImmEbRKSt4pairIT_T0_ES5_(ptr noundef nonnull align 8 dereferenceable(16) %7, ptr noundef nonnull align 8 dereferenceable(16) %8)
  br i1 %24, label %25, label %26

25:                                               ; preds = %3
  br label %28

26:                                               ; preds = %3
  call void @__assert_fail(ptr noundef @.str.8, ptr noundef @.str.4, i32 noundef 174, ptr noundef @__PRETTY_FUNCTION__._ZNK18divide_and_conquer24strassens_multiplication6MatrixImbEplImbEES2_RKNS1_IT_NSt9enable_ifIXoosr3std11is_integralIS4_EE5valuesr3std17is_floating_pointIS4_EE5valueEbE4typeEEE) #15
  unreachable

27:                                               ; No predecessors!
  br label %28

28:                                               ; preds = %27, %25
  store i1 false, ptr %9, align 1
  %29 = getelementptr inbounds %"class.divide_and_conquer::strassens_multiplication::Matrix", ptr %12, i32 0, i32 0
  %30 = call noundef i64 @_ZNKSt6vectorIS_ImSaImEESaIS1_EE4sizeEv(ptr noundef nonnull align 8 dereferenceable(24) %29) #3
  %31 = getelementptr inbounds %"class.divide_and_conquer::strassens_multiplication::Matrix", ptr %12, i32 0, i32 0
  %32 = call noundef nonnull align 8 dereferenceable(24) ptr @_ZNKSt6vectorIS_ImSaImEESaIS1_EEixEm(ptr noundef nonnull align 8 dereferenceable(24) %31, i64 noundef 0) #3
  %33 = call noundef i64 @_ZNKSt6vectorImSaImEE4sizeEv(ptr noundef nonnull align 8 dereferenceable(24) %32) #3
  call void @_ZN18divide_and_conquer24strassens_multiplication6MatrixImbEC2ImmEET_S4_(ptr noundef nonnull align 8 dereferenceable(24) %0, i64 noundef %30, i64 noundef %33)
  store i64 0, ptr %10, align 8
  br label %34

34:                                               ; preds = %71, %28
  %35 = load i64, ptr %10, align 8
  %36 = getelementptr inbounds %"class.divide_and_conquer::strassens_multiplication::Matrix", ptr %12, i32 0, i32 0
  %37 = call noundef i64 @_ZNKSt6vectorIS_ImSaImEESaIS1_EE4sizeEv(ptr noundef nonnull align 8 dereferenceable(24) %36) #3
  %38 = icmp ult i64 %35, %37
  br i1 %38, label %39, label %74

39:                                               ; preds = %34
  store i64 0, ptr %11, align 8
  br label %40

40:                                               ; preds = %67, %39
  %41 = load i64, ptr %11, align 8
  %42 = getelementptr inbounds %"class.divide_and_conquer::strassens_multiplication::Matrix", ptr %12, i32 0, i32 0
  %43 = load i64, ptr %10, align 8
  %44 = call noundef nonnull align 8 dereferenceable(24) ptr @_ZNKSt6vectorIS_ImSaImEESaIS1_EEixEm(ptr noundef nonnull align 8 dereferenceable(24) %42, i64 noundef %43) #3
  %45 = call noundef i64 @_ZNKSt6vectorImSaImEE4sizeEv(ptr noundef nonnull align 8 dereferenceable(24) %44) #3
  %46 = icmp ult i64 %41, %45
  br i1 %46, label %47, label %70

47:                                               ; preds = %40
  %48 = getelementptr inbounds %"class.divide_and_conquer::strassens_multiplication::Matrix", ptr %12, i32 0, i32 0
  %49 = load i64, ptr %10, align 8
  %50 = call noundef nonnull align 8 dereferenceable(24) ptr @_ZNKSt6vectorIS_ImSaImEESaIS1_EEixEm(ptr noundef nonnull align 8 dereferenceable(24) %48, i64 noundef %49) #3
  %51 = load i64, ptr %11, align 8
  %52 = call noundef nonnull align 8 dereferenceable(8) ptr @_ZNKSt6vectorImSaImEEixEm(ptr noundef nonnull align 8 dereferenceable(24) %50, i64 noundef %51) #3
  %53 = load i64, ptr %52, align 8
  %54 = load ptr, ptr %6, align 8
  %55 = getelementptr inbounds %"class.divide_and_conquer::strassens_multiplication::Matrix", ptr %54, i32 0, i32 0
  %56 = load i64, ptr %10, align 8
  %57 = call noundef nonnull align 8 dereferenceable(24) ptr @_ZNKSt6vectorIS_ImSaImEESaIS1_EEixEm(ptr noundef nonnull align 8 dereferenceable(24) %55, i64 noundef %56) #3
  %58 = load i64, ptr %11, align 8
  %59 = call noundef nonnull align 8 dereferenceable(8) ptr @_ZNKSt6vectorImSaImEEixEm(ptr noundef nonnull align 8 dereferenceable(24) %57, i64 noundef %58) #3
  %60 = load i64, ptr %59, align 8
  %61 = add i64 %53, %60
  %62 = getelementptr inbounds %"class.divide_and_conquer::strassens_multiplication::Matrix", ptr %0, i32 0, i32 0
  %63 = load i64, ptr %10, align 8
  %64 = call noundef nonnull align 8 dereferenceable(24) ptr @_ZNSt6vectorIS_ImSaImEESaIS1_EEixEm(ptr noundef nonnull align 8 dereferenceable(24) %62, i64 noundef %63) #3
  %65 = load i64, ptr %11, align 8
  %66 = call noundef nonnull align 8 dereferenceable(8) ptr @_ZNSt6vectorImSaImEEixEm(ptr noundef nonnull align 8 dereferenceable(24) %64, i64 noundef %65) #3
  store i64 %61, ptr %66, align 8
  br label %67

67:                                               ; preds = %47
  %68 = load i64, ptr %11, align 8
  %69 = add i64 %68, 1
  store i64 %69, ptr %11, align 8
  br label %40, !llvm.loop !24

70:                                               ; preds = %40
  br label %71

71:                                               ; preds = %70
  %72 = load i64, ptr %10, align 8
  %73 = add i64 %72, 1
  store i64 %73, ptr %10, align 8
  br label %34, !llvm.loop !25

74:                                               ; preds = %34
  store i1 true, ptr %9, align 1
  %75 = load i1, ptr %9, align 1
  br i1 %75, label %77, label %76

76:                                               ; preds = %74
  call void @_ZN18divide_and_conquer24strassens_multiplication6MatrixImbED2Ev(ptr noundef nonnull align 8 dereferenceable(24) %0) #3
  br label %77

77:                                               ; preds = %76, %74
  ret void
}

; Function Attrs: mustprogress noinline optnone uwtable
define linkonce_odr dso_local void @_ZN18divide_and_conquer24strassens_multiplication6MatrixImbE7h_stackImmEEvRKNS1_IT_NSt9enable_ifIXoosr3std11is_integralIS4_EE5valuesr3std17is_floating_pointIS4_EE5valueEbE4typeEEE(ptr noundef nonnull align 8 dereferenceable(24) %0, ptr noundef nonnull align 8 dereferenceable(24) %1) #5 comdat align 2 {
  %3 = alloca ptr, align 8
  %4 = alloca ptr, align 8
  %5 = alloca i64, align 8
  %6 = alloca i64, align 8
  store ptr %0, ptr %3, align 8
  store ptr %1, ptr %4, align 8
  %7 = load ptr, ptr %3, align 8
  %8 = getelementptr inbounds %"class.divide_and_conquer::strassens_multiplication::Matrix", ptr %7, i32 0, i32 0
  %9 = call noundef i64 @_ZNKSt6vectorIS_ImSaImEESaIS1_EE4sizeEv(ptr noundef nonnull align 8 dereferenceable(24) %8) #3
  %10 = load ptr, ptr %4, align 8
  %11 = getelementptr inbounds %"class.divide_and_conquer::strassens_multiplication::Matrix", ptr %10, i32 0, i32 0
  %12 = call noundef i64 @_ZNKSt6vectorIS_ImSaImEESaIS1_EE4sizeEv(ptr noundef nonnull align 8 dereferenceable(24) %11) #3
  %13 = icmp eq i64 %9, %12
  br i1 %13, label %14, label %15

14:                                               ; preds = %2
  br label %17

15:                                               ; preds = %2
  call void @__assert_fail(ptr noundef @.str.9, ptr noundef @.str.4, i32 noundef 135, ptr noundef @__PRETTY_FUNCTION__._ZN18divide_and_conquer24strassens_multiplication6MatrixImbE7h_stackImmEEvRKNS1_IT_NSt9enable_ifIXoosr3std11is_integralIS4_EE5valuesr3std17is_floating_pointIS4_EE5valueEbE4typeEEE) #15
  unreachable

16:                                               ; No predecessors!
  br label %17

17:                                               ; preds = %16, %14
  store i64 0, ptr %5, align 8
  br label %18

18:                                               ; preds = %47, %17
  %19 = load i64, ptr %5, align 8
  %20 = load ptr, ptr %4, align 8
  %21 = getelementptr inbounds %"class.divide_and_conquer::strassens_multiplication::Matrix", ptr %20, i32 0, i32 0
  %22 = call noundef i64 @_ZNKSt6vectorIS_ImSaImEESaIS1_EE4sizeEv(ptr noundef nonnull align 8 dereferenceable(24) %21) #3
  %23 = icmp ult i64 %19, %22
  br i1 %23, label %24, label %50

24:                                               ; preds = %18
  store i64 0, ptr %6, align 8
  br label %25

25:                                               ; preds = %43, %24
  %26 = load i64, ptr %6, align 8
  %27 = load ptr, ptr %4, align 8
  %28 = getelementptr inbounds %"class.divide_and_conquer::strassens_multiplication::Matrix", ptr %27, i32 0, i32 0
  %29 = load i64, ptr %5, align 8
  %30 = call noundef nonnull align 8 dereferenceable(24) ptr @_ZNKSt6vectorIS_ImSaImEESaIS1_EEixEm(ptr noundef nonnull align 8 dereferenceable(24) %28, i64 noundef %29) #3
  %31 = call noundef i64 @_ZNKSt6vectorImSaImEE4sizeEv(ptr noundef nonnull align 8 dereferenceable(24) %30) #3
  %32 = icmp ult i64 %26, %31
  br i1 %32, label %33, label %46

33:                                               ; preds = %25
  %34 = getelementptr inbounds %"class.divide_and_conquer::strassens_multiplication::Matrix", ptr %7, i32 0, i32 0
  %35 = load i64, ptr %5, align 8
  %36 = call noundef nonnull align 8 dereferenceable(24) ptr @_ZNSt6vectorIS_ImSaImEESaIS1_EEixEm(ptr noundef nonnull align 8 dereferenceable(24) %34, i64 noundef %35) #3
  %37 = load ptr, ptr %4, align 8
  %38 = getelementptr inbounds %"class.divide_and_conquer::strassens_multiplication::Matrix", ptr %37, i32 0, i32 0
  %39 = load i64, ptr %5, align 8
  %40 = call noundef nonnull align 8 dereferenceable(24) ptr @_ZNKSt6vectorIS_ImSaImEESaIS1_EEixEm(ptr noundef nonnull align 8 dereferenceable(24) %38, i64 noundef %39) #3
  %41 = load i64, ptr %6, align 8
  %42 = call noundef nonnull align 8 dereferenceable(8) ptr @_ZNKSt6vectorImSaImEEixEm(ptr noundef nonnull align 8 dereferenceable(24) %40, i64 noundef %41) #3
  call void @_ZNSt6vectorImSaImEE9push_backERKm(ptr noundef nonnull align 8 dereferenceable(24) %36, ptr noundef nonnull align 8 dereferenceable(8) %42)
  br label %43

43:                                               ; preds = %33
  %44 = load i64, ptr %6, align 8
  %45 = add i64 %44, 1
  store i64 %45, ptr %6, align 8
  br label %25, !llvm.loop !26

46:                                               ; preds = %25
  br label %47

47:                                               ; preds = %46
  %48 = load i64, ptr %5, align 8
  %49 = add i64 %48, 1
  store i64 %49, ptr %5, align 8
  br label %18, !llvm.loop !27

50:                                               ; preds = %18
  ret void
}

; Function Attrs: mustprogress noinline optnone uwtable
define linkonce_odr dso_local void @_ZN18divide_and_conquer24strassens_multiplication6MatrixImbE7v_stackImmEEvRKNS1_IT_NSt9enable_ifIXoosr3std11is_integralIS4_EE5valuesr3std17is_floating_pointIS4_EE5valueEbE4typeEEE(ptr noundef nonnull align 8 dereferenceable(24) %0, ptr noundef nonnull align 8 dereferenceable(24) %1) #5 comdat align 2 personality ptr @__gxx_personality_v0 {
  %3 = alloca ptr, align 8
  %4 = alloca ptr, align 8
  %5 = alloca i64, align 8
  %6 = alloca %"class.std::vector.0", align 8
  %7 = alloca %"class.std::allocator.2", align 1
  %8 = alloca ptr, align 8
  %9 = alloca i32, align 4
  %10 = alloca i64, align 8
  store ptr %0, ptr %3, align 8
  store ptr %1, ptr %4, align 8
  %11 = load ptr, ptr %3, align 8
  %12 = getelementptr inbounds %"class.divide_and_conquer::strassens_multiplication::Matrix", ptr %11, i32 0, i32 0
  %13 = call noundef nonnull align 8 dereferenceable(24) ptr @_ZNSt6vectorIS_ImSaImEESaIS1_EEixEm(ptr noundef nonnull align 8 dereferenceable(24) %12, i64 noundef 0) #3
  %14 = call noundef i64 @_ZNKSt6vectorImSaImEE4sizeEv(ptr noundef nonnull align 8 dereferenceable(24) %13) #3
  %15 = load ptr, ptr %4, align 8
  %16 = getelementptr inbounds %"class.divide_and_conquer::strassens_multiplication::Matrix", ptr %15, i32 0, i32 0
  %17 = call noundef nonnull align 8 dereferenceable(24) ptr @_ZNKSt6vectorIS_ImSaImEESaIS1_EEixEm(ptr noundef nonnull align 8 dereferenceable(24) %16, i64 noundef 0) #3
  %18 = call noundef i64 @_ZNKSt6vectorImSaImEE4sizeEv(ptr noundef nonnull align 8 dereferenceable(24) %17) #3
  %19 = icmp eq i64 %14, %18
  br i1 %19, label %20, label %21

20:                                               ; preds = %2
  br label %23

21:                                               ; preds = %2
  call void @__assert_fail(ptr noundef @.str.10, ptr noundef @.str.4, i32 noundef 154, ptr noundef @__PRETTY_FUNCTION__._ZN18divide_and_conquer24strassens_multiplication6MatrixImbE7v_stackImmEEvRKNS1_IT_NSt9enable_ifIXoosr3std11is_integralIS4_EE5valuesr3std17is_floating_pointIS4_EE5valueEbE4typeEEE) #15
  unreachable

22:                                               ; No predecessors!
  br label %23

23:                                               ; preds = %22, %20
  store i64 0, ptr %5, align 8
  br label %24

24:                                               ; preds = %72, %23
  %25 = load i64, ptr %5, align 8
  %26 = load ptr, ptr %4, align 8
  %27 = getelementptr inbounds %"class.divide_and_conquer::strassens_multiplication::Matrix", ptr %26, i32 0, i32 0
  %28 = call noundef i64 @_ZNKSt6vectorIS_ImSaImEESaIS1_EE4sizeEv(ptr noundef nonnull align 8 dereferenceable(24) %27) #3
  %29 = icmp ult i64 %25, %28
  br i1 %29, label %30, label %75

30:                                               ; preds = %24
  %31 = getelementptr inbounds %"class.divide_and_conquer::strassens_multiplication::Matrix", ptr %11, i32 0, i32 0
  %32 = load ptr, ptr %4, align 8
  %33 = getelementptr inbounds %"class.divide_and_conquer::strassens_multiplication::Matrix", ptr %32, i32 0, i32 0
  %34 = load i64, ptr %5, align 8
  %35 = call noundef nonnull align 8 dereferenceable(24) ptr @_ZNKSt6vectorIS_ImSaImEESaIS1_EEixEm(ptr noundef nonnull align 8 dereferenceable(24) %33, i64 noundef %34) #3
  %36 = call noundef i64 @_ZNKSt6vectorImSaImEE4sizeEv(ptr noundef nonnull align 8 dereferenceable(24) %35) #3
  call void @_ZNSaImEC2Ev(ptr noundef nonnull align 1 dereferenceable(1) %7) #3
  invoke void @_ZNSt6vectorImSaImEEC2EmRKS0_(ptr noundef nonnull align 8 dereferenceable(24) %6, i64 noundef %36, ptr noundef nonnull align 1 dereferenceable(1) %7)
          to label %37 unwind label %62

37:                                               ; preds = %30
  invoke void @_ZNSt6vectorIS_ImSaImEESaIS1_EE12emplace_backIJS1_EEEvDpOT_(ptr noundef nonnull align 8 dereferenceable(24) %31, ptr noundef nonnull align 8 dereferenceable(24) %6)
          to label %38 unwind label %66

38:                                               ; preds = %37
  call void @_ZNSt6vectorImSaImEED2Ev(ptr noundef nonnull align 8 dereferenceable(24) %6) #3
  call void @_ZNSaImED2Ev(ptr noundef nonnull align 1 dereferenceable(1) %7) #3
  store i64 0, ptr %10, align 8
  br label %39

39:                                               ; preds = %59, %38
  %40 = load i64, ptr %10, align 8
  %41 = load ptr, ptr %4, align 8
  %42 = getelementptr inbounds %"class.divide_and_conquer::strassens_multiplication::Matrix", ptr %41, i32 0, i32 0
  %43 = load i64, ptr %5, align 8
  %44 = call noundef nonnull align 8 dereferenceable(24) ptr @_ZNKSt6vectorIS_ImSaImEESaIS1_EEixEm(ptr noundef nonnull align 8 dereferenceable(24) %42, i64 noundef %43) #3
  %45 = call noundef i64 @_ZNKSt6vectorImSaImEE4sizeEv(ptr noundef nonnull align 8 dereferenceable(24) %44) #3
  %46 = icmp ult i64 %40, %45
  br i1 %46, label %47, label %71

47:                                               ; preds = %39
  %48 = load ptr, ptr %4, align 8
  %49 = getelementptr inbounds %"class.divide_and_conquer::strassens_multiplication::Matrix", ptr %48, i32 0, i32 0
  %50 = load i64, ptr %5, align 8
  %51 = call noundef nonnull align 8 dereferenceable(24) ptr @_ZNKSt6vectorIS_ImSaImEESaIS1_EEixEm(ptr noundef nonnull align 8 dereferenceable(24) %49, i64 noundef %50) #3
  %52 = load i64, ptr %10, align 8
  %53 = call noundef nonnull align 8 dereferenceable(8) ptr @_ZNKSt6vectorImSaImEEixEm(ptr noundef nonnull align 8 dereferenceable(24) %51, i64 noundef %52) #3
  %54 = load i64, ptr %53, align 8
  %55 = getelementptr inbounds %"class.divide_and_conquer::strassens_multiplication::Matrix", ptr %11, i32 0, i32 0
  %56 = call noundef nonnull align 8 dereferenceable(24) ptr @_ZNSt6vectorIS_ImSaImEESaIS1_EE4backEv(ptr noundef nonnull align 8 dereferenceable(24) %55) #3
  %57 = load i64, ptr %10, align 8
  %58 = call noundef nonnull align 8 dereferenceable(8) ptr @_ZNSt6vectorImSaImEEixEm(ptr noundef nonnull align 8 dereferenceable(24) %56, i64 noundef %57) #3
  store i64 %54, ptr %58, align 8
  br label %59

59:                                               ; preds = %47
  %60 = load i64, ptr %10, align 8
  %61 = add i64 %60, 1
  store i64 %61, ptr %10, align 8
  br label %39, !llvm.loop !28

62:                                               ; preds = %30
  %63 = landingpad { ptr, i32 }
          cleanup
  %64 = extractvalue { ptr, i32 } %63, 0
  store ptr %64, ptr %8, align 8
  %65 = extractvalue { ptr, i32 } %63, 1
  store i32 %65, ptr %9, align 4
  br label %70

66:                                               ; preds = %37
  %67 = landingpad { ptr, i32 }
          cleanup
  %68 = extractvalue { ptr, i32 } %67, 0
  store ptr %68, ptr %8, align 8
  %69 = extractvalue { ptr, i32 } %67, 1
  store i32 %69, ptr %9, align 4
  call void @_ZNSt6vectorImSaImEED2Ev(ptr noundef nonnull align 8 dereferenceable(24) %6) #3
  br label %70

70:                                               ; preds = %66, %62
  call void @_ZNSaImED2Ev(ptr noundef nonnull align 1 dereferenceable(1) %7) #3
  br label %76

71:                                               ; preds = %39
  br label %72

72:                                               ; preds = %71
  %73 = load i64, ptr %5, align 8
  %74 = add i64 %73, 1
  store i64 %74, ptr %5, align 8
  br label %24, !llvm.loop !29

75:                                               ; preds = %24
  ret void

76:                                               ; preds = %70
  %77 = load ptr, ptr %8, align 8
  %78 = load i32, ptr %9, align 4
  %79 = insertvalue { ptr, i32 } undef, ptr %77, 0
  %80 = insertvalue { ptr, i32 } %79, i32 %78, 1
  resume { ptr, i32 } %80
}

; Function Attrs: mustprogress noinline nounwind optnone uwtable
define linkonce_odr dso_local noundef nonnull align 8 dereferenceable(8) ptr @_ZNKSt6vectorImSaImEEixEm(ptr noundef nonnull align 8 dereferenceable(24) %0, i64 noundef %1) #7 comdat align 2 {
  %3 = alloca ptr, align 8
  %4 = alloca i64, align 8
  store ptr %0, ptr %3, align 8
  store i64 %1, ptr %4, align 8
  %5 = load ptr, ptr %3, align 8
  %6 = getelementptr inbounds %"struct.std::_Vector_base.1", ptr %5, i32 0, i32 0
  %7 = getelementptr inbounds %"struct.std::_Vector_base<unsigned long, std::allocator<unsigned long>>::_Vector_impl_data", ptr %6, i32 0, i32 0
  %8 = load ptr, ptr %7, align 8
  %9 = load i64, ptr %4, align 8
  %10 = getelementptr inbounds i64, ptr %8, i64 %9
  ret ptr %10
}

; Function Attrs: mustprogress noinline nounwind optnone uwtable
define linkonce_odr dso_local noundef zeroext i1 @_ZSteqImmEbRKSt4pairIT_T0_ES5_(ptr noundef nonnull align 8 dereferenceable(16) %0, ptr noundef nonnull align 8 dereferenceable(16) %1) #7 comdat {
  %3 = alloca ptr, align 8
  %4 = alloca ptr, align 8
  store ptr %0, ptr %3, align 8
  store ptr %1, ptr %4, align 8
  %5 = load ptr, ptr %3, align 8
  %6 = getelementptr inbounds %"struct.std::pair", ptr %5, i32 0, i32 0
  %7 = load i64, ptr %6, align 8
  %8 = load ptr, ptr %4, align 8
  %9 = getelementptr inbounds %"struct.std::pair", ptr %8, i32 0, i32 0
  %10 = load i64, ptr %9, align 8
  %11 = icmp eq i64 %7, %10
  br i1 %11, label %12, label %20

12:                                               ; preds = %2
  %13 = load ptr, ptr %3, align 8
  %14 = getelementptr inbounds %"struct.std::pair", ptr %13, i32 0, i32 1
  %15 = load i64, ptr %14, align 8
  %16 = load ptr, ptr %4, align 8
  %17 = getelementptr inbounds %"struct.std::pair", ptr %16, i32 0, i32 1
  %18 = load i64, ptr %17, align 8
  %19 = icmp eq i64 %15, %18
  br label %20

20:                                               ; preds = %12, %2
  %21 = phi i1 [ false, %2 ], [ %19, %12 ]
  ret i1 %21
}

; Function Attrs: mustprogress noinline optnone uwtable
define linkonce_odr dso_local void @_ZNSt6vectorImSaImEE9push_backERKm(ptr noundef nonnull align 8 dereferenceable(24) %0, ptr noundef nonnull align 8 dereferenceable(8) %1) #5 comdat align 2 {
  %3 = alloca ptr, align 8
  %4 = alloca ptr, align 8
  %5 = alloca %"class.__gnu_cxx::__normal_iterator.6", align 8
  store ptr %0, ptr %3, align 8
  store ptr %1, ptr %4, align 8
  %6 = load ptr, ptr %3, align 8
  %7 = getelementptr inbounds %"struct.std::_Vector_base.1", ptr %6, i32 0, i32 0
  %8 = getelementptr inbounds %"struct.std::_Vector_base<unsigned long, std::allocator<unsigned long>>::_Vector_impl_data", ptr %7, i32 0, i32 1
  %9 = load ptr, ptr %8, align 8
  %10 = getelementptr inbounds %"struct.std::_Vector_base.1", ptr %6, i32 0, i32 0
  %11 = getelementptr inbounds %"struct.std::_Vector_base<unsigned long, std::allocator<unsigned long>>::_Vector_impl_data", ptr %10, i32 0, i32 2
  %12 = load ptr, ptr %11, align 8
  %13 = icmp ne ptr %9, %12
  br i1 %13, label %14, label %24

14:                                               ; preds = %2
  %15 = getelementptr inbounds %"struct.std::_Vector_base.1", ptr %6, i32 0, i32 0
  %16 = getelementptr inbounds %"struct.std::_Vector_base.1", ptr %6, i32 0, i32 0
  %17 = getelementptr inbounds %"struct.std::_Vector_base<unsigned long, std::allocator<unsigned long>>::_Vector_impl_data", ptr %16, i32 0, i32 1
  %18 = load ptr, ptr %17, align 8
  %19 = load ptr, ptr %4, align 8
  call void @_ZNSt16allocator_traitsISaImEE9constructImJRKmEEEvRS0_PT_DpOT0_(ptr noundef nonnull align 1 dereferenceable(1) %15, ptr noundef %18, ptr noundef nonnull align 8 dereferenceable(8) %19) #3
  %20 = getelementptr inbounds %"struct.std::_Vector_base.1", ptr %6, i32 0, i32 0
  %21 = getelementptr inbounds %"struct.std::_Vector_base<unsigned long, std::allocator<unsigned long>>::_Vector_impl_data", ptr %20, i32 0, i32 1
  %22 = load ptr, ptr %21, align 8
  %23 = getelementptr inbounds i64, ptr %22, i32 1
  store ptr %23, ptr %21, align 8
  br label %30

24:                                               ; preds = %2
  %25 = call ptr @_ZNSt6vectorImSaImEE3endEv(ptr noundef nonnull align 8 dereferenceable(24) %6) #3
  %26 = getelementptr inbounds %"class.__gnu_cxx::__normal_iterator.6", ptr %5, i32 0, i32 0
  store ptr %25, ptr %26, align 8
  %27 = load ptr, ptr %4, align 8
  %28 = getelementptr inbounds %"class.__gnu_cxx::__normal_iterator.6", ptr %5, i32 0, i32 0
  %29 = load ptr, ptr %28, align 8
  call void @_ZNSt6vectorImSaImEE17_M_realloc_insertIJRKmEEEvN9__gnu_cxx17__normal_iteratorIPmS1_EEDpOT_(ptr noundef nonnull align 8 dereferenceable(24) %6, ptr %29, ptr noundef nonnull align 8 dereferenceable(8) %27)
  br label %30

30:                                               ; preds = %24, %14
  ret void
}

; Function Attrs: mustprogress noinline nounwind optnone uwtable
define linkonce_odr dso_local void @_ZNSt16allocator_traitsISaImEE9constructImJRKmEEEvRS0_PT_DpOT0_(ptr noundef nonnull align 1 dereferenceable(1) %0, ptr noundef %1, ptr noundef nonnull align 8 dereferenceable(8) %2) #7 comdat align 2 {
  %4 = alloca ptr, align 8
  %5 = alloca ptr, align 8
  %6 = alloca ptr, align 8
  store ptr %0, ptr %4, align 8
  store ptr %1, ptr %5, align 8
  store ptr %2, ptr %6, align 8
  %7 = load ptr, ptr %4, align 8
  %8 = load ptr, ptr %5, align 8
  %9 = load ptr, ptr %6, align 8
  call void @_ZNSt15__new_allocatorImE9constructImJRKmEEEvPT_DpOT0_(ptr noundef nonnull align 1 dereferenceable(1) %7, ptr noundef %8, ptr noundef nonnull align 8 dereferenceable(8) %9) #3
  ret void
}

; Function Attrs: mustprogress noinline optnone uwtable
define linkonce_odr dso_local void @_ZNSt6vectorImSaImEE17_M_realloc_insertIJRKmEEEvN9__gnu_cxx17__normal_iteratorIPmS1_EEDpOT_(ptr noundef nonnull align 8 dereferenceable(24) %0, ptr %1, ptr noundef nonnull align 8 dereferenceable(8) %2) #5 comdat align 2 {
  %4 = alloca %"class.__gnu_cxx::__normal_iterator.6", align 8
  %5 = alloca ptr, align 8
  %6 = alloca ptr, align 8
  %7 = alloca i64, align 8
  %8 = alloca ptr, align 8
  %9 = alloca ptr, align 8
  %10 = alloca i64, align 8
  %11 = alloca %"class.__gnu_cxx::__normal_iterator.6", align 8
  %12 = alloca ptr, align 8
  %13 = alloca ptr, align 8
  %14 = getelementptr inbounds %"class.__gnu_cxx::__normal_iterator.6", ptr %4, i32 0, i32 0
  store ptr %1, ptr %14, align 8
  store ptr %0, ptr %5, align 8
  store ptr %2, ptr %6, align 8
  %15 = load ptr, ptr %5, align 8
  %16 = call noundef i64 @_ZNKSt6vectorImSaImEE12_M_check_lenEmPKc(ptr noundef nonnull align 8 dereferenceable(24) %15, i64 noundef 1, ptr noundef @.str.5)
  store i64 %16, ptr %7, align 8
  %17 = getelementptr inbounds %"struct.std::_Vector_base.1", ptr %15, i32 0, i32 0
  %18 = getelementptr inbounds %"struct.std::_Vector_base<unsigned long, std::allocator<unsigned long>>::_Vector_impl_data", ptr %17, i32 0, i32 0
  %19 = load ptr, ptr %18, align 8
  store ptr %19, ptr %8, align 8
  %20 = getelementptr inbounds %"struct.std::_Vector_base.1", ptr %15, i32 0, i32 0
  %21 = getelementptr inbounds %"struct.std::_Vector_base<unsigned long, std::allocator<unsigned long>>::_Vector_impl_data", ptr %20, i32 0, i32 1
  %22 = load ptr, ptr %21, align 8
  store ptr %22, ptr %9, align 8
  %23 = call ptr @_ZNSt6vectorImSaImEE5beginEv(ptr noundef nonnull align 8 dereferenceable(24) %15) #3
  %24 = getelementptr inbounds %"class.__gnu_cxx::__normal_iterator.6", ptr %11, i32 0, i32 0
  store ptr %23, ptr %24, align 8
  %25 = call noundef i64 @_ZN9__gnu_cxxmiIPmSt6vectorImSaImEEEENS_17__normal_iteratorIT_T0_E15difference_typeERKS8_SB_(ptr noundef nonnull align 8 dereferenceable(8) %4, ptr noundef nonnull align 8 dereferenceable(8) %11) #3
  store i64 %25, ptr %10, align 8
  %26 = load i64, ptr %7, align 8
  %27 = call noundef ptr @_ZNSt12_Vector_baseImSaImEE11_M_allocateEm(ptr noundef nonnull align 8 dereferenceable(24) %15, i64 noundef %26)
  store ptr %27, ptr %12, align 8
  %28 = load ptr, ptr %12, align 8
  store ptr %28, ptr %13, align 8
  %29 = getelementptr inbounds %"struct.std::_Vector_base.1", ptr %15, i32 0, i32 0
  %30 = load ptr, ptr %12, align 8
  %31 = load i64, ptr %10, align 8
  %32 = getelementptr inbounds i64, ptr %30, i64 %31
  %33 = load ptr, ptr %6, align 8
  call void @_ZNSt16allocator_traitsISaImEE9constructImJRKmEEEvRS0_PT_DpOT0_(ptr noundef nonnull align 1 dereferenceable(1) %29, ptr noundef %32, ptr noundef nonnull align 8 dereferenceable(8) %33) #3
  store ptr null, ptr %13, align 8
  %34 = load ptr, ptr %8, align 8
  %35 = call noundef nonnull align 8 dereferenceable(8) ptr @_ZNK9__gnu_cxx17__normal_iteratorIPmSt6vectorImSaImEEE4baseEv(ptr noundef nonnull align 8 dereferenceable(8) %4) #3
  %36 = load ptr, ptr %35, align 8
  %37 = load ptr, ptr %12, align 8
  %38 = call noundef nonnull align 1 dereferenceable(1) ptr @_ZNSt12_Vector_baseImSaImEE19_M_get_Tp_allocatorEv(ptr noundef nonnull align 8 dereferenceable(24) %15) #3
  %39 = call noundef ptr @_ZNSt6vectorImSaImEE11_S_relocateEPmS2_S2_RS0_(ptr noundef %34, ptr noundef %36, ptr noundef %37, ptr noundef nonnull align 1 dereferenceable(1) %38) #3
  store ptr %39, ptr %13, align 8
  %40 = load ptr, ptr %13, align 8
  %41 = getelementptr inbounds i64, ptr %40, i32 1
  store ptr %41, ptr %13, align 8
  %42 = call noundef nonnull align 8 dereferenceable(8) ptr @_ZNK9__gnu_cxx17__normal_iteratorIPmSt6vectorImSaImEEE4baseEv(ptr noundef nonnull align 8 dereferenceable(8) %4) #3
  %43 = load ptr, ptr %42, align 8
  %44 = load ptr, ptr %9, align 8
  %45 = load ptr, ptr %13, align 8
  %46 = call noundef nonnull align 1 dereferenceable(1) ptr @_ZNSt12_Vector_baseImSaImEE19_M_get_Tp_allocatorEv(ptr noundef nonnull align 8 dereferenceable(24) %15) #3
  %47 = call noundef ptr @_ZNSt6vectorImSaImEE11_S_relocateEPmS2_S2_RS0_(ptr noundef %43, ptr noundef %44, ptr noundef %45, ptr noundef nonnull align 1 dereferenceable(1) %46) #3
  store ptr %47, ptr %13, align 8
  %48 = load ptr, ptr %8, align 8
  %49 = getelementptr inbounds %"struct.std::_Vector_base.1", ptr %15, i32 0, i32 0
  %50 = getelementptr inbounds %"struct.std::_Vector_base<unsigned long, std::allocator<unsigned long>>::_Vector_impl_data", ptr %49, i32 0, i32 2
  %51 = load ptr, ptr %50, align 8
  %52 = load ptr, ptr %8, align 8
  %53 = ptrtoint ptr %51 to i64
  %54 = ptrtoint ptr %52 to i64
  %55 = sub i64 %53, %54
  %56 = sdiv exact i64 %55, 8
  call void @_ZNSt12_Vector_baseImSaImEE13_M_deallocateEPmm(ptr noundef nonnull align 8 dereferenceable(24) %15, ptr noundef %48, i64 noundef %56)
  %57 = load ptr, ptr %12, align 8
  %58 = getelementptr inbounds %"struct.std::_Vector_base.1", ptr %15, i32 0, i32 0
  %59 = getelementptr inbounds %"struct.std::_Vector_base<unsigned long, std::allocator<unsigned long>>::_Vector_impl_data", ptr %58, i32 0, i32 0
  store ptr %57, ptr %59, align 8
  %60 = load ptr, ptr %13, align 8
  %61 = getelementptr inbounds %"struct.std::_Vector_base.1", ptr %15, i32 0, i32 0
  %62 = getelementptr inbounds %"struct.std::_Vector_base<unsigned long, std::allocator<unsigned long>>::_Vector_impl_data", ptr %61, i32 0, i32 1
  store ptr %60, ptr %62, align 8
  %63 = load ptr, ptr %12, align 8
  %64 = load i64, ptr %7, align 8
  %65 = getelementptr inbounds i64, ptr %63, i64 %64
  %66 = getelementptr inbounds %"struct.std::_Vector_base.1", ptr %15, i32 0, i32 0
  %67 = getelementptr inbounds %"struct.std::_Vector_base<unsigned long, std::allocator<unsigned long>>::_Vector_impl_data", ptr %66, i32 0, i32 2
  store ptr %65, ptr %67, align 8
  ret void
}

; Function Attrs: mustprogress noinline nounwind optnone uwtable
define linkonce_odr dso_local ptr @_ZNSt6vectorImSaImEE3endEv(ptr noundef nonnull align 8 dereferenceable(24) %0) #7 comdat align 2 {
  %2 = alloca %"class.__gnu_cxx::__normal_iterator.6", align 8
  %3 = alloca ptr, align 8
  store ptr %0, ptr %3, align 8
  %4 = load ptr, ptr %3, align 8
  %5 = getelementptr inbounds %"struct.std::_Vector_base.1", ptr %4, i32 0, i32 0
  %6 = getelementptr inbounds %"struct.std::_Vector_base<unsigned long, std::allocator<unsigned long>>::_Vector_impl_data", ptr %5, i32 0, i32 1
  call void @_ZN9__gnu_cxx17__normal_iteratorIPmSt6vectorImSaImEEEC2ERKS1_(ptr noundef nonnull align 8 dereferenceable(8) %2, ptr noundef nonnull align 8 dereferenceable(8) %6) #3
  %7 = getelementptr inbounds %"class.__gnu_cxx::__normal_iterator.6", ptr %2, i32 0, i32 0
  %8 = load ptr, ptr %7, align 8
  ret ptr %8
}

; Function Attrs: mustprogress noinline nounwind optnone uwtable
define linkonce_odr dso_local void @_ZNSt15__new_allocatorImE9constructImJRKmEEEvPT_DpOT0_(ptr noundef nonnull align 1 dereferenceable(1) %0, ptr noundef %1, ptr noundef nonnull align 8 dereferenceable(8) %2) #7 comdat align 2 {
  %4 = alloca ptr, align 8
  %5 = alloca ptr, align 8
  %6 = alloca ptr, align 8
  store ptr %0, ptr %4, align 8
  store ptr %1, ptr %5, align 8
  store ptr %2, ptr %6, align 8
  %7 = load ptr, ptr %4, align 8
  %8 = load ptr, ptr %5, align 8
  %9 = load ptr, ptr %6, align 8
  %10 = load i64, ptr %9, align 8
  store i64 %10, ptr %8, align 8
  ret void
}

; Function Attrs: mustprogress noinline optnone uwtable
define linkonce_odr dso_local noundef i64 @_ZNKSt6vectorImSaImEE12_M_check_lenEmPKc(ptr noundef nonnull align 8 dereferenceable(24) %0, i64 noundef %1, ptr noundef %2) #5 comdat align 2 {
  %4 = alloca ptr, align 8
  %5 = alloca i64, align 8
  %6 = alloca ptr, align 8
  %7 = alloca i64, align 8
  %8 = alloca i64, align 8
  store ptr %0, ptr %4, align 8
  store i64 %1, ptr %5, align 8
  store ptr %2, ptr %6, align 8
  %9 = load ptr, ptr %4, align 8
  %10 = call noundef i64 @_ZNKSt6vectorImSaImEE8max_sizeEv(ptr noundef nonnull align 8 dereferenceable(24) %9) #3
  %11 = call noundef i64 @_ZNKSt6vectorImSaImEE4sizeEv(ptr noundef nonnull align 8 dereferenceable(24) %9) #3
  %12 = sub i64 %10, %11
  %13 = load i64, ptr %5, align 8
  %14 = icmp ult i64 %12, %13
  br i1 %14, label %15, label %17

15:                                               ; preds = %3
  %16 = load ptr, ptr %6, align 8
  call void @_ZSt20__throw_length_errorPKc(ptr noundef %16) #16
  unreachable

17:                                               ; preds = %3
  %18 = call noundef i64 @_ZNKSt6vectorImSaImEE4sizeEv(ptr noundef nonnull align 8 dereferenceable(24) %9) #3
  %19 = call noundef i64 @_ZNKSt6vectorImSaImEE4sizeEv(ptr noundef nonnull align 8 dereferenceable(24) %9) #3
  store i64 %19, ptr %8, align 8
  %20 = call noundef nonnull align 8 dereferenceable(8) ptr @_ZSt3maxImERKT_S2_S2_(ptr noundef nonnull align 8 dereferenceable(8) %8, ptr noundef nonnull align 8 dereferenceable(8) %5)
  %21 = load i64, ptr %20, align 8
  %22 = add i64 %18, %21
  store i64 %22, ptr %7, align 8
  %23 = load i64, ptr %7, align 8
  %24 = call noundef i64 @_ZNKSt6vectorImSaImEE4sizeEv(ptr noundef nonnull align 8 dereferenceable(24) %9) #3
  %25 = icmp ult i64 %23, %24
  br i1 %25, label %30, label %26

26:                                               ; preds = %17
  %27 = load i64, ptr %7, align 8
  %28 = call noundef i64 @_ZNKSt6vectorImSaImEE8max_sizeEv(ptr noundef nonnull align 8 dereferenceable(24) %9) #3
  %29 = icmp ugt i64 %27, %28
  br i1 %29, label %30, label %32

30:                                               ; preds = %26, %17
  %31 = call noundef i64 @_ZNKSt6vectorImSaImEE8max_sizeEv(ptr noundef nonnull align 8 dereferenceable(24) %9) #3
  br label %34

32:                                               ; preds = %26
  %33 = load i64, ptr %7, align 8
  br label %34

34:                                               ; preds = %32, %30
  %35 = phi i64 [ %31, %30 ], [ %33, %32 ]
  ret i64 %35
}

; Function Attrs: mustprogress noinline nounwind optnone uwtable
define linkonce_odr dso_local noundef i64 @_ZN9__gnu_cxxmiIPmSt6vectorImSaImEEEENS_17__normal_iteratorIT_T0_E15difference_typeERKS8_SB_(ptr noundef nonnull align 8 dereferenceable(8) %0, ptr noundef nonnull align 8 dereferenceable(8) %1) #7 comdat {
  %3 = alloca ptr, align 8
  %4 = alloca ptr, align 8
  store ptr %0, ptr %3, align 8
  store ptr %1, ptr %4, align 8
  %5 = load ptr, ptr %3, align 8
  %6 = call noundef nonnull align 8 dereferenceable(8) ptr @_ZNK9__gnu_cxx17__normal_iteratorIPmSt6vectorImSaImEEE4baseEv(ptr noundef nonnull align 8 dereferenceable(8) %5) #3
  %7 = load ptr, ptr %6, align 8
  %8 = load ptr, ptr %4, align 8
  %9 = call noundef nonnull align 8 dereferenceable(8) ptr @_ZNK9__gnu_cxx17__normal_iteratorIPmSt6vectorImSaImEEE4baseEv(ptr noundef nonnull align 8 dereferenceable(8) %8) #3
  %10 = load ptr, ptr %9, align 8
  %11 = ptrtoint ptr %7 to i64
  %12 = ptrtoint ptr %10 to i64
  %13 = sub i64 %11, %12
  %14 = sdiv exact i64 %13, 8
  ret i64 %14
}

; Function Attrs: mustprogress noinline nounwind optnone uwtable
define linkonce_odr dso_local ptr @_ZNSt6vectorImSaImEE5beginEv(ptr noundef nonnull align 8 dereferenceable(24) %0) #7 comdat align 2 {
  %2 = alloca %"class.__gnu_cxx::__normal_iterator.6", align 8
  %3 = alloca ptr, align 8
  store ptr %0, ptr %3, align 8
  %4 = load ptr, ptr %3, align 8
  %5 = getelementptr inbounds %"struct.std::_Vector_base.1", ptr %4, i32 0, i32 0
  %6 = getelementptr inbounds %"struct.std::_Vector_base<unsigned long, std::allocator<unsigned long>>::_Vector_impl_data", ptr %5, i32 0, i32 0
  call void @_ZN9__gnu_cxx17__normal_iteratorIPmSt6vectorImSaImEEEC2ERKS1_(ptr noundef nonnull align 8 dereferenceable(8) %2, ptr noundef nonnull align 8 dereferenceable(8) %6) #3
  %7 = getelementptr inbounds %"class.__gnu_cxx::__normal_iterator.6", ptr %2, i32 0, i32 0
  %8 = load ptr, ptr %7, align 8
  ret ptr %8
}

; Function Attrs: mustprogress noinline nounwind optnone uwtable
define linkonce_odr dso_local noundef ptr @_ZNSt6vectorImSaImEE11_S_relocateEPmS2_S2_RS0_(ptr noundef %0, ptr noundef %1, ptr noundef %2, ptr noundef nonnull align 1 dereferenceable(1) %3) #7 comdat align 2 {
  %5 = alloca ptr, align 8
  %6 = alloca ptr, align 8
  %7 = alloca ptr, align 8
  %8 = alloca ptr, align 8
  %9 = alloca %"struct.std::integral_constant", align 1
  store ptr %0, ptr %5, align 8
  store ptr %1, ptr %6, align 8
  store ptr %2, ptr %7, align 8
  store ptr %3, ptr %8, align 8
  %10 = load ptr, ptr %5, align 8
  %11 = load ptr, ptr %6, align 8
  %12 = load ptr, ptr %7, align 8
  %13 = load ptr, ptr %8, align 8
  %14 = call noundef ptr @_ZNSt6vectorImSaImEE14_S_do_relocateEPmS2_S2_RS0_St17integral_constantIbLb1EE(ptr noundef %10, ptr noundef %11, ptr noundef %12, ptr noundef nonnull align 1 dereferenceable(1) %13) #3
  ret ptr %14
}

; Function Attrs: mustprogress noinline nounwind optnone uwtable
define linkonce_odr dso_local noundef nonnull align 8 dereferenceable(8) ptr @_ZNK9__gnu_cxx17__normal_iteratorIPmSt6vectorImSaImEEE4baseEv(ptr noundef nonnull align 8 dereferenceable(8) %0) #7 comdat align 2 {
  %2 = alloca ptr, align 8
  store ptr %0, ptr %2, align 8
  %3 = load ptr, ptr %2, align 8
  %4 = getelementptr inbounds %"class.__gnu_cxx::__normal_iterator.6", ptr %3, i32 0, i32 0
  ret ptr %4
}

; Function Attrs: mustprogress noinline nounwind optnone uwtable
define linkonce_odr dso_local noundef i64 @_ZNKSt6vectorImSaImEE8max_sizeEv(ptr noundef nonnull align 8 dereferenceable(24) %0) #7 comdat align 2 {
  %2 = alloca ptr, align 8
  store ptr %0, ptr %2, align 8
  %3 = load ptr, ptr %2, align 8
  %4 = call noundef nonnull align 1 dereferenceable(1) ptr @_ZNKSt12_Vector_baseImSaImEE19_M_get_Tp_allocatorEv(ptr noundef nonnull align 8 dereferenceable(24) %3) #3
  %5 = call noundef i64 @_ZNSt6vectorImSaImEE11_S_max_sizeERKS0_(ptr noundef nonnull align 1 dereferenceable(1) %4) #3
  ret i64 %5
}

; Function Attrs: mustprogress noinline nounwind optnone uwtable
define linkonce_odr dso_local noundef nonnull align 1 dereferenceable(1) ptr @_ZNKSt12_Vector_baseImSaImEE19_M_get_Tp_allocatorEv(ptr noundef nonnull align 8 dereferenceable(24) %0) #7 comdat align 2 {
  %2 = alloca ptr, align 8
  store ptr %0, ptr %2, align 8
  %3 = load ptr, ptr %2, align 8
  %4 = getelementptr inbounds %"struct.std::_Vector_base.1", ptr %3, i32 0, i32 0
  ret ptr %4
}

; Function Attrs: noinline nounwind optnone uwtable
define linkonce_odr dso_local void @_ZN9__gnu_cxx17__normal_iteratorIPmSt6vectorImSaImEEEC2ERKS1_(ptr noundef nonnull align 8 dereferenceable(8) %0, ptr noundef nonnull align 8 dereferenceable(8) %1) unnamed_addr #10 comdat align 2 {
  %3 = alloca ptr, align 8
  %4 = alloca ptr, align 8
  store ptr %0, ptr %3, align 8
  store ptr %1, ptr %4, align 8
  %5 = load ptr, ptr %3, align 8
  %6 = getelementptr inbounds %"class.__gnu_cxx::__normal_iterator.6", ptr %5, i32 0, i32 0
  %7 = load ptr, ptr %4, align 8
  %8 = load ptr, ptr %7, align 8
  store ptr %8, ptr %6, align 8
  ret void
}

; Function Attrs: mustprogress noinline nounwind optnone uwtable
define linkonce_odr dso_local noundef ptr @_ZNSt6vectorImSaImEE14_S_do_relocateEPmS2_S2_RS0_St17integral_constantIbLb1EE(ptr noundef %0, ptr noundef %1, ptr noundef %2, ptr noundef nonnull align 1 dereferenceable(1) %3) #7 comdat align 2 {
  %5 = alloca %"struct.std::integral_constant", align 1
  %6 = alloca ptr, align 8
  %7 = alloca ptr, align 8
  %8 = alloca ptr, align 8
  %9 = alloca ptr, align 8
  store ptr %0, ptr %6, align 8
  store ptr %1, ptr %7, align 8
  store ptr %2, ptr %8, align 8
