; ModuleID = './test/assignment_threaded.cpp'
source_filename = "./test/assignment_threaded.cpp"
target datalayout = "e-m:e-p270:32:32-p271:32:32-p272:64:64-i64:64-f80:128-n8:16:32:64-S128"
target triple = "x86_64-pc-linux-gnu"

%"class.std::ios_base::Init" = type { i8 }
%"class.std::vector" = type { %"struct.std::_Vector_base" }
%"struct.std::_Vector_base" = type { %"struct.std::_Vector_base<std::__cxx11::basic_string<char>, std::allocator<std::__cxx11::basic_string<char>>>::_Vector_impl" }
%"struct.std::_Vector_base<std::__cxx11::basic_string<char>, std::allocator<std::__cxx11::basic_string<char>>>::_Vector_impl" = type { %"struct.std::_Vector_base<std::__cxx11::basic_string<char>, std::allocator<std::__cxx11::basic_string<char>>>::_Vector_impl_data" }
%"struct.std::_Vector_base<std::__cxx11::basic_string<char>, std::allocator<std::__cxx11::basic_string<char>>>::_Vector_impl_data" = type { ptr, ptr, ptr }
%"class.std::basic_ostream" = type { ptr, %"class.std::basic_ios" }
%"class.std::basic_ios" = type { %"class.std::ios_base", ptr, i8, i8, ptr, ptr, ptr, ptr }
%"class.std::ios_base" = type { ptr, i64, i64, i32, i32, i32, ptr, %"struct.std::ios_base::_Words", [8 x %"struct.std::ios_base::_Words"], i32, ptr, %"class.std::locale" }
%"struct.std::ios_base::_Words" = type { ptr, i64 }
%"class.std::locale" = type { ptr }
%"class.Eigen::EigenTest" = type { %"class.std::__cxx11::basic_string", ptr }
%"class.std::__cxx11::basic_string" = type { %"struct.std::__cxx11::basic_string<char>::_Alloc_hider", i64, %union.anon }
%"struct.std::__cxx11::basic_string<char>::_Alloc_hider" = type { ptr }
%union.anon = type { i64, [8 x i8] }
%"class.std::allocator.0" = type { i8 }
%"struct.Eigen::half" = type { %"struct.Eigen::half_impl::half_base" }
%"struct.Eigen::half_impl::half_base" = type { %"struct.Eigen::half_impl::__half_raw" }
%"struct.Eigen::half_impl::__half_raw" = type { i16 }
%"struct.Eigen::bfloat16" = type { %"struct.Eigen::bfloat16_impl::bfloat16_base" }
%"struct.Eigen::bfloat16_impl::bfloat16_base" = type { %"struct.Eigen::bfloat16_impl::__bfloat16_raw" }
%"struct.Eigen::bfloat16_impl::__bfloat16_raw" = type { i16 }
%"class.std::complex" = type { { float, float } }
%"class.std::complex.3" = type { { double, double } }
%"class.std::complex.4" = type { { x86_fp80, x86_fp80 } }
%"class.std::complex.5" = type { i32, i32 }
%"class.std::__cxx11::basic_stringstream" = type { %"class.std::basic_iostream.base", %"class.std::__cxx11::basic_stringbuf", %"class.std::basic_ios" }
%"class.std::basic_iostream.base" = type { %"class.std::basic_istream.base", %"class.std::basic_ostream.base" }
%"class.std::basic_istream.base" = type { ptr, i64 }
%"class.std::basic_ostream.base" = type { ptr }
%"class.std::__cxx11::basic_stringbuf" = type { %"class.std::basic_streambuf", i32, %"class.std::__cxx11::basic_string" }
%"class.std::basic_streambuf" = type { ptr, ptr, ptr, ptr, ptr, ptr, ptr, %"class.std::locale" }
%"struct.std::_Vector_base.7" = type { %"struct.std::_Vector_base<Eigen::EigenTest *, std::allocator<Eigen::EigenTest *>>::_Vector_impl" }
%"struct.std::_Vector_base<Eigen::EigenTest *, std::allocator<Eigen::EigenTest *>>::_Vector_impl" = type { %"struct.std::_Vector_base<Eigen::EigenTest *, std::allocator<Eigen::EigenTest *>>::_Vector_impl_data" }
%"struct.std::_Vector_base<Eigen::EigenTest *, std::allocator<Eigen::EigenTest *>>::_Vector_impl_data" = type { ptr, ptr, ptr }
%"class.__gnu_cxx::__normal_iterator.23" = type { ptr }
%"class.Eigen::Matrix" = type { %"class.Eigen::PlainObjectBase" }
%"class.Eigen::PlainObjectBase" = type { %"class.Eigen::DenseStorage" }
%"class.Eigen::DenseStorage" = type { %"class.Eigen::internal::DenseStorage_impl" }
%"class.Eigen::internal::DenseStorage_impl" = type { ptr, i64, i64 }
%"class.Eigen::Matrix.13" = type { %"class.Eigen::PlainObjectBase.14" }
%"class.Eigen::PlainObjectBase.14" = type { %"class.Eigen::DenseStorage.21" }
%"class.Eigen::DenseStorage.21" = type { %"class.Eigen::internal::DenseStorage_impl.22" }
%"class.Eigen::internal::DenseStorage_impl.22" = type { %"struct.Eigen::internal::plain_array" }
%"struct.Eigen::internal::plain_array" = type { [256 x float] }
%"class.Eigen::ThreadPoolTempl" = type { %"class.Eigen::ThreadPoolInterface", %"struct.Eigen::StlThreadEnvironment", i32, i8, i32, %"class.Eigen::MaxSizeVector", %"class.Eigen::MaxSizeVector.28", %"class.Eigen::MaxSizeVector.30", i32, %"struct.std::atomic.31", %"struct.std::atomic", %"struct.std::atomic.33", %"struct.std::atomic.33", %"class.Eigen::EventCount" }
%"class.Eigen::ThreadPoolInterface" = type { ptr }
%"struct.Eigen::StlThreadEnvironment" = type { i8 }
%"class.Eigen::MaxSizeVector" = type { i64, i64, ptr }
%"class.Eigen::MaxSizeVector.28" = type { i64, i64, ptr }
%"class.Eigen::MaxSizeVector.30" = type { i64, i64, ptr }
%"struct.std::atomic.31" = type { %"struct.std::__atomic_base.32" }
%"struct.std::__atomic_base.32" = type { i64 }
%"struct.std::atomic" = type { %"struct.std::__atomic_base" }
%"struct.std::__atomic_base" = type { i32 }
%"struct.std::atomic.33" = type { %"struct.std::__atomic_base.34" }
%"struct.std::__atomic_base.34" = type { i8 }
%"class.Eigen::EventCount" = type { %"struct.std::atomic.31", ptr }
%"struct.Eigen::CoreThreadPoolDevice" = type <{ ptr, float, [4 x i8] }>
%"class.Eigen::CwiseUnaryOp" = type <{ ptr, %"struct.Eigen::internal::scalar_abs2_op", [7 x i8] }>
%"struct.Eigen::internal::scalar_abs2_op" = type { i8 }
%"class.Eigen::CwiseUnaryOp.39" = type { [8 x i8], %"class.Eigen::CwiseUnaryOp", %"struct.Eigen::internal::scalar_dummy_op", [7 x i8] }
%"struct.Eigen::internal::scalar_dummy_op" = type { i8 }
%"struct.Eigen::DeviceWrapper" = type { ptr, ptr }
%"class.Eigen::CwiseUnaryOp.46" = type { [8 x i8], %"class.Eigen::CwiseUnaryOp", %"struct.Eigen::internal::scalar_dummy_op.52", [7 x i8] }
%"struct.Eigen::internal::scalar_dummy_op.52" = type { i8 }
%"class.Eigen::CwiseUnaryOp.54" = type <{ [8 x i8], %"class.Eigen::Block", %"struct.Eigen::internal::scalar_dummy_op", [7 x i8] }>
%"class.Eigen::Block" = type { %"class.Eigen::BlockImpl" }
%"class.Eigen::BlockImpl" = type { %"class.Eigen::internal::BlockImpl_dense" }
%"class.Eigen::internal::BlockImpl_dense" = type { %"class.Eigen::CwiseUnaryOp", %"class.Eigen::internal::variable_if_dynamic", %"class.Eigen::internal::variable_if_dynamic", %"class.Eigen::internal::variable_if_dynamic", %"class.Eigen::internal::variable_if_dynamic" }
%"class.Eigen::internal::variable_if_dynamic" = type { i64 }
%"class.Eigen::Block.65" = type { %"class.Eigen::BlockImpl.66" }
%"class.Eigen::BlockImpl.66" = type { %"class.Eigen::internal::BlockImpl_dense.67" }
%"class.Eigen::internal::BlockImpl_dense.67" = type { %"class.Eigen::MapBase", ptr, %"class.Eigen::internal::variable_if_dynamic", %"class.Eigen::internal::variable_if_dynamic", i64 }
%"class.Eigen::MapBase" = type { %"class.Eigen::MapBase.68" }
%"class.Eigen::MapBase.68" = type { ptr, %"class.Eigen::internal::variable_if_dynamic", %"class.Eigen::internal::variable_if_dynamic" }
%"struct.Eigen::DeviceWrapper.75" = type { ptr, ptr }
%"class.Eigen::CwiseUnaryOp.76" = type <{ [8 x i8], %"class.Eigen::Block", %"struct.Eigen::internal::scalar_dummy_op.52", [7 x i8] }>
%"class.Eigen::CwiseUnaryOp.211" = type <{ ptr, %"struct.Eigen::internal::scalar_abs2_op.217", [7 x i8] }>
%"struct.Eigen::internal::scalar_abs2_op.217" = type { i8 }
%"class.Eigen::CwiseUnaryOp.219" = type { [8 x i8], %"class.Eigen::CwiseUnaryOp.211", %"struct.Eigen::internal::scalar_dummy_op.225", [7 x i8] }
%"struct.Eigen::internal::scalar_dummy_op.225" = type { i8 }
%"struct.Eigen::DeviceWrapper.227" = type { ptr, ptr }
%"class.Eigen::CwiseUnaryOp.228" = type { [8 x i8], %"class.Eigen::CwiseUnaryOp.211", %"struct.Eigen::internal::scalar_dummy_op.234", [7 x i8] }
%"struct.Eigen::internal::scalar_dummy_op.234" = type { i8 }
%"class.Eigen::CwiseUnaryOp.236" = type <{ [8 x i8], %"class.Eigen::Block.242", %"struct.Eigen::internal::scalar_dummy_op.225", [7 x i8] }>
%"class.Eigen::Block.242" = type { %"class.Eigen::BlockImpl.243" }
%"class.Eigen::BlockImpl.243" = type { %"class.Eigen::internal::BlockImpl_dense.244" }
%"class.Eigen::internal::BlockImpl_dense.244" = type { %"class.Eigen::CwiseUnaryOp.211", %"class.Eigen::internal::variable_if_dynamic", %"class.Eigen::internal::variable_if_dynamic", %"class.Eigen::internal::variable_if_dynamic", %"class.Eigen::internal::variable_if_dynamic" }
%"class.Eigen::Block.250" = type { %"class.Eigen::BlockImpl.251" }
%"class.Eigen::BlockImpl.251" = type { %"class.Eigen::internal::BlockImpl_dense.252" }
%"class.Eigen::internal::BlockImpl_dense.252" = type { %"class.Eigen::MapBase.253", ptr, %"class.Eigen::internal::variable_if_dynamic", %"class.Eigen::internal::variable_if_dynamic", i64 }
%"class.Eigen::MapBase.253" = type { %"class.Eigen::MapBase.254" }
%"class.Eigen::MapBase.254" = type { ptr, %"class.Eigen::internal::variable_if_dynamic", %"class.Eigen::internal::variable_if_dynamic" }
%"struct.Eigen::DeviceWrapper.261" = type { ptr, ptr }
%"class.Eigen::CwiseUnaryOp.262" = type <{ [8 x i8], %"class.Eigen::Block.242", %"struct.Eigen::internal::scalar_dummy_op.234", [7 x i8] }>
%"class.__gnu_cxx::__normal_iterator" = type { ptr }
%"struct.std::integral_constant" = type { i8 }
%"class.Eigen::CwiseNullaryOp" = type <{ %"class.Eigen::internal::variable_if_dynamic", %"class.Eigen::internal::variable_if_dynamic", %"struct.Eigen::internal::scalar_random_op", [7 x i8] }>
%"struct.Eigen::internal::scalar_random_op" = type { i8 }
%"struct.Eigen::internal::assign_op" = type { i8 }
%"struct.Eigen::ThreadPoolTempl<Eigen::StlThreadEnvironment>::ThreadData" = type { %"class.std::unique_ptr", %"struct.std::atomic", [116 x i8], %"class.Eigen::RunQueue" }
%"class.std::unique_ptr" = type { %"struct.std::__uniq_ptr_data" }
%"struct.std::__uniq_ptr_data" = type { %"class.std::__uniq_ptr_impl" }
%"class.std::__uniq_ptr_impl" = type { %"class.std::tuple" }
%"class.std::tuple" = type { %"struct.std::_Tuple_impl" }
%"struct.std::_Tuple_impl" = type { %"struct.std::_Head_base.25" }
%"struct.std::_Head_base.25" = type { ptr }
%"class.Eigen::RunQueue" = type { %"struct.std::atomic", [124 x i8], %"struct.std::atomic", %"class.std::mutex", [80 x i8], [1024 x %"struct.Eigen::RunQueue<Eigen::StlThreadEnvironment::Task, 1024>::Elem"] }
%"class.std::mutex" = type { %"class.std::__mutex_base" }
%"class.std::__mutex_base" = type { %union.pthread_mutex_t }
%union.pthread_mutex_t = type { %struct.__pthread_mutex_s }
%struct.__pthread_mutex_s = type { i32, i32, i32, i32, i32, i16, i16, %struct.__pthread_internal_list }
%struct.__pthread_internal_list = type { ptr, ptr }
%"struct.Eigen::RunQueue<Eigen::StlThreadEnvironment::Task, 1024>::Elem" = type { %"struct.std::atomic.26", %"struct.Eigen::StlThreadEnvironment::Task" }
%"struct.std::atomic.26" = type { %"struct.std::__atomic_base.27" }
%"struct.std::__atomic_base.27" = type { i8 }
%"struct.Eigen::StlThreadEnvironment::Task" = type { %"class.std::function" }
%"class.std::function" = type { %"class.std::_Function_base", ptr }
%"class.std::_Function_base" = type { %"union.std::_Any_data", ptr }
%"union.std::_Any_data" = type { %"union.std::_Nocopy_types" }
%"union.std::_Nocopy_types" = type { { i64, i64 } }
%class.anon = type <{ ptr, i32, [4 x i8] }>
%"class.Eigen::EventCount::Waiter" = type <{ %"struct.std::atomic.31", %"class.std::mutex", %"class.std::condition_variable", i64, i32, [20 x i8] }>
%"class.std::condition_variable" = type { %"class.std::__condvar" }
%"class.std::__condvar" = type { %union.pthread_cond_t }
%union.pthread_cond_t = type { %struct.__pthread_cond_s }
%struct.__pthread_cond_s = type { %union.__atomic_wide_counter, %union.__atomic_wide_counter, [2 x i32], [2 x i32], i32, i32, [2 x i32] }
%union.__atomic_wide_counter = type { i64 }
%"class.Eigen::MaxSizeVector.29" = type { i64, i64, ptr }
%"struct.Eigen::ThreadPoolTempl<Eigen::StlThreadEnvironment>::PerThread" = type <{ ptr, i64, i32, [4 x i8] }>
%"class.Eigen::StlThreadEnvironment::EnvThread" = type { %"class.std::thread" }
%"class.std::thread" = type { %"class.std::thread::id" }
%"class.std::thread::id" = type { i64 }
%"class.std::unique_ptr.83" = type { %"struct.std::__uniq_ptr_data.84" }
%"struct.std::__uniq_ptr_data.84" = type { %"class.std::__uniq_ptr_impl.85" }
%"class.std::__uniq_ptr_impl.85" = type { %"class.std::tuple.86" }
%"class.std::tuple.86" = type { %"struct.std::_Tuple_impl.87" }
%"struct.std::_Tuple_impl.87" = type { %"struct.std::_Head_base.90" }
%"struct.std::_Head_base.90" = type { ptr }
%"struct.std::thread::_State_impl" = type { %"struct.std::thread::_State", %"struct.std::thread::_Invoker" }
%"struct.std::thread::_State" = type { ptr }
%"struct.std::thread::_Invoker" = type { %"class.std::tuple.91" }
%"class.std::tuple.91" = type { %"struct.std::_Tuple_impl.92" }
%"struct.std::_Tuple_impl.92" = type { %"struct.std::_Head_base.93" }
%"struct.std::_Head_base.93" = type { %"class.std::function" }
%"struct.std::_Index_tuple" = type { i8 }
%"struct.std::__invoke_other" = type { i8 }
%"struct.std::hash" = type { i8 }
%"struct.Eigen::ThreadPoolTempl<Eigen::StlThreadEnvironment>::SpinningState" = type { i64, i64 }
%"class.std::unique_lock" = type <{ ptr, i8, [7 x i8] }>
%"struct.Eigen::internal::evaluator" = type { %"struct.Eigen::internal::scalar_random_op", %"struct.Eigen::internal::nullary_wrapper" }
%"struct.Eigen::internal::nullary_wrapper" = type { i8 }
%"struct.Eigen::internal::evaluator.100" = type { %"struct.Eigen::internal::evaluator.101" }
%"struct.Eigen::internal::evaluator.101" = type { %"class.Eigen::internal::plainobjectbase_evaluator_data" }
%"class.Eigen::internal::plainobjectbase_evaluator_data" = type { ptr, i64 }
%"class.Eigen::internal::generic_dense_assignment_kernel" = type { ptr, ptr, ptr, ptr }
%"struct.Eigen::internal::evaluator.104" = type { %"struct.Eigen::internal::unary_evaluator" }
%"struct.Eigen::internal::unary_evaluator" = type { %"struct.Eigen::internal::unary_evaluator<Eigen::CwiseUnaryOp<Eigen::internal::scalar_dummy_op<double, false>, const Eigen::CwiseUnaryOp<Eigen::internal::scalar_abs2_op<double>, const Eigen::Matrix<double, -1, -1, 0>>>, Eigen::internal::IndexBased, double>::Data" }
%"struct.Eigen::internal::unary_evaluator<Eigen::CwiseUnaryOp<Eigen::internal::scalar_dummy_op<double, false>, const Eigen::CwiseUnaryOp<Eigen::internal::scalar_abs2_op<double>, const Eigen::Matrix<double, -1, -1, 0>>>, Eigen::internal::IndexBased, double>::Data" = type { %"struct.Eigen::internal::scalar_dummy_op", %"struct.Eigen::internal::evaluator.107" }
%"struct.Eigen::internal::evaluator.107" = type { %"struct.Eigen::internal::evaluator.108" }
%"struct.Eigen::internal::evaluator.108" = type { %"struct.Eigen::internal::unary_evaluator.109" }
%"struct.Eigen::internal::unary_evaluator.109" = type { %"struct.Eigen::internal::unary_evaluator<Eigen::CwiseUnaryOp<Eigen::internal::scalar_abs2_op<double>, const Eigen::Matrix<double, -1, -1, 0>>, Eigen::internal::IndexBased, double>::Data" }
%"struct.Eigen::internal::unary_evaluator<Eigen::CwiseUnaryOp<Eigen::internal::scalar_abs2_op<double>, const Eigen::Matrix<double, -1, -1, 0>>, Eigen::internal::IndexBased, double>::Data" = type { %"struct.Eigen::internal::scalar_abs2_op", %"struct.Eigen::internal::evaluator.112" }
%"struct.Eigen::internal::evaluator.112" = type { %"struct.Eigen::internal::evaluator.100" }
%"class.Eigen::internal::generic_dense_assignment_kernel.113" = type { ptr, ptr, ptr, ptr }
%"struct.Eigen::internal::dense_assignment_loop_with_device<Eigen::internal::generic_dense_assignment_kernel<Eigen::internal::evaluator<Eigen::Matrix<double, -1, -1, 0>>, Eigen::internal::evaluator<Eigen::CwiseUnaryOp<Eigen::internal::scalar_dummy_op<double, false>, const Eigen::CwiseUnaryOp<Eigen::internal::scalar_abs2_op<double>, const Eigen::Matrix<double, -1, -1, 0>>>>, Eigen::internal::assign_op<double, double>, 0>, Eigen::CoreThreadPoolDevice, 1, 0>::AssignmentFunctor" = type { %"class.Eigen::internal::generic_dense_assignment_kernel.113" }
%"class.Eigen::Barrier" = type <{ %"class.std::mutex", %"class.std::condition_variable", %"struct.std::atomic", i8, [3 x i8] }>
%class.anon.114 = type <{ ptr, i64, i64, ptr, ptr, i32, [4 x i8] }>
%"struct.std::integral_constant.116" = type { i8 }
%"class.Eigen::CwiseUnaryOp.117" = type { [8 x i8], %"class.Eigen::CwiseBinaryOp", %"struct.Eigen::internal::scalar_abs2_op", [7 x i8] }
%"class.Eigen::CwiseBinaryOp" = type <{ ptr, ptr, %"struct.Eigen::internal::scalar_difference_op", [7 x i8] }>
%"struct.Eigen::internal::scalar_difference_op" = type { i8 }
%"struct.std::equal_to" = type { i8 }
%"struct.Eigen::internal::scalar_sum_op" = type { i8 }
%"class.Eigen::internal::redux_evaluator" = type { %"struct.Eigen::internal::evaluator.128" }
%"struct.Eigen::internal::evaluator.128" = type { %"struct.Eigen::internal::unary_evaluator.129" }
%"struct.Eigen::internal::unary_evaluator.129" = type { %"struct.Eigen::internal::unary_evaluator<Eigen::CwiseUnaryOp<Eigen::internal::scalar_abs2_op<double>, const Eigen::CwiseBinaryOp<Eigen::internal::scalar_difference_op<double>, const Eigen::Matrix<double, -1, -1, 0>, const Eigen::Matrix<double, -1, -1, 0>>>, Eigen::internal::IndexBased, double>::Data" }
%"struct.Eigen::internal::unary_evaluator<Eigen::CwiseUnaryOp<Eigen::internal::scalar_abs2_op<double>, const Eigen::CwiseBinaryOp<Eigen::internal::scalar_difference_op<double>, const Eigen::Matrix<double, -1, -1, 0>, const Eigen::Matrix<double, -1, -1, 0>>>, Eigen::internal::IndexBased, double>::Data" = type { %"struct.Eigen::internal::scalar_abs2_op", %"struct.Eigen::internal::evaluator.132" }
%"struct.Eigen::internal::evaluator.132" = type { %"struct.Eigen::internal::evaluator.133" }
%"struct.Eigen::internal::evaluator.133" = type { %"struct.Eigen::internal::binary_evaluator" }
%"struct.Eigen::internal::binary_evaluator" = type { %"struct.Eigen::internal::binary_evaluator<Eigen::CwiseBinaryOp<Eigen::internal::scalar_difference_op<double>, const Eigen::Matrix<double, -1, -1, 0>, const Eigen::Matrix<double, -1, -1, 0>>, Eigen::internal::IndexBased, Eigen::internal::IndexBased, double, double>::Data" }
%"struct.Eigen::internal::binary_evaluator<Eigen::CwiseBinaryOp<Eigen::internal::scalar_difference_op<double>, const Eigen::Matrix<double, -1, -1, 0>, const Eigen::Matrix<double, -1, -1, 0>>, Eigen::internal::IndexBased, Eigen::internal::IndexBased, double, double>::Data" = type { %"struct.Eigen::internal::scalar_difference_op", %"struct.Eigen::internal::evaluator.112", %"struct.Eigen::internal::evaluator.112" }
%"class.Eigen::internal::redux_evaluator.136" = type { %"struct.Eigen::internal::evaluator.108" }
%"struct.Eigen::internal::evaluator.137" = type { %"struct.Eigen::internal::unary_evaluator.138" }
%"struct.Eigen::internal::unary_evaluator.138" = type { %"struct.Eigen::internal::unary_evaluator<Eigen::CwiseUnaryOp<Eigen::internal::scalar_dummy_op<double, true>, const Eigen::CwiseUnaryOp<Eigen::internal::scalar_abs2_op<double>, const Eigen::Matrix<double, -1, -1, 0>>>, Eigen::internal::IndexBased, double>::Data" }
%"struct.Eigen::internal::unary_evaluator<Eigen::CwiseUnaryOp<Eigen::internal::scalar_dummy_op<double, true>, const Eigen::CwiseUnaryOp<Eigen::internal::scalar_abs2_op<double>, const Eigen::Matrix<double, -1, -1, 0>>>, Eigen::internal::IndexBased, double>::Data" = type { %"struct.Eigen::internal::scalar_dummy_op.52", %"struct.Eigen::internal::evaluator.107" }
%"class.Eigen::internal::generic_dense_assignment_kernel.141" = type { ptr, ptr, ptr, ptr }
%"struct.Eigen::internal::dense_assignment_loop_with_device<Eigen::internal::generic_dense_assignment_kernel<Eigen::internal::evaluator<Eigen::Matrix<double, -1, -1, 0>>, Eigen::internal::evaluator<Eigen::CwiseUnaryOp<Eigen::internal::scalar_dummy_op<double, true>, const Eigen::CwiseUnaryOp<Eigen::internal::scalar_abs2_op<double>, const Eigen::Matrix<double, -1, -1, 0>>>>, Eigen::internal::assign_op<double, double>, 0>, Eigen::CoreThreadPoolDevice, 3, 0>::AssignmentFunctor" = type { %"class.Eigen::internal::generic_dense_assignment_kernel.141" }
%class.anon.142 = type <{ ptr, i64, i64, ptr, ptr, i32, [4 x i8] }>
%"struct.Eigen::internal::evaluator.144" = type { %"struct.Eigen::internal::unary_evaluator.145" }
%"struct.Eigen::internal::unary_evaluator.145" = type { %"struct.Eigen::internal::unary_evaluator<Eigen::CwiseUnaryOp<Eigen::internal::scalar_dummy_op<double, false>, const Eigen::Block<const Eigen::CwiseUnaryOp<Eigen::internal::scalar_abs2_op<double>, const Eigen::Matrix<double, -1, -1, 0>>, -1, -1, false>>, Eigen::internal::IndexBased, double>::Data" }
%"struct.Eigen::internal::unary_evaluator<Eigen::CwiseUnaryOp<Eigen::internal::scalar_dummy_op<double, false>, const Eigen::Block<const Eigen::CwiseUnaryOp<Eigen::internal::scalar_abs2_op<double>, const Eigen::Matrix<double, -1, -1, 0>>, -1, -1, false>>, Eigen::internal::IndexBased, double>::Data" = type { %"struct.Eigen::internal::scalar_dummy_op", %"struct.Eigen::internal::evaluator.148" }
%"struct.Eigen::internal::evaluator.148" = type { %"struct.Eigen::internal::evaluator.149" }
%"struct.Eigen::internal::evaluator.149" = type { %"struct.Eigen::internal::block_evaluator" }
%"struct.Eigen::internal::block_evaluator" = type { %"struct.Eigen::internal::unary_evaluator.150" }
%"struct.Eigen::internal::unary_evaluator.150" = type { %"struct.Eigen::internal::evaluator.107", %"class.Eigen::internal::variable_if_dynamic", %"class.Eigen::internal::variable_if_dynamic", %"class.Eigen::internal::variable_if_dynamic" }
%"struct.Eigen::internal::evaluator.153" = type { %"struct.Eigen::internal::block_evaluator.154" }
%"struct.Eigen::internal::block_evaluator.154" = type { %"struct.Eigen::internal::mapbase_evaluator" }
%"struct.Eigen::internal::mapbase_evaluator" = type { ptr, %"class.Eigen::internal::variable_if_dynamic.157", %"class.Eigen::internal::variable_if_dynamic" }
%"class.Eigen::internal::variable_if_dynamic.157" = type { i8 }
%"class.Eigen::internal::generic_dense_assignment_kernel.158" = type { ptr, ptr, ptr, ptr }
%"struct.Eigen::internal::dense_assignment_loop_with_device<Eigen::internal::generic_dense_assignment_kernel<Eigen::internal::evaluator<Eigen::Block<Eigen::Matrix<double, -1, -1, 0>, -1, -1, false>>, Eigen::internal::evaluator<Eigen::CwiseUnaryOp<Eigen::internal::scalar_dummy_op<double, false>, const Eigen::Block<const Eigen::CwiseUnaryOp<Eigen::internal::scalar_abs2_op<double>, const Eigen::Matrix<double, -1, -1, 0>>, -1, -1, false>>>, Eigen::internal::assign_op<double, double>, 0>, Eigen::CoreThreadPoolDevice, 0, 0>::AssignmentFunctor" = type { %"class.Eigen::internal::generic_dense_assignment_kernel.158" }
%class.anon.159 = type <{ ptr, ptr, ptr, i64, i64, i64, i64, i32, [4 x i8] }>
%class.anon.161 = type <{ ptr, ptr, ptr, i64, i64, i64, i64, i32, [4 x i8] }>
%"class.Eigen::CwiseUnaryOp.163" = type { [8 x i8], %"class.Eigen::CwiseBinaryOp.169", %"struct.Eigen::internal::scalar_abs2_op", [7 x i8] }
%"class.Eigen::CwiseBinaryOp.169" = type <{ %"class.Eigen::Block.65", %"class.Eigen::Block.65", %"struct.Eigen::internal::scalar_difference_op", [7 x i8] }>
%"class.Eigen::CwiseUnaryOp.177" = type <{ %"class.Eigen::Block.65", %"struct.Eigen::internal::scalar_abs2_op", [7 x i8] }>
%"class.Eigen::internal::redux_evaluator.184" = type { %"struct.Eigen::internal::evaluator.185" }
%"struct.Eigen::internal::evaluator.185" = type { %"struct.Eigen::internal::unary_evaluator.186" }
%"struct.Eigen::internal::unary_evaluator.186" = type { %"struct.Eigen::internal::unary_evaluator<Eigen::CwiseUnaryOp<Eigen::internal::scalar_abs2_op<double>, const Eigen::CwiseBinaryOp<Eigen::internal::scalar_difference_op<double>, const Eigen::Block<Eigen::Matrix<double, -1, -1, 0>, -1, -1, false>, const Eigen::Block<Eigen::Matrix<double, -1, -1, 0>, -1, -1, false>>>, Eigen::internal::IndexBased, double>::Data" }
%"struct.Eigen::internal::unary_evaluator<Eigen::CwiseUnaryOp<Eigen::internal::scalar_abs2_op<double>, const Eigen::CwiseBinaryOp<Eigen::internal::scalar_difference_op<double>, const Eigen::Block<Eigen::Matrix<double, -1, -1, 0>, -1, -1, false>, const Eigen::Block<Eigen::Matrix<double, -1, -1, 0>, -1, -1, false>>>, Eigen::internal::IndexBased, double>::Data" = type { %"struct.Eigen::internal::scalar_abs2_op", %"struct.Eigen::internal::evaluator.189" }
%"struct.Eigen::internal::evaluator.189" = type { %"struct.Eigen::internal::evaluator.190" }
%"struct.Eigen::internal::evaluator.190" = type { %"struct.Eigen::internal::binary_evaluator.191" }
%"struct.Eigen::internal::binary_evaluator.191" = type { %"struct.Eigen::internal::binary_evaluator<Eigen::CwiseBinaryOp<Eigen::internal::scalar_difference_op<double>, const Eigen::Block<Eigen::Matrix<double, -1, -1, 0>, -1, -1, false>, const Eigen::Block<Eigen::Matrix<double, -1, -1, 0>, -1, -1, false>>, Eigen::internal::IndexBased, Eigen::internal::IndexBased, double, double>::Data" }
%"struct.Eigen::internal::binary_evaluator<Eigen::CwiseBinaryOp<Eigen::internal::scalar_difference_op<double>, const Eigen::Block<Eigen::Matrix<double, -1, -1, 0>, -1, -1, false>, const Eigen::Block<Eigen::Matrix<double, -1, -1, 0>, -1, -1, false>>, Eigen::internal::IndexBased, Eigen::internal::IndexBased, double, double>::Data" = type { %"struct.Eigen::internal::scalar_difference_op", %"struct.Eigen::internal::evaluator.194", %"struct.Eigen::internal::evaluator.194" }
%"struct.Eigen::internal::evaluator.194" = type { %"struct.Eigen::internal::evaluator.153" }
%"class.Eigen::internal::redux_evaluator.195" = type { %"struct.Eigen::internal::evaluator.196" }
%"struct.Eigen::internal::evaluator.196" = type { %"struct.Eigen::internal::unary_evaluator.197" }
%"struct.Eigen::internal::unary_evaluator.197" = type { %"struct.Eigen::internal::unary_evaluator<Eigen::CwiseUnaryOp<Eigen::internal::scalar_abs2_op<double>, const Eigen::Block<Eigen::Matrix<double, -1, -1, 0>, -1, -1, false>>, Eigen::internal::IndexBased, double>::Data" }
%"struct.Eigen::internal::unary_evaluator<Eigen::CwiseUnaryOp<Eigen::internal::scalar_abs2_op<double>, const Eigen::Block<Eigen::Matrix<double, -1, -1, 0>, -1, -1, false>>, Eigen::internal::IndexBased, double>::Data" = type { %"struct.Eigen::internal::scalar_abs2_op", %"struct.Eigen::internal::evaluator.194" }
%"struct.Eigen::internal::evaluator.200" = type { %"struct.Eigen::internal::unary_evaluator.201" }
%"struct.Eigen::internal::unary_evaluator.201" = type { %"struct.Eigen::internal::unary_evaluator<Eigen::CwiseUnaryOp<Eigen::internal::scalar_dummy_op<double, true>, const Eigen::Block<const Eigen::CwiseUnaryOp<Eigen::internal::scalar_abs2_op<double>, const Eigen::Matrix<double, -1, -1, 0>>, -1, -1, false>>, Eigen::internal::IndexBased, double>::Data" }
%"struct.Eigen::internal::unary_evaluator<Eigen::CwiseUnaryOp<Eigen::internal::scalar_dummy_op<double, true>, const Eigen::Block<const Eigen::CwiseUnaryOp<Eigen::internal::scalar_abs2_op<double>, const Eigen::Matrix<double, -1, -1, 0>>, -1, -1, false>>, Eigen::internal::IndexBased, double>::Data" = type { %"struct.Eigen::internal::scalar_dummy_op.52", %"struct.Eigen::internal::evaluator.148" }
%"class.Eigen::internal::generic_dense_assignment_kernel.204" = type { ptr, ptr, ptr, ptr }
%"struct.Eigen::internal::dense_assignment_loop_with_device<Eigen::internal::generic_dense_assignment_kernel<Eigen::internal::evaluator<Eigen::Block<Eigen::Matrix<double, -1, -1, 0>, -1, -1, false>>, Eigen::internal::evaluator<Eigen::CwiseUnaryOp<Eigen::internal::scalar_dummy_op<double, true>, const Eigen::Block<const Eigen::CwiseUnaryOp<Eigen::internal::scalar_abs2_op<double>, const Eigen::Matrix<double, -1, -1, 0>>, -1, -1, false>>>, Eigen::internal::assign_op<double, double>, 0>, Eigen::CoreThreadPoolDevice, 4, 0>::PacketAssignmentFunctor" = type { %"class.Eigen::internal::generic_dense_assignment_kernel.204" }
%"struct.Eigen::internal::dense_assignment_loop_with_device<Eigen::internal::generic_dense_assignment_kernel<Eigen::internal::evaluator<Eigen::Block<Eigen::Matrix<double, -1, -1, 0>, -1, -1, false>>, Eigen::internal::evaluator<Eigen::CwiseUnaryOp<Eigen::internal::scalar_dummy_op<double, true>, const Eigen::Block<const Eigen::CwiseUnaryOp<Eigen::internal::scalar_abs2_op<double>, const Eigen::Matrix<double, -1, -1, 0>>, -1, -1, false>>>, Eigen::internal::assign_op<double, double>, 0>, Eigen::CoreThreadPoolDevice, 4, 0>::ScalarAssignmentFunctor" = type { %"class.Eigen::internal::generic_dense_assignment_kernel.204" }
%class.anon.205 = type <{ ptr, ptr, ptr, i64, i64, i64, i64, i32, [4 x i8] }>
%class.anon.207 = type <{ ptr, ptr, ptr, i64, i64, i64, i64, i32, [4 x i8] }>
%class.anon.209 = type <{ ptr, i64, i64, ptr, ptr, i32, [4 x i8] }>
%"class.Eigen::CwiseNullaryOp.269" = type { %"class.Eigen::internal::variable_if_dynamic.274", %"class.Eigen::internal::variable_if_dynamic.274", %"struct.Eigen::internal::scalar_random_op.276" }
%"class.Eigen::internal::variable_if_dynamic.274" = type { i8 }
%"struct.Eigen::internal::scalar_random_op.276" = type { i8 }
%"struct.Eigen::internal::assign_op.277" = type { i8 }
%"struct.Eigen::internal::evaluator.278" = type { %"struct.Eigen::internal::scalar_random_op.276", %"struct.Eigen::internal::nullary_wrapper.281" }
%"struct.Eigen::internal::nullary_wrapper.281" = type { i8 }
%"struct.Eigen::internal::evaluator.282" = type { %"struct.Eigen::internal::evaluator.283" }
%"struct.Eigen::internal::evaluator.283" = type { %"class.Eigen::internal::plainobjectbase_evaluator_data.286" }
%"class.Eigen::internal::plainobjectbase_evaluator_data.286" = type { ptr }
%"class.Eigen::internal::generic_dense_assignment_kernel.287" = type { ptr, ptr, ptr, ptr }
%"struct.Eigen::internal::evaluator.288" = type { %"struct.Eigen::internal::unary_evaluator.289" }
%"struct.Eigen::internal::unary_evaluator.289" = type { %"struct.Eigen::internal::unary_evaluator<Eigen::CwiseUnaryOp<Eigen::internal::scalar_dummy_op<float, false>, const Eigen::CwiseUnaryOp<Eigen::internal::scalar_abs2_op<float>, const Eigen::Matrix<float, 16, 16, 0>>>, Eigen::internal::IndexBased, float>::Data" }
%"struct.Eigen::internal::unary_evaluator<Eigen::CwiseUnaryOp<Eigen::internal::scalar_dummy_op<float, false>, const Eigen::CwiseUnaryOp<Eigen::internal::scalar_abs2_op<float>, const Eigen::Matrix<float, 16, 16, 0>>>, Eigen::internal::IndexBased, float>::Data" = type { %"struct.Eigen::internal::scalar_dummy_op.225", %"struct.Eigen::internal::evaluator.292" }
%"struct.Eigen::internal::evaluator.292" = type { %"struct.Eigen::internal::evaluator.293" }
%"struct.Eigen::internal::evaluator.293" = type { %"struct.Eigen::internal::unary_evaluator.294" }
%"struct.Eigen::internal::unary_evaluator.294" = type { %"struct.Eigen::internal::unary_evaluator<Eigen::CwiseUnaryOp<Eigen::internal::scalar_abs2_op<float>, const Eigen::Matrix<float, 16, 16, 0>>, Eigen::internal::IndexBased, float>::Data" }
%"struct.Eigen::internal::unary_evaluator<Eigen::CwiseUnaryOp<Eigen::internal::scalar_abs2_op<float>, const Eigen::Matrix<float, 16, 16, 0>>, Eigen::internal::IndexBased, float>::Data" = type { %"struct.Eigen::internal::scalar_abs2_op.217", %"struct.Eigen::internal::evaluator.297" }
%"struct.Eigen::internal::evaluator.297" = type { %"struct.Eigen::internal::evaluator.282" }
%"class.Eigen::internal::generic_dense_assignment_kernel.298" = type { ptr, ptr, ptr, ptr }
%"struct.Eigen::internal::dense_assignment_loop_with_device<Eigen::internal::generic_dense_assignment_kernel<Eigen::internal::evaluator<Eigen::Matrix<float, 16, 16, 0>>, Eigen::internal::evaluator<Eigen::CwiseUnaryOp<Eigen::internal::scalar_dummy_op<float, false>, const Eigen::CwiseUnaryOp<Eigen::internal::scalar_abs2_op<float>, const Eigen::Matrix<float, 16, 16, 0>>>>, Eigen::internal::assign_op<float, float>, 0>, Eigen::CoreThreadPoolDevice, 1, 0>::AssignmentFunctor" = type { %"class.Eigen::internal::generic_dense_assignment_kernel.298" }
%class.anon.299 = type <{ ptr, i64, i64, ptr, ptr, i32, [4 x i8] }>
%"class.Eigen::CwiseUnaryOp.303" = type { [8 x i8], %"class.Eigen::CwiseBinaryOp.309", %"struct.Eigen::internal::scalar_abs2_op.217", [7 x i8] }
%"class.Eigen::CwiseBinaryOp.309" = type <{ ptr, ptr, %"struct.Eigen::internal::scalar_difference_op.315", [7 x i8] }>
%"struct.Eigen::internal::scalar_difference_op.315" = type { i8 }
%"struct.std::equal_to.301" = type { i8 }
%"struct.Eigen::internal::scalar_sum_op.319" = type { i8 }
%"class.Eigen::internal::redux_evaluator.320" = type { %"struct.Eigen::internal::evaluator.321" }
%"struct.Eigen::internal::evaluator.321" = type { %"struct.Eigen::internal::unary_evaluator.322" }
%"struct.Eigen::internal::unary_evaluator.322" = type { %"struct.Eigen::internal::unary_evaluator<Eigen::CwiseUnaryOp<Eigen::internal::scalar_abs2_op<float>, const Eigen::CwiseBinaryOp<Eigen::internal::scalar_difference_op<float>, const Eigen::Matrix<float, 16, 16, 0>, const Eigen::Matrix<float, 16, 16, 0>>>, Eigen::internal::IndexBased, float>::Data" }
%"struct.Eigen::internal::unary_evaluator<Eigen::CwiseUnaryOp<Eigen::internal::scalar_abs2_op<float>, const Eigen::CwiseBinaryOp<Eigen::internal::scalar_difference_op<float>, const Eigen::Matrix<float, 16, 16, 0>, const Eigen::Matrix<float, 16, 16, 0>>>, Eigen::internal::IndexBased, float>::Data" = type { %"struct.Eigen::internal::scalar_abs2_op.217", %"struct.Eigen::internal::evaluator.325" }
%"struct.Eigen::internal::evaluator.325" = type { %"struct.Eigen::internal::evaluator.326" }
%"struct.Eigen::internal::evaluator.326" = type { %"struct.Eigen::internal::binary_evaluator.327" }
%"struct.Eigen::internal::binary_evaluator.327" = type { %"struct.Eigen::internal::binary_evaluator<Eigen::CwiseBinaryOp<Eigen::internal::scalar_difference_op<float>, const Eigen::Matrix<float, 16, 16, 0>, const Eigen::Matrix<float, 16, 16, 0>>, Eigen::internal::IndexBased, Eigen::internal::IndexBased, float, float>::Data" }
%"struct.Eigen::internal::binary_evaluator<Eigen::CwiseBinaryOp<Eigen::internal::scalar_difference_op<float>, const Eigen::Matrix<float, 16, 16, 0>, const Eigen::Matrix<float, 16, 16, 0>>, Eigen::internal::IndexBased, Eigen::internal::IndexBased, float, float>::Data" = type { %"struct.Eigen::internal::scalar_difference_op.315", %"struct.Eigen::internal::evaluator.297", %"struct.Eigen::internal::evaluator.297" }
%"class.Eigen::internal::redux_evaluator.330" = type { %"struct.Eigen::internal::evaluator.293" }
%"struct.Eigen::internal::evaluator.331" = type { %"struct.Eigen::internal::unary_evaluator.332" }
%"struct.Eigen::internal::unary_evaluator.332" = type { %"struct.Eigen::internal::unary_evaluator<Eigen::CwiseUnaryOp<Eigen::internal::scalar_dummy_op<float, true>, const Eigen::CwiseUnaryOp<Eigen::internal::scalar_abs2_op<float>, const Eigen::Matrix<float, 16, 16, 0>>>, Eigen::internal::IndexBased, float>::Data" }
%"struct.Eigen::internal::unary_evaluator<Eigen::CwiseUnaryOp<Eigen::internal::scalar_dummy_op<float, true>, const Eigen::CwiseUnaryOp<Eigen::internal::scalar_abs2_op<float>, const Eigen::Matrix<float, 16, 16, 0>>>, Eigen::internal::IndexBased, float>::Data" = type { %"struct.Eigen::internal::scalar_dummy_op.234", %"struct.Eigen::internal::evaluator.292" }
%"class.Eigen::internal::generic_dense_assignment_kernel.335" = type { ptr, ptr, ptr, ptr }
%"struct.Eigen::internal::dense_assignment_loop_with_device<Eigen::internal::generic_dense_assignment_kernel<Eigen::internal::evaluator<Eigen::Matrix<float, 16, 16, 0>>, Eigen::internal::evaluator<Eigen::CwiseUnaryOp<Eigen::internal::scalar_dummy_op<float, true>, const Eigen::CwiseUnaryOp<Eigen::internal::scalar_abs2_op<float>, const Eigen::Matrix<float, 16, 16, 0>>>>, Eigen::internal::assign_op<float, float>, 0>, Eigen::CoreThreadPoolDevice, 2, 0>::AssignmentFunctor" = type { %"class.Eigen::internal::generic_dense_assignment_kernel.335" }
%class.anon.336 = type <{ ptr, ptr, ptr, i64, i64, i64, i64, i32, [4 x i8] }>
%class.anon.338 = type <{ ptr, ptr, ptr, i64, i64, i64, i64, i32, [4 x i8] }>
%"struct.Eigen::internal::evaluator.340" = type { %"struct.Eigen::internal::unary_evaluator.341" }
%"struct.Eigen::internal::unary_evaluator.341" = type { %"struct.Eigen::internal::unary_evaluator<Eigen::CwiseUnaryOp<Eigen::internal::scalar_dummy_op<float, false>, const Eigen::Block<const Eigen::CwiseUnaryOp<Eigen::internal::scalar_abs2_op<float>, const Eigen::Matrix<float, 16, 16, 0>>, -1, -1, false>>, Eigen::internal::IndexBased, float>::Data" }
%"struct.Eigen::internal::unary_evaluator<Eigen::CwiseUnaryOp<Eigen::internal::scalar_dummy_op<float, false>, const Eigen::Block<const Eigen::CwiseUnaryOp<Eigen::internal::scalar_abs2_op<float>, const Eigen::Matrix<float, 16, 16, 0>>, -1, -1, false>>, Eigen::internal::IndexBased, float>::Data" = type { %"struct.Eigen::internal::scalar_dummy_op.225", %"struct.Eigen::internal::evaluator.344" }
%"struct.Eigen::internal::evaluator.344" = type { %"struct.Eigen::internal::evaluator.345" }
%"struct.Eigen::internal::evaluator.345" = type { %"struct.Eigen::internal::block_evaluator.346" }
%"struct.Eigen::internal::block_evaluator.346" = type { %"struct.Eigen::internal::unary_evaluator.347" }
%"struct.Eigen::internal::unary_evaluator.347" = type { %"struct.Eigen::internal::evaluator.292", %"class.Eigen::internal::variable_if_dynamic", %"class.Eigen::internal::variable_if_dynamic", %"class.Eigen::internal::variable_if_dynamic" }
%"struct.Eigen::internal::evaluator.350" = type { %"struct.Eigen::internal::block_evaluator.base", [6 x i8] }
%"struct.Eigen::internal::block_evaluator.base" = type { %"struct.Eigen::internal::mapbase_evaluator.base" }
%"struct.Eigen::internal::mapbase_evaluator.base" = type <{ ptr, %"class.Eigen::internal::variable_if_dynamic.157", %"class.Eigen::internal::variable_if_dynamic.274" }>
%"class.Eigen::internal::generic_dense_assignment_kernel.355" = type { ptr, ptr, ptr, ptr }
%"struct.Eigen::internal::mapbase_evaluator.352" = type <{ ptr, %"class.Eigen::internal::variable_if_dynamic.157", %"class.Eigen::internal::variable_if_dynamic.274", [6 x i8] }>
%"struct.Eigen::internal::dense_assignment_loop_with_device<Eigen::internal::generic_dense_assignment_kernel<Eigen::internal::evaluator<Eigen::Block<Eigen::Matrix<float, 16, 16, 0>, -1, -1, false>>, Eigen::internal::evaluator<Eigen::CwiseUnaryOp<Eigen::internal::scalar_dummy_op<float, false>, const Eigen::Block<const Eigen::CwiseUnaryOp<Eigen::internal::scalar_abs2_op<float>, const Eigen::Matrix<float, 16, 16, 0>>, -1, -1, false>>>, Eigen::internal::assign_op<float, float>, 0>, Eigen::CoreThreadPoolDevice, 0, 0>::AssignmentFunctor" = type { %"class.Eigen::internal::generic_dense_assignment_kernel.355" }
%class.anon.356 = type <{ ptr, ptr, ptr, i64, i64, i64, i64, i32, [4 x i8] }>
%class.anon.358 = type <{ ptr, ptr, ptr, i64, i64, i64, i64, i32, [4 x i8] }>
%"class.Eigen::CwiseUnaryOp.360" = type { [8 x i8], %"class.Eigen::CwiseBinaryOp.366", %"struct.Eigen::internal::scalar_abs2_op.217", [7 x i8] }
%"class.Eigen::CwiseBinaryOp.366" = type <{ %"class.Eigen::Block.250", %"class.Eigen::Block.250", %"struct.Eigen::internal::scalar_difference_op.315", [7 x i8] }>
%"class.Eigen::CwiseUnaryOp.374" = type <{ %"class.Eigen::Block.250", %"struct.Eigen::internal::scalar_abs2_op.217", [7 x i8] }>
%"class.Eigen::internal::redux_evaluator.381" = type { %"struct.Eigen::internal::evaluator.382" }
%"struct.Eigen::internal::evaluator.382" = type { %"struct.Eigen::internal::unary_evaluator.383" }
%"struct.Eigen::internal::unary_evaluator.383" = type { %"struct.Eigen::internal::unary_evaluator<Eigen::CwiseUnaryOp<Eigen::internal::scalar_abs2_op<float>, const Eigen::CwiseBinaryOp<Eigen::internal::scalar_difference_op<float>, const Eigen::Block<Eigen::Matrix<float, 16, 16, 0>, -1, -1, false>, const Eigen::Block<Eigen::Matrix<float, 16, 16, 0>, -1, -1, false>>>, Eigen::internal::IndexBased, float>::Data" }
%"struct.Eigen::internal::unary_evaluator<Eigen::CwiseUnaryOp<Eigen::internal::scalar_abs2_op<float>, const Eigen::CwiseBinaryOp<Eigen::internal::scalar_difference_op<float>, const Eigen::Block<Eigen::Matrix<float, 16, 16, 0>, -1, -1, false>, const Eigen::Block<Eigen::Matrix<float, 16, 16, 0>, -1, -1, false>>>, Eigen::internal::IndexBased, float>::Data" = type { %"struct.Eigen::internal::scalar_abs2_op.217", [7 x i8], %"struct.Eigen::internal::evaluator.386" }
%"struct.Eigen::internal::evaluator.386" = type { %"struct.Eigen::internal::evaluator.387" }
%"struct.Eigen::internal::evaluator.387" = type { %"struct.Eigen::internal::binary_evaluator.388" }
%"struct.Eigen::internal::binary_evaluator.388" = type { %"struct.Eigen::internal::binary_evaluator<Eigen::CwiseBinaryOp<Eigen::internal::scalar_difference_op<float>, const Eigen::Block<Eigen::Matrix<float, 16, 16, 0>, -1, -1, false>, const Eigen::Block<Eigen::Matrix<float, 16, 16, 0>, -1, -1, false>>, Eigen::internal::IndexBased, Eigen::internal::IndexBased, float, float>::Data" }
%"struct.Eigen::internal::binary_evaluator<Eigen::CwiseBinaryOp<Eigen::internal::scalar_difference_op<float>, const Eigen::Block<Eigen::Matrix<float, 16, 16, 0>, -1, -1, false>, const Eigen::Block<Eigen::Matrix<float, 16, 16, 0>, -1, -1, false>>, Eigen::internal::IndexBased, Eigen::internal::IndexBased, float, float>::Data" = type { %"struct.Eigen::internal::scalar_difference_op.315", [7 x i8], %"struct.Eigen::internal::evaluator.391", %"struct.Eigen::internal::evaluator.391" }
%"struct.Eigen::internal::evaluator.391" = type { %"struct.Eigen::internal::evaluator.base", [6 x i8] }
%"struct.Eigen::internal::evaluator.base" = type { %"struct.Eigen::internal::block_evaluator.base" }
%"class.Eigen::internal::redux_evaluator.393" = type { %"struct.Eigen::internal::evaluator.394" }
%"struct.Eigen::internal::evaluator.394" = type { %"struct.Eigen::internal::unary_evaluator.395" }
%"struct.Eigen::internal::unary_evaluator.395" = type { %"struct.Eigen::internal::unary_evaluator<Eigen::CwiseUnaryOp<Eigen::internal::scalar_abs2_op<float>, const Eigen::Block<Eigen::Matrix<float, 16, 16, 0>, -1, -1, false>>, Eigen::internal::IndexBased, float>::Data" }
%"struct.Eigen::internal::unary_evaluator<Eigen::CwiseUnaryOp<Eigen::internal::scalar_abs2_op<float>, const Eigen::Block<Eigen::Matrix<float, 16, 16, 0>, -1, -1, false>>, Eigen::internal::IndexBased, float>::Data" = type { %"struct.Eigen::internal::scalar_abs2_op.217", [7 x i8], %"struct.Eigen::internal::evaluator.391" }
%"struct.Eigen::internal::evaluator.398" = type { %"struct.Eigen::internal::unary_evaluator.399" }
%"struct.Eigen::internal::unary_evaluator.399" = type { %"struct.Eigen::internal::unary_evaluator<Eigen::CwiseUnaryOp<Eigen::internal::scalar_dummy_op<float, true>, const Eigen::Block<const Eigen::CwiseUnaryOp<Eigen::internal::scalar_abs2_op<float>, const Eigen::Matrix<float, 16, 16, 0>>, -1, -1, false>>, Eigen::internal::IndexBased, float>::Data" }
%"struct.Eigen::internal::unary_evaluator<Eigen::CwiseUnaryOp<Eigen::internal::scalar_dummy_op<float, true>, const Eigen::Block<const Eigen::CwiseUnaryOp<Eigen::internal::scalar_abs2_op<float>, const Eigen::Matrix<float, 16, 16, 0>>, -1, -1, false>>, Eigen::internal::IndexBased, float>::Data" = type { %"struct.Eigen::internal::scalar_dummy_op.234", %"struct.Eigen::internal::evaluator.344" }
%"class.Eigen::internal::generic_dense_assignment_kernel.402" = type { ptr, ptr, ptr, ptr }
%"struct.Eigen::internal::dense_assignment_loop_with_device<Eigen::internal::generic_dense_assignment_kernel<Eigen::internal::evaluator<Eigen::Block<Eigen::Matrix<float, 16, 16, 0>, -1, -1, false>>, Eigen::internal::evaluator<Eigen::CwiseUnaryOp<Eigen::internal::scalar_dummy_op<float, true>, const Eigen::Block<const Eigen::CwiseUnaryOp<Eigen::internal::scalar_abs2_op<float>, const Eigen::Matrix<float, 16, 16, 0>>, -1, -1, false>>>, Eigen::internal::assign_op<float, float>, 0>, Eigen::CoreThreadPoolDevice, 4, 0>::PacketAssignmentFunctor" = type { %"class.Eigen::internal::generic_dense_assignment_kernel.402" }
%"struct.Eigen::internal::dense_assignment_loop_with_device<Eigen::internal::generic_dense_assignment_kernel<Eigen::internal::evaluator<Eigen::Block<Eigen::Matrix<float, 16, 16, 0>, -1, -1, false>>, Eigen::internal::evaluator<Eigen::CwiseUnaryOp<Eigen::internal::scalar_dummy_op<float, true>, const Eigen::Block<const Eigen::CwiseUnaryOp<Eigen::internal::scalar_abs2_op<float>, const Eigen::Matrix<float, 16, 16, 0>>, -1, -1, false>>>, Eigen::internal::assign_op<float, float>, 0>, Eigen::CoreThreadPoolDevice, 4, 0>::ScalarAssignmentFunctor" = type { %"class.Eigen::internal::generic_dense_assignment_kernel.402" }
%class.anon.403 = type <{ ptr, ptr, ptr, i64, i64, i64, i64, i32, [4 x i8] }>
%class.anon.405 = type <{ ptr, ptr, ptr, i64, i64, i64, i64, i32, [4 x i8] }>
%class.anon.407 = type <{ ptr, i64, i64, ptr, ptr, i32, [4 x i8] }>

$_ZNSt6vectorINSt7__cxx1112basic_stringIcSt11char_traitsIcESaIcEEESaIS5_EEC2Ev = comdat any

$_ZNSt6vectorINSt7__cxx1112basic_stringIcSt11char_traitsIcESaIcEEESaIS5_EED2Ev = comdat any

$_Z22set_repeat_from_stringPKc = comdat any

$_Z20set_seed_from_stringPKc = comdat any

$_ZNSt6vectorINSt7__cxx1112basic_stringIcSt11char_traitsIcESaIcEEESaIS5_EE9push_backEOS5_ = comdat any

$_Z11verify_implbPKcS0_iS0_ = comdat any

$_ZN5Eigen9EigenTest3allEv = comdat any

$_ZNKSt6vectorIPN5Eigen9EigenTestESaIS2_EE4sizeEv = comdat any

$_ZNSt6vectorINSt7__cxx1112basic_stringIcSt11char_traitsIcESaIcEEESaIS5_EE4backEv = comdat any

$_ZNKSt6vectorIPN5Eigen9EigenTestESaIS2_EEixEm = comdat any

$_ZNSt6vectorINSt7__cxx1112basic_stringIcSt11char_traitsIcESaIcEEESaIS5_EE9push_backERKS5_ = comdat any

$_ZNK5Eigen9EigenTest4nameB5cxx11Ev = comdat any

$_ZNK5Eigen9EigenTestclEv = comdat any

$_ZNSt6vectorINSt7__cxx1112basic_stringIcSt11char_traitsIcESaIcEEESaIS5_EE8pop_backEv = comdat any

$_ZN5Eigen9EigenTestC2EPKcPFvvE = comdat any

$_ZN5Eigen9EigenTestD2Ev = comdat any

$_Z24test_threaded_assignmentIN5Eigen6MatrixIdLin1ELin1ELi0ELin1ELin1EEEEvRKT_ll = comdat any

$_ZN5Eigen6MatrixIdLin1ELin1ELi0ELin1ELin1EEC2Ev = comdat any

$_ZN5Eigen6MatrixIdLin1ELin1ELi0ELin1ELin1EED2Ev = comdat any

$_Z24test_threaded_assignmentIN5Eigen6MatrixIfLi16ELi16ELi0ELi16ELi16EEEEvRKT_ll = comdat any

$_ZN5Eigen6MatrixIfLi16ELi16ELi0ELi16ELi16EEC2Ev = comdat any

$_ZNSt12_Vector_baseINSt7__cxx1112basic_stringIcSt11char_traitsIcESaIcEEESaIS5_EEC2Ev = comdat any

$_ZNSt12_Vector_baseINSt7__cxx1112basic_stringIcSt11char_traitsIcESaIcEEESaIS5_EE12_Vector_implC2Ev = comdat any

$_ZNSaINSt7__cxx1112basic_stringIcSt11char_traitsIcESaIcEEEEC2Ev = comdat any

$_ZNSt12_Vector_baseINSt7__cxx1112basic_stringIcSt11char_traitsIcESaIcEEESaIS5_EE17_Vector_impl_dataC2Ev = comdat any

$_ZNSt15__new_allocatorINSt7__cxx1112basic_stringIcSt11char_traitsIcESaIcEEEEC2Ev = comdat any

$_ZNKSt6vectorINSt7__cxx1112basic_stringIcSt11char_traitsIcESaIcEEESaIS5_EE4sizeEv = comdat any

$_ZNSt6vectorINSt7__cxx1112basic_stringIcSt11char_traitsIcESaIcEEESaIS5_EEixEm = comdat any

$_ZN5Eigen9EigenTest20get_registered_testsEv = comdat any

$_ZNSt6vectorIPN5Eigen9EigenTestESaIS2_EEC2Ev = comdat any

$_ZNSt12_Vector_baseIPN5Eigen9EigenTestESaIS2_EEC2Ev = comdat any

$_ZNSt12_Vector_baseIPN5Eigen9EigenTestESaIS2_EE12_Vector_implC2Ev = comdat any

$_ZNSaIPN5Eigen9EigenTestEEC2Ev = comdat any

$_ZNSt12_Vector_baseIPN5Eigen9EigenTestESaIS2_EE17_Vector_impl_dataC2Ev = comdat any

$_ZNSt15__new_allocatorIPN5Eigen9EigenTestEEC2Ev = comdat any

$_ZNSt6vectorIPN5Eigen9EigenTestESaIS2_EE9push_backEOS2_ = comdat any

$_ZNSt6vectorIPN5Eigen9EigenTestESaIS2_EE12emplace_backIJS2_EEEvDpOT_ = comdat any

$_ZNSt16allocator_traitsISaIPN5Eigen9EigenTestEEE9constructIS2_JS2_EEEvRS3_PT_DpOT0_ = comdat any

$_ZNSt6vectorIPN5Eigen9EigenTestESaIS2_EE17_M_realloc_insertIJS2_EEEvN9__gnu_cxx17__normal_iteratorIPS2_S4_EEDpOT_ = comdat any

$_ZNSt6vectorIPN5Eigen9EigenTestESaIS2_EE3endEv = comdat any

$_ZNSt15__new_allocatorIPN5Eigen9EigenTestEE9constructIS2_JS2_EEEvPT_DpOT0_ = comdat any

$_ZNKSt6vectorIPN5Eigen9EigenTestESaIS2_EE12_M_check_lenEmPKc = comdat any

$_ZN9__gnu_cxxmiIPPN5Eigen9EigenTestESt6vectorIS3_SaIS3_EEEENS_17__normal_iteratorIT_T0_E15difference_typeERKSB_SE_ = comdat any

$_ZNSt6vectorIPN5Eigen9EigenTestESaIS2_EE5beginEv = comdat any

$_ZNSt12_Vector_baseIPN5Eigen9EigenTestESaIS2_EE11_M_allocateEm = comdat any

$_ZNSt6vectorIPN5Eigen9EigenTestESaIS2_EE11_S_relocateEPS2_S5_S5_RS3_ = comdat any

$_ZNK9__gnu_cxx17__normal_iteratorIPPN5Eigen9EigenTestESt6vectorIS3_SaIS3_EEE4baseEv = comdat any

$_ZNSt12_Vector_baseIPN5Eigen9EigenTestESaIS2_EE19_M_get_Tp_allocatorEv = comdat any

$_ZNSt12_Vector_baseIPN5Eigen9EigenTestESaIS2_EE13_M_deallocateEPS2_m = comdat any

$_ZNKSt6vectorIPN5Eigen9EigenTestESaIS2_EE8max_sizeEv = comdat any

$_ZSt3maxImERKT_S2_S2_ = comdat any

$_ZNSt6vectorIPN5Eigen9EigenTestESaIS2_EE11_S_max_sizeERKS3_ = comdat any

$_ZNKSt12_Vector_baseIPN5Eigen9EigenTestESaIS2_EE19_M_get_Tp_allocatorEv = comdat any

$_ZNSt16allocator_traitsISaIPN5Eigen9EigenTestEEE8max_sizeERKS3_ = comdat any

$_ZSt3minImERKT_S2_S2_ = comdat any

$__clang_call_terminate = comdat any

$_ZNKSt15__new_allocatorIPN5Eigen9EigenTestEE8max_sizeEv = comdat any

$_ZNKSt15__new_allocatorIPN5Eigen9EigenTestEE11_M_max_sizeEv = comdat any

$_ZN9__gnu_cxx17__normal_iteratorIPPN5Eigen9EigenTestESt6vectorIS3_SaIS3_EEEC2ERKS4_ = comdat any

$_ZNSt16allocator_traitsISaIPN5Eigen9EigenTestEEE8allocateERS3_m = comdat any

$_ZNSt15__new_allocatorIPN5Eigen9EigenTestEE8allocateEmPKv = comdat any

$_ZNSt6vectorIPN5Eigen9EigenTestESaIS2_EE14_S_do_relocateEPS2_S5_S5_RS3_St17integral_constantIbLb1EE = comdat any

$_ZSt12__relocate_aIPPN5Eigen9EigenTestES3_SaIS2_EET0_T_S6_S5_RT1_ = comdat any

$_ZSt14__relocate_a_1IPN5Eigen9EigenTestES2_ENSt9enable_ifIXsr3std24__is_bitwise_relocatableIT_EE5valueEPS4_E4typeES5_S5_S5_RSaIT0_E = comdat any

$_ZSt12__niter_baseIPPN5Eigen9EigenTestEET_S4_ = comdat any

$_ZNSt16allocator_traitsISaIPN5Eigen9EigenTestEEE10deallocateERS3_PS2_m = comdat any

$_ZNSt15__new_allocatorIPN5Eigen9EigenTestEE10deallocateEPS2_m = comdat any

$_ZN5Eigen15PlainObjectBaseINS_6MatrixIdLin1ELin1ELi0ELin1ELin1EEEEC2Ev = comdat any

$_ZN5Eigen10MatrixBaseINS_6MatrixIdLin1ELin1ELi0ELin1ELin1EEEEC2Ev = comdat any

$_ZN5Eigen12DenseStorageIdLin1ELin1ELin1ELi0ELb1EEC2Ev = comdat any

$_ZN5Eigen9DenseBaseINS_6MatrixIdLin1ELin1ELi0ELin1ELin1EEEEC2Ev = comdat any

$_ZN5Eigen8internal17DenseStorage_implIdLin1ELin1ELin1ELi0EEC2Ev = comdat any

$_ZN5Eigen15PlainObjectBaseINS_6MatrixIdLin1ELin1ELi0ELin1ELin1EEEED2Ev = comdat any

$_ZN5Eigen12DenseStorageIdLin1ELin1ELin1ELi0ELb1EED2Ev = comdat any

$_ZN5Eigen8internal17DenseStorage_implIdLin1ELin1ELin1ELi0EED2Ev = comdat any

$_ZN5Eigen8internal31conditional_aligned_delete_autoIdLb1EEEvPT_m = comdat any

$_ZNK5Eigen8internal17DenseStorage_implIdLin1ELin1ELin1ELi0EE4sizeEv = comdat any

$_ZN5Eigen8internal24conditional_aligned_freeILb1EEEvPv = comdat any

$_ZN5Eigen8internal12aligned_freeEPv = comdat any

$_ZN5Eigen8internal28check_that_malloc_is_allowedEv = comdat any

$_ZN5Eigen15PlainObjectBaseINS_6MatrixIfLi16ELi16ELi0ELi16ELi16EEEEC2Ev = comdat any

$_ZN5Eigen10MatrixBaseINS_6MatrixIfLi16ELi16ELi0ELi16ELi16EEEEC2Ev = comdat any

$_ZN5Eigen12DenseStorageIfLi256ELi16ELi16ELi0ELb1EEC2Ev = comdat any

$_ZN5Eigen9DenseBaseINS_6MatrixIfLi16ELi16ELi0ELi16ELi16EEEEC2Ev = comdat any

$_ZN5Eigen8internal17DenseStorage_implIfLi256ELi16ELi16ELi0EEC2Ev = comdat any

$_ZN5Eigen8internal11plain_arrayIfLi256ELi0ELi16EEC2Ev = comdat any

$_ZN5Eigen22eigen_assert_exceptionC2Ev = comdat any

$_ZN5Eigen22eigen_assert_exceptionD2Ev = comdat any

$_ZSt8_DestroyIPNSt7__cxx1112basic_stringIcSt11char_traitsIcESaIcEEES5_EvT_S7_RSaIT0_E = comdat any

$_ZNSt12_Vector_baseINSt7__cxx1112basic_stringIcSt11char_traitsIcESaIcEEESaIS5_EE19_M_get_Tp_allocatorEv = comdat any

$_ZNSt12_Vector_baseINSt7__cxx1112basic_stringIcSt11char_traitsIcESaIcEEESaIS5_EED2Ev = comdat any

$_ZSt8_DestroyIPNSt7__cxx1112basic_stringIcSt11char_traitsIcESaIcEEEEvT_S7_ = comdat any

$_ZNSt12_Destroy_auxILb0EE9__destroyIPNSt7__cxx1112basic_stringIcSt11char_traitsIcESaIcEEEEEvT_S9_ = comdat any

$_ZSt8_DestroyINSt7__cxx1112basic_stringIcSt11char_traitsIcESaIcEEEEvPT_ = comdat any

$_ZNSt12_Vector_baseINSt7__cxx1112basic_stringIcSt11char_traitsIcESaIcEEESaIS5_EE13_M_deallocateEPS5_m = comdat any

$_ZNSt12_Vector_baseINSt7__cxx1112basic_stringIcSt11char_traitsIcESaIcEEESaIS5_EE12_Vector_implD2Ev = comdat any

$_ZNSt16allocator_traitsISaINSt7__cxx1112basic_stringIcSt11char_traitsIcESaIcEEEEE10deallocateERS6_PS5_m = comdat any

$_ZNSt15__new_allocatorINSt7__cxx1112basic_stringIcSt11char_traitsIcESaIcEEEE10deallocateEPS5_m = comdat any

$_ZNSaINSt7__cxx1112basic_stringIcSt11char_traitsIcESaIcEEEED2Ev = comdat any

$_ZNSt15__new_allocatorINSt7__cxx1112basic_stringIcSt11char_traitsIcESaIcEEEED2Ev = comdat any

$_ZNSt6vectorINSt7__cxx1112basic_stringIcSt11char_traitsIcESaIcEEESaIS5_EE12emplace_backIJS5_EEEvDpOT_ = comdat any

$_ZNSt16allocator_traitsISaINSt7__cxx1112basic_stringIcSt11char_traitsIcESaIcEEEEE9constructIS5_JS5_EEEvRS6_PT_DpOT0_ = comdat any

$_ZNSt6vectorINSt7__cxx1112basic_stringIcSt11char_traitsIcESaIcEEESaIS5_EE17_M_realloc_insertIJS5_EEEvN9__gnu_cxx17__normal_iteratorIPS5_S7_EEDpOT_ = comdat any

$_ZNSt6vectorINSt7__cxx1112basic_stringIcSt11char_traitsIcESaIcEEESaIS5_EE3endEv = comdat any

$_ZNSt15__new_allocatorINSt7__cxx1112basic_stringIcSt11char_traitsIcESaIcEEEE9constructIS5_JS5_EEEvPT_DpOT0_ = comdat any

$_ZNKSt6vectorINSt7__cxx1112basic_stringIcSt11char_traitsIcESaIcEEESaIS5_EE12_M_check_lenEmPKc = comdat any

$_ZN9__gnu_cxxmiIPNSt7__cxx1112basic_stringIcSt11char_traitsIcESaIcEEESt6vectorIS6_SaIS6_EEEENS_17__normal_iteratorIT_T0_E15difference_typeERKSE_SH_ = comdat any

$_ZNSt6vectorINSt7__cxx1112basic_stringIcSt11char_traitsIcESaIcEEESaIS5_EE5beginEv = comdat any

$_ZNSt12_Vector_baseINSt7__cxx1112basic_stringIcSt11char_traitsIcESaIcEEESaIS5_EE11_M_allocateEm = comdat any

$_ZNSt6vectorINSt7__cxx1112basic_stringIcSt11char_traitsIcESaIcEEESaIS5_EE11_S_relocateEPS5_S8_S8_RS6_ = comdat any

$_ZNK9__gnu_cxx17__normal_iteratorIPNSt7__cxx1112basic_stringIcSt11char_traitsIcESaIcEEESt6vectorIS6_SaIS6_EEE4baseEv = comdat any

$_ZNKSt6vectorINSt7__cxx1112basic_stringIcSt11char_traitsIcESaIcEEESaIS5_EE8max_sizeEv = comdat any

$_ZNSt6vectorINSt7__cxx1112basic_stringIcSt11char_traitsIcESaIcEEESaIS5_EE11_S_max_sizeERKS6_ = comdat any

$_ZNKSt12_Vector_baseINSt7__cxx1112basic_stringIcSt11char_traitsIcESaIcEEESaIS5_EE19_M_get_Tp_allocatorEv = comdat any

$_ZNSt16allocator_traitsISaINSt7__cxx1112basic_stringIcSt11char_traitsIcESaIcEEEEE8max_sizeERKS6_ = comdat any

$_ZNKSt15__new_allocatorINSt7__cxx1112basic_stringIcSt11char_traitsIcESaIcEEEE8max_sizeEv = comdat any

$_ZNKSt15__new_allocatorINSt7__cxx1112basic_stringIcSt11char_traitsIcESaIcEEEE11_M_max_sizeEv = comdat any

$_ZN9__gnu_cxx17__normal_iteratorIPNSt7__cxx1112basic_stringIcSt11char_traitsIcESaIcEEESt6vectorIS6_SaIS6_EEEC2ERKS7_ = comdat any

$_ZNSt16allocator_traitsISaINSt7__cxx1112basic_stringIcSt11char_traitsIcESaIcEEEEE8allocateERS6_m = comdat any

$_ZNSt15__new_allocatorINSt7__cxx1112basic_stringIcSt11char_traitsIcESaIcEEEE8allocateEmPKv = comdat any

$_ZNSt6vectorINSt7__cxx1112basic_stringIcSt11char_traitsIcESaIcEEESaIS5_EE14_S_do_relocateEPS5_S8_S8_RS6_St17integral_constantIbLb1EE = comdat any

$_ZSt12__relocate_aIPNSt7__cxx1112basic_stringIcSt11char_traitsIcESaIcEEES6_SaIS5_EET0_T_S9_S8_RT1_ = comdat any

$_ZSt14__relocate_a_1IPNSt7__cxx1112basic_stringIcSt11char_traitsIcESaIcEEES6_SaIS5_EET0_T_S9_S8_RT1_ = comdat any

$_ZSt12__niter_baseIPNSt7__cxx1112basic_stringIcSt11char_traitsIcESaIcEEEET_S7_ = comdat any

$_ZSt19__relocate_object_aINSt7__cxx1112basic_stringIcSt11char_traitsIcESaIcEEES5_SaIS5_EEvPT_PT0_RT1_ = comdat any

$_ZNSt16allocator_traitsISaINSt7__cxx1112basic_stringIcSt11char_traitsIcESaIcEEEEE7destroyIS5_EEvRS6_PT_ = comdat any

$_ZNSt15__new_allocatorINSt7__cxx1112basic_stringIcSt11char_traitsIcESaIcEEEE7destroyIS5_EEvPT_ = comdat any

$_ZNK9__gnu_cxx17__normal_iteratorIPNSt7__cxx1112basic_stringIcSt11char_traitsIcESaIcEEESt6vectorIS6_SaIS6_EEEmiEl = comdat any

$_ZNK9__gnu_cxx17__normal_iteratorIPNSt7__cxx1112basic_stringIcSt11char_traitsIcESaIcEEESt6vectorIS6_SaIS6_EEEdeEv = comdat any

$_ZNSt16allocator_traitsISaINSt7__cxx1112basic_stringIcSt11char_traitsIcESaIcEEEEE9constructIS5_JRKS5_EEEvRS6_PT_DpOT0_ = comdat any

$_ZNSt6vectorINSt7__cxx1112basic_stringIcSt11char_traitsIcESaIcEEESaIS5_EE17_M_realloc_insertIJRKS5_EEEvN9__gnu_cxx17__normal_iteratorIPS5_S7_EEDpOT_ = comdat any

$_ZNSt15__new_allocatorINSt7__cxx1112basic_stringIcSt11char_traitsIcESaIcEEEE9constructIS5_JRKS5_EEEvPT_DpOT0_ = comdat any

$_ZN5Eigen15ThreadPoolTemplINS_20StlThreadEnvironmentEEC2EiS1_ = comdat any

$_ZN5Eigen20CoreThreadPoolDeviceC2ERNS_15ThreadPoolTemplINS_20StlThreadEnvironmentEEEf = comdat any

$_ZN5Eigen6MatrixIdLin1ELin1ELi0ELin1ELin1EEC2IllEERKT_RKT0_ = comdat any

$_ZN5Eigen9DenseBaseINS_6MatrixIdLin1ELin1ELi0ELin1ELin1EEEE9setRandomEv = comdat any

$_ZNK5Eigen10MatrixBaseINS_6MatrixIdLin1ELin1ELi0ELin1ELin1EEEE9cwiseAbs2Ev = comdat any

$_ZNK5Eigen9DenseBaseINS_12CwiseUnaryOpINS_8internal14scalar_abs2_opIdEEKNS_6MatrixIdLin1ELin1ELi0ELin1ELin1EEEEEE9unaryExprINS2_15scalar_dummy_opIdLb0EEEEEKNS1_IT_KS8_EERKSD_ = comdat any

$_ZN5Eigen6MatrixIdLin1ELin1ELi0ELin1ELin1EEaSINS_12CwiseUnaryOpINS_8internal15scalar_dummy_opIdLb0EEEKNS3_INS4_14scalar_abs2_opIdEEKS1_EEEEEERS1_RKNS_9DenseBaseIT_EE = comdat any

$_ZN5Eigen9EigenBaseINS_6MatrixIdLin1ELin1ELi0ELin1ELin1EEEE6deviceINS_20CoreThreadPoolDeviceEEENS_13DeviceWrapperIS2_T_EERS7_ = comdat any

$_ZN5Eigen13DeviceWrapperINS_6MatrixIdLin1ELin1ELi0ELin1ELin1EEENS_20CoreThreadPoolDeviceEEaSINS_12CwiseUnaryOpINS_8internal15scalar_dummy_opIdLb0EEEKNS6_INS7_14scalar_abs2_opIdEEKS2_EEEEEERS2_RKNS_9EigenBaseIT_EE = comdat any

$_ZN5Eigen19verifyIsCwiseApproxINS_6MatrixIdLin1ELin1ELi0ELin1ELin1EEES2_EEbRKT_RKT0_b = comdat any

$_ZNK5Eigen9DenseBaseINS_12CwiseUnaryOpINS_8internal14scalar_abs2_opIdEEKNS_6MatrixIdLin1ELin1ELi0ELin1ELin1EEEEEE9unaryExprINS2_15scalar_dummy_opIdLb1EEEEEKNS1_IT_KS8_EERKSD_ = comdat any

$_ZN5Eigen6MatrixIdLin1ELin1ELi0ELin1ELin1EEaSINS_12CwiseUnaryOpINS_8internal15scalar_dummy_opIdLb1EEEKNS3_INS4_14scalar_abs2_opIdEEKS1_EEEEEERS1_RKNS_9DenseBaseIT_EE = comdat any

$_ZN5Eigen13DeviceWrapperINS_6MatrixIdLin1ELin1ELi0ELin1ELin1EEENS_20CoreThreadPoolDeviceEEaSINS_12CwiseUnaryOpINS_8internal15scalar_dummy_opIdLb1EEEKNS6_INS7_14scalar_abs2_opIdEEKS2_EEEEEERS2_RKNS_9EigenBaseIT_EE = comdat any

$_ZNK5Eigen9DenseBaseINS_12CwiseUnaryOpINS_8internal14scalar_abs2_opIdEEKNS_6MatrixIdLin1ELin1ELi0ELin1ELin1EEEEEE17bottomRightCornerIllEEKNS9_18ConstFixedBlockXprIXsr8internal15get_fixed_valueIT_EE5valueEXsr8internal15get_fixed_valueIT0_EE5valueEE4TypeESC_SD_ = comdat any

$_ZNK5Eigen9DenseBaseINS_5BlockIKNS_12CwiseUnaryOpINS_8internal14scalar_abs2_opIdEEKNS_6MatrixIdLin1ELin1ELi0ELin1ELin1EEEEELin1ELin1ELb0EEEE9unaryExprINS3_15scalar_dummy_opIdLb0EEEEEKNS2_IT_KSB_EERKSG_ = comdat any

$_ZN5Eigen9DenseBaseINS_6MatrixIdLin1ELin1ELi0ELin1ELin1EEEE17bottomRightCornerIllEENS3_13FixedBlockXprIXsr8internal15get_fixed_valueIT_EE5valueEXsr8internal15get_fixed_valueIT0_EE5valueEE4TypeES6_S7_ = comdat any

$_ZN5Eigen5BlockINS_6MatrixIdLin1ELin1ELi0ELin1ELin1EEELin1ELin1ELb0EEaSINS_12CwiseUnaryOpINS_8internal15scalar_dummy_opIdLb0EEEKNS0_IKNS5_INS6_14scalar_abs2_opIdEEKS2_EELin1ELin1ELb0EEEEEEERS3_RKNS_9DenseBaseIT_EE = comdat any

$_ZN5Eigen9EigenBaseINS_5BlockINS_6MatrixIdLin1ELin1ELi0ELin1ELin1EEELin1ELin1ELb0EEEE6deviceINS_20CoreThreadPoolDeviceEEENS_13DeviceWrapperIS4_T_EERS9_ = comdat any

$_ZN5Eigen13DeviceWrapperINS_5BlockINS_6MatrixIdLin1ELin1ELi0ELin1ELin1EEELin1ELin1ELb0EEENS_20CoreThreadPoolDeviceEEaSINS_12CwiseUnaryOpINS_8internal15scalar_dummy_opIdLb0EEEKNS1_IKNS8_INS9_14scalar_abs2_opIdEEKS3_EELin1ELin1ELb0EEEEEEERS4_RKNS_9EigenBaseIT_EE = comdat any

$_ZN5Eigen19verifyIsCwiseApproxINS_5BlockINS_6MatrixIdLin1ELin1ELi0ELin1ELin1EEELin1ELin1ELb0EEES4_EEbRKT_RKT0_b = comdat any

$_ZN5Eigen9DenseBaseINS_6MatrixIdLin1ELin1ELi0ELin1ELin1EEEE7setZeroEv = comdat any

$_ZNK5Eigen9DenseBaseINS_5BlockIKNS_12CwiseUnaryOpINS_8internal14scalar_abs2_opIdEEKNS_6MatrixIdLin1ELin1ELi0ELin1ELin1EEEEELin1ELin1ELb0EEEE9unaryExprINS3_15scalar_dummy_opIdLb1EEEEEKNS2_IT_KSB_EERKSG_ = comdat any

$_ZN5Eigen5BlockINS_6MatrixIdLin1ELin1ELi0ELin1ELin1EEELin1ELin1ELb0EEaSINS_12CwiseUnaryOpINS_8internal15scalar_dummy_opIdLb1EEEKNS0_IKNS5_INS6_14scalar_abs2_opIdEEKS2_EELin1ELin1ELb0EEEEEEERS3_RKNS_9DenseBaseIT_EE = comdat any

$_ZN5Eigen13DeviceWrapperINS_5BlockINS_6MatrixIdLin1ELin1ELi0ELin1ELin1EEELin1ELin1ELb0EEENS_20CoreThreadPoolDeviceEEaSINS_12CwiseUnaryOpINS_8internal15scalar_dummy_opIdLb1EEEKNS1_IKNS8_INS9_14scalar_abs2_opIdEEKS3_EELin1ELin1ELb0EEEEEEERS4_RKNS_9EigenBaseIT_EE = comdat any

$_ZN5Eigen15ThreadPoolTemplINS_20StlThreadEnvironmentEED2Ev = comdat any

$_ZN5Eigen15ThreadPoolTemplINS_20StlThreadEnvironmentEEC2EibS1_ = comdat any

$_ZN5Eigen19ThreadPoolInterfaceC2Ev = comdat any

$_ZN5Eigen13MaxSizeVectorINS_15ThreadPoolTemplINS_20StlThreadEnvironmentEE10ThreadDataEEC2Em = comdat any

$_ZN5Eigen13MaxSizeVectorINS0_IjEEEC2Em = comdat any

$_ZN5Eigen13MaxSizeVectorINS_10EventCount6WaiterEEC2Em = comdat any

$_ZN5Eigen15ThreadPoolTemplINS_20StlThreadEnvironmentEE15EncodePartitionEjj = comdat any

$_ZNSt6atomicImEC2Em = comdat any

$_ZNSt6atomicIjEC2Ej = comdat any

$_ZNSt6atomicIbEC2Eb = comdat any

$_ZN5Eigen10EventCountC2ERNS_13MaxSizeVectorINS0_6WaiterEEE = comdat any

$_ZN5Eigen13MaxSizeVectorINS_10EventCount6WaiterEE6resizeEm = comdat any

$_ZN5Eigen13MaxSizeVectorINS0_IjEEE12emplace_backIiEEvRKT_ = comdat any

$_ZN5Eigen15ThreadPoolTemplINS_20StlThreadEnvironmentEE15ComputeCoprimesEiPNS_13MaxSizeVectorIjEE = comdat any

$_ZN5Eigen13MaxSizeVectorINS0_IjEEE4backEv = comdat any

$_ZN5Eigen13MaxSizeVectorINS_15ThreadPoolTemplINS_20StlThreadEnvironmentEE10ThreadDataEE6resizeEm = comdat any

$_ZN5Eigen15ThreadPoolTemplINS_20StlThreadEnvironmentEE17SetStealPartitionEmj = comdat any

$_ZN5Eigen13MaxSizeVectorINS_15ThreadPoolTemplINS_20StlThreadEnvironmentEE10ThreadDataEEixEm = comdat any

$_ZNSt10unique_ptrIN5Eigen20StlThreadEnvironment9EnvThreadESt14default_deleteIS2_EE5resetEPS2_ = comdat any

$_ZN5Eigen20StlThreadEnvironment12CreateThreadESt8functionIFvvEE = comdat any

$_ZNSt8functionIFvvEEC2IZN5Eigen15ThreadPoolTemplINS3_20StlThreadEnvironmentEEC1EibS5_EUlvE_vEEOT_ = comdat any

$_ZNSt8functionIFvvEED2Ev = comdat any

$_ZN5Eigen10EventCountD2Ev = comdat any

$_ZN5Eigen13MaxSizeVectorINS_10EventCount6WaiterEED2Ev = comdat any

$_ZN5Eigen13MaxSizeVectorINS0_IjEEED2Ev = comdat any

$_ZN5Eigen13MaxSizeVectorINS_15ThreadPoolTemplINS_20StlThreadEnvironmentEE10ThreadDataEED2Ev = comdat any

$_ZN5Eigen15ThreadPoolTemplINS_20StlThreadEnvironmentEE8ScheduleESt8functionIFvvEE = comdat any

$_ZN5Eigen15ThreadPoolTemplINS_20StlThreadEnvironmentEE16ScheduleWithHintESt8functionIFvvEEii = comdat any

$_ZN5Eigen15ThreadPoolTemplINS_20StlThreadEnvironmentEE6CancelEv = comdat any

$_ZNK5Eigen15ThreadPoolTemplINS_20StlThreadEnvironmentEE10NumThreadsEv = comdat any

$_ZNK5Eigen15ThreadPoolTemplINS_20StlThreadEnvironmentEE15CurrentThreadIdEv = comdat any

$_ZN5Eigen15ThreadPoolTemplINS_20StlThreadEnvironmentEED0Ev = comdat any

$_ZN5Eigen19ThreadPoolInterface16ScheduleWithHintESt8functionIFvvEEii = comdat any

$_ZN5Eigen19ThreadPoolInterface6CancelEv = comdat any

$_ZN5Eigen19ThreadPoolInterfaceD2Ev = comdat any

$_ZN5Eigen19ThreadPoolInterfaceD0Ev = comdat any

$_ZNSt8functionIFvvEEC2ERKS1_ = comdat any

$_ZNSt14_Function_baseC2Ev = comdat any

$_ZNKSt8functionIFvvEEcvbEv = comdat any

$_ZNSt14_Function_baseD2Ev = comdat any

$_ZNKSt14_Function_base8_M_emptyEv = comdat any

$_ZN5Eigen8internal23handmade_aligned_mallocEmm = comdat any

$_ZNSt13__atomic_baseImEC2Em = comdat any

$_ZNSt13__atomic_baseIjEC2Ej = comdat any

$_ZNSt13__atomic_baseIbEC2Eb = comdat any

$_ZNK5Eigen13MaxSizeVectorINS_10EventCount6WaiterEE4sizeEv = comdat any

$_ZN5Eigen10EventCount6WaiterC2Ev = comdat any

$_ZN5Eigen10EventCount6WaiterD2Ev = comdat any

$_ZNSt5mutexC2Ev = comdat any

$_ZNSt12__mutex_baseC2Ev = comdat any

$_ZN5Eigen13MaxSizeVectorIjEC2Em = comdat any

$_ZN5Eigen13MaxSizeVectorIjE9push_backERKj = comdat any

$_ZN5Eigen15ThreadPoolTemplINS_20StlThreadEnvironmentEE10ThreadDataC2Ev = comdat any

$_ZN5Eigen15ThreadPoolTemplINS_20StlThreadEnvironmentEE10ThreadDataD2Ev = comdat any

$_ZNSt10unique_ptrIN5Eigen20StlThreadEnvironment9EnvThreadESt14default_deleteIS2_EEC2IS4_vEEv = comdat any

$_ZN5Eigen8RunQueueINS_20StlThreadEnvironment4TaskELj1024EEC2Ev = comdat any

$_ZNSt10unique_ptrIN5Eigen20StlThreadEnvironment9EnvThreadESt14default_deleteIS2_EED2Ev = comdat any

$_ZNSt15__uniq_ptr_dataIN5Eigen20StlThreadEnvironment9EnvThreadESt14default_deleteIS2_ELb1ELb1EEC2Ev = comdat any

$_ZNSt15__uniq_ptr_implIN5Eigen20StlThreadEnvironment9EnvThreadESt14default_deleteIS2_EEC2Ev = comdat any

$_ZNSt5tupleIJPN5Eigen20StlThreadEnvironment9EnvThreadESt14default_deleteIS2_EEEC2ILb1ELb1EEEv = comdat any

$_ZNSt11_Tuple_implILm0EJPN5Eigen20StlThreadEnvironment9EnvThreadESt14default_deleteIS2_EEEC2Ev = comdat any

$_ZNSt11_Tuple_implILm1EJSt14default_deleteIN5Eigen20StlThreadEnvironment9EnvThreadEEEEC2Ev = comdat any

$_ZNSt10_Head_baseILm0EPN5Eigen20StlThreadEnvironment9EnvThreadELb0EEC2Ev = comdat any

$_ZNSt10_Head_baseILm1ESt14default_deleteIN5Eigen20StlThreadEnvironment9EnvThreadEELb1EEC2Ev = comdat any

$_ZN5Eigen8RunQueueINS_20StlThreadEnvironment4TaskELj1024EE4ElemC2Ev = comdat any

$_ZN5Eigen20StlThreadEnvironment4TaskC2Ev = comdat any

$_ZNSt8functionIFvvEEC2Ev = comdat any

$_ZStanSt12memory_orderSt23__memory_order_modifier = comdat any

$_ZNSt15__uniq_ptr_implIN5Eigen20StlThreadEnvironment9EnvThreadESt14default_deleteIS2_EE6_M_ptrEv = comdat any

$_ZNSt10unique_ptrIN5Eigen20StlThreadEnvironment9EnvThreadESt14default_deleteIS2_EE11get_deleterEv = comdat any

$_ZNKSt14default_deleteIN5Eigen20StlThreadEnvironment9EnvThreadEEclEPS2_ = comdat any

$_ZSt3getILm0EJPN5Eigen20StlThreadEnvironment9EnvThreadESt14default_deleteIS2_EEERNSt13tuple_elementIXT_ESt5tupleIJDpT0_EEE4typeERSA_ = comdat any

$_ZSt12__get_helperILm0EPN5Eigen20StlThreadEnvironment9EnvThreadEJSt14default_deleteIS2_EEERT0_RSt11_Tuple_implIXT_EJS6_DpT1_EE = comdat any

$_ZNSt11_Tuple_implILm0EJPN5Eigen20StlThreadEnvironment9EnvThreadESt14default_deleteIS2_EEE7_M_headERS6_ = comdat any

$_ZNSt10_Head_baseILm0EPN5Eigen20StlThreadEnvironment9EnvThreadELb0EE7_M_headERS4_ = comdat any

$_ZNSt15__uniq_ptr_implIN5Eigen20StlThreadEnvironment9EnvThreadESt14default_deleteIS2_EE10_M_deleterEv = comdat any

$_ZSt3getILm1EJPN5Eigen20StlThreadEnvironment9EnvThreadESt14default_deleteIS2_EEERNSt13tuple_elementIXT_ESt5tupleIJDpT0_EEE4typeERSA_ = comdat any

$_ZSt12__get_helperILm1ESt14default_deleteIN5Eigen20StlThreadEnvironment9EnvThreadEEJEERT0_RSt11_Tuple_implIXT_EJS5_DpT1_EE = comdat any

$_ZNSt11_Tuple_implILm1EJSt14default_deleteIN5Eigen20StlThreadEnvironment9EnvThreadEEEE7_M_headERS5_ = comdat any

$_ZNSt10_Head_baseILm1ESt14default_deleteIN5Eigen20StlThreadEnvironment9EnvThreadEELb1EE7_M_headERS5_ = comdat any

$_ZN5Eigen20StlThreadEnvironment9EnvThreadD2Ev = comdat any

$_ZNSt6threadD2Ev = comdat any

$_ZNKSt6thread8joinableEv = comdat any

$_ZSteqNSt6thread2idES0_ = comdat any

$_ZNSt6thread2idC2Ev = comdat any

$_ZN5Eigen8RunQueueINS_20StlThreadEnvironment4TaskELj1024EED2Ev = comdat any

$_ZNK5Eigen8RunQueueINS_20StlThreadEnvironment4TaskELj1024EE4SizeEv = comdat any

$_ZN5Eigen8RunQueueINS_20StlThreadEnvironment4TaskELj1024EE4ElemD2Ev = comdat any

$_ZNK5Eigen8RunQueueINS_20StlThreadEnvironment4TaskELj1024EE14SizeOrNotEmptyILb1EEEjv = comdat any

$_ZN5Eigen20StlThreadEnvironment4TaskD2Ev = comdat any

$_ZNSt15__uniq_ptr_implIN5Eigen20StlThreadEnvironment9EnvThreadESt14default_deleteIS2_EE5resetEPS2_ = comdat any

$_ZNSt8functionIFvvEEC2EOS1_ = comdat any

$_ZN5Eigen20StlThreadEnvironment9EnvThreadC2ESt8functionIFvvEE = comdat any

$_ZNSt6threadC2ISt8functionIFvvEEJEvEEOT_DpOT0_ = comdat any

$_ZNSt6thread11_State_implINS_8_InvokerISt5tupleIJSt8functionIFvvEEEEEEEC2IJS5_EEEDpOT_ = comdat any

$_ZNSt10unique_ptrINSt6thread6_StateESt14default_deleteIS1_EEC2IS3_vEEPS1_ = comdat any

$_ZNSt10unique_ptrINSt6thread6_StateESt14default_deleteIS1_EED2Ev = comdat any

$_ZNSt6thread6_StateC2Ev = comdat any

$_ZNSt6thread8_InvokerISt5tupleIJSt8functionIFvvEEEEEC2IJS4_EEEDpOT_ = comdat any

$_ZNSt6thread11_State_implINS_8_InvokerISt5tupleIJSt8functionIFvvEEEEEEED2Ev = comdat any

$_ZNSt6thread11_State_implINS_8_InvokerISt5tupleIJSt8functionIFvvEEEEEEED0Ev = comdat any

$_ZNSt6thread11_State_implINS_8_InvokerISt5tupleIJSt8functionIFvvEEEEEEE6_M_runEv = comdat any

$_ZNSt5tupleIJSt8functionIFvvEEEEC2IJS2_ELb1ELb1EEEDpOT_ = comdat any

$_ZNSt11_Tuple_implILm0EJSt8functionIFvvEEEEC2IS2_EEOT_ = comdat any

$_ZNSt10_Head_baseILm0ESt8functionIFvvEELb0EEC2IS2_EEOT_ = comdat any

$_ZNSt6thread8_InvokerISt5tupleIJSt8functionIFvvEEEEED2Ev = comdat any

$_ZNSt5tupleIJSt8functionIFvvEEEED2Ev = comdat any

$_ZNSt11_Tuple_implILm0EJSt8functionIFvvEEEED2Ev = comdat any

$_ZNSt10_Head_baseILm0ESt8functionIFvvEELb0EED2Ev = comdat any

$_ZNSt6thread8_InvokerISt5tupleIJSt8functionIFvvEEEEEclEv = comdat any

$_ZNSt6thread8_InvokerISt5tupleIJSt8functionIFvvEEEEE9_M_invokeIJLm0EEEEvSt12_Index_tupleIJXspT_EEE = comdat any

$_ZSt8__invokeISt8functionIFvvEEJEENSt15__invoke_resultIT_JDpT0_EE4typeEOS4_DpOS5_ = comdat any

$_ZSt3getILm0EJSt8functionIFvvEEEEONSt13tuple_elementIXT_ESt5tupleIJDpT0_EEE4typeEOS7_ = comdat any

$_ZSt13__invoke_implIvSt8functionIFvvEEJEET_St14__invoke_otherOT0_DpOT1_ = comdat any

$_ZNKSt8functionIFvvEEclEv = comdat any

$_ZSt12__get_helperILm0ESt8functionIFvvEEJEERT0_RSt11_Tuple_implIXT_EJS3_DpT1_EE = comdat any

$_ZNSt11_Tuple_implILm0EJSt8functionIFvvEEEE7_M_headERS3_ = comdat any

$_ZNSt10_Head_baseILm0ESt8functionIFvvEELb0EE7_M_headERS3_ = comdat any

$_ZNSt15__uniq_ptr_dataINSt6thread6_StateESt14default_deleteIS1_ELb1ELb1EECI2St15__uniq_ptr_implIS1_S3_EEPS1_ = comdat any

$_ZNSt15__uniq_ptr_implINSt6thread6_StateESt14default_deleteIS1_EEC2EPS1_ = comdat any

$_ZNSt5tupleIJPNSt6thread6_StateESt14default_deleteIS1_EEEC2ILb1ELb1EEEv = comdat any

$_ZNSt15__uniq_ptr_implINSt6thread6_StateESt14default_deleteIS1_EE6_M_ptrEv = comdat any

$_ZNSt11_Tuple_implILm0EJPNSt6thread6_StateESt14default_deleteIS1_EEEC2Ev = comdat any

$_ZNSt11_Tuple_implILm1EJSt14default_deleteINSt6thread6_StateEEEEC2Ev = comdat any

$_ZNSt10_Head_baseILm0EPNSt6thread6_StateELb0EEC2Ev = comdat any

$_ZNSt10_Head_baseILm1ESt14default_deleteINSt6thread6_StateEELb1EEC2Ev = comdat any

$_ZSt3getILm0EJPNSt6thread6_StateESt14default_deleteIS1_EEERNSt13tuple_elementIXT_ESt5tupleIJDpT0_EEE4typeERS9_ = comdat any

$_ZSt12__get_helperILm0EPNSt6thread6_StateEJSt14default_deleteIS1_EEERT0_RSt11_Tuple_implIXT_EJS5_DpT1_EE = comdat any

$_ZNSt11_Tuple_implILm0EJPNSt6thread6_StateESt14default_deleteIS1_EEE7_M_headERS5_ = comdat any

$_ZNSt10_Head_baseILm0EPNSt6thread6_StateELb0EE7_M_headERS3_ = comdat any

$_ZNSt10unique_ptrINSt6thread6_StateESt14default_deleteIS1_EE11get_deleterEv = comdat any

$_ZNKSt14default_deleteINSt6thread6_StateEEclEPS1_ = comdat any

$_ZNSt15__uniq_ptr_implINSt6thread6_StateESt14default_deleteIS1_EE10_M_deleterEv = comdat any

$_ZSt3getILm1EJPNSt6thread6_StateESt14default_deleteIS1_EEERNSt13tuple_elementIXT_ESt5tupleIJDpT0_EEE4typeERS9_ = comdat any

$_ZSt12__get_helperILm1ESt14default_deleteINSt6thread6_StateEEJEERT0_RSt11_Tuple_implIXT_EJS4_DpT1_EE = comdat any

$_ZNSt11_Tuple_implILm1EJSt14default_deleteINSt6thread6_StateEEEE7_M_headERS4_ = comdat any

$_ZNSt10_Head_baseILm1ESt14default_deleteINSt6thread6_StateEELb1EE7_M_headERS4_ = comdat any

$_ZNSt14_Function_base13_Base_managerIZN5Eigen15ThreadPoolTemplINS1_20StlThreadEnvironmentEEC1EibS3_EUlvE_E21_M_not_empty_functionIS5_EEbRKT_ = comdat any

$_ZNSt14_Function_base13_Base_managerIZN5Eigen15ThreadPoolTemplINS1_20StlThreadEnvironmentEEC1EibS3_EUlvE_E15_M_init_functorIS5_EEvRSt9_Any_dataOT_ = comdat any

$_ZNSt17_Function_handlerIFvvEZN5Eigen15ThreadPoolTemplINS1_20StlThreadEnvironmentEEC1EibS3_EUlvE_E9_M_invokeERKSt9_Any_data = comdat any

$_ZNSt17_Function_handlerIFvvEZN5Eigen15ThreadPoolTemplINS1_20StlThreadEnvironmentEEC1EibS3_EUlvE_E10_M_managerERSt9_Any_dataRKS7_St18_Manager_operation = comdat any

$_ZNSt14_Function_base13_Base_managerIZN5Eigen15ThreadPoolTemplINS1_20StlThreadEnvironmentEEC1EibS3_EUlvE_E9_M_createIS5_EEvRSt9_Any_dataOT_St17integral_constantIbLb1EE = comdat any

$_ZNSt9_Any_data9_M_accessEv = comdat any

$_ZSt10__invoke_rIvRZN5Eigen15ThreadPoolTemplINS0_20StlThreadEnvironmentEEC1EibS2_EUlvE_JEENSt9enable_ifIXsr6__and_ISt7is_voidIT_ESt14__is_invocableIT0_JDpT1_EEEE5valueES8_E4typeEOSB_DpOSC_ = comdat any

$_ZNSt14_Function_base13_Base_managerIZN5Eigen15ThreadPoolTemplINS1_20StlThreadEnvironmentEEC1EibS3_EUlvE_E14_M_get_pointerERKSt9_Any_data = comdat any

$_ZSt13__invoke_implIvRZN5Eigen15ThreadPoolTemplINS0_20StlThreadEnvironmentEEC1EibS2_EUlvE_JEET_St14__invoke_otherOT0_DpOT1_ = comdat any

$_ZZN5Eigen15ThreadPoolTemplINS_20StlThreadEnvironmentEEC1EibS1_ENKUlvE_clEv = comdat any

$_ZN5Eigen15ThreadPoolTemplINS_20StlThreadEnvironmentEE10WorkerLoopEi = comdat any

$_ZN5Eigen15ThreadPoolTemplINS_20StlThreadEnvironmentEE12GetPerThreadEv = comdat any

$_ZN5Eigen15ThreadPoolTemplINS_20StlThreadEnvironmentEE18GlobalThreadIdHashEv = comdat any

$_ZN5Eigen13MaxSizeVectorINS_10EventCount6WaiterEEixEm = comdat any

$_ZNKSt6atomicIbE4loadESt12memory_order = comdat any

$_ZN5Eigen15ThreadPoolTemplINS_20StlThreadEnvironmentEE12MaybeGetTaskEPNS1_4TaskE = comdat any

$_ZN5Eigen15ThreadPoolTemplINS_20StlThreadEnvironmentEE11WaitForWorkEPNS_10EventCount6WaiterEPNS1_4TaskE = comdat any

$_ZN5Eigen20StlThreadEnvironment11ExecuteTaskERKNS0_4TaskE = comdat any

$_ZNKSt4hashINSt6thread2idEEclERKS1_ = comdat any

$_ZNSt11this_thread6get_idEv = comdat any

$_ZNSt10_Hash_impl4hashImEEmRKT_ = comdat any

$_ZNSt10_Hash_impl4hashEPKvmm = comdat any

$_ZNSt6thread2idC2Em = comdat any

$_ZN5Eigen8RunQueueINS_20StlThreadEnvironment4TaskELj1024EE8PopFrontEv = comdat any

$_ZN5Eigen20StlThreadEnvironment4TaskaSEOS1_ = comdat any

$_ZN5Eigen15ThreadPoolTemplINS_20StlThreadEnvironmentEE10LocalStealEv = comdat any

$_ZN5Eigen15ThreadPoolTemplINS_20StlThreadEnvironmentEE11GlobalStealEv = comdat any

$_ZN5Eigen15ThreadPoolTemplINS_20StlThreadEnvironmentEE13StartSpinningEv = comdat any

$_ZN5Eigen15ThreadPoolTemplINS_20StlThreadEnvironmentEE12StopSpinningEv = comdat any

$_ZN5Eigen20StlThreadEnvironment4TaskC2EOS1_ = comdat any

$_ZSt23__cmpexch_failure_orderSt12memory_order = comdat any

$_ZStorSt12memory_orderSt23__memory_order_modifier = comdat any

$_ZSt24__cmpexch_failure_order2St12memory_order = comdat any

$_ZNSt8functionIFvvEEaSEOS1_ = comdat any

$_ZNSt8functionIFvvEE4swapERS1_ = comdat any

$_ZSt4swapISt9_Any_dataENSt9enable_ifIXsr6__and_ISt6__not_ISt15__is_tuple_likeIT_EESt21is_move_constructibleIS4_ESt18is_move_assignableIS4_EEE5valueEvE4typeERS4_SD_ = comdat any

$_ZSt4swapIPFbRSt9_Any_dataRKS0_St18_Manager_operationEENSt9enable_ifIXsr6__and_ISt6__not_ISt15__is_tuple_likeIT_EESt21is_move_constructibleISA_ESt18is_move_assignableISA_EEE5valueEvE4typeERSA_SJ_ = comdat any

$_ZSt4swapIPFvRKSt9_Any_dataEENSt9enable_ifIXsr6__and_ISt6__not_ISt15__is_tuple_likeIT_EESt21is_move_constructibleIS8_ESt18is_move_assignableIS8_EEE5valueEvE4typeERS8_SH_ = comdat any

$_ZN5Eigen15ThreadPoolTemplINS_20StlThreadEnvironmentEE17GetStealPartitionEi = comdat any

$_ZN5Eigen15ThreadPoolTemplINS_20StlThreadEnvironmentEE15DecodePartitionEjPjS3_ = comdat any

$_ZN5Eigen15ThreadPoolTemplINS_20StlThreadEnvironmentEE12AssertBoundsEii = comdat any

$_ZN5Eigen15ThreadPoolTemplINS_20StlThreadEnvironmentEE5StealEjj = comdat any

$_ZN5Eigen15ThreadPoolTemplINS_20StlThreadEnvironmentEE4RandEPm = comdat any

$_ZN5Eigen13MaxSizeVectorINS0_IjEEEixEm = comdat any

$_ZNK5Eigen13MaxSizeVectorIjE4sizeEv = comdat any

$_ZN5Eigen13MaxSizeVectorIjEixEm = comdat any

$_ZN5Eigen8RunQueueINS_20StlThreadEnvironment4TaskELj1024EE7PopBackEv = comdat any

$_ZNK5Eigen8RunQueueINS_20StlThreadEnvironment4TaskELj1024EE5EmptyEv = comdat any

$_ZNSt11unique_lockISt5mutexEC2ERS0_ = comdat any

$_ZNSt11unique_lockISt5mutexED2Ev = comdat any

$_ZNK5Eigen8RunQueueINS_20StlThreadEnvironment4TaskELj1024EE14SizeOrNotEmptyILb0EEEjv = comdat any

$_ZNSt11unique_lockISt5mutexE4lockEv = comdat any

$_ZNSt5mutex4lockEv = comdat any

$_ZNSt11unique_lockISt5mutexE6unlockEv = comdat any

$_ZNSt5mutex6unlockEv = comdat any

$_ZNK5Eigen15ThreadPoolTemplINS_20StlThreadEnvironmentEE16NumActiveThreadsEv = comdat any

$_ZN5Eigen15ThreadPoolTemplINS_20StlThreadEnvironmentEE13SpinningState6DecodeEm = comdat any

$_ZNK5Eigen15ThreadPoolTemplINS_20StlThreadEnvironmentEE13SpinningState6EncodeEv = comdat any

$_ZN5Eigen10EventCount7PrewaitEv = comdat any

$_ZN5Eigen15ThreadPoolTemplINS_20StlThreadEnvironmentEE18NonEmptyQueueIndexEv = comdat any

$_ZN5Eigen10EventCount10CancelWaitEv = comdat any

$_ZNKSt6atomicIbEcvbEv = comdat any

$_ZNSt13__atomic_baseIjEppEi = comdat any

$_ZNKSt13__atomic_baseIjEcvjEv = comdat any

$_ZNSt13__atomic_baseIjEmmEi = comdat any

$_ZN5Eigen10EventCount6NotifyEb = comdat any

$_ZN5Eigen10EventCount10CommitWaitEPNS0_6WaiterE = comdat any

$_ZN5Eigen10EventCount10CheckStateEmb = comdat any

$_ZNK5Eigen13MaxSizeVectorINS_15ThreadPoolTemplINS_20StlThreadEnvironmentEE10ThreadDataEE4sizeEv = comdat any

$_ZN5Eigen10EventCount6UnparkEPNS0_6WaiterE = comdat any

$_ZN5Eigen8internal13convert_indexImmEET_RKT0_ = comdat any

$_ZN5Eigen8internal18convert_index_implImmLb1ELb0ELb1ELb0EE3runERKm = comdat any

$_ZN5Eigen16GenericNumTraitsImE7highestEv = comdat any

$_ZNSt14numeric_limitsImE3maxEv = comdat any

$_ZN5Eigen10EventCount4ParkEPNS0_6WaiterE = comdat any

$_ZNKSt9_Any_data9_M_accessIZN5Eigen15ThreadPoolTemplINS1_20StlThreadEnvironmentEEC1EibS3_EUlvE_EERKT_v = comdat any

$_ZNKSt9_Any_data9_M_accessEv = comdat any

$_ZNSt9_Any_data9_M_accessIPKSt9type_infoEERT_v = comdat any

$_ZNSt9_Any_data9_M_accessIPZN5Eigen15ThreadPoolTemplINS1_20StlThreadEnvironmentEEC1EibS3_EUlvE_EERT_v = comdat any

$_ZNSt14_Function_base13_Base_managerIZN5Eigen15ThreadPoolTemplINS1_20StlThreadEnvironmentEEC1EibS3_EUlvE_E10_M_managerERSt9_Any_dataRKS7_St18_Manager_operation = comdat any

$_ZNSt14_Function_base13_Base_managerIZN5Eigen15ThreadPoolTemplINS1_20StlThreadEnvironmentEEC1EibS3_EUlvE_E15_M_init_functorIRKS5_EEvRSt9_Any_dataOT_ = comdat any

$_ZNSt14_Function_base13_Base_managerIZN5Eigen15ThreadPoolTemplINS1_20StlThreadEnvironmentEEC1EibS3_EUlvE_E10_M_destroyERSt9_Any_dataSt17integral_constantIbLb1EE = comdat any

$_ZNSt14_Function_base13_Base_managerIZN5Eigen15ThreadPoolTemplINS1_20StlThreadEnvironmentEEC1EibS3_EUlvE_E9_M_createIRKS5_EEvRSt9_Any_dataOT_St17integral_constantIbLb1EE = comdat any

$_ZNSt9_Any_data9_M_accessIZN5Eigen15ThreadPoolTemplINS1_20StlThreadEnvironmentEEC1EibS3_EUlvE_EERT_v = comdat any

$_ZN5Eigen8internal21handmade_aligned_freeEPv = comdat any

$_ZN5Eigen13MaxSizeVectorIjED2Ev = comdat any

$_ZN5Eigen20StlThreadEnvironment10CreateTaskESt8functionIFvvEE = comdat any

$_ZN5Eigen8RunQueueINS_20StlThreadEnvironment4TaskELj1024EE9PushFrontES2_ = comdat any

$_ZN5Eigen8RunQueueINS_20StlThreadEnvironment4TaskELj1024EE8PushBackES2_ = comdat any

$_ZN5Eigen15ThreadPoolTemplINS_20StlThreadEnvironmentEE28IsNotifyParkedThreadRequiredEv = comdat any

$_ZNSt6atomicIbEaSEb = comdat any

$_ZNSt13__atomic_baseIbEaSEb = comdat any

$_ZN5Eigen15PlainObjectBaseINS_6MatrixIdLin1ELin1ELi0ELin1ELin1EEEE6_init2IllEEvllPNSt9enable_ifILb1ET_E4typeE = comdat any

$_ZN5Eigen15PlainObjectBaseINS_6MatrixIdLin1ELin1ELi0ELin1ELin1EEEE6resizeEll = comdat any

$_ZN5Eigen8internal17check_implicationEbb = comdat any

$_ZN5Eigen8internal17DenseStorage_implIdLin1ELin1ELin1ELi0EE6resizeElll = comdat any

$_ZN5Eigen8internal19throw_std_bad_allocEv = comdat any

$_ZNSt9bad_allocC2Ev = comdat any

$_ZNSt9exceptionC2Ev = comdat any

$_ZN5Eigen8internal28conditional_aligned_new_autoIdLb1EEEPT_m = comdat any

$_ZN5Eigen8internal26conditional_aligned_mallocILb1EEEPvm = comdat any

$_ZN5Eigen8internal14aligned_mallocEm = comdat any

$_ZN5Eigen9DenseBaseINS_6MatrixIdLin1ELin1ELi0ELin1ELin1EEEE6RandomEll = comdat any

$_ZNK5Eigen9EigenBaseINS_6MatrixIdLin1ELin1ELi0ELin1ELin1EEEE4rowsEv = comdat any

$_ZNK5Eigen9EigenBaseINS_6MatrixIdLin1ELin1ELi0ELin1ELin1EEEE4colsEv = comdat any

$_ZN5Eigen9DenseBaseINS_6MatrixIdLin1ELin1ELi0ELin1ELin1EEEEaSINS_14CwiseNullaryOpINS_8internal16scalar_random_opIdEES2_EEEERS2_RKNS0_IT_EE = comdat any

$_ZN5Eigen9DenseBaseINS_6MatrixIdLin1ELin1ELi0ELin1ELin1EEEE11NullaryExprINS_8internal16scalar_random_opIdEEEEKNS_14CwiseNullaryOpIT_S2_EEllRKS9_ = comdat any

$_ZN5Eigen14CwiseNullaryOpINS_8internal16scalar_random_opIdEENS_6MatrixIdLin1ELin1ELi0ELin1ELin1EEEEC2EllRKS3_ = comdat any

$_ZN5Eigen10MatrixBaseINS_14CwiseNullaryOpINS_8internal16scalar_random_opIdEENS_6MatrixIdLin1ELin1ELi0ELin1ELin1EEEEEEC2Ev = comdat any

$_ZN5Eigen8internal19variable_if_dynamicIlLin1EEC2El = comdat any

$_ZN5Eigen9DenseBaseINS_14CwiseNullaryOpINS_8internal16scalar_random_opIdEENS_6MatrixIdLin1ELin1ELi0ELin1ELin1EEEEEEC2Ev = comdat any

$_ZNK5Eigen9EigenBaseINS_6MatrixIdLin1ELin1ELi0ELin1ELin1EEEE7derivedEv = comdat any

$_ZNK5Eigen15PlainObjectBaseINS_6MatrixIdLin1ELin1ELi0ELin1ELin1EEEE4rowsEv = comdat any

$_ZNK5Eigen8internal17DenseStorage_implIdLin1ELin1ELin1ELi0EE4rowsEv = comdat any

$_ZNK5Eigen15PlainObjectBaseINS_6MatrixIdLin1ELin1ELi0ELin1ELin1EEEE4colsEv = comdat any

$_ZNK5Eigen8internal17DenseStorage_implIdLin1ELin1ELin1ELi0EE4colsEv = comdat any

$_ZN5Eigen8internal15call_assignmentINS_6MatrixIdLin1ELin1ELi0ELin1ELin1EEENS_14CwiseNullaryOpINS0_16scalar_random_opIdEES3_EEEEvRT_RKT0_ = comdat any

$_ZN5Eigen9EigenBaseINS_6MatrixIdLin1ELin1ELi0ELin1ELin1EEEE7derivedEv = comdat any

$_ZNK5Eigen9EigenBaseINS_14CwiseNullaryOpINS_8internal16scalar_random_opIdEENS_6MatrixIdLin1ELin1ELi0ELin1ELin1EEEEEE7derivedEv = comdat any

$_ZN5Eigen8internal15call_assignmentINS_6MatrixIdLin1ELin1ELi0ELin1ELin1EEENS_14CwiseNullaryOpINS0_16scalar_random_opIdEES3_EENS0_9assign_opIddEEEEvRT_RKT0_RKT1_NSt9enable_ifIXntsr25evaluator_assume_aliasingISC_EE5valueEPvE4typeE = comdat any

$_ZN5Eigen8internal24call_assignment_no_aliasINS_6MatrixIdLin1ELin1ELi0ELin1ELin1EEENS_14CwiseNullaryOpINS0_16scalar_random_opIdEES3_EENS0_9assign_opIddEEEEvRT_RKT0_RKT1_ = comdat any

$_ZN5Eigen8internal10AssignmentINS_6MatrixIdLin1ELin1ELi0ELin1ELin1EEENS_14CwiseNullaryOpINS0_16scalar_random_opIdEES3_EENS0_9assign_opIddEENS0_11Dense2DenseEvE3runERS3_RKS7_RKS9_ = comdat any

$_ZN5Eigen8internal18check_for_aliasingINS_6MatrixIdLin1ELin1ELi0ELin1ELin1EEENS_14CwiseNullaryOpINS0_16scalar_random_opIdEES3_EEEEvRKT_RKT0_ = comdat any

$_ZN5Eigen8internal26call_dense_assignment_loopINS_6MatrixIdLin1ELin1ELi0ELin1ELin1EEENS_14CwiseNullaryOpINS0_16scalar_random_opIdEES3_EENS0_9assign_opIddEEEEvRT_RKT0_RKT1_ = comdat any

$_ZN5Eigen8internal27checkTransposeAliasing_implINS_6MatrixIdLin1ELin1ELi0ELin1ELin1EEENS_14CwiseNullaryOpINS0_16scalar_random_opIdEES3_EELb0EE3runERKS3_RKS7_ = comdat any

$_ZN5Eigen8internal9evaluatorINS_14CwiseNullaryOpINS0_16scalar_random_opIdEENS_6MatrixIdLin1ELin1ELi0ELin1ELin1EEEEEEC2ERKS7_ = comdat any

$_ZN5Eigen8internal17resize_if_allowedINS_6MatrixIdLin1ELin1ELi0ELin1ELin1EEENS_14CwiseNullaryOpINS0_16scalar_random_opIdEES3_EEddEEvRT_RKT0_RKNS0_9assign_opIT1_T2_EE = comdat any

$_ZN5Eigen8internal9evaluatorINS_6MatrixIdLin1ELin1ELi0ELin1ELin1EEEEC2ERKS3_ = comdat any

$_ZNK5Eigen9EigenBaseINS_6MatrixIdLin1ELin1ELi0ELin1ELin1EEEE18const_cast_derivedEv = comdat any

$_ZN5Eigen8internal31generic_dense_assignment_kernelINS0_9evaluatorINS_6MatrixIdLin1ELin1ELi0ELin1ELin1EEEEENS2_INS_14CwiseNullaryOpINS0_16scalar_random_opIdEES4_EEEENS0_9assign_opIddEELi0EEC2ERS5_RKSA_RKSC_RS4_ = comdat any

$_ZN5Eigen8internal21dense_assignment_loopINS0_31generic_dense_assignment_kernelINS0_9evaluatorINS_6MatrixIdLin1ELin1ELi0ELin1ELin1EEEEENS3_INS_14CwiseNullaryOpINS0_16scalar_random_opIdEES5_EEEENS0_9assign_opIddEELi0EEELi1ELi0EE3runERSE_ = comdat any

$_ZNK5Eigen14CwiseNullaryOpINS_8internal16scalar_random_opIdEENS_6MatrixIdLin1ELin1ELi0ELin1ELin1EEEE7functorEv = comdat any

$_ZNK5Eigen14CwiseNullaryOpINS_8internal16scalar_random_opIdEENS_6MatrixIdLin1ELin1ELi0ELin1ELin1EEEE4rowsEv = comdat any

$_ZNK5Eigen14CwiseNullaryOpINS_8internal16scalar_random_opIdEENS_6MatrixIdLin1ELin1ELi0ELin1ELin1EEEE4colsEv = comdat any

$_ZNK5Eigen8internal19variable_if_dynamicIlLin1EE5valueEv = comdat any

$_ZN5Eigen8internal9evaluatorINS_15PlainObjectBaseINS_6MatrixIdLin1ELin1ELi0ELin1ELin1EEEEEEC2ERKS5_ = comdat any

$_ZNK5Eigen15PlainObjectBaseINS_6MatrixIdLin1ELin1ELi0ELin1ELin1EEEE4dataEv = comdat any

$_ZNK5Eigen15DenseCoeffsBaseINS_6MatrixIdLin1ELin1ELi0ELin1ELin1EEELi3EE11outerStrideEv = comdat any

$_ZN5Eigen8internal30plainobjectbase_evaluator_dataIdLin1EEC2EPKdl = comdat any

$_ZNK5Eigen8internal17DenseStorage_implIdLin1ELin1ELin1ELi0EE4dataEv = comdat any

$_ZNK5Eigen6MatrixIdLin1ELin1ELi0ELin1ELin1EE11outerStrideEv = comdat any

$_ZNK5Eigen9DenseBaseINS_6MatrixIdLin1ELin1ELi0ELin1ELin1EEEE9innerSizeEv = comdat any

$_ZNK5Eigen8internal31generic_dense_assignment_kernelINS0_9evaluatorINS_6MatrixIdLin1ELin1ELi0ELin1ELin1EEEEENS2_INS_14CwiseNullaryOpINS0_16scalar_random_opIdEES4_EEEENS0_9assign_opIddEELi0EE4sizeEv = comdat any

$_ZN5Eigen8internal31generic_dense_assignment_kernelINS0_9evaluatorINS_6MatrixIdLin1ELin1ELi0ELin1ELin1EEEEENS2_INS_14CwiseNullaryOpINS0_16scalar_random_opIdEES4_EEEENS0_9assign_opIddEELi0EE11assignCoeffEl = comdat any

$_ZNK5Eigen9EigenBaseINS_6MatrixIdLin1ELin1ELi0ELin1ELin1EEEE4sizeEv = comdat any

$_ZNK5Eigen8internal9assign_opIddE11assignCoeffERdRKd = comdat any

$_ZN5Eigen8internal9evaluatorINS_15PlainObjectBaseINS_6MatrixIdLin1ELin1ELi0ELin1ELin1EEEEEE8coeffRefEl = comdat any

$_ZNK5Eigen8internal9evaluatorINS_14CwiseNullaryOpINS0_16scalar_random_opIdEENS_6MatrixIdLin1ELin1ELi0ELin1ELin1EEEEEE5coeffIlEEdT_ = comdat any

$_ZNK5Eigen8internal15nullary_wrapperIdNS0_16scalar_random_opIdEELb1ELb0ELb0EEclIlEEdRKS3_T_S8_ = comdat any

$_ZNK5Eigen8internal16scalar_random_opIdEclEv = comdat any

$_ZN5Eigen8internal6randomIdEENS0_13random_retvalINS0_36global_math_functions_filtering_baseIT_vE4typeEE4typeEv = comdat any

$_ZN5Eigen8internal19random_default_implIdLb0ELb0EE3runEv = comdat any

$_ZN5Eigen8internal19random_default_implIdLb0ELb0EE3runEi = comdat any

$_ZN5Eigen8internal17random_float_implIdLb1EE12mantissaBitsEv = comdat any

$_ZN5Eigen8internal17random_float_implIdLb1EE3runEi = comdat any

$_ZN5Eigen8internal13getRandomBitsImEET_i = comdat any

$_ZN5Eigen6numext8bit_castImdEET_RKT0_ = comdat any

$_ZN5Eigen6numext8bit_castIdmEET_RKT0_ = comdat any

$_ZN5Eigen8internal16random_bits_implImE3runEi = comdat any

$_ZN5Eigen8internal19eigen_random_device3runEv = comdat any

$_ZN5Eigen12CwiseUnaryOpINS_8internal14scalar_abs2_opIdEEKNS_6MatrixIdLin1ELin1ELi0ELin1ELin1EEEEC2ERS6_RKS3_ = comdat any

$_ZN5Eigen16CwiseUnaryOpImplINS_8internal14scalar_abs2_opIdEEKNS_6MatrixIdLin1ELin1ELi0ELin1ELin1EEENS_5DenseEEC2Ev = comdat any

$_ZN5Eigen10MatrixBaseINS_12CwiseUnaryOpINS_8internal14scalar_abs2_opIdEEKNS_6MatrixIdLin1ELin1ELi0ELin1ELin1EEEEEEC2Ev = comdat any

$_ZN5Eigen9DenseBaseINS_12CwiseUnaryOpINS_8internal14scalar_abs2_opIdEEKNS_6MatrixIdLin1ELin1ELi0ELin1ELin1EEEEEEC2Ev = comdat any

$_ZNK5Eigen9EigenBaseINS_12CwiseUnaryOpINS_8internal14scalar_abs2_opIdEEKNS_6MatrixIdLin1ELin1ELi0ELin1ELin1EEEEEE7derivedEv = comdat any

$_ZN5Eigen12CwiseUnaryOpINS_8internal15scalar_dummy_opIdLb0EEEKNS0_INS1_14scalar_abs2_opIdEEKNS_6MatrixIdLin1ELin1ELi0ELin1ELin1EEEEEEC2ERSA_RKS3_ = comdat any

$_ZN5Eigen16CwiseUnaryOpImplINS_8internal15scalar_dummy_opIdLb0EEEKNS_12CwiseUnaryOpINS1_14scalar_abs2_opIdEEKNS_6MatrixIdLin1ELin1ELi0ELin1ELin1EEEEENS_5DenseEEC2Ev = comdat any

$_ZN5Eigen10MatrixBaseINS_12CwiseUnaryOpINS_8internal15scalar_dummy_opIdLb0EEEKNS1_INS2_14scalar_abs2_opIdEEKNS_6MatrixIdLin1ELin1ELi0ELin1ELin1EEEEEEEEC2Ev = comdat any

$_ZN5Eigen9DenseBaseINS_12CwiseUnaryOpINS_8internal15scalar_dummy_opIdLb0EEEKNS1_INS2_14scalar_abs2_opIdEEKNS_6MatrixIdLin1ELin1ELi0ELin1ELin1EEEEEEEEC2Ev = comdat any

$_ZN5Eigen15PlainObjectBaseINS_6MatrixIdLin1ELin1ELi0ELin1ELin1EEEE4_setINS_12CwiseUnaryOpINS_8internal15scalar_dummy_opIdLb0EEEKNS5_INS6_14scalar_abs2_opIdEEKS2_EEEEEERS2_RKNS_9DenseBaseIT_EE = comdat any

$_ZN5Eigen8internal15call_assignmentINS_6MatrixIdLin1ELin1ELi0ELin1ELin1EEENS_12CwiseUnaryOpINS0_15scalar_dummy_opIdLb0EEEKNS4_INS0_14scalar_abs2_opIdEEKS3_EEEEEEvRT_RKT0_ = comdat any

$_ZNK5Eigen9EigenBaseINS_12CwiseUnaryOpINS_8internal15scalar_dummy_opIdLb0EEEKNS1_INS2_14scalar_abs2_opIdEEKNS_6MatrixIdLin1ELin1ELi0ELin1ELin1EEEEEEEE7derivedEv = comdat any

$_ZN5Eigen8internal15call_assignmentINS_6MatrixIdLin1ELin1ELi0ELin1ELin1EEENS_12CwiseUnaryOpINS0_15scalar_dummy_opIdLb0EEEKNS4_INS0_14scalar_abs2_opIdEEKS3_EEEENS0_9assign_opIddEEEEvRT_RKT0_RKT1_NSt9enable_ifIXntsr25evaluator_assume_aliasingISH_EE5valueEPvE4typeE = comdat any

$_ZN5Eigen8internal24call_assignment_no_aliasINS_6MatrixIdLin1ELin1ELi0ELin1ELin1EEENS_12CwiseUnaryOpINS0_15scalar_dummy_opIdLb0EEEKNS4_INS0_14scalar_abs2_opIdEEKS3_EEEENS0_9assign_opIddEEEEvRT_RKT0_RKT1_ = comdat any

$_ZN5Eigen8internal10AssignmentINS_6MatrixIdLin1ELin1ELi0ELin1ELin1EEENS_12CwiseUnaryOpINS0_15scalar_dummy_opIdLb0EEEKNS4_INS0_14scalar_abs2_opIdEEKS3_EEEENS0_9assign_opIddEENS0_11Dense2DenseEvE3runERS3_RKSC_RKSE_ = comdat any

$_ZN5Eigen8internal18check_for_aliasingINS_6MatrixIdLin1ELin1ELi0ELin1ELin1EEENS_12CwiseUnaryOpINS0_15scalar_dummy_opIdLb0EEEKNS4_INS0_14scalar_abs2_opIdEEKS3_EEEEEEvRKT_RKT0_ = comdat any

$_ZN5Eigen8internal26call_dense_assignment_loopINS_6MatrixIdLin1ELin1ELi0ELin1ELin1EEENS_12CwiseUnaryOpINS0_15scalar_dummy_opIdLb0EEEKNS4_INS0_14scalar_abs2_opIdEEKS3_EEEENS0_9assign_opIddEEEEvRT_RKT0_RKT1_ = comdat any

$_ZN5Eigen8internal27checkTransposeAliasing_implINS_6MatrixIdLin1ELin1ELi0ELin1ELin1EEENS_12CwiseUnaryOpINS0_15scalar_dummy_opIdLb0EEEKNS4_INS0_14scalar_abs2_opIdEEKS3_EEEELb0EE3runERS9_RKSC_ = comdat any

$_ZN5Eigen8internal9evaluatorINS_12CwiseUnaryOpINS0_15scalar_dummy_opIdLb0EEEKNS2_INS0_14scalar_abs2_opIdEEKNS_6MatrixIdLin1ELin1ELi0ELin1ELin1EEEEEEEEC2ERKSC_ = comdat any

$_ZN5Eigen8internal17resize_if_allowedINS_6MatrixIdLin1ELin1ELi0ELin1ELin1EEENS_12CwiseUnaryOpINS0_15scalar_dummy_opIdLb0EEEKNS4_INS0_14scalar_abs2_opIdEEKS3_EEEEddEEvRT_RKT0_RKNS0_9assign_opIT1_T2_EE = comdat any

$_ZN5Eigen8internal31generic_dense_assignment_kernelINS0_9evaluatorINS_6MatrixIdLin1ELin1ELi0ELin1ELin1EEEEENS2_INS_12CwiseUnaryOpINS0_15scalar_dummy_opIdLb0EEEKNS6_INS0_14scalar_abs2_opIdEEKS4_EEEEEENS0_9assign_opIddEELi0EEC2ERS5_RKSF_RKSH_RS4_ = comdat any

$_ZN5Eigen8internal21dense_assignment_loopINS0_31generic_dense_assignment_kernelINS0_9evaluatorINS_6MatrixIdLin1ELin1ELi0ELin1ELin1EEEEENS3_INS_12CwiseUnaryOpINS0_15scalar_dummy_opIdLb0EEEKNS7_INS0_14scalar_abs2_opIdEEKS5_EEEEEENS0_9assign_opIddEELi0EEELi1ELi0EE3runERSJ_ = comdat any

$_ZN5Eigen8internal15unary_evaluatorINS_12CwiseUnaryOpINS0_15scalar_dummy_opIdLb0EEEKNS2_INS0_14scalar_abs2_opIdEEKNS_6MatrixIdLin1ELin1ELi0ELin1ELin1EEEEEEENS0_10IndexBasedEdEC2ERKSC_ = comdat any

$_ZN5Eigen8internal15unary_evaluatorINS_12CwiseUnaryOpINS0_15scalar_dummy_opIdLb0EEEKNS2_INS0_14scalar_abs2_opIdEEKNS_6MatrixIdLin1ELin1ELi0ELin1ELin1EEEEEEENS0_10IndexBasedEdE4DataC2ERKSC_ = comdat any

$_ZNK5Eigen12CwiseUnaryOpINS_8internal15scalar_dummy_opIdLb0EEEKNS0_INS1_14scalar_abs2_opIdEEKNS_6MatrixIdLin1ELin1ELi0ELin1ELin1EEEEEE7functorEv = comdat any

$_ZNK5Eigen12CwiseUnaryOpINS_8internal15scalar_dummy_opIdLb0EEEKNS0_INS1_14scalar_abs2_opIdEEKNS_6MatrixIdLin1ELin1ELi0ELin1ELin1EEEEEE16nestedExpressionEv = comdat any

$_ZN5Eigen8internal9evaluatorIKNS_12CwiseUnaryOpINS0_14scalar_abs2_opIdEEKNS_6MatrixIdLin1ELin1ELi0ELin1ELin1EEEEEEC2ERS9_ = comdat any

$_ZN5Eigen8internal9evaluatorINS_12CwiseUnaryOpINS0_14scalar_abs2_opIdEEKNS_6MatrixIdLin1ELin1ELi0ELin1ELin1EEEEEEC2ERKS8_ = comdat any

$_ZN5Eigen8internal15unary_evaluatorINS_12CwiseUnaryOpINS0_14scalar_abs2_opIdEEKNS_6MatrixIdLin1ELin1ELi0ELin1ELin1EEEEENS0_10IndexBasedEdEC2ERKS8_ = comdat any

$_ZN5Eigen8internal15unary_evaluatorINS_12CwiseUnaryOpINS0_14scalar_abs2_opIdEEKNS_6MatrixIdLin1ELin1ELi0ELin1ELin1EEEEENS0_10IndexBasedEdE4DataC2ERKS8_ = comdat any

$_ZNK5Eigen12CwiseUnaryOpINS_8internal14scalar_abs2_opIdEEKNS_6MatrixIdLin1ELin1ELi0ELin1ELin1EEEE7functorEv = comdat any

$_ZNK5Eigen12CwiseUnaryOpINS_8internal14scalar_abs2_opIdEEKNS_6MatrixIdLin1ELin1ELi0ELin1ELin1EEEE16nestedExpressionEv = comdat any

$_ZN5Eigen8internal9evaluatorIKNS_6MatrixIdLin1ELin1ELi0ELin1ELin1EEEEC2ERS4_ = comdat any

$_ZNK5Eigen12CwiseUnaryOpINS_8internal15scalar_dummy_opIdLb0EEEKNS0_INS1_14scalar_abs2_opIdEEKNS_6MatrixIdLin1ELin1ELi0ELin1ELin1EEEEEE4rowsEv = comdat any

$_ZNK5Eigen12CwiseUnaryOpINS_8internal15scalar_dummy_opIdLb0EEEKNS0_INS1_14scalar_abs2_opIdEEKNS_6MatrixIdLin1ELin1ELi0ELin1ELin1EEEEEE4colsEv = comdat any

$_ZNK5Eigen12CwiseUnaryOpINS_8internal14scalar_abs2_opIdEEKNS_6MatrixIdLin1ELin1ELi0ELin1ELin1EEEE4rowsEv = comdat any

$_ZNK5Eigen12CwiseUnaryOpINS_8internal14scalar_abs2_opIdEEKNS_6MatrixIdLin1ELin1ELi0ELin1ELin1EEEE4colsEv = comdat any

$_ZNK5Eigen8internal31generic_dense_assignment_kernelINS0_9evaluatorINS_6MatrixIdLin1ELin1ELi0ELin1ELin1EEEEENS2_INS_12CwiseUnaryOpINS0_15scalar_dummy_opIdLb0EEEKNS6_INS0_14scalar_abs2_opIdEEKS4_EEEEEENS0_9assign_opIddEELi0EE4sizeEv = comdat any

$_ZN5Eigen8internal31generic_dense_assignment_kernelINS0_9evaluatorINS_6MatrixIdLin1ELin1ELi0ELin1ELin1EEEEENS2_INS_12CwiseUnaryOpINS0_15scalar_dummy_opIdLb0EEEKNS6_INS0_14scalar_abs2_opIdEEKS4_EEEEEENS0_9assign_opIddEELi0EE11assignCoeffEl = comdat any

$_ZNK5Eigen8internal15unary_evaluatorINS_12CwiseUnaryOpINS0_15scalar_dummy_opIdLb0EEEKNS2_INS0_14scalar_abs2_opIdEEKNS_6MatrixIdLin1ELin1ELi0ELin1ELin1EEEEEEENS0_10IndexBasedEdE5coeffEl = comdat any

$_ZNK5Eigen8internal15unary_evaluatorINS_12CwiseUnaryOpINS0_15scalar_dummy_opIdLb0EEEKNS2_INS0_14scalar_abs2_opIdEEKNS_6MatrixIdLin1ELin1ELi0ELin1ELin1EEEEEEENS0_10IndexBasedEdE4Data4funcEv = comdat any

$_ZNK5Eigen8internal15scalar_dummy_opIdLb0EEclERKd = comdat any

$_ZNK5Eigen8internal15unary_evaluatorINS_12CwiseUnaryOpINS0_14scalar_abs2_opIdEEKNS_6MatrixIdLin1ELin1ELi0ELin1ELin1EEEEENS0_10IndexBasedEdE5coeffEl = comdat any

$_ZNK5Eigen8internal15unary_evaluatorINS_12CwiseUnaryOpINS0_14scalar_abs2_opIdEEKNS_6MatrixIdLin1ELin1ELi0ELin1ELin1EEEEENS0_10IndexBasedEdE4Data4funcEv = comdat any

$_ZNK5Eigen8internal14scalar_abs2_opIdEclERKd = comdat any

$_ZNK5Eigen8internal9evaluatorINS_15PlainObjectBaseINS_6MatrixIdLin1ELin1ELi0ELin1ELin1EEEEEE5coeffEl = comdat any

$_ZN5Eigen6numext4abs2IdEENS_8internal11abs2_retvalINS2_36global_math_functions_filtering_baseIT_vE4typeEE4typeERKS5_ = comdat any

$_ZN5Eigen8internal9abs2_implIdE3runERKd = comdat any

$_ZN5Eigen8internal17abs2_impl_defaultIdLb0EE3runERKd = comdat any

$_ZN5Eigen13DeviceWrapperINS_6MatrixIdLin1ELin1ELi0ELin1ELin1EEENS_20CoreThreadPoolDeviceEEC2ERNS_9EigenBaseIS2_EERS3_ = comdat any

$_ZN5Eigen8internal15call_assignmentINS_13DeviceWrapperINS_6MatrixIdLin1ELin1ELi0ELin1ELin1EEENS_20CoreThreadPoolDeviceEEENS_12CwiseUnaryOpINS0_15scalar_dummy_opIdLb0EEEKNS7_INS0_14scalar_abs2_opIdEEKS4_EEEENS0_9assign_opIddEEEEvRT_RKT0_RKT1_NSt9enable_ifIXntsr25evaluator_assume_aliasingISK_EE5valueEPvE4typeE = comdat any

$_ZN5Eigen8internal24call_assignment_no_aliasINS_6MatrixIdLin1ELin1ELi0ELin1ELin1EEENS_12CwiseUnaryOpINS0_15scalar_dummy_opIdLb0EEEKNS4_INS0_14scalar_abs2_opIdEEKS3_EEEENS0_9assign_opIddEENS_20CoreThreadPoolDeviceEEEvNS_13DeviceWrapperIT_T2_EERKT0_RKT1_ = comdat any

$_ZN5Eigen13DeviceWrapperINS_6MatrixIdLin1ELin1ELi0ELin1ELin1EEENS_20CoreThreadPoolDeviceEE7derivedEv = comdat any

$_ZN5Eigen8internal20AssignmentWithDeviceINS_6MatrixIdLin1ELin1ELi0ELin1ELin1EEENS_12CwiseUnaryOpINS0_15scalar_dummy_opIdLb0EEEKNS4_INS0_14scalar_abs2_opIdEEKS3_EEEENS0_9assign_opIddEENS_20CoreThreadPoolDeviceENS0_11Dense2DenseEvE3runERS3_RKSC_RKSE_RSF_ = comdat any

$_ZN5Eigen13DeviceWrapperINS_6MatrixIdLin1ELin1ELi0ELin1ELin1EEENS_20CoreThreadPoolDeviceEE6deviceEv = comdat any

$_ZN5Eigen8internal26call_dense_assignment_loopINS_6MatrixIdLin1ELin1ELi0ELin1ELin1EEENS_12CwiseUnaryOpINS0_15scalar_dummy_opIdLb0EEEKNS4_INS0_14scalar_abs2_opIdEEKS3_EEEENS0_9assign_opIddEENS_20CoreThreadPoolDeviceEEEvRT_RKT0_RKT1_RT2_ = comdat any

$_ZN5Eigen8internal33dense_assignment_loop_with_deviceINS0_31generic_dense_assignment_kernelINS0_9evaluatorINS_6MatrixIdLin1ELin1ELi0ELin1ELin1EEEEENS3_INS_12CwiseUnaryOpINS0_15scalar_dummy_opIdLb0EEEKNS7_INS0_14scalar_abs2_opIdEEKS5_EEEEEENS0_9assign_opIddEELi0EEENS_20CoreThreadPoolDeviceELi1ELi0EE3runERSJ_RSK_ = comdat any

$_ZN5Eigen8internal33dense_assignment_loop_with_deviceINS0_31generic_dense_assignment_kernelINS0_9evaluatorINS_6MatrixIdLin1ELin1ELi0ELin1ELin1EEEEENS3_INS_12CwiseUnaryOpINS0_15scalar_dummy_opIdLb0EEEKNS7_INS0_14scalar_abs2_opIdEEKS5_EEEEEENS0_9assign_opIddEELi0EEENS_20CoreThreadPoolDeviceELi1ELi0EE17AssignmentFunctorC2ERSJ_ = comdat any

$_ZN5Eigen20CoreThreadPoolDevice11parallelForINS_8internal33dense_assignment_loop_with_deviceINS2_31generic_dense_assignment_kernelINS2_9evaluatorINS_6MatrixIdLin1ELin1ELi0ELin1ELin1EEEEENS5_INS_12CwiseUnaryOpINS2_15scalar_dummy_opIdLb0EEEKNS9_INS2_14scalar_abs2_opIdEEKS7_EEEEEENS2_9assign_opIddEELi0EEES0_Li1ELi0EE17AssignmentFunctorELi1EEEvllRT_f = comdat any

$_ZNK5Eigen20CoreThreadPoolDevice15calculateLevelsILi1EEEilf = comdat any

$_ZN5Eigen7BarrierC2Ej = comdat any

$_ZN5Eigen20CoreThreadPoolDevice15parallelForImplINS_8internal33dense_assignment_loop_with_deviceINS2_31generic_dense_assignment_kernelINS2_9evaluatorINS_6MatrixIdLin1ELin1ELi0ELin1ELin1EEEEENS5_INS_12CwiseUnaryOpINS2_15scalar_dummy_opIdLb0EEEKNS9_INS2_14scalar_abs2_opIdEEKS7_EEEEEENS2_9assign_opIddEELi0EEES0_Li1ELi0EE17AssignmentFunctorELi1EEEvllRT_RNS_7BarrierEi = comdat any

$_ZN5Eigen7Barrier4WaitEv = comdat any

$_ZN5Eigen7BarrierD2Ev = comdat any

$_ZN5Eigen8internal9log2_ceilIiEEiRKT_ = comdat any

$_ZSt3maxIfERKT_S2_S2_ = comdat any

$_ZSt3minIiERKT_S2_S2_ = comdat any

$_ZN5Eigen8internal10log_2_implIiE8run_ceilERKi = comdat any

$_ZN5Eigen8internal3clzIiEEiT_ = comdat any

$_ZN5Eigen8internal15count_bits_implIivE3clzEi = comdat any

$_ZNSt8functionIFvvEEC2IZN5Eigen20CoreThreadPoolDevice15parallelForImplINS3_8internal33dense_assignment_loop_with_deviceINS6_31generic_dense_assignment_kernelINS6_9evaluatorINS3_6MatrixIdLin1ELin1ELi0ELin1ELin1EEEEENS9_INS3_12CwiseUnaryOpINS6_15scalar_dummy_opIdLb0EEEKNSD_INS6_14scalar_abs2_opIdEEKSB_EEEEEENS6_9assign_opIddEELi0EEES4_Li1ELi0EE17AssignmentFunctorELi1EEEvllRT_RNS3_7BarrierEiEUlvE_vEEOSS_ = comdat any

$_ZN5Eigen8internal33dense_assignment_loop_with_deviceINS0_31generic_dense_assignment_kernelINS0_9evaluatorINS_6MatrixIdLin1ELin1ELi0ELin1ELin1EEEEENS3_INS_12CwiseUnaryOpINS0_15scalar_dummy_opIdLb0EEEKNS7_INS0_14scalar_abs2_opIdEEKS5_EEEEEENS0_9assign_opIddEELi0EEENS_20CoreThreadPoolDeviceELi1ELi0EE17AssignmentFunctorclEl = comdat any

$_ZN5Eigen7Barrier6NotifyEv = comdat any

$_ZNSt14_Function_base13_Base_managerIZN5Eigen20CoreThreadPoolDevice15parallelForImplINS1_8internal33dense_assignment_loop_with_deviceINS4_31generic_dense_assignment_kernelINS4_9evaluatorINS1_6MatrixIdLin1ELin1ELi0ELin1ELin1EEEEENS7_INS1_12CwiseUnaryOpINS4_15scalar_dummy_opIdLb0EEEKNSB_INS4_14scalar_abs2_opIdEEKS9_EEEEEENS4_9assign_opIddEELi0EEES2_Li1ELi0EE17AssignmentFunctorELi1EEEvllRT_RNS1_7BarrierEiEUlvE_E21_M_not_empty_functionISU_EEbRKSQ_ = comdat any

$_ZNSt14_Function_base13_Base_managerIZN5Eigen20CoreThreadPoolDevice15parallelForImplINS1_8internal33dense_assignment_loop_with_deviceINS4_31generic_dense_assignment_kernelINS4_9evaluatorINS1_6MatrixIdLin1ELin1ELi0ELin1ELin1EEEEENS7_INS1_12CwiseUnaryOpINS4_15scalar_dummy_opIdLb0EEEKNSB_INS4_14scalar_abs2_opIdEEKS9_EEEEEENS4_9assign_opIddEELi0EEES2_Li1ELi0EE17AssignmentFunctorELi1EEEvllRT_RNS1_7BarrierEiEUlvE_E15_M_init_functorISU_EEvRSt9_Any_dataOSQ_ = comdat any

$_ZNSt17_Function_handlerIFvvEZN5Eigen20CoreThreadPoolDevice15parallelForImplINS1_8internal33dense_assignment_loop_with_deviceINS4_31generic_dense_assignment_kernelINS4_9evaluatorINS1_6MatrixIdLin1ELin1ELi0ELin1ELin1EEEEENS7_INS1_12CwiseUnaryOpINS4_15scalar_dummy_opIdLb0EEEKNSB_INS4_14scalar_abs2_opIdEEKS9_EEEEEENS4_9assign_opIddEELi0EEES2_Li1ELi0EE17AssignmentFunctorELi1EEEvllRT_RNS1_7BarrierEiEUlvE_E9_M_invokeERKSt9_Any_data = comdat any

$_ZNSt17_Function_handlerIFvvEZN5Eigen20CoreThreadPoolDevice15parallelForImplINS1_8internal33dense_assignment_loop_with_deviceINS4_31generic_dense_assignment_kernelINS4_9evaluatorINS1_6MatrixIdLin1ELin1ELi0ELin1ELin1EEEEENS7_INS1_12CwiseUnaryOpINS4_15scalar_dummy_opIdLb0EEEKNSB_INS4_14scalar_abs2_opIdEEKS9_EEEEEENS4_9assign_opIddEELi0EEES2_Li1ELi0EE17AssignmentFunctorELi1EEEvllRT_RNS1_7BarrierEiEUlvE_E10_M_managerERSt9_Any_dataRKSW_St18_Manager_operation = comdat any

$_ZNSt14_Function_base13_Base_managerIZN5Eigen20CoreThreadPoolDevice15parallelForImplINS1_8internal33dense_assignment_loop_with_deviceINS4_31generic_dense_assignment_kernelINS4_9evaluatorINS1_6MatrixIdLin1ELin1ELi0ELin1ELin1EEEEENS7_INS1_12CwiseUnaryOpINS4_15scalar_dummy_opIdLb0EEEKNSB_INS4_14scalar_abs2_opIdEEKS9_EEEEEENS4_9assign_opIddEELi0EEES2_Li1ELi0EE17AssignmentFunctorELi1EEEvllRT_RNS1_7BarrierEiEUlvE_E9_M_createISU_EEvRSt9_Any_dataOSQ_St17integral_constantIbLb0EE = comdat any

$_ZNSt9_Any_data9_M_accessIPZN5Eigen20CoreThreadPoolDevice15parallelForImplINS1_8internal33dense_assignment_loop_with_deviceINS4_31generic_dense_assignment_kernelINS4_9evaluatorINS1_6MatrixIdLin1ELin1ELi0ELin1ELin1EEEEENS7_INS1_12CwiseUnaryOpINS4_15scalar_dummy_opIdLb0EEEKNSB_INS4_14scalar_abs2_opIdEEKS9_EEEEEENS4_9assign_opIddEELi0EEES2_Li1ELi0EE17AssignmentFunctorELi1EEEvllRT_RNS1_7BarrierEiEUlvE_EESR_v = comdat any

$_ZSt10__invoke_rIvRZN5Eigen20CoreThreadPoolDevice15parallelForImplINS0_8internal33dense_assignment_loop_with_deviceINS3_31generic_dense_assignment_kernelINS3_9evaluatorINS0_6MatrixIdLin1ELin1ELi0ELin1ELin1EEEEENS6_INS0_12CwiseUnaryOpINS3_15scalar_dummy_opIdLb0EEEKNSA_INS3_14scalar_abs2_opIdEEKS8_EEEEEENS3_9assign_opIddEELi0EEES1_Li1ELi0EE17AssignmentFunctorELi1EEEvllRT_RNS0_7BarrierEiEUlvE_JEENSt9enable_ifIXsr6__and_ISt7is_voidISP_ESt14__is_invocableIT0_JDpT1_EEEE5valueESP_E4typeEOSZ_DpOS10_ = comdat any

$_ZNSt14_Function_base13_Base_managerIZN5Eigen20CoreThreadPoolDevice15parallelForImplINS1_8internal33dense_assignment_loop_with_deviceINS4_31generic_dense_assignment_kernelINS4_9evaluatorINS1_6MatrixIdLin1ELin1ELi0ELin1ELin1EEEEENS7_INS1_12CwiseUnaryOpINS4_15scalar_dummy_opIdLb0EEEKNSB_INS4_14scalar_abs2_opIdEEKS9_EEEEEENS4_9assign_opIddEELi0EEES2_Li1ELi0EE17AssignmentFunctorELi1EEEvllRT_RNS1_7BarrierEiEUlvE_E14_M_get_pointerERKSt9_Any_data = comdat any

$_ZSt13__invoke_implIvRZN5Eigen20CoreThreadPoolDevice15parallelForImplINS0_8internal33dense_assignment_loop_with_deviceINS3_31generic_dense_assignment_kernelINS3_9evaluatorINS0_6MatrixIdLin1ELin1ELi0ELin1ELin1EEEEENS6_INS0_12CwiseUnaryOpINS3_15scalar_dummy_opIdLb0EEEKNSA_INS3_14scalar_abs2_opIdEEKS8_EEEEEENS3_9assign_opIddEELi0EEES1_Li1ELi0EE17AssignmentFunctorELi1EEEvllRT_RNS0_7BarrierEiEUlvE_JEESP_St14__invoke_otherOT0_DpOT1_ = comdat any

$_ZZN5Eigen20CoreThreadPoolDevice15parallelForImplINS_8internal33dense_assignment_loop_with_deviceINS2_31generic_dense_assignment_kernelINS2_9evaluatorINS_6MatrixIdLin1ELin1ELi0ELin1ELin1EEEEENS5_INS_12CwiseUnaryOpINS2_15scalar_dummy_opIdLb0EEEKNS9_INS2_14scalar_abs2_opIdEEKS7_EEEEEENS2_9assign_opIddEELi0EEES0_Li1ELi0EE17AssignmentFunctorELi1EEEvllRT_RNS_7BarrierEiENKUlvE_clEv = comdat any

$_ZNKSt9_Any_data9_M_accessIPZN5Eigen20CoreThreadPoolDevice15parallelForImplINS1_8internal33dense_assignment_loop_with_deviceINS4_31generic_dense_assignment_kernelINS4_9evaluatorINS1_6MatrixIdLin1ELin1ELi0ELin1ELin1EEEEENS7_INS1_12CwiseUnaryOpINS4_15scalar_dummy_opIdLb0EEEKNSB_INS4_14scalar_abs2_opIdEEKS9_EEEEEENS4_9assign_opIddEELi0EEES2_Li1ELi0EE17AssignmentFunctorELi1EEEvllRT_RNS1_7BarrierEiEUlvE_EERKSQ_v = comdat any

$_ZNSt14_Function_base13_Base_managerIZN5Eigen20CoreThreadPoolDevice15parallelForImplINS1_8internal33dense_assignment_loop_with_deviceINS4_31generic_dense_assignment_kernelINS4_9evaluatorINS1_6MatrixIdLin1ELin1ELi0ELin1ELin1EEEEENS7_INS1_12CwiseUnaryOpINS4_15scalar_dummy_opIdLb0EEEKNSB_INS4_14scalar_abs2_opIdEEKS9_EEEEEENS4_9assign_opIddEELi0EEES2_Li1ELi0EE17AssignmentFunctorELi1EEEvllRT_RNS1_7BarrierEiEUlvE_E10_M_managerERSt9_Any_dataRKSW_St18_Manager_operation = comdat any

$_ZNSt14_Function_base13_Base_managerIZN5Eigen20CoreThreadPoolDevice15parallelForImplINS1_8internal33dense_assignment_loop_with_deviceINS4_31generic_dense_assignment_kernelINS4_9evaluatorINS1_6MatrixIdLin1ELin1ELi0ELin1ELin1EEEEENS7_INS1_12CwiseUnaryOpINS4_15scalar_dummy_opIdLb0EEEKNSB_INS4_14scalar_abs2_opIdEEKS9_EEEEEENS4_9assign_opIddEELi0EEES2_Li1ELi0EE17AssignmentFunctorELi1EEEvllRT_RNS1_7BarrierEiEUlvE_E15_M_init_functorIRKSU_EEvRSt9_Any_dataOSQ_ = comdat any

$_ZNSt14_Function_base13_Base_managerIZN5Eigen20CoreThreadPoolDevice15parallelForImplINS1_8internal33dense_assignment_loop_with_deviceINS4_31generic_dense_assignment_kernelINS4_9evaluatorINS1_6MatrixIdLin1ELin1ELi0ELin1ELin1EEEEENS7_INS1_12CwiseUnaryOpINS4_15scalar_dummy_opIdLb0EEEKNSB_INS4_14scalar_abs2_opIdEEKS9_EEEEEENS4_9assign_opIddEELi0EEES2_Li1ELi0EE17AssignmentFunctorELi1EEEvllRT_RNS1_7BarrierEiEUlvE_E10_M_destroyERSt9_Any_dataSt17integral_constantIbLb0EE = comdat any

$_ZNSt14_Function_base13_Base_managerIZN5Eigen20CoreThreadPoolDevice15parallelForImplINS1_8internal33dense_assignment_loop_with_deviceINS4_31generic_dense_assignment_kernelINS4_9evaluatorINS1_6MatrixIdLin1ELin1ELi0ELin1ELin1EEEEENS7_INS1_12CwiseUnaryOpINS4_15scalar_dummy_opIdLb0EEEKNSB_INS4_14scalar_abs2_opIdEEKS9_EEEEEENS4_9assign_opIddEELi0EEES2_Li1ELi0EE17AssignmentFunctorELi1EEEvllRT_RNS1_7BarrierEiEUlvE_E9_M_createIRKSU_EEvRSt9_Any_dataOSQ_St17integral_constantIbLb0EE = comdat any

$_ZN5Eigen18test_isCwiseApproxINS_6MatrixIdLin1ELin1ELi0ELin1ELin1EEES2_EEbRKNS_9DenseBaseIT_EERKNS3_IT0_EEb = comdat any

$_ZN5Eigen18get_test_precisionINS_6MatrixIdLin1ELin1ELi0ELin1ELin1EEEEENS_9NumTraitsINT_6ScalarEE4RealERKS4_PKS5_ = comdat any

$_ZN5Eigen19test_relative_errorINS_6MatrixIdLin1ELin1ELi0ELin1ELin1EEES2_EENS_9NumTraitsINT_10RealScalarEE10NonIntegerERKNS_9EigenBaseIS4_EERKNS8_IT0_EE = comdat any

$_ZNK5Eigen15DenseCoeffsBaseINS_6MatrixIdLin1ELin1ELi0ELin1ELin1EEELi0EEclEll = comdat any

$_ZN5Eigen6numext5isnanIdEEbRKT_ = comdat any

$_ZN5Eigen13test_isApproxEdd = comdat any

$_ZNK5Eigen15DenseCoeffsBaseINS_6MatrixIdLin1ELin1ELi0ELin1ELin1EEELi0EE5coeffEll = comdat any

$_ZNK5Eigen8internal9evaluatorINS_15PlainObjectBaseINS_6MatrixIdLin1ELin1ELi0ELin1ELin1EEEEEE5coeffEll = comdat any

$_ZNK5Eigen8internal30plainobjectbase_evaluator_dataIdLin1EE11outerStrideEv = comdat any

$_ZN5Eigen8internal10isnan_implIdEENSt9enable_ifIXaaoosr3std14numeric_limitsIT_EE13has_quiet_NaNsr3std14numeric_limitsIS3_EE17has_signaling_NaNntsr9NumTraitsIS3_EE9IsComplexEbE4typeERKS3_ = comdat any

$_ZSt5isnand = comdat any

$_ZN5Eigen6numext12equal_strictIddEEbRKT_RKT0_ = comdat any

$_ZN5Eigen8internal8isApproxIdEEbRKT_S4_RKNS_9NumTraitsIS2_E4RealE = comdat any

$_ZN5Eigen14test_precisionIdEENS_9NumTraitsIT_E4RealEv = comdat any

$_ZNKSt8equal_toIdEclERKdS2_ = comdat any

$_ZN5Eigen8internal25scalar_fuzzy_default_implIdLb0ELb0EE8isApproxERKdS4_S4_ = comdat any

$_ZSt3absd = comdat any

$_ZSt3minIdERKT_S2_S2_ = comdat any

$_ZNK5Eigen10MatrixBaseINS_6MatrixIdLin1ELin1ELi0ELin1ELin1EEEE6matrixEv = comdat any

$_ZNK5Eigen10MatrixBaseINS_6MatrixIdLin1ELin1ELi0ELin1ELin1EEEEmiIS2_EEKNS_13CwiseBinaryOpINS_8internal20scalar_difference_opIdNS6_6traitsIT_E6ScalarEEEKS2_KS9_EERKNS0_IS9_EE = comdat any

$_ZNK5Eigen10MatrixBaseINS_13CwiseBinaryOpINS_8internal20scalar_difference_opIddEEKNS_6MatrixIdLin1ELin1ELi0ELin1ELin1EEES7_EEE9cwiseAbs2Ev = comdat any

$_ZNK5Eigen9DenseBaseINS_12CwiseUnaryOpINS_8internal14scalar_abs2_opIdEEKNS_13CwiseBinaryOpINS2_20scalar_difference_opIddEEKNS_6MatrixIdLin1ELin1ELi0ELin1ELin1EEESA_EEEEE3sumEv = comdat any

$_ZNK5Eigen9DenseBaseINS_12CwiseUnaryOpINS_8internal14scalar_abs2_opIdEEKNS_6MatrixIdLin1ELin1ELi0ELin1ELin1EEEEEE3sumEv = comdat any

$_ZN5Eigen13CwiseBinaryOpINS_8internal20scalar_difference_opIddEEKNS_6MatrixIdLin1ELin1ELi0ELin1ELin1EEES6_EC2ERS6_S8_RKS3_ = comdat any

$_ZN5Eigen17CwiseBinaryOpImplINS_8internal20scalar_difference_opIddEEKNS_6MatrixIdLin1ELin1ELi0ELin1ELin1EEES6_NS_5DenseEEC2Ev = comdat any

$_ZN5Eigen10MatrixBaseINS_13CwiseBinaryOpINS_8internal20scalar_difference_opIddEEKNS_6MatrixIdLin1ELin1ELi0ELin1ELin1EEES7_EEEC2Ev = comdat any

$_ZN5Eigen9DenseBaseINS_13CwiseBinaryOpINS_8internal20scalar_difference_opIddEEKNS_6MatrixIdLin1ELin1ELi0ELin1ELin1EEES7_EEEC2Ev = comdat any

$_ZNK5Eigen9EigenBaseINS_13CwiseBinaryOpINS_8internal20scalar_difference_opIddEEKNS_6MatrixIdLin1ELin1ELi0ELin1ELin1EEES7_EEE7derivedEv = comdat any

$_ZN5Eigen12CwiseUnaryOpINS_8internal14scalar_abs2_opIdEEKNS_13CwiseBinaryOpINS1_20scalar_difference_opIddEEKNS_6MatrixIdLin1ELin1ELi0ELin1ELin1EEES9_EEEC2ERSB_RKS3_ = comdat any

$_ZN5Eigen16CwiseUnaryOpImplINS_8internal14scalar_abs2_opIdEEKNS_13CwiseBinaryOpINS1_20scalar_difference_opIddEEKNS_6MatrixIdLin1ELin1ELi0ELin1ELin1EEES9_EENS_5DenseEEC2Ev = comdat any

$_ZN5Eigen10MatrixBaseINS_12CwiseUnaryOpINS_8internal14scalar_abs2_opIdEEKNS_13CwiseBinaryOpINS2_20scalar_difference_opIddEEKNS_6MatrixIdLin1ELin1ELi0ELin1ELin1EEESA_EEEEEC2Ev = comdat any

$_ZN5Eigen9DenseBaseINS_12CwiseUnaryOpINS_8internal14scalar_abs2_opIdEEKNS_13CwiseBinaryOpINS2_20scalar_difference_opIddEEKNS_6MatrixIdLin1ELin1ELi0ELin1ELin1EEESA_EEEEEC2Ev = comdat any

$_ZNK5Eigen9EigenBaseINS_12CwiseUnaryOpINS_8internal14scalar_abs2_opIdEEKNS_13CwiseBinaryOpINS2_20scalar_difference_opIddEEKNS_6MatrixIdLin1ELin1ELi0ELin1ELin1EEESA_EEEEE4sizeEv = comdat any

$_ZNK5Eigen9EigenBaseINS_12CwiseUnaryOpINS_8internal14scalar_abs2_opIdEEKNS_13CwiseBinaryOpINS2_20scalar_difference_opIddEEKNS_6MatrixIdLin1ELin1ELi0ELin1ELin1EEESA_EEEEE7derivedEv = comdat any

$_ZNK5Eigen9DenseBaseINS_12CwiseUnaryOpINS_8internal14scalar_abs2_opIdEEKNS_13CwiseBinaryOpINS2_20scalar_difference_opIddEEKNS_6MatrixIdLin1ELin1ELi0ELin1ELin1EEESA_EEEEE5reduxINS2_13scalar_sum_opIddEEEEdRKT_ = comdat any

$_ZNK5Eigen9EigenBaseINS_12CwiseUnaryOpINS_8internal14scalar_abs2_opIdEEKNS_13CwiseBinaryOpINS2_20scalar_difference_opIddEEKNS_6MatrixIdLin1ELin1ELi0ELin1ELin1EEESA_EEEEE4rowsEv = comdat any

$_ZNK5Eigen9EigenBaseINS_12CwiseUnaryOpINS_8internal14scalar_abs2_opIdEEKNS_13CwiseBinaryOpINS2_20scalar_difference_opIddEEKNS_6MatrixIdLin1ELin1ELi0ELin1ELin1EEESA_EEEEE4colsEv = comdat any

$_ZNK5Eigen12CwiseUnaryOpINS_8internal14scalar_abs2_opIdEEKNS_13CwiseBinaryOpINS1_20scalar_difference_opIddEEKNS_6MatrixIdLin1ELin1ELi0ELin1ELin1EEES9_EEE4rowsEv = comdat any

$_ZNK5Eigen13CwiseBinaryOpINS_8internal20scalar_difference_opIddEEKNS_6MatrixIdLin1ELin1ELi0ELin1ELin1EEES6_E4rowsEv = comdat any

$_ZNK5Eigen12CwiseUnaryOpINS_8internal14scalar_abs2_opIdEEKNS_13CwiseBinaryOpINS1_20scalar_difference_opIddEEKNS_6MatrixIdLin1ELin1ELi0ELin1ELin1EEES9_EEE4colsEv = comdat any

$_ZNK5Eigen13CwiseBinaryOpINS_8internal20scalar_difference_opIddEEKNS_6MatrixIdLin1ELin1ELi0ELin1ELin1EEES6_E4colsEv = comdat any

$_ZN5Eigen8internal15redux_evaluatorINS_12CwiseUnaryOpINS0_14scalar_abs2_opIdEEKNS_13CwiseBinaryOpINS0_20scalar_difference_opIddEEKNS_6MatrixIdLin1ELin1ELi0ELin1ELin1EEESA_EEEEEC2ERKSD_ = comdat any

$_ZN5Eigen8internal10redux_implINS0_13scalar_sum_opIddEENS0_15redux_evaluatorINS_12CwiseUnaryOpINS0_14scalar_abs2_opIdEEKNS_13CwiseBinaryOpINS0_20scalar_difference_opIddEEKNS_6MatrixIdLin1ELin1ELi0ELin1ELin1EEESD_EEEEEELi3ELi0EE3runISG_EEdRKSH_RKS3_RKT_ = comdat any

$_ZN5Eigen8internal9evaluatorINS_12CwiseUnaryOpINS0_14scalar_abs2_opIdEEKNS_13CwiseBinaryOpINS0_20scalar_difference_opIddEEKNS_6MatrixIdLin1ELin1ELi0ELin1ELin1EEESA_EEEEEC2ERKSD_ = comdat any

$_ZN5Eigen8internal15unary_evaluatorINS_12CwiseUnaryOpINS0_14scalar_abs2_opIdEEKNS_13CwiseBinaryOpINS0_20scalar_difference_opIddEEKNS_6MatrixIdLin1ELin1ELi0ELin1ELin1EEESA_EEEENS0_10IndexBasedEdEC2ERKSD_ = comdat any

$_ZN5Eigen8internal15unary_evaluatorINS_12CwiseUnaryOpINS0_14scalar_abs2_opIdEEKNS_13CwiseBinaryOpINS0_20scalar_difference_opIddEEKNS_6MatrixIdLin1ELin1ELi0ELin1ELin1EEESA_EEEENS0_10IndexBasedEdE4DataC2ERKSD_ = comdat any

$_ZNK5Eigen12CwiseUnaryOpINS_8internal14scalar_abs2_opIdEEKNS_13CwiseBinaryOpINS1_20scalar_difference_opIddEEKNS_6MatrixIdLin1ELin1ELi0ELin1ELin1EEES9_EEE7functorEv = comdat any

$_ZNK5Eigen12CwiseUnaryOpINS_8internal14scalar_abs2_opIdEEKNS_13CwiseBinaryOpINS1_20scalar_difference_opIddEEKNS_6MatrixIdLin1ELin1ELi0ELin1ELin1EEES9_EEE16nestedExpressionEv = comdat any

$_ZN5Eigen8internal9evaluatorIKNS_13CwiseBinaryOpINS0_20scalar_difference_opIddEEKNS_6MatrixIdLin1ELin1ELi0ELin1ELin1EEES7_EEEC2ERS9_ = comdat any

$_ZN5Eigen8internal9evaluatorINS_13CwiseBinaryOpINS0_20scalar_difference_opIddEEKNS_6MatrixIdLin1ELin1ELi0ELin1ELin1EEES7_EEEC2ERKS8_ = comdat any

$_ZN5Eigen8internal16binary_evaluatorINS_13CwiseBinaryOpINS0_20scalar_difference_opIddEEKNS_6MatrixIdLin1ELin1ELi0ELin1ELin1EEES7_EENS0_10IndexBasedES9_ddEC2ERKS8_ = comdat any

$_ZN5Eigen8internal16binary_evaluatorINS_13CwiseBinaryOpINS0_20scalar_difference_opIddEEKNS_6MatrixIdLin1ELin1ELi0ELin1ELin1EEES7_EENS0_10IndexBasedES9_ddE4DataC2ERKS8_ = comdat any

$_ZNK5Eigen13CwiseBinaryOpINS_8internal20scalar_difference_opIddEEKNS_6MatrixIdLin1ELin1ELi0ELin1ELin1EEES6_E7functorEv = comdat any

$_ZNK5Eigen13CwiseBinaryOpINS_8internal20scalar_difference_opIddEEKNS_6MatrixIdLin1ELin1ELi0ELin1ELin1EEES6_E3lhsEv = comdat any

$_ZNK5Eigen13CwiseBinaryOpINS_8internal20scalar_difference_opIddEEKNS_6MatrixIdLin1ELin1ELi0ELin1ELin1EEES6_E3rhsEv = comdat any

$_ZNK5Eigen8internal15unary_evaluatorINS_12CwiseUnaryOpINS0_14scalar_abs2_opIdEEKNS_13CwiseBinaryOpINS0_20scalar_difference_opIddEEKNS_6MatrixIdLin1ELin1ELi0ELin1ELin1EEESA_EEEENS0_10IndexBasedEdE6packetILi16EDv2_dEET0_l = comdat any

$_ZNK5Eigen8internal13scalar_sum_opIddE8packetOpIDv2_dEET_RKS5_S7_ = comdat any

$_ZNK5Eigen8internal13scalar_sum_opIddE6preduxIDv2_dEEdRKT_ = comdat any

$_ZNK5Eigen8internal13scalar_sum_opIddEclERKdS4_ = comdat any

$_ZNK5Eigen8internal15unary_evaluatorINS_12CwiseUnaryOpINS0_14scalar_abs2_opIdEEKNS_13CwiseBinaryOpINS0_20scalar_difference_opIddEEKNS_6MatrixIdLin1ELin1ELi0ELin1ELin1EEESA_EEEENS0_10IndexBasedEdE5coeffEl = comdat any

$_ZN5Eigen8internal18first_aligned_implILi16ENS_12CwiseUnaryOpINS0_14scalar_abs2_opIdEEKNS_13CwiseBinaryOpINS0_20scalar_difference_opIddEEKNS_6MatrixIdLin1ELin1ELi0ELin1ELin1EEESA_EEEELb1EE3runERKSD_ = comdat any

$_ZNK5Eigen8internal15unary_evaluatorINS_12CwiseUnaryOpINS0_14scalar_abs2_opIdEEKNS_13CwiseBinaryOpINS0_20scalar_difference_opIddEEKNS_6MatrixIdLin1ELin1ELi0ELin1ELin1EEESA_EEEENS0_10IndexBasedEdE4Data4funcEv = comdat any

$_ZNK5Eigen8internal14scalar_abs2_opIdE8packetOpIDv2_dEEKT_RS6_ = comdat any

$_ZNK5Eigen8internal16binary_evaluatorINS_13CwiseBinaryOpINS0_20scalar_difference_opIddEEKNS_6MatrixIdLin1ELin1ELi0ELin1ELin1EEES7_EENS0_10IndexBasedES9_ddE6packetILi16EDv2_dEET0_l = comdat any

$_ZN5Eigen8internal4pmulIDv2_dEET_RKS3_S5_ = comdat any

$_ZNK5Eigen8internal16binary_evaluatorINS_13CwiseBinaryOpINS0_20scalar_difference_opIddEEKNS_6MatrixIdLin1ELin1ELi0ELin1ELin1EEES7_EENS0_10IndexBasedES9_ddE4Data4funcEv = comdat any

$_ZNK5Eigen8internal20scalar_difference_opIddE8packetOpIDv2_dEEKT_RS6_S7_ = comdat any

$_ZNK5Eigen8internal9evaluatorINS_15PlainObjectBaseINS_6MatrixIdLin1ELin1ELi0ELin1ELin1EEEEEE6packetILi16EDv2_dEET0_l = comdat any

$_ZN5Eigen8internal4psubIDv2_dEET_RKS3_S5_ = comdat any

$_ZN5Eigen8internal5ploadIDv2_dEET_PKNS0_15unpacket_traitsIS3_E4typeE = comdat any

$_ZN5Eigen8internal4paddIDv2_dEET_RKS3_S5_ = comdat any

$_ZN5Eigen8internal6preduxIDv2_dEENS0_15unpacket_traitsIT_E4typeERKS4_ = comdat any

$_ZN5Eigen8internal6pfirstIDv2_dEENS0_15unpacket_traitsIT_E4typeERKS4_ = comdat any

$_ZNK5Eigen8internal16binary_evaluatorINS_13CwiseBinaryOpINS0_20scalar_difference_opIddEEKNS_6MatrixIdLin1ELin1ELi0ELin1ELin1EEES7_EENS0_10IndexBasedES9_ddE5coeffEl = comdat any

$_ZNK5Eigen8internal20scalar_difference_opIddEclERKdS4_ = comdat any

$_ZNK5Eigen9EigenBaseINS_12CwiseUnaryOpINS_8internal14scalar_abs2_opIdEEKNS_6MatrixIdLin1ELin1ELi0ELin1ELin1EEEEEE4sizeEv = comdat any

$_ZNK5Eigen9DenseBaseINS_12CwiseUnaryOpINS_8internal14scalar_abs2_opIdEEKNS_6MatrixIdLin1ELin1ELi0ELin1ELin1EEEEEE5reduxINS2_13scalar_sum_opIddEEEEdRKT_ = comdat any

$_ZNK5Eigen9EigenBaseINS_12CwiseUnaryOpINS_8internal14scalar_abs2_opIdEEKNS_6MatrixIdLin1ELin1ELi0ELin1ELin1EEEEEE4rowsEv = comdat any

$_ZNK5Eigen9EigenBaseINS_12CwiseUnaryOpINS_8internal14scalar_abs2_opIdEEKNS_6MatrixIdLin1ELin1ELi0ELin1ELin1EEEEEE4colsEv = comdat any

$_ZN5Eigen8internal15redux_evaluatorINS_12CwiseUnaryOpINS0_14scalar_abs2_opIdEEKNS_6MatrixIdLin1ELin1ELi0ELin1ELin1EEEEEEC2ERKS8_ = comdat any

$_ZN5Eigen8internal10redux_implINS0_13scalar_sum_opIddEENS0_15redux_evaluatorINS_12CwiseUnaryOpINS0_14scalar_abs2_opIdEEKNS_6MatrixIdLin1ELin1ELi0ELin1ELin1EEEEEEELi3ELi0EE3runISB_EEdRKSC_RKS3_RKT_ = comdat any

$_ZNK5Eigen8internal15unary_evaluatorINS_12CwiseUnaryOpINS0_14scalar_abs2_opIdEEKNS_6MatrixIdLin1ELin1ELi0ELin1ELin1EEEEENS0_10IndexBasedEdE6packetILi16EDv2_dEET0_l = comdat any

$_ZN5Eigen8internal18first_aligned_implILi16ENS_12CwiseUnaryOpINS0_14scalar_abs2_opIdEEKNS_6MatrixIdLin1ELin1ELi0ELin1ELin1EEEEELb1EE3runERKS8_ = comdat any

$_ZN5Eigen12CwiseUnaryOpINS_8internal15scalar_dummy_opIdLb1EEEKNS0_INS1_14scalar_abs2_opIdEEKNS_6MatrixIdLin1ELin1ELi0ELin1ELin1EEEEEEC2ERSA_RKS3_ = comdat any

$_ZN5Eigen16CwiseUnaryOpImplINS_8internal15scalar_dummy_opIdLb1EEEKNS_12CwiseUnaryOpINS1_14scalar_abs2_opIdEEKNS_6MatrixIdLin1ELin1ELi0ELin1ELin1EEEEENS_5DenseEEC2Ev = comdat any

$_ZN5Eigen10MatrixBaseINS_12CwiseUnaryOpINS_8internal15scalar_dummy_opIdLb1EEEKNS1_INS2_14scalar_abs2_opIdEEKNS_6MatrixIdLin1ELin1ELi0ELin1ELin1EEEEEEEEC2Ev = comdat any

$_ZN5Eigen9DenseBaseINS_12CwiseUnaryOpINS_8internal15scalar_dummy_opIdLb1EEEKNS1_INS2_14scalar_abs2_opIdEEKNS_6MatrixIdLin1ELin1ELi0ELin1ELin1EEEEEEEEC2Ev = comdat any

$_ZN5Eigen15PlainObjectBaseINS_6MatrixIdLin1ELin1ELi0ELin1ELin1EEEE4_setINS_12CwiseUnaryOpINS_8internal15scalar_dummy_opIdLb1EEEKNS5_INS6_14scalar_abs2_opIdEEKS2_EEEEEERS2_RKNS_9DenseBaseIT_EE = comdat any

$_ZN5Eigen8internal15call_assignmentINS_6MatrixIdLin1ELin1ELi0ELin1ELin1EEENS_12CwiseUnaryOpINS0_15scalar_dummy_opIdLb1EEEKNS4_INS0_14scalar_abs2_opIdEEKS3_EEEEEEvRT_RKT0_ = comdat any

$_ZNK5Eigen9EigenBaseINS_12CwiseUnaryOpINS_8internal15scalar_dummy_opIdLb1EEEKNS1_INS2_14scalar_abs2_opIdEEKNS_6MatrixIdLin1ELin1ELi0ELin1ELin1EEEEEEEE7derivedEv = comdat any

$_ZN5Eigen8internal15call_assignmentINS_6MatrixIdLin1ELin1ELi0ELin1ELin1EEENS_12CwiseUnaryOpINS0_15scalar_dummy_opIdLb1EEEKNS4_INS0_14scalar_abs2_opIdEEKS3_EEEENS0_9assign_opIddEEEEvRT_RKT0_RKT1_NSt9enable_ifIXntsr25evaluator_assume_aliasingISH_EE5valueEPvE4typeE = comdat any

$_ZN5Eigen8internal24call_assignment_no_aliasINS_6MatrixIdLin1ELin1ELi0ELin1ELin1EEENS_12CwiseUnaryOpINS0_15scalar_dummy_opIdLb1EEEKNS4_INS0_14scalar_abs2_opIdEEKS3_EEEENS0_9assign_opIddEEEEvRT_RKT0_RKT1_ = comdat any

$_ZN5Eigen8internal10AssignmentINS_6MatrixIdLin1ELin1ELi0ELin1ELin1EEENS_12CwiseUnaryOpINS0_15scalar_dummy_opIdLb1EEEKNS4_INS0_14scalar_abs2_opIdEEKS3_EEEENS0_9assign_opIddEENS0_11Dense2DenseEvE3runERS3_RKSC_RKSE_ = comdat any

$_ZN5Eigen8internal18check_for_aliasingINS_6MatrixIdLin1ELin1ELi0ELin1ELin1EEENS_12CwiseUnaryOpINS0_15scalar_dummy_opIdLb1EEEKNS4_INS0_14scalar_abs2_opIdEEKS3_EEEEEEvRKT_RKT0_ = comdat any

$_ZN5Eigen8internal26call_dense_assignment_loopINS_6MatrixIdLin1ELin1ELi0ELin1ELin1EEENS_12CwiseUnaryOpINS0_15scalar_dummy_opIdLb1EEEKNS4_INS0_14scalar_abs2_opIdEEKS3_EEEENS0_9assign_opIddEEEEvRT_RKT0_RKT1_ = comdat any

$_ZN5Eigen8internal27checkTransposeAliasing_implINS_6MatrixIdLin1ELin1ELi0ELin1ELin1EEENS_12CwiseUnaryOpINS0_15scalar_dummy_opIdLb1EEEKNS4_INS0_14scalar_abs2_opIdEEKS3_EEEELb0EE3runERS9_RKSC_ = comdat any

$_ZN5Eigen8internal9evaluatorINS_12CwiseUnaryOpINS0_15scalar_dummy_opIdLb1EEEKNS2_INS0_14scalar_abs2_opIdEEKNS_6MatrixIdLin1ELin1ELi0ELin1ELin1EEEEEEEEC2ERKSC_ = comdat any

$_ZN5Eigen8internal17resize_if_allowedINS_6MatrixIdLin1ELin1ELi0ELin1ELin1EEENS_12CwiseUnaryOpINS0_15scalar_dummy_opIdLb1EEEKNS4_INS0_14scalar_abs2_opIdEEKS3_EEEEddEEvRT_RKT0_RKNS0_9assign_opIT1_T2_EE = comdat any

$_ZN5Eigen8internal31generic_dense_assignment_kernelINS0_9evaluatorINS_6MatrixIdLin1ELin1ELi0ELin1ELin1EEEEENS2_INS_12CwiseUnaryOpINS0_15scalar_dummy_opIdLb1EEEKNS6_INS0_14scalar_abs2_opIdEEKS4_EEEEEENS0_9assign_opIddEELi0EEC2ERS5_RKSF_RKSH_RS4_ = comdat any

$_ZN5Eigen8internal21dense_assignment_loopINS0_31generic_dense_assignment_kernelINS0_9evaluatorINS_6MatrixIdLin1ELin1ELi0ELin1ELin1EEEEENS3_INS_12CwiseUnaryOpINS0_15scalar_dummy_opIdLb1EEEKNS7_INS0_14scalar_abs2_opIdEEKS5_EEEEEENS0_9assign_opIddEELi0EEELi3ELi0EE3runERSJ_ = comdat any

$_ZN5Eigen8internal15unary_evaluatorINS_12CwiseUnaryOpINS0_15scalar_dummy_opIdLb1EEEKNS2_INS0_14scalar_abs2_opIdEEKNS_6MatrixIdLin1ELin1ELi0ELin1ELin1EEEEEEENS0_10IndexBasedEdEC2ERKSC_ = comdat any

$_ZN5Eigen8internal15unary_evaluatorINS_12CwiseUnaryOpINS0_15scalar_dummy_opIdLb1EEEKNS2_INS0_14scalar_abs2_opIdEEKNS_6MatrixIdLin1ELin1ELi0ELin1ELin1EEEEEEENS0_10IndexBasedEdE4DataC2ERKSC_ = comdat any

$_ZNK5Eigen12CwiseUnaryOpINS_8internal15scalar_dummy_opIdLb1EEEKNS0_INS1_14scalar_abs2_opIdEEKNS_6MatrixIdLin1ELin1ELi0ELin1ELin1EEEEEE7functorEv = comdat any

$_ZNK5Eigen12CwiseUnaryOpINS_8internal15scalar_dummy_opIdLb1EEEKNS0_INS1_14scalar_abs2_opIdEEKNS_6MatrixIdLin1ELin1ELi0ELin1ELin1EEEEEE16nestedExpressionEv = comdat any

$_ZNK5Eigen12CwiseUnaryOpINS_8internal15scalar_dummy_opIdLb1EEEKNS0_INS1_14scalar_abs2_opIdEEKNS_6MatrixIdLin1ELin1ELi0ELin1ELin1EEEEEE4rowsEv = comdat any

$_ZNK5Eigen12CwiseUnaryOpINS_8internal15scalar_dummy_opIdLb1EEEKNS0_INS1_14scalar_abs2_opIdEEKNS_6MatrixIdLin1ELin1ELi0ELin1ELin1EEEEEE4colsEv = comdat any

$_ZNK5Eigen8internal31generic_dense_assignment_kernelINS0_9evaluatorINS_6MatrixIdLin1ELin1ELi0ELin1ELin1EEEEENS2_INS_12CwiseUnaryOpINS0_15scalar_dummy_opIdLb1EEEKNS6_INS0_14scalar_abs2_opIdEEKS4_EEEEEENS0_9assign_opIddEELi0EE4sizeEv = comdat any

$_ZN5Eigen8internal31unaligned_dense_assignment_loopILb1EE3runINS0_31generic_dense_assignment_kernelINS0_9evaluatorINS_6MatrixIdLin1ELin1ELi0ELin1ELin1EEEEENS5_INS_12CwiseUnaryOpINS0_15scalar_dummy_opIdLb1EEEKNS9_INS0_14scalar_abs2_opIdEEKS7_EEEEEENS0_9assign_opIddEELi0EEEEEvRT_ll = comdat any

$_ZN5Eigen8internal31generic_dense_assignment_kernelINS0_9evaluatorINS_6MatrixIdLin1ELin1ELi0ELin1ELin1EEEEENS2_INS_12CwiseUnaryOpINS0_15scalar_dummy_opIdLb1EEEKNS6_INS0_14scalar_abs2_opIdEEKS4_EEEEEENS0_9assign_opIddEELi0EE12assignPacketILi16ELi16EDv2_dEEvl = comdat any

$_ZN5Eigen8internal31unaligned_dense_assignment_loopILb0EE3runINS0_31generic_dense_assignment_kernelINS0_9evaluatorINS_6MatrixIdLin1ELin1ELi0ELin1ELin1EEEEENS5_INS_12CwiseUnaryOpINS0_15scalar_dummy_opIdLb1EEEKNS9_INS0_14scalar_abs2_opIdEEKS7_EEEEEENS0_9assign_opIddEELi0EEEEEvRT_ll = comdat any

$_ZNK5Eigen8internal9assign_opIddE12assignPacketILi16EDv2_dEEvPdRKT0_ = comdat any

$_ZNK5Eigen8internal15unary_evaluatorINS_12CwiseUnaryOpINS0_15scalar_dummy_opIdLb1EEEKNS2_INS0_14scalar_abs2_opIdEEKNS_6MatrixIdLin1ELin1ELi0ELin1ELin1EEEEEEENS0_10IndexBasedEdE6packetILi16EDv2_dEET0_l = comdat any

$_ZN5Eigen8internal6pstoreIdDv2_dEEvPT_RKT0_ = comdat any

$_ZNK5Eigen8internal15unary_evaluatorINS_12CwiseUnaryOpINS0_15scalar_dummy_opIdLb1EEEKNS2_INS0_14scalar_abs2_opIdEEKNS_6MatrixIdLin1ELin1ELi0ELin1ELin1EEEEEEENS0_10IndexBasedEdE4Data4funcEv = comdat any

$_ZNK5Eigen8internal15scalar_dummy_opIdLb1EE8packetOpIDv2_dEET_RKS5_ = comdat any

$_ZN5Eigen8internal31generic_dense_assignment_kernelINS0_9evaluatorINS_6MatrixIdLin1ELin1ELi0ELin1ELin1EEEEENS2_INS_12CwiseUnaryOpINS0_15scalar_dummy_opIdLb1EEEKNS6_INS0_14scalar_abs2_opIdEEKS4_EEEEEENS0_9assign_opIddEELi0EE11assignCoeffEl = comdat any

$_ZNK5Eigen8internal15unary_evaluatorINS_12CwiseUnaryOpINS0_15scalar_dummy_opIdLb1EEEKNS2_INS0_14scalar_abs2_opIdEEKNS_6MatrixIdLin1ELin1ELi0ELin1ELin1EEEEEEENS0_10IndexBasedEdE5coeffEl = comdat any

$_ZNK5Eigen8internal15scalar_dummy_opIdLb1EEclERKd = comdat any

$_ZN5Eigen8internal15call_assignmentINS_13DeviceWrapperINS_6MatrixIdLin1ELin1ELi0ELin1ELin1EEENS_20CoreThreadPoolDeviceEEENS_12CwiseUnaryOpINS0_15scalar_dummy_opIdLb1EEEKNS7_INS0_14scalar_abs2_opIdEEKS4_EEEENS0_9assign_opIddEEEEvRT_RKT0_RKT1_NSt9enable_ifIXntsr25evaluator_assume_aliasingISK_EE5valueEPvE4typeE = comdat any

$_ZN5Eigen8internal24call_assignment_no_aliasINS_6MatrixIdLin1ELin1ELi0ELin1ELin1EEENS_12CwiseUnaryOpINS0_15scalar_dummy_opIdLb1EEEKNS4_INS0_14scalar_abs2_opIdEEKS3_EEEENS0_9assign_opIddEENS_20CoreThreadPoolDeviceEEEvNS_13DeviceWrapperIT_T2_EERKT0_RKT1_ = comdat any

$_ZN5Eigen8internal20AssignmentWithDeviceINS_6MatrixIdLin1ELin1ELi0ELin1ELin1EEENS_12CwiseUnaryOpINS0_15scalar_dummy_opIdLb1EEEKNS4_INS0_14scalar_abs2_opIdEEKS3_EEEENS0_9assign_opIddEENS_20CoreThreadPoolDeviceENS0_11Dense2DenseEvE3runERS3_RKSC_RKSE_RSF_ = comdat any

$_ZN5Eigen8internal26call_dense_assignment_loopINS_6MatrixIdLin1ELin1ELi0ELin1ELin1EEENS_12CwiseUnaryOpINS0_15scalar_dummy_opIdLb1EEEKNS4_INS0_14scalar_abs2_opIdEEKS3_EEEENS0_9assign_opIddEENS_20CoreThreadPoolDeviceEEEvRT_RKT0_RKT1_RT2_ = comdat any

$_ZN5Eigen8internal33dense_assignment_loop_with_deviceINS0_31generic_dense_assignment_kernelINS0_9evaluatorINS_6MatrixIdLin1ELin1ELi0ELin1ELin1EEEEENS3_INS_12CwiseUnaryOpINS0_15scalar_dummy_opIdLb1EEEKNS7_INS0_14scalar_abs2_opIdEEKS5_EEEEEENS0_9assign_opIddEELi0EEENS_20CoreThreadPoolDeviceELi3ELi0EE3runERSJ_RSK_ = comdat any

$_ZN5Eigen8internal33dense_assignment_loop_with_deviceINS0_31generic_dense_assignment_kernelINS0_9evaluatorINS_6MatrixIdLin1ELin1ELi0ELin1ELin1EEEEENS3_INS_12CwiseUnaryOpINS0_15scalar_dummy_opIdLb1EEEKNS7_INS0_14scalar_abs2_opIdEEKS5_EEEEEENS0_9assign_opIddEELi0EEENS_20CoreThreadPoolDeviceELi3ELi0EE17AssignmentFunctorC2ERSJ_ = comdat any

$_ZN5Eigen20CoreThreadPoolDevice11parallelForINS_8internal33dense_assignment_loop_with_deviceINS2_31generic_dense_assignment_kernelINS2_9evaluatorINS_6MatrixIdLin1ELin1ELi0ELin1ELin1EEEEENS5_INS_12CwiseUnaryOpINS2_15scalar_dummy_opIdLb1EEEKNS9_INS2_14scalar_abs2_opIdEEKS7_EEEEEENS2_9assign_opIddEELi0EEES0_Li3ELi0EE17AssignmentFunctorELi2EEEvllRT_f = comdat any

$_ZNK5Eigen20CoreThreadPoolDevice15calculateLevelsILi2EEEilf = comdat any

$_ZN5Eigen20CoreThreadPoolDevice15parallelForImplINS_8internal33dense_assignment_loop_with_deviceINS2_31generic_dense_assignment_kernelINS2_9evaluatorINS_6MatrixIdLin1ELin1ELi0ELin1ELin1EEEEENS5_INS_12CwiseUnaryOpINS2_15scalar_dummy_opIdLb1EEEKNS9_INS2_14scalar_abs2_opIdEEKS7_EEEEEENS2_9assign_opIddEELi0EEES0_Li3ELi0EE17AssignmentFunctorELi2EEEvllRT_RNS_7BarrierEi = comdat any

$_ZNSt8functionIFvvEEC2IZN5Eigen20CoreThreadPoolDevice15parallelForImplINS3_8internal33dense_assignment_loop_with_deviceINS6_31generic_dense_assignment_kernelINS6_9evaluatorINS3_6MatrixIdLin1ELin1ELi0ELin1ELin1EEEEENS9_INS3_12CwiseUnaryOpINS6_15scalar_dummy_opIdLb1EEEKNSD_INS6_14scalar_abs2_opIdEEKSB_EEEEEENS6_9assign_opIddEELi0EEES4_Li3ELi0EE17AssignmentFunctorELi2EEEvllRT_RNS3_7BarrierEiEUlvE_vEEOSS_ = comdat any

$_ZN5Eigen8internal33dense_assignment_loop_with_deviceINS0_31generic_dense_assignment_kernelINS0_9evaluatorINS_6MatrixIdLin1ELin1ELi0ELin1ELin1EEEEENS3_INS_12CwiseUnaryOpINS0_15scalar_dummy_opIdLb1EEEKNS7_INS0_14scalar_abs2_opIdEEKS5_EEEEEENS0_9assign_opIddEELi0EEENS_20CoreThreadPoolDeviceELi3ELi0EE17AssignmentFunctorclEl = comdat any

$_ZNSt14_Function_base13_Base_managerIZN5Eigen20CoreThreadPoolDevice15parallelForImplINS1_8internal33dense_assignment_loop_with_deviceINS4_31generic_dense_assignment_kernelINS4_9evaluatorINS1_6MatrixIdLin1ELin1ELi0ELin1ELin1EEEEENS7_INS1_12CwiseUnaryOpINS4_15scalar_dummy_opIdLb1EEEKNSB_INS4_14scalar_abs2_opIdEEKS9_EEEEEENS4_9assign_opIddEELi0EEES2_Li3ELi0EE17AssignmentFunctorELi2EEEvllRT_RNS1_7BarrierEiEUlvE_E21_M_not_empty_functionISU_EEbRKSQ_ = comdat any

$_ZNSt14_Function_base13_Base_managerIZN5Eigen20CoreThreadPoolDevice15parallelForImplINS1_8internal33dense_assignment_loop_with_deviceINS4_31generic_dense_assignment_kernelINS4_9evaluatorINS1_6MatrixIdLin1ELin1ELi0ELin1ELin1EEEEENS7_INS1_12CwiseUnaryOpINS4_15scalar_dummy_opIdLb1EEEKNSB_INS4_14scalar_abs2_opIdEEKS9_EEEEEENS4_9assign_opIddEELi0EEES2_Li3ELi0EE17AssignmentFunctorELi2EEEvllRT_RNS1_7BarrierEiEUlvE_E15_M_init_functorISU_EEvRSt9_Any_dataOSQ_ = comdat any

$_ZNSt17_Function_handlerIFvvEZN5Eigen20CoreThreadPoolDevice15parallelForImplINS1_8internal33dense_assignment_loop_with_deviceINS4_31generic_dense_assignment_kernelINS4_9evaluatorINS1_6MatrixIdLin1ELin1ELi0ELin1ELin1EEEEENS7_INS1_12CwiseUnaryOpINS4_15scalar_dummy_opIdLb1EEEKNSB_INS4_14scalar_abs2_opIdEEKS9_EEEEEENS4_9assign_opIddEELi0EEES2_Li3ELi0EE17AssignmentFunctorELi2EEEvllRT_RNS1_7BarrierEiEUlvE_E9_M_invokeERKSt9_Any_data = comdat any

$_ZNSt17_Function_handlerIFvvEZN5Eigen20CoreThreadPoolDevice15parallelForImplINS1_8internal33dense_assignment_loop_with_deviceINS4_31generic_dense_assignment_kernelINS4_9evaluatorINS1_6MatrixIdLin1ELin1ELi0ELin1ELin1EEEEENS7_INS1_12CwiseUnaryOpINS4_15scalar_dummy_opIdLb1EEEKNSB_INS4_14scalar_abs2_opIdEEKS9_EEEEEENS4_9assign_opIddEELi0EEES2_Li3ELi0EE17AssignmentFunctorELi2EEEvllRT_RNS1_7BarrierEiEUlvE_E10_M_managerERSt9_Any_dataRKSW_St18_Manager_operation = comdat any

$_ZNSt14_Function_base13_Base_managerIZN5Eigen20CoreThreadPoolDevice15parallelForImplINS1_8internal33dense_assignment_loop_with_deviceINS4_31generic_dense_assignment_kernelINS4_9evaluatorINS1_6MatrixIdLin1ELin1ELi0ELin1ELin1EEEEENS7_INS1_12CwiseUnaryOpINS4_15scalar_dummy_opIdLb1EEEKNSB_INS4_14scalar_abs2_opIdEEKS9_EEEEEENS4_9assign_opIddEELi0EEES2_Li3ELi0EE17AssignmentFunctorELi2EEEvllRT_RNS1_7BarrierEiEUlvE_E9_M_createISU_EEvRSt9_Any_dataOSQ_St17integral_constantIbLb0EE = comdat any

$_ZNSt9_Any_data9_M_accessIPZN5Eigen20CoreThreadPoolDevice15parallelForImplINS1_8internal33dense_assignment_loop_with_deviceINS4_31generic_dense_assignment_kernelINS4_9evaluatorINS1_6MatrixIdLin1ELin1ELi0ELin1ELin1EEEEENS7_INS1_12CwiseUnaryOpINS4_15scalar_dummy_opIdLb1EEEKNSB_INS4_14scalar_abs2_opIdEEKS9_EEEEEENS4_9assign_opIddEELi0EEES2_Li3ELi0EE17AssignmentFunctorELi2EEEvllRT_RNS1_7BarrierEiEUlvE_EESR_v = comdat any

$_ZSt10__invoke_rIvRZN5Eigen20CoreThreadPoolDevice15parallelForImplINS0_8internal33dense_assignment_loop_with_deviceINS3_31generic_dense_assignment_kernelINS3_9evaluatorINS0_6MatrixIdLin1ELin1ELi0ELin1ELin1EEEEENS6_INS0_12CwiseUnaryOpINS3_15scalar_dummy_opIdLb1EEEKNSA_INS3_14scalar_abs2_opIdEEKS8_EEEEEENS3_9assign_opIddEELi0EEES1_Li3ELi0EE17AssignmentFunctorELi2EEEvllRT_RNS0_7BarrierEiEUlvE_JEENSt9enable_ifIXsr6__and_ISt7is_voidISP_ESt14__is_invocableIT0_JDpT1_EEEE5valueESP_E4typeEOSZ_DpOS10_ = comdat any

$_ZNSt14_Function_base13_Base_managerIZN5Eigen20CoreThreadPoolDevice15parallelForImplINS1_8internal33dense_assignment_loop_with_deviceINS4_31generic_dense_assignment_kernelINS4_9evaluatorINS1_6MatrixIdLin1ELin1ELi0ELin1ELin1EEEEENS7_INS1_12CwiseUnaryOpINS4_15scalar_dummy_opIdLb1EEEKNSB_INS4_14scalar_abs2_opIdEEKS9_EEEEEENS4_9assign_opIddEELi0EEES2_Li3ELi0EE17AssignmentFunctorELi2EEEvllRT_RNS1_7BarrierEiEUlvE_E14_M_get_pointerERKSt9_Any_data = comdat any

$_ZSt13__invoke_implIvRZN5Eigen20CoreThreadPoolDevice15parallelForImplINS0_8internal33dense_assignment_loop_with_deviceINS3_31generic_dense_assignment_kernelINS3_9evaluatorINS0_6MatrixIdLin1ELin1ELi0ELin1ELin1EEEEENS6_INS0_12CwiseUnaryOpINS3_15scalar_dummy_opIdLb1EEEKNSA_INS3_14scalar_abs2_opIdEEKS8_EEEEEENS3_9assign_opIddEELi0EEES1_Li3ELi0EE17AssignmentFunctorELi2EEEvllRT_RNS0_7BarrierEiEUlvE_JEESP_St14__invoke_otherOT0_DpOT1_ = comdat any

$_ZZN5Eigen20CoreThreadPoolDevice15parallelForImplINS_8internal33dense_assignment_loop_with_deviceINS2_31generic_dense_assignment_kernelINS2_9evaluatorINS_6MatrixIdLin1ELin1ELi0ELin1ELin1EEEEENS5_INS_12CwiseUnaryOpINS2_15scalar_dummy_opIdLb1EEEKNS9_INS2_14scalar_abs2_opIdEEKS7_EEEEEENS2_9assign_opIddEELi0EEES0_Li3ELi0EE17AssignmentFunctorELi2EEEvllRT_RNS_7BarrierEiENKUlvE_clEv = comdat any

$_ZNKSt9_Any_data9_M_accessIPZN5Eigen20CoreThreadPoolDevice15parallelForImplINS1_8internal33dense_assignment_loop_with_deviceINS4_31generic_dense_assignment_kernelINS4_9evaluatorINS1_6MatrixIdLin1ELin1ELi0ELin1ELin1EEEEENS7_INS1_12CwiseUnaryOpINS4_15scalar_dummy_opIdLb1EEEKNSB_INS4_14scalar_abs2_opIdEEKS9_EEEEEENS4_9assign_opIddEELi0EEES2_Li3ELi0EE17AssignmentFunctorELi2EEEvllRT_RNS1_7BarrierEiEUlvE_EERKSQ_v = comdat any

$_ZNSt14_Function_base13_Base_managerIZN5Eigen20CoreThreadPoolDevice15parallelForImplINS1_8internal33dense_assignment_loop_with_deviceINS4_31generic_dense_assignment_kernelINS4_9evaluatorINS1_6MatrixIdLin1ELin1ELi0ELin1ELin1EEEEENS7_INS1_12CwiseUnaryOpINS4_15scalar_dummy_opIdLb1EEEKNSB_INS4_14scalar_abs2_opIdEEKS9_EEEEEENS4_9assign_opIddEELi0EEES2_Li3ELi0EE17AssignmentFunctorELi2EEEvllRT_RNS1_7BarrierEiEUlvE_E10_M_managerERSt9_Any_dataRKSW_St18_Manager_operation = comdat any

$_ZNSt14_Function_base13_Base_managerIZN5Eigen20CoreThreadPoolDevice15parallelForImplINS1_8internal33dense_assignment_loop_with_deviceINS4_31generic_dense_assignment_kernelINS4_9evaluatorINS1_6MatrixIdLin1ELin1ELi0ELin1ELin1EEEEENS7_INS1_12CwiseUnaryOpINS4_15scalar_dummy_opIdLb1EEEKNSB_INS4_14scalar_abs2_opIdEEKS9_EEEEEENS4_9assign_opIddEELi0EEES2_Li3ELi0EE17AssignmentFunctorELi2EEEvllRT_RNS1_7BarrierEiEUlvE_E15_M_init_functorIRKSU_EEvRSt9_Any_dataOSQ_ = comdat any

$_ZNSt14_Function_base13_Base_managerIZN5Eigen20CoreThreadPoolDevice15parallelForImplINS1_8internal33dense_assignment_loop_with_deviceINS4_31generic_dense_assignment_kernelINS4_9evaluatorINS1_6MatrixIdLin1ELin1ELi0ELin1ELin1EEEEENS7_INS1_12CwiseUnaryOpINS4_15scalar_dummy_opIdLb1EEEKNSB_INS4_14scalar_abs2_opIdEEKS9_EEEEEENS4_9assign_opIddEELi0EEES2_Li3ELi0EE17AssignmentFunctorELi2EEEvllRT_RNS1_7BarrierEiEUlvE_E10_M_destroyERSt9_Any_dataSt17integral_constantIbLb0EE = comdat any

$_ZNSt14_Function_base13_Base_managerIZN5Eigen20CoreThreadPoolDevice15parallelForImplINS1_8internal33dense_assignment_loop_with_deviceINS4_31generic_dense_assignment_kernelINS4_9evaluatorINS1_6MatrixIdLin1ELin1ELi0ELin1ELin1EEEEENS7_INS1_12CwiseUnaryOpINS4_15scalar_dummy_opIdLb1EEEKNSB_INS4_14scalar_abs2_opIdEEKS9_EEEEEENS4_9assign_opIddEELi0EEES2_Li3ELi0EE17AssignmentFunctorELi2EEEvllRT_RNS1_7BarrierEiEUlvE_E9_M_createIRKSU_EEvRSt9_Any_dataOSQ_St17integral_constantIbLb0EE = comdat any

$_ZSt3maxIlERKT_S2_S2_ = comdat any

$_ZN5Eigen8internal17get_runtime_valueIlEElRKT_ = comdat any

$_ZN5Eigen5BlockIKNS_12CwiseUnaryOpINS_8internal14scalar_abs2_opIdEEKNS_6MatrixIdLin1ELin1ELi0ELin1ELin1EEEEELin1ELin1ELb0EEC2ERS9_llll = comdat any

$_ZN5Eigen9BlockImplIKNS_12CwiseUnaryOpINS_8internal14scalar_abs2_opIdEEKNS_6MatrixIdLin1ELin1ELi0ELin1ELin1EEEEELin1ELin1ELb0ENS_5DenseEEC2ERS9_llll = comdat any

$_ZN5Eigen8internal15BlockImpl_denseIKNS_12CwiseUnaryOpINS0_14scalar_abs2_opIdEEKNS_6MatrixIdLin1ELin1ELi0ELin1ELin1EEEEELin1ELin1ELb0ELb0EEC2ERS9_llll = comdat any

$_ZN5Eigen10MatrixBaseINS_5BlockIKNS_12CwiseUnaryOpINS_8internal14scalar_abs2_opIdEEKNS_6MatrixIdLin1ELin1ELi0ELin1ELin1EEEEELin1ELin1ELb0EEEEC2Ev = comdat any

$_ZN5Eigen9DenseBaseINS_5BlockIKNS_12CwiseUnaryOpINS_8internal14scalar_abs2_opIdEEKNS_6MatrixIdLin1ELin1ELi0ELin1ELin1EEEEELin1ELin1ELb0EEEEC2Ev = comdat any

$_ZNK5Eigen9EigenBaseINS_5BlockIKNS_12CwiseUnaryOpINS_8internal14scalar_abs2_opIdEEKNS_6MatrixIdLin1ELin1ELi0ELin1ELin1EEEEELin1ELin1ELb0EEEE7derivedEv = comdat any

$_ZN5Eigen12CwiseUnaryOpINS_8internal15scalar_dummy_opIdLb0EEEKNS_5BlockIKNS0_INS1_14scalar_abs2_opIdEEKNS_6MatrixIdLin1ELin1ELi0ELin1ELin1EEEEELin1ELin1ELb0EEEEC2ERSD_RKS3_ = comdat any

$_ZN5Eigen16CwiseUnaryOpImplINS_8internal15scalar_dummy_opIdLb0EEEKNS_5BlockIKNS_12CwiseUnaryOpINS1_14scalar_abs2_opIdEEKNS_6MatrixIdLin1ELin1ELi0ELin1ELin1EEEEELin1ELin1ELb0EEENS_5DenseEEC2Ev = comdat any

$_ZN5Eigen10MatrixBaseINS_12CwiseUnaryOpINS_8internal15scalar_dummy_opIdLb0EEEKNS_5BlockIKNS1_INS2_14scalar_abs2_opIdEEKNS_6MatrixIdLin1ELin1ELi0ELin1ELin1EEEEELin1ELin1ELb0EEEEEEC2Ev = comdat any

$_ZN5Eigen9DenseBaseINS_12CwiseUnaryOpINS_8internal15scalar_dummy_opIdLb0EEEKNS_5BlockIKNS1_INS2_14scalar_abs2_opIdEEKNS_6MatrixIdLin1ELin1ELi0ELin1ELin1EEEEELin1ELin1ELb0EEEEEEC2Ev = comdat any

$_ZN5Eigen5BlockINS_6MatrixIdLin1ELin1ELi0ELin1ELin1EEELin1ELin1ELb0EEC2ERS2_llll = comdat any

$_ZN5Eigen9BlockImplINS_6MatrixIdLin1ELin1ELi0ELin1ELin1EEELin1ELin1ELb0ENS_5DenseEEC2ERS2_llll = comdat any

$_ZN5Eigen8internal15BlockImpl_denseINS_6MatrixIdLin1ELin1ELi0ELin1ELin1EEELin1ELin1ELb0ELb1EEC2ERS3_llll = comdat any

$_ZN5Eigen15PlainObjectBaseINS_6MatrixIdLin1ELin1ELi0ELin1ELin1EEEE4dataEv = comdat any

$_ZNK5Eigen6MatrixIdLin1ELin1ELi0ELin1ELin1EE11innerStrideEv = comdat any

$_ZN5Eigen7MapBaseINS_5BlockINS_6MatrixIdLin1ELin1ELi0ELin1ELin1EEELin1ELin1ELb0EEELi1EEC2EPdll = comdat any

$_ZN5Eigen8internal15BlockImpl_denseINS_6MatrixIdLin1ELin1ELi0ELin1ELin1EEELin1ELin1ELb0ELb1EE4initEv = comdat any

$_ZN5Eigen8internal17DenseStorage_implIdLin1ELin1ELin1ELi0EE4dataEv = comdat any

$_ZN5Eigen7MapBaseINS_5BlockINS_6MatrixIdLin1ELin1ELi0ELin1ELin1EEELin1ELin1ELb0EEELi0EEC2EPdll = comdat any

$_ZN5Eigen10MatrixBaseINS_5BlockINS_6MatrixIdLin1ELin1ELi0ELin1ELin1EEELin1ELin1ELb0EEEEC2Ev = comdat any

$_ZNK5Eigen7MapBaseINS_5BlockINS_6MatrixIdLin1ELin1ELi0ELin1ELin1EEELin1ELin1ELb0EEELi0EE11checkSanityIS4_EEvNSt9enable_ifIXeqsr8internal6traitsIT_EE9AlignmentLi0EEPvE4typeE = comdat any

$_ZN5Eigen9DenseBaseINS_5BlockINS_6MatrixIdLin1ELin1ELi0ELin1ELin1EEELin1ELin1ELb0EEEEC2Ev = comdat any

$_ZN5Eigen9BlockImplINS_6MatrixIdLin1ELin1ELi0ELin1ELin1EEELin1ELin1ELb0ENS_5DenseEEaSINS_12CwiseUnaryOpINS_8internal15scalar_dummy_opIdLb0EEEKNS_5BlockIKNS6_INS7_14scalar_abs2_opIdEEKS2_EELin1ELin1ELb0EEEEEEERS4_RKNS_9DenseBaseIT_EE = comdat any

$_ZNK5Eigen9EigenBaseINS_12CwiseUnaryOpINS_8internal15scalar_dummy_opIdLb0EEEKNS_5BlockIKNS1_INS2_14scalar_abs2_opIdEEKNS_6MatrixIdLin1ELin1ELi0ELin1ELin1EEEEELin1ELin1ELb0EEEEEE7derivedEv = comdat any

$_ZN5Eigen8internal15BlockImpl_denseINS_6MatrixIdLin1ELin1ELi0ELin1ELin1EEELin1ELin1ELb0ELb1EEaSINS_12CwiseUnaryOpINS0_15scalar_dummy_opIdLb0EEEKNS_5BlockIKNS6_INS0_14scalar_abs2_opIdEEKS3_EELin1ELin1ELb0EEEEEEERS4_RKNS_9DenseBaseIT_EE = comdat any

$_ZN5Eigen10MatrixBaseINS_5BlockINS_6MatrixIdLin1ELin1ELi0ELin1ELin1EEELin1ELin1ELb0EEEEaSINS_12CwiseUnaryOpINS_8internal15scalar_dummy_opIdLb0EEEKNS1_IKNS7_INS8_14scalar_abs2_opIdEEKS3_EELin1ELin1ELb0EEEEEEERS4_RKNS_9DenseBaseIT_EE = comdat any

$_ZN5Eigen8internal15call_assignmentINS_5BlockINS_6MatrixIdLin1ELin1ELi0ELin1ELin1EEELin1ELin1ELb0EEENS_12CwiseUnaryOpINS0_15scalar_dummy_opIdLb0EEEKNS2_IKNS6_INS0_14scalar_abs2_opIdEEKS4_EELin1ELin1ELb0EEEEEEEvRT_RKT0_ = comdat any

$_ZN5Eigen9EigenBaseINS_5BlockINS_6MatrixIdLin1ELin1ELi0ELin1ELin1EEELin1ELin1ELb0EEEE7derivedEv = comdat any

$_ZN5Eigen8internal15call_assignmentINS_5BlockINS_6MatrixIdLin1ELin1ELi0ELin1ELin1EEELin1ELin1ELb0EEENS_12CwiseUnaryOpINS0_15scalar_dummy_opIdLb0EEEKNS2_IKNS6_INS0_14scalar_abs2_opIdEEKS4_EELin1ELin1ELb0EEEEENS0_9assign_opIddEEEEvRT_RKT0_RKT1_NSt9enable_ifIXntsr25evaluator_assume_aliasingISL_EE5valueEPvE4typeE = comdat any

$_ZN5Eigen8internal24call_assignment_no_aliasINS_5BlockINS_6MatrixIdLin1ELin1ELi0ELin1ELin1EEELin1ELin1ELb0EEENS_12CwiseUnaryOpINS0_15scalar_dummy_opIdLb0EEEKNS2_IKNS6_INS0_14scalar_abs2_opIdEEKS4_EELin1ELin1ELb0EEEEENS0_9assign_opIddEEEEvRT_RKT0_RKT1_ = comdat any

$_ZN5Eigen8internal10AssignmentINS_5BlockINS_6MatrixIdLin1ELin1ELi0ELin1ELin1EEELin1ELin1ELb0EEENS_12CwiseUnaryOpINS0_15scalar_dummy_opIdLb0EEEKNS2_IKNS6_INS0_14scalar_abs2_opIdEEKS4_EELin1ELin1ELb0EEEEENS0_9assign_opIddEENS0_11Dense2DenseEvE3runERS5_RKSG_RKSI_ = comdat any

$_ZN5Eigen8internal18check_for_aliasingINS_5BlockINS_6MatrixIdLin1ELin1ELi0ELin1ELin1EEELin1ELin1ELb0EEENS_12CwiseUnaryOpINS0_15scalar_dummy_opIdLb0EEEKNS2_IKNS6_INS0_14scalar_abs2_opIdEEKS4_EELin1ELin1ELb0EEEEEEEvRKT_RKT0_ = comdat any

$_ZN5Eigen8internal26call_dense_assignment_loopINS_5BlockINS_6MatrixIdLin1ELin1ELi0ELin1ELin1EEELin1ELin1ELb0EEENS_12CwiseUnaryOpINS0_15scalar_dummy_opIdLb0EEEKNS2_IKNS6_INS0_14scalar_abs2_opIdEEKS4_EELin1ELin1ELb0EEEEENS0_9assign_opIddEEEEvRT_RKT0_RKT1_ = comdat any

$_ZNK5Eigen7MapBaseINS_5BlockINS_6MatrixIdLin1ELin1ELi0ELin1ELin1EEELin1ELin1ELb0EEELi0EE4rowsEv = comdat any

$_ZNK5Eigen7MapBaseINS_5BlockINS_6MatrixIdLin1ELin1ELi0ELin1ELin1EEELin1ELin1ELb0EEELi0EE4colsEv = comdat any

$_ZN5Eigen8internal27checkTransposeAliasing_implINS_5BlockINS_6MatrixIdLin1ELin1ELi0ELin1ELin1EEELin1ELin1ELb0EEENS_12CwiseUnaryOpINS0_15scalar_dummy_opIdLb0EEEKNS2_IKNS6_INS0_14scalar_abs2_opIdEEKS4_EELin1ELin1ELb0EEEEELb0EE3runERKS5_RKSG_ = comdat any

$_ZN5Eigen8internal9evaluatorINS_12CwiseUnaryOpINS0_15scalar_dummy_opIdLb0EEEKNS_5BlockIKNS2_INS0_14scalar_abs2_opIdEEKNS_6MatrixIdLin1ELin1ELi0ELin1ELin1EEEEELin1ELin1ELb0EEEEEEC2ERKSF_ = comdat any

$_ZN5Eigen8internal17resize_if_allowedINS_5BlockINS_6MatrixIdLin1ELin1ELi0ELin1ELin1EEELin1ELin1ELb0EEENS_12CwiseUnaryOpINS0_15scalar_dummy_opIdLb0EEEKNS2_IKNS6_INS0_14scalar_abs2_opIdEEKS4_EELin1ELin1ELb0EEEEEddEEvRT_RKT0_RKNS0_9assign_opIT1_T2_EE = comdat any

$_ZN5Eigen8internal9evaluatorINS_5BlockINS_6MatrixIdLin1ELin1ELi0ELin1ELin1EEELin1ELin1ELb0EEEEC2ERKS5_ = comdat any

$_ZNK5Eigen9EigenBaseINS_5BlockINS_6MatrixIdLin1ELin1ELi0ELin1ELin1EEELin1ELin1ELb0EEEE18const_cast_derivedEv = comdat any

$_ZN5Eigen8internal31generic_dense_assignment_kernelINS0_9evaluatorINS_5BlockINS_6MatrixIdLin1ELin1ELi0ELin1ELin1EEELin1ELin1ELb0EEEEENS2_INS_12CwiseUnaryOpINS0_15scalar_dummy_opIdLb0EEEKNS3_IKNS8_INS0_14scalar_abs2_opIdEEKS5_EELin1ELin1ELb0EEEEEEENS0_9assign_opIddEELi0EEC2ERS7_RKSJ_RKSL_RS6_ = comdat any

$_ZN5Eigen8internal21dense_assignment_loopINS0_31generic_dense_assignment_kernelINS0_9evaluatorINS_5BlockINS_6MatrixIdLin1ELin1ELi0ELin1ELin1EEELin1ELin1ELb0EEEEENS3_INS_12CwiseUnaryOpINS0_15scalar_dummy_opIdLb0EEEKNS4_IKNS9_INS0_14scalar_abs2_opIdEEKS6_EELin1ELin1ELb0EEEEEEENS0_9assign_opIddEELi0EEELi0ELi0EE3runERSN_ = comdat any

$_ZN5Eigen8internal15unary_evaluatorINS_12CwiseUnaryOpINS0_15scalar_dummy_opIdLb0EEEKNS_5BlockIKNS2_INS0_14scalar_abs2_opIdEEKNS_6MatrixIdLin1ELin1ELi0ELin1ELin1EEEEELin1ELin1ELb0EEEEENS0_10IndexBasedEdEC2ERKSF_ = comdat any

$_ZN5Eigen8internal15unary_evaluatorINS_12CwiseUnaryOpINS0_15scalar_dummy_opIdLb0EEEKNS_5BlockIKNS2_INS0_14scalar_abs2_opIdEEKNS_6MatrixIdLin1ELin1ELi0ELin1ELin1EEEEELin1ELin1ELb0EEEEENS0_10IndexBasedEdE4DataC2ERKSF_ = comdat any

$_ZNK5Eigen12CwiseUnaryOpINS_8internal15scalar_dummy_opIdLb0EEEKNS_5BlockIKNS0_INS1_14scalar_abs2_opIdEEKNS_6MatrixIdLin1ELin1ELi0ELin1ELin1EEEEELin1ELin1ELb0EEEE7functorEv = comdat any

$_ZNK5Eigen12CwiseUnaryOpINS_8internal15scalar_dummy_opIdLb0EEEKNS_5BlockIKNS0_INS1_14scalar_abs2_opIdEEKNS_6MatrixIdLin1ELin1ELi0ELin1ELin1EEEEELin1ELin1ELb0EEEE16nestedExpressionEv = comdat any

$_ZN5Eigen8internal9evaluatorIKNS_5BlockIKNS_12CwiseUnaryOpINS0_14scalar_abs2_opIdEEKNS_6MatrixIdLin1ELin1ELi0ELin1ELin1EEEEELin1ELin1ELb0EEEEC2ERSC_ = comdat any

$_ZN5Eigen8internal9evaluatorINS_5BlockIKNS_12CwiseUnaryOpINS0_14scalar_abs2_opIdEEKNS_6MatrixIdLin1ELin1ELi0ELin1ELin1EEEEELin1ELin1ELb0EEEEC2ERKSB_ = comdat any

$_ZN5Eigen8internal15block_evaluatorIKNS_12CwiseUnaryOpINS0_14scalar_abs2_opIdEEKNS_6MatrixIdLin1ELin1ELi0ELin1ELin1EEEEELin1ELin1ELb0ELb0EEC2ERKNS_5BlockIS9_Lin1ELin1ELb0EEE = comdat any

$_ZN5Eigen8internal15unary_evaluatorINS_5BlockIKNS_12CwiseUnaryOpINS0_14scalar_abs2_opIdEEKNS_6MatrixIdLin1ELin1ELi0ELin1ELin1EEEEELin1ELin1ELb0EEENS0_10IndexBasedEdEC2ERKSB_ = comdat any

$_ZNK5Eigen8internal15BlockImpl_denseIKNS_12CwiseUnaryOpINS0_14scalar_abs2_opIdEEKNS_6MatrixIdLin1ELin1ELi0ELin1ELin1EEEEELin1ELin1ELb0ELb0EE16nestedExpressionEv = comdat any

$_ZNK5Eigen8internal15BlockImpl_denseIKNS_12CwiseUnaryOpINS0_14scalar_abs2_opIdEEKNS_6MatrixIdLin1ELin1ELi0ELin1ELin1EEEEELin1ELin1ELb0ELb0EE8startRowEv = comdat any

$_ZNK5Eigen8internal15BlockImpl_denseIKNS_12CwiseUnaryOpINS0_14scalar_abs2_opIdEEKNS_6MatrixIdLin1ELin1ELi0ELin1ELin1EEEEELin1ELin1ELb0ELb0EE8startColEv = comdat any

$_ZNK5Eigen12CwiseUnaryOpINS_8internal15scalar_dummy_opIdLb0EEEKNS_5BlockIKNS0_INS1_14scalar_abs2_opIdEEKNS_6MatrixIdLin1ELin1ELi0ELin1ELin1EEEEELin1ELin1ELb0EEEE4rowsEv = comdat any

$_ZNK5Eigen12CwiseUnaryOpINS_8internal15scalar_dummy_opIdLb0EEEKNS_5BlockIKNS0_INS1_14scalar_abs2_opIdEEKNS_6MatrixIdLin1ELin1ELi0ELin1ELin1EEEEELin1ELin1ELb0EEEE4colsEv = comdat any

$_ZN5Eigen9DenseBaseINS_5BlockINS_6MatrixIdLin1ELin1ELi0ELin1ELin1EEELin1ELin1ELb0EEEE6resizeEll = comdat any

$_ZNK5Eigen8internal15BlockImpl_denseIKNS_12CwiseUnaryOpINS0_14scalar_abs2_opIdEEKNS_6MatrixIdLin1ELin1ELi0ELin1ELin1EEEEELin1ELin1ELb0ELb0EE4rowsEv = comdat any

$_ZNK5Eigen8internal15BlockImpl_denseIKNS_12CwiseUnaryOpINS0_14scalar_abs2_opIdEEKNS_6MatrixIdLin1ELin1ELi0ELin1ELin1EEEEELin1ELin1ELb0ELb0EE4colsEv = comdat any

$_ZNK5Eigen9EigenBaseINS_5BlockINS_6MatrixIdLin1ELin1ELi0ELin1ELin1EEELin1ELin1ELb0EEEE4rowsEv = comdat any

$_ZNK5Eigen9EigenBaseINS_5BlockINS_6MatrixIdLin1ELin1ELi0ELin1ELin1EEELin1ELin1ELb0EEEE4colsEv = comdat any

$_ZNK5Eigen9EigenBaseINS_5BlockINS_6MatrixIdLin1ELin1ELi0ELin1ELin1EEELin1ELin1ELb0EEEE7derivedEv = comdat any

$_ZN5Eigen8internal15block_evaluatorINS_6MatrixIdLin1ELin1ELi0ELin1ELin1EEELin1ELin1ELb0ELb1EEC2ERKNS_5BlockIS3_Lin1ELin1ELb0EEE = comdat any

$_ZN5Eigen8internal17mapbase_evaluatorINS_5BlockINS_6MatrixIdLin1ELin1ELi0ELin1ELin1EEELin1ELin1ELb0EEES4_EC2ERKS5_ = comdat any

$_ZNK5Eigen7MapBaseINS_5BlockINS_6MatrixIdLin1ELin1ELi0ELin1ELin1EEELin1ELin1ELb0EEELi1EE4dataEv = comdat any

$_ZN5Eigen8internal14plain_enum_maxIiNS0_9evaluatorINS_5BlockINS_6MatrixIdLin1ELin1ELi0ELin1ELin1EEELin1ELin1ELb0EEEEUt_EEEiT_T0_ = comdat any

$_ZNK5Eigen8internal15BlockImpl_denseINS_6MatrixIdLin1ELin1ELi0ELin1ELin1EEELin1ELin1ELb0ELb1EE11innerStrideEv = comdat any

$_ZN5Eigen8internal19variable_if_dynamicIlLi1EEC2El = comdat any

$_ZNK5Eigen8internal15BlockImpl_denseINS_6MatrixIdLin1ELin1ELi0ELin1ELin1EEELin1ELin1ELb0ELb1EE11outerStrideEv = comdat any

$_ZN5Eigen8internal18plain_enum_assertsIiNS0_9evaluatorINS_5BlockINS_6MatrixIdLin1ELin1ELi0ELin1ELin1EEELin1ELin1ELb0EEEEUt_EEEvT_T0_ = comdat any

$_ZNK5Eigen8internal31generic_dense_assignment_kernelINS0_9evaluatorINS_5BlockINS_6MatrixIdLin1ELin1ELi0ELin1ELin1EEELin1ELin1ELb0EEEEENS2_INS_12CwiseUnaryOpINS0_15scalar_dummy_opIdLb0EEEKNS3_IKNS8_INS0_14scalar_abs2_opIdEEKS5_EELin1ELin1ELb0EEEEEEENS0_9assign_opIddEELi0EE9outerSizeEv = comdat any

$_ZNK5Eigen8internal31generic_dense_assignment_kernelINS0_9evaluatorINS_5BlockINS_6MatrixIdLin1ELin1ELi0ELin1ELin1EEELin1ELin1ELb0EEEEENS2_INS_12CwiseUnaryOpINS0_15scalar_dummy_opIdLb0EEEKNS3_IKNS8_INS0_14scalar_abs2_opIdEEKS5_EELin1ELin1ELb0EEEEEEENS0_9assign_opIddEELi0EE9innerSizeEv = comdat any

$_ZN5Eigen8internal31generic_dense_assignment_kernelINS0_9evaluatorINS_5BlockINS_6MatrixIdLin1ELin1ELi0ELin1ELin1EEELin1ELin1ELb0EEEEENS2_INS_12CwiseUnaryOpINS0_15scalar_dummy_opIdLb0EEEKNS3_IKNS8_INS0_14scalar_abs2_opIdEEKS5_EELin1ELin1ELb0EEEEEEENS0_9assign_opIddEELi0EE23assignCoeffByOuterInnerEll = comdat any

$_ZNK5Eigen9DenseBaseINS_5BlockINS_6MatrixIdLin1ELin1ELi0ELin1ELin1EEELin1ELin1ELb0EEEE9outerSizeEv = comdat any

$_ZNK5Eigen9DenseBaseINS_5BlockINS_6MatrixIdLin1ELin1ELi0ELin1ELin1EEELin1ELin1ELb0EEEE9innerSizeEv = comdat any

$_ZN5Eigen8internal31generic_dense_assignment_kernelINS0_9evaluatorINS_5BlockINS_6MatrixIdLin1ELin1ELi0ELin1ELin1EEELin1ELin1ELb0EEEEENS2_INS_12CwiseUnaryOpINS0_15scalar_dummy_opIdLb0EEEKNS3_IKNS8_INS0_14scalar_abs2_opIdEEKS5_EELin1ELin1ELb0EEEEEEENS0_9assign_opIddEELi0EE20rowIndexByOuterInnerEll = comdat any

$_ZN5Eigen8internal31generic_dense_assignment_kernelINS0_9evaluatorINS_5BlockINS_6MatrixIdLin1ELin1ELi0ELin1ELin1EEELin1ELin1ELb0EEEEENS2_INS_12CwiseUnaryOpINS0_15scalar_dummy_opIdLb0EEEKNS3_IKNS8_INS0_14scalar_abs2_opIdEEKS5_EELin1ELin1ELb0EEEEEEENS0_9assign_opIddEELi0EE20colIndexByOuterInnerEll = comdat any

$_ZN5Eigen8internal31generic_dense_assignment_kernelINS0_9evaluatorINS_5BlockINS_6MatrixIdLin1ELin1ELi0ELin1ELin1EEELin1ELin1ELb0EEEEENS2_INS_12CwiseUnaryOpINS0_15scalar_dummy_opIdLb0EEEKNS3_IKNS8_INS0_14scalar_abs2_opIdEEKS5_EELin1ELin1ELb0EEEEEEENS0_9assign_opIddEELi0EE11assignCoeffEll = comdat any

$_ZN5Eigen8internal17mapbase_evaluatorINS_5BlockINS_6MatrixIdLin1ELin1ELi0ELin1ELin1EEELin1ELin1ELb0EEES4_E8coeffRefEll = comdat any

$_ZNK5Eigen8internal15unary_evaluatorINS_12CwiseUnaryOpINS0_15scalar_dummy_opIdLb0EEEKNS_5BlockIKNS2_INS0_14scalar_abs2_opIdEEKNS_6MatrixIdLin1ELin1ELi0ELin1ELin1EEEEELin1ELin1ELb0EEEEENS0_10IndexBasedEdE5coeffEll = comdat any

$_ZNK5Eigen8internal17mapbase_evaluatorINS_5BlockINS_6MatrixIdLin1ELin1ELi0ELin1ELin1EEELin1ELin1ELb0EEES4_E9colStrideEv = comdat any

$_ZNK5Eigen8internal17mapbase_evaluatorINS_5BlockINS_6MatrixIdLin1ELin1ELi0ELin1ELin1EEELin1ELin1ELb0EEES4_E9rowStrideEv = comdat any

$_ZN5Eigen8internal19variable_if_dynamicIlLi1EE5valueEv = comdat any

$_ZNK5Eigen8internal15unary_evaluatorINS_12CwiseUnaryOpINS0_15scalar_dummy_opIdLb0EEEKNS_5BlockIKNS2_INS0_14scalar_abs2_opIdEEKNS_6MatrixIdLin1ELin1ELi0ELin1ELin1EEEEELin1ELin1ELb0EEEEENS0_10IndexBasedEdE4Data4funcEv = comdat any

$_ZNK5Eigen8internal15unary_evaluatorINS_5BlockIKNS_12CwiseUnaryOpINS0_14scalar_abs2_opIdEEKNS_6MatrixIdLin1ELin1ELi0ELin1ELin1EEEEELin1ELin1ELb0EEENS0_10IndexBasedEdE5coeffEll = comdat any

$_ZNK5Eigen8internal15unary_evaluatorINS_12CwiseUnaryOpINS0_14scalar_abs2_opIdEEKNS_6MatrixIdLin1ELin1ELi0ELin1ELin1EEEEENS0_10IndexBasedEdE5coeffEll = comdat any

$_ZN5Eigen13DeviceWrapperINS_5BlockINS_6MatrixIdLin1ELin1ELi0ELin1ELin1EEELin1ELin1ELb0EEENS_20CoreThreadPoolDeviceEEC2ERNS_9EigenBaseIS4_EERS5_ = comdat any

$_ZN5Eigen8internal15call_assignmentINS_13DeviceWrapperINS_5BlockINS_6MatrixIdLin1ELin1ELi0ELin1ELin1EEELin1ELin1ELb0EEENS_20CoreThreadPoolDeviceEEENS_12CwiseUnaryOpINS0_15scalar_dummy_opIdLb0EEEKNS3_IKNS9_INS0_14scalar_abs2_opIdEEKS5_EELin1ELin1ELb0EEEEENS0_9assign_opIddEEEEvRT_RKT0_RKT1_NSt9enable_ifIXntsr25evaluator_assume_aliasingISO_EE5valueEPvE4typeE = comdat any

$_ZN5Eigen8internal24call_assignment_no_aliasINS_5BlockINS_6MatrixIdLin1ELin1ELi0ELin1ELin1EEELin1ELin1ELb0EEENS_12CwiseUnaryOpINS0_15scalar_dummy_opIdLb0EEEKNS2_IKNS6_INS0_14scalar_abs2_opIdEEKS4_EELin1ELin1ELb0EEEEENS0_9assign_opIddEENS_20CoreThreadPoolDeviceEEEvNS_13DeviceWrapperIT_T2_EERKT0_RKT1_ = comdat any

$_ZN5Eigen13DeviceWrapperINS_5BlockINS_6MatrixIdLin1ELin1ELi0ELin1ELin1EEELin1ELin1ELb0EEENS_20CoreThreadPoolDeviceEE7derivedEv = comdat any

$_ZN5Eigen8internal20AssignmentWithDeviceINS_5BlockINS_6MatrixIdLin1ELin1ELi0ELin1ELin1EEELin1ELin1ELb0EEENS_12CwiseUnaryOpINS0_15scalar_dummy_opIdLb0EEEKNS2_IKNS6_INS0_14scalar_abs2_opIdEEKS4_EELin1ELin1ELb0EEEEENS0_9assign_opIddEENS_20CoreThreadPoolDeviceENS0_11Dense2DenseEvE3runERS5_RKSG_RKSI_RSJ_ = comdat any

$_ZN5Eigen13DeviceWrapperINS_5BlockINS_6MatrixIdLin1ELin1ELi0ELin1ELin1EEELin1ELin1ELb0EEENS_20CoreThreadPoolDeviceEE6deviceEv = comdat any

$_ZN5Eigen8internal26call_dense_assignment_loopINS_5BlockINS_6MatrixIdLin1ELin1ELi0ELin1ELin1EEELin1ELin1ELb0EEENS_12CwiseUnaryOpINS0_15scalar_dummy_opIdLb0EEEKNS2_IKNS6_INS0_14scalar_abs2_opIdEEKS4_EELin1ELin1ELb0EEEEENS0_9assign_opIddEENS_20CoreThreadPoolDeviceEEEvRT_RKT0_RKT1_RT2_ = comdat any

$_ZN5Eigen8internal33dense_assignment_loop_with_deviceINS0_31generic_dense_assignment_kernelINS0_9evaluatorINS_5BlockINS_6MatrixIdLin1ELin1ELi0ELin1ELin1EEELin1ELin1ELb0EEEEENS3_INS_12CwiseUnaryOpINS0_15scalar_dummy_opIdLb0EEEKNS4_IKNS9_INS0_14scalar_abs2_opIdEEKS6_EELin1ELin1ELb0EEEEEEENS0_9assign_opIddEELi0EEENS_20CoreThreadPoolDeviceELi0ELi0EE3runERSN_RSO_ = comdat any

$_ZN5Eigen8internal33dense_assignment_loop_with_deviceINS0_31generic_dense_assignment_kernelINS0_9evaluatorINS_5BlockINS_6MatrixIdLin1ELin1ELi0ELin1ELin1EEELin1ELin1ELb0EEEEENS3_INS_12CwiseUnaryOpINS0_15scalar_dummy_opIdLb0EEEKNS4_IKNS9_INS0_14scalar_abs2_opIdEEKS6_EELin1ELin1ELb0EEEEEEENS0_9assign_opIddEELi0EEENS_20CoreThreadPoolDeviceELi0ELi0EE17AssignmentFunctorC2ERSN_ = comdat any

$_ZN5Eigen20CoreThreadPoolDevice11parallelForINS_8internal33dense_assignment_loop_with_deviceINS2_31generic_dense_assignment_kernelINS2_9evaluatorINS_5BlockINS_6MatrixIdLin1ELin1ELi0ELin1ELin1EEELin1ELin1ELb0EEEEENS5_INS_12CwiseUnaryOpINS2_15scalar_dummy_opIdLb0EEEKNS6_IKNSB_INS2_14scalar_abs2_opIdEEKS8_EELin1ELin1ELb0EEEEEEENS2_9assign_opIddEELi0EEES0_Li0ELi0EE17AssignmentFunctorELi1EEEvllllRT_f = comdat any

$_ZN5Eigen20CoreThreadPoolDevice15parallelForImplINS_8internal33dense_assignment_loop_with_deviceINS2_31generic_dense_assignment_kernelINS2_9evaluatorINS_5BlockINS_6MatrixIdLin1ELin1ELi0ELin1ELin1EEELin1ELin1ELb0EEEEENS5_INS_12CwiseUnaryOpINS2_15scalar_dummy_opIdLb0EEEKNS6_IKNSB_INS2_14scalar_abs2_opIdEEKS8_EELin1ELin1ELb0EEEEEEENS2_9assign_opIddEELi0EEES0_Li0ELi0EE17AssignmentFunctorELi1EEEvllllRT_RNS_7BarrierEi = comdat any

$_ZNSt8functionIFvvEEC2IZN5Eigen20CoreThreadPoolDevice15parallelForImplINS3_8internal33dense_assignment_loop_with_deviceINS6_31generic_dense_assignment_kernelINS6_9evaluatorINS3_5BlockINS3_6MatrixIdLin1ELin1ELi0ELin1ELin1EEELin1ELin1ELb0EEEEENS9_INS3_12CwiseUnaryOpINS6_15scalar_dummy_opIdLb0EEEKNSA_IKNSF_INS6_14scalar_abs2_opIdEEKSC_EELin1ELin1ELb0EEEEEEENS6_9assign_opIddEELi0EEES4_Li0ELi0EE17AssignmentFunctorELi1EEEvllllRT_RNS3_7BarrierEiEUlvE_vEEOSW_ = comdat any

$_ZNSt8functionIFvvEEC2IZN5Eigen20CoreThreadPoolDevice15parallelForImplINS3_8internal33dense_assignment_loop_with_deviceINS6_31generic_dense_assignment_kernelINS6_9evaluatorINS3_5BlockINS3_6MatrixIdLin1ELin1ELi0ELin1ELin1EEELin1ELin1ELb0EEEEENS9_INS3_12CwiseUnaryOpINS6_15scalar_dummy_opIdLb0EEEKNSA_IKNSF_INS6_14scalar_abs2_opIdEEKSC_EELin1ELin1ELb0EEEEEEENS6_9assign_opIddEELi0EEES4_Li0ELi0EE17AssignmentFunctorELi1EEEvllllRT_RNS3_7BarrierEiEUlvE0_vEEOSW_ = comdat any

$_ZN5Eigen8internal33dense_assignment_loop_with_deviceINS0_31generic_dense_assignment_kernelINS0_9evaluatorINS_5BlockINS_6MatrixIdLin1ELin1ELi0ELin1ELin1EEELin1ELin1ELb0EEEEENS3_INS_12CwiseUnaryOpINS0_15scalar_dummy_opIdLb0EEEKNS4_IKNS9_INS0_14scalar_abs2_opIdEEKS6_EELin1ELin1ELb0EEEEEEENS0_9assign_opIddEELi0EEENS_20CoreThreadPoolDeviceELi0ELi0EE17AssignmentFunctorclEll = comdat any

$_ZNSt14_Function_base13_Base_managerIZN5Eigen20CoreThreadPoolDevice15parallelForImplINS1_8internal33dense_assignment_loop_with_deviceINS4_31generic_dense_assignment_kernelINS4_9evaluatorINS1_5BlockINS1_6MatrixIdLin1ELin1ELi0ELin1ELin1EEELin1ELin1ELb0EEEEENS7_INS1_12CwiseUnaryOpINS4_15scalar_dummy_opIdLb0EEEKNS8_IKNSD_INS4_14scalar_abs2_opIdEEKSA_EELin1ELin1ELb0EEEEEEENS4_9assign_opIddEELi0EEES2_Li0ELi0EE17AssignmentFunctorELi1EEEvllllRT_RNS1_7BarrierEiEUlvE_E21_M_not_empty_functionISY_EEbRKSU_ = comdat any

$_ZNSt14_Function_base13_Base_managerIZN5Eigen20CoreThreadPoolDevice15parallelForImplINS1_8internal33dense_assignment_loop_with_deviceINS4_31generic_dense_assignment_kernelINS4_9evaluatorINS1_5BlockINS1_6MatrixIdLin1ELin1ELi0ELin1ELin1EEELin1ELin1ELb0EEEEENS7_INS1_12CwiseUnaryOpINS4_15scalar_dummy_opIdLb0EEEKNS8_IKNSD_INS4_14scalar_abs2_opIdEEKSA_EELin1ELin1ELb0EEEEEEENS4_9assign_opIddEELi0EEES2_Li0ELi0EE17AssignmentFunctorELi1EEEvllllRT_RNS1_7BarrierEiEUlvE_E15_M_init_functorISY_EEvRSt9_Any_dataOSU_ = comdat any

$_ZNSt17_Function_handlerIFvvEZN5Eigen20CoreThreadPoolDevice15parallelForImplINS1_8internal33dense_assignment_loop_with_deviceINS4_31generic_dense_assignment_kernelINS4_9evaluatorINS1_5BlockINS1_6MatrixIdLin1ELin1ELi0ELin1ELin1EEELin1ELin1ELb0EEEEENS7_INS1_12CwiseUnaryOpINS4_15scalar_dummy_opIdLb0EEEKNS8_IKNSD_INS4_14scalar_abs2_opIdEEKSA_EELin1ELin1ELb0EEEEEEENS4_9assign_opIddEELi0EEES2_Li0ELi0EE17AssignmentFunctorELi1EEEvllllRT_RNS1_7BarrierEiEUlvE_E9_M_invokeERKSt9_Any_data = comdat any

$_ZNSt17_Function_handlerIFvvEZN5Eigen20CoreThreadPoolDevice15parallelForImplINS1_8internal33dense_assignment_loop_with_deviceINS4_31generic_dense_assignment_kernelINS4_9evaluatorINS1_5BlockINS1_6MatrixIdLin1ELin1ELi0ELin1ELin1EEELin1ELin1ELb0EEEEENS7_INS1_12CwiseUnaryOpINS4_15scalar_dummy_opIdLb0EEEKNS8_IKNSD_INS4_14scalar_abs2_opIdEEKSA_EELin1ELin1ELb0EEEEEEENS4_9assign_opIddEELi0EEES2_Li0ELi0EE17AssignmentFunctorELi1EEEvllllRT_RNS1_7BarrierEiEUlvE_E10_M_managerERSt9_Any_dataRKS10_St18_Manager_operation = comdat any

$_ZNSt14_Function_base13_Base_managerIZN5Eigen20CoreThreadPoolDevice15parallelForImplINS1_8internal33dense_assignment_loop_with_deviceINS4_31generic_dense_assignment_kernelINS4_9evaluatorINS1_5BlockINS1_6MatrixIdLin1ELin1ELi0ELin1ELin1EEELin1ELin1ELb0EEEEENS7_INS1_12CwiseUnaryOpINS4_15scalar_dummy_opIdLb0EEEKNS8_IKNSD_INS4_14scalar_abs2_opIdEEKSA_EELin1ELin1ELb0EEEEEEENS4_9assign_opIddEELi0EEES2_Li0ELi0EE17AssignmentFunctorELi1EEEvllllRT_RNS1_7BarrierEiEUlvE_E9_M_createISY_EEvRSt9_Any_dataOSU_St17integral_constantIbLb0EE = comdat any

$_ZNSt9_Any_data9_M_accessIPZN5Eigen20CoreThreadPoolDevice15parallelForImplINS1_8internal33dense_assignment_loop_with_deviceINS4_31generic_dense_assignment_kernelINS4_9evaluatorINS1_5BlockINS1_6MatrixIdLin1ELin1ELi0ELin1ELin1EEELin1ELin1ELb0EEEEENS7_INS1_12CwiseUnaryOpINS4_15scalar_dummy_opIdLb0EEEKNS8_IKNSD_INS4_14scalar_abs2_opIdEEKSA_EELin1ELin1ELb0EEEEEEENS4_9assign_opIddEELi0EEES2_Li0ELi0EE17AssignmentFunctorELi1EEEvllllRT_RNS1_7BarrierEiEUlvE_EESV_v = comdat any

$_ZSt10__invoke_rIvRZN5Eigen20CoreThreadPoolDevice15parallelForImplINS0_8internal33dense_assignment_loop_with_deviceINS3_31generic_dense_assignment_kernelINS3_9evaluatorINS0_5BlockINS0_6MatrixIdLin1ELin1ELi0ELin1ELin1EEELin1ELin1ELb0EEEEENS6_INS0_12CwiseUnaryOpINS3_15scalar_dummy_opIdLb0EEEKNS7_IKNSC_INS3_14scalar_abs2_opIdEEKS9_EELin1ELin1ELb0EEEEEEENS3_9assign_opIddEELi0EEES1_Li0ELi0EE17AssignmentFunctorELi1EEEvllllRT_RNS0_7BarrierEiEUlvE_JEENSt9enable_ifIXsr6__and_ISt7is_voidIST_ESt14__is_invocableIT0_JDpT1_EEEE5valueEST_E4typeEOS13_DpOS14_ = comdat any

$_ZNSt14_Function_base13_Base_managerIZN5Eigen20CoreThreadPoolDevice15parallelForImplINS1_8internal33dense_assignment_loop_with_deviceINS4_31generic_dense_assignment_kernelINS4_9evaluatorINS1_5BlockINS1_6MatrixIdLin1ELin1ELi0ELin1ELin1EEELin1ELin1ELb0EEEEENS7_INS1_12CwiseUnaryOpINS4_15scalar_dummy_opIdLb0EEEKNS8_IKNSD_INS4_14scalar_abs2_opIdEEKSA_EELin1ELin1ELb0EEEEEEENS4_9assign_opIddEELi0EEES2_Li0ELi0EE17AssignmentFunctorELi1EEEvllllRT_RNS1_7BarrierEiEUlvE_E14_M_get_pointerERKSt9_Any_data = comdat any

$_ZSt13__invoke_implIvRZN5Eigen20CoreThreadPoolDevice15parallelForImplINS0_8internal33dense_assignment_loop_with_deviceINS3_31generic_dense_assignment_kernelINS3_9evaluatorINS0_5BlockINS0_6MatrixIdLin1ELin1ELi0ELin1ELin1EEELin1ELin1ELb0EEEEENS6_INS0_12CwiseUnaryOpINS3_15scalar_dummy_opIdLb0EEEKNS7_IKNSC_INS3_14scalar_abs2_opIdEEKS9_EELin1ELin1ELb0EEEEEEENS3_9assign_opIddEELi0EEES1_Li0ELi0EE17AssignmentFunctorELi1EEEvllllRT_RNS0_7BarrierEiEUlvE_JEEST_St14__invoke_otherOT0_DpOT1_ = comdat any

$_ZZN5Eigen20CoreThreadPoolDevice15parallelForImplINS_8internal33dense_assignment_loop_with_deviceINS2_31generic_dense_assignment_kernelINS2_9evaluatorINS_5BlockINS_6MatrixIdLin1ELin1ELi0ELin1ELin1EEELin1ELin1ELb0EEEEENS5_INS_12CwiseUnaryOpINS2_15scalar_dummy_opIdLb0EEEKNS6_IKNSB_INS2_14scalar_abs2_opIdEEKS8_EELin1ELin1ELb0EEEEEEENS2_9assign_opIddEELi0EEES0_Li0ELi0EE17AssignmentFunctorELi1EEEvllllRT_RNS_7BarrierEiENKUlvE_clEv = comdat any

$_ZNKSt9_Any_data9_M_accessIPZN5Eigen20CoreThreadPoolDevice15parallelForImplINS1_8internal33dense_assignment_loop_with_deviceINS4_31generic_dense_assignment_kernelINS4_9evaluatorINS1_5BlockINS1_6MatrixIdLin1ELin1ELi0ELin1ELin1EEELin1ELin1ELb0EEEEENS7_INS1_12CwiseUnaryOpINS4_15scalar_dummy_opIdLb0EEEKNS8_IKNSD_INS4_14scalar_abs2_opIdEEKSA_EELin1ELin1ELb0EEEEEEENS4_9assign_opIddEELi0EEES2_Li0ELi0EE17AssignmentFunctorELi1EEEvllllRT_RNS1_7BarrierEiEUlvE_EERKSU_v = comdat any

$_ZNSt14_Function_base13_Base_managerIZN5Eigen20CoreThreadPoolDevice15parallelForImplINS1_8internal33dense_assignment_loop_with_deviceINS4_31generic_dense_assignment_kernelINS4_9evaluatorINS1_5BlockINS1_6MatrixIdLin1ELin1ELi0ELin1ELin1EEELin1ELin1ELb0EEEEENS7_INS1_12CwiseUnaryOpINS4_15scalar_dummy_opIdLb0EEEKNS8_IKNSD_INS4_14scalar_abs2_opIdEEKSA_EELin1ELin1ELb0EEEEEEENS4_9assign_opIddEELi0EEES2_Li0ELi0EE17AssignmentFunctorELi1EEEvllllRT_RNS1_7BarrierEiEUlvE_E10_M_managerERSt9_Any_dataRKS10_St18_Manager_operation = comdat any

$_ZNSt14_Function_base13_Base_managerIZN5Eigen20CoreThreadPoolDevice15parallelForImplINS1_8internal33dense_assignment_loop_with_deviceINS4_31generic_dense_assignment_kernelINS4_9evaluatorINS1_5BlockINS1_6MatrixIdLin1ELin1ELi0ELin1ELin1EEELin1ELin1ELb0EEEEENS7_INS1_12CwiseUnaryOpINS4_15scalar_dummy_opIdLb0EEEKNS8_IKNSD_INS4_14scalar_abs2_opIdEEKSA_EELin1ELin1ELb0EEEEEEENS4_9assign_opIddEELi0EEES2_Li0ELi0EE17AssignmentFunctorELi1EEEvllllRT_RNS1_7BarrierEiEUlvE_E15_M_init_functorIRKSY_EEvRSt9_Any_dataOSU_ = comdat any

$_ZNSt14_Function_base13_Base_managerIZN5Eigen20CoreThreadPoolDevice15parallelForImplINS1_8internal33dense_assignment_loop_with_deviceINS4_31generic_dense_assignment_kernelINS4_9evaluatorINS1_5BlockINS1_6MatrixIdLin1ELin1ELi0ELin1ELin1EEELin1ELin1ELb0EEEEENS7_INS1_12CwiseUnaryOpINS4_15scalar_dummy_opIdLb0EEEKNS8_IKNSD_INS4_14scalar_abs2_opIdEEKSA_EELin1ELin1ELb0EEEEEEENS4_9assign_opIddEELi0EEES2_Li0ELi0EE17AssignmentFunctorELi1EEEvllllRT_RNS1_7BarrierEiEUlvE_E10_M_destroyERSt9_Any_dataSt17integral_constantIbLb0EE = comdat any

$_ZNSt14_Function_base13_Base_managerIZN5Eigen20CoreThreadPoolDevice15parallelForImplINS1_8internal33dense_assignment_loop_with_deviceINS4_31generic_dense_assignment_kernelINS4_9evaluatorINS1_5BlockINS1_6MatrixIdLin1ELin1ELi0ELin1ELin1EEELin1ELin1ELb0EEEEENS7_INS1_12CwiseUnaryOpINS4_15scalar_dummy_opIdLb0EEEKNS8_IKNSD_INS4_14scalar_abs2_opIdEEKSA_EELin1ELin1ELb0EEEEEEENS4_9assign_opIddEELi0EEES2_Li0ELi0EE17AssignmentFunctorELi1EEEvllllRT_RNS1_7BarrierEiEUlvE_E9_M_createIRKSY_EEvRSt9_Any_dataOSU_St17integral_constantIbLb0EE = comdat any

$_ZNSt14_Function_base13_Base_managerIZN5Eigen20CoreThreadPoolDevice15parallelForImplINS1_8internal33dense_assignment_loop_with_deviceINS4_31generic_dense_assignment_kernelINS4_9evaluatorINS1_5BlockINS1_6MatrixIdLin1ELin1ELi0ELin1ELin1EEELin1ELin1ELb0EEEEENS7_INS1_12CwiseUnaryOpINS4_15scalar_dummy_opIdLb0EEEKNS8_IKNSD_INS4_14scalar_abs2_opIdEEKSA_EELin1ELin1ELb0EEEEEEENS4_9assign_opIddEELi0EEES2_Li0ELi0EE17AssignmentFunctorELi1EEEvllllRT_RNS1_7BarrierEiEUlvE0_E21_M_not_empty_functionISY_EEbRKSU_ = comdat any

$_ZNSt14_Function_base13_Base_managerIZN5Eigen20CoreThreadPoolDevice15parallelForImplINS1_8internal33dense_assignment_loop_with_deviceINS4_31generic_dense_assignment_kernelINS4_9evaluatorINS1_5BlockINS1_6MatrixIdLin1ELin1ELi0ELin1ELin1EEELin1ELin1ELb0EEEEENS7_INS1_12CwiseUnaryOpINS4_15scalar_dummy_opIdLb0EEEKNS8_IKNSD_INS4_14scalar_abs2_opIdEEKSA_EELin1ELin1ELb0EEEEEEENS4_9assign_opIddEELi0EEES2_Li0ELi0EE17AssignmentFunctorELi1EEEvllllRT_RNS1_7BarrierEiEUlvE0_E15_M_init_functorISY_EEvRSt9_Any_dataOSU_ = comdat any

$_ZNSt17_Function_handlerIFvvEZN5Eigen20CoreThreadPoolDevice15parallelForImplINS1_8internal33dense_assignment_loop_with_deviceINS4_31generic_dense_assignment_kernelINS4_9evaluatorINS1_5BlockINS1_6MatrixIdLin1ELin1ELi0ELin1ELin1EEELin1ELin1ELb0EEEEENS7_INS1_12CwiseUnaryOpINS4_15scalar_dummy_opIdLb0EEEKNS8_IKNSD_INS4_14scalar_abs2_opIdEEKSA_EELin1ELin1ELb0EEEEEEENS4_9assign_opIddEELi0EEES2_Li0ELi0EE17AssignmentFunctorELi1EEEvllllRT_RNS1_7BarrierEiEUlvE0_E9_M_invokeERKSt9_Any_data = comdat any

$_ZNSt17_Function_handlerIFvvEZN5Eigen20CoreThreadPoolDevice15parallelForImplINS1_8internal33dense_assignment_loop_with_deviceINS4_31generic_dense_assignment_kernelINS4_9evaluatorINS1_5BlockINS1_6MatrixIdLin1ELin1ELi0ELin1ELin1EEELin1ELin1ELb0EEEEENS7_INS1_12CwiseUnaryOpINS4_15scalar_dummy_opIdLb0EEEKNS8_IKNSD_INS4_14scalar_abs2_opIdEEKSA_EELin1ELin1ELb0EEEEEEENS4_9assign_opIddEELi0EEES2_Li0ELi0EE17AssignmentFunctorELi1EEEvllllRT_RNS1_7BarrierEiEUlvE0_E10_M_managerERSt9_Any_dataRKS10_St18_Manager_operation = comdat any

$_ZNSt14_Function_base13_Base_managerIZN5Eigen20CoreThreadPoolDevice15parallelForImplINS1_8internal33dense_assignment_loop_with_deviceINS4_31generic_dense_assignment_kernelINS4_9evaluatorINS1_5BlockINS1_6MatrixIdLin1ELin1ELi0ELin1ELin1EEELin1ELin1ELb0EEEEENS7_INS1_12CwiseUnaryOpINS4_15scalar_dummy_opIdLb0EEEKNS8_IKNSD_INS4_14scalar_abs2_opIdEEKSA_EELin1ELin1ELb0EEEEEEENS4_9assign_opIddEELi0EEES2_Li0ELi0EE17AssignmentFunctorELi1EEEvllllRT_RNS1_7BarrierEiEUlvE0_E9_M_createISY_EEvRSt9_Any_dataOSU_St17integral_constantIbLb0EE = comdat any

$_ZNSt9_Any_data9_M_accessIPZN5Eigen20CoreThreadPoolDevice15parallelForImplINS1_8internal33dense_assignment_loop_with_deviceINS4_31generic_dense_assignment_kernelINS4_9evaluatorINS1_5BlockINS1_6MatrixIdLin1ELin1ELi0ELin1ELin1EEELin1ELin1ELb0EEEEENS7_INS1_12CwiseUnaryOpINS4_15scalar_dummy_opIdLb0EEEKNS8_IKNSD_INS4_14scalar_abs2_opIdEEKSA_EELin1ELin1ELb0EEEEEEENS4_9assign_opIddEELi0EEES2_Li0ELi0EE17AssignmentFunctorELi1EEEvllllRT_RNS1_7BarrierEiEUlvE0_EESV_v = comdat any

$_ZSt10__invoke_rIvRZN5Eigen20CoreThreadPoolDevice15parallelForImplINS0_8internal33dense_assignment_loop_with_deviceINS3_31generic_dense_assignment_kernelINS3_9evaluatorINS0_5BlockINS0_6MatrixIdLin1ELin1ELi0ELin1ELin1EEELin1ELin1ELb0EEEEENS6_INS0_12CwiseUnaryOpINS3_15scalar_dummy_opIdLb0EEEKNS7_IKNSC_INS3_14scalar_abs2_opIdEEKS9_EELin1ELin1ELb0EEEEEEENS3_9assign_opIddEELi0EEES1_Li0ELi0EE17AssignmentFunctorELi1EEEvllllRT_RNS0_7BarrierEiEUlvE0_JEENSt9enable_ifIXsr6__and_ISt7is_voidIST_ESt14__is_invocableIT0_JDpT1_EEEE5valueEST_E4typeEOS13_DpOS14_ = comdat any

$_ZNSt14_Function_base13_Base_managerIZN5Eigen20CoreThreadPoolDevice15parallelForImplINS1_8internal33dense_assignment_loop_with_deviceINS4_31generic_dense_assignment_kernelINS4_9evaluatorINS1_5BlockINS1_6MatrixIdLin1ELin1ELi0ELin1ELin1EEELin1ELin1ELb0EEEEENS7_INS1_12CwiseUnaryOpINS4_15scalar_dummy_opIdLb0EEEKNS8_IKNSD_INS4_14scalar_abs2_opIdEEKSA_EELin1ELin1ELb0EEEEEEENS4_9assign_opIddEELi0EEES2_Li0ELi0EE17AssignmentFunctorELi1EEEvllllRT_RNS1_7BarrierEiEUlvE0_E14_M_get_pointerERKSt9_Any_data = comdat any

$_ZSt13__invoke_implIvRZN5Eigen20CoreThreadPoolDevice15parallelForImplINS0_8internal33dense_assignment_loop_with_deviceINS3_31generic_dense_assignment_kernelINS3_9evaluatorINS0_5BlockINS0_6MatrixIdLin1ELin1ELi0ELin1ELin1EEELin1ELin1ELb0EEEEENS6_INS0_12CwiseUnaryOpINS3_15scalar_dummy_opIdLb0EEEKNS7_IKNSC_INS3_14scalar_abs2_opIdEEKS9_EELin1ELin1ELb0EEEEEEENS3_9assign_opIddEELi0EEES1_Li0ELi0EE17AssignmentFunctorELi1EEEvllllRT_RNS0_7BarrierEiEUlvE0_JEEST_St14__invoke_otherOT0_DpOT1_ = comdat any

$_ZZN5Eigen20CoreThreadPoolDevice15parallelForImplINS_8internal33dense_assignment_loop_with_deviceINS2_31generic_dense_assignment_kernelINS2_9evaluatorINS_5BlockINS_6MatrixIdLin1ELin1ELi0ELin1ELin1EEELin1ELin1ELb0EEEEENS5_INS_12CwiseUnaryOpINS2_15scalar_dummy_opIdLb0EEEKNS6_IKNSB_INS2_14scalar_abs2_opIdEEKS8_EELin1ELin1ELb0EEEEEEENS2_9assign_opIddEELi0EEES0_Li0ELi0EE17AssignmentFunctorELi1EEEvllllRT_RNS_7BarrierEiENKUlvE0_clEv = comdat any

$_ZNKSt9_Any_data9_M_accessIPZN5Eigen20CoreThreadPoolDevice15parallelForImplINS1_8internal33dense_assignment_loop_with_deviceINS4_31generic_dense_assignment_kernelINS4_9evaluatorINS1_5BlockINS1_6MatrixIdLin1ELin1ELi0ELin1ELin1EEELin1ELin1ELb0EEEEENS7_INS1_12CwiseUnaryOpINS4_15scalar_dummy_opIdLb0EEEKNS8_IKNSD_INS4_14scalar_abs2_opIdEEKSA_EELin1ELin1ELb0EEEEEEENS4_9assign_opIddEELi0EEES2_Li0ELi0EE17AssignmentFunctorELi1EEEvllllRT_RNS1_7BarrierEiEUlvE0_EERKSU_v = comdat any

$_ZNSt14_Function_base13_Base_managerIZN5Eigen20CoreThreadPoolDevice15parallelForImplINS1_8internal33dense_assignment_loop_with_deviceINS4_31generic_dense_assignment_kernelINS4_9evaluatorINS1_5BlockINS1_6MatrixIdLin1ELin1ELi0ELin1ELin1EEELin1ELin1ELb0EEEEENS7_INS1_12CwiseUnaryOpINS4_15scalar_dummy_opIdLb0EEEKNS8_IKNSD_INS4_14scalar_abs2_opIdEEKSA_EELin1ELin1ELb0EEEEEEENS4_9assign_opIddEELi0EEES2_Li0ELi0EE17AssignmentFunctorELi1EEEvllllRT_RNS1_7BarrierEiEUlvE0_E10_M_managerERSt9_Any_dataRKS10_St18_Manager_operation = comdat any

$_ZNSt14_Function_base13_Base_managerIZN5Eigen20CoreThreadPoolDevice15parallelForImplINS1_8internal33dense_assignment_loop_with_deviceINS4_31generic_dense_assignment_kernelINS4_9evaluatorINS1_5BlockINS1_6MatrixIdLin1ELin1ELi0ELin1ELin1EEELin1ELin1ELb0EEEEENS7_INS1_12CwiseUnaryOpINS4_15scalar_dummy_opIdLb0EEEKNS8_IKNSD_INS4_14scalar_abs2_opIdEEKSA_EELin1ELin1ELb0EEEEEEENS4_9assign_opIddEELi0EEES2_Li0ELi0EE17AssignmentFunctorELi1EEEvllllRT_RNS1_7BarrierEiEUlvE0_E15_M_init_functorIRKSY_EEvRSt9_Any_dataOSU_ = comdat any

$_ZNSt14_Function_base13_Base_managerIZN5Eigen20CoreThreadPoolDevice15parallelForImplINS1_8internal33dense_assignment_loop_with_deviceINS4_31generic_dense_assignment_kernelINS4_9evaluatorINS1_5BlockINS1_6MatrixIdLin1ELin1ELi0ELin1ELin1EEELin1ELin1ELb0EEEEENS7_INS1_12CwiseUnaryOpINS4_15scalar_dummy_opIdLb0EEEKNS8_IKNSD_INS4_14scalar_abs2_opIdEEKSA_EELin1ELin1ELb0EEEEEEENS4_9assign_opIddEELi0EEES2_Li0ELi0EE17AssignmentFunctorELi1EEEvllllRT_RNS1_7BarrierEiEUlvE0_E10_M_destroyERSt9_Any_dataSt17integral_constantIbLb0EE = comdat any

$_ZNSt14_Function_base13_Base_managerIZN5Eigen20CoreThreadPoolDevice15parallelForImplINS1_8internal33dense_assignment_loop_with_deviceINS4_31generic_dense_assignment_kernelINS4_9evaluatorINS1_5BlockINS1_6MatrixIdLin1ELin1ELi0ELin1ELin1EEELin1ELin1ELb0EEEEENS7_INS1_12CwiseUnaryOpINS4_15scalar_dummy_opIdLb0EEEKNS8_IKNSD_INS4_14scalar_abs2_opIdEEKSA_EELin1ELin1ELb0EEEEEEENS4_9assign_opIddEELi0EEES2_Li0ELi0EE17AssignmentFunctorELi1EEEvllllRT_RNS1_7BarrierEiEUlvE0_E9_M_createIRKSY_EEvRSt9_Any_dataOSU_St17integral_constantIbLb0EE = comdat any

$_ZN5Eigen18test_isCwiseApproxINS_5BlockINS_6MatrixIdLin1ELin1ELi0ELin1ELin1EEELin1ELin1ELb0EEES4_EEbRKNS_9DenseBaseIT_EERKNS5_IT0_EEb = comdat any

$_ZN5Eigen18get_test_precisionINS_5BlockINS_6MatrixIdLin1ELin1ELi0ELin1ELin1EEELin1ELin1ELb0EEEEENS_9NumTraitsINT_6ScalarEE4RealERKS6_PKS7_ = comdat any

$_ZN5Eigen19test_relative_errorINS_5BlockINS_6MatrixIdLin1ELin1ELi0ELin1ELin1EEELin1ELin1ELb0EEES4_EENS_9NumTraitsINT_10RealScalarEE10NonIntegerERKNS_9EigenBaseIS6_EERKNSA_IT0_EE = comdat any

$_ZNK5Eigen15DenseCoeffsBaseINS_5BlockINS_6MatrixIdLin1ELin1ELi0ELin1ELin1EEELin1ELin1ELb0EEELi0EEclEll = comdat any

$_ZNK5Eigen15DenseCoeffsBaseINS_5BlockINS_6MatrixIdLin1ELin1ELi0ELin1ELin1EEELin1ELin1ELb0EEELi0EE5coeffEll = comdat any

$_ZNK5Eigen8internal17mapbase_evaluatorINS_5BlockINS_6MatrixIdLin1ELin1ELi0ELin1ELin1EEELin1ELin1ELb0EEES4_E5coeffEll = comdat any

$_ZNK5Eigen10MatrixBaseINS_5BlockINS_6MatrixIdLin1ELin1ELi0ELin1ELin1EEELin1ELin1ELb0EEEE6matrixEv = comdat any

$_ZNK5Eigen10MatrixBaseINS_5BlockINS_6MatrixIdLin1ELin1ELi0ELin1ELin1EEELin1ELin1ELb0EEEEmiIS4_EEKNS_13CwiseBinaryOpINS_8internal20scalar_difference_opIdNS8_6traitsIT_E6ScalarEEEKS4_KSB_EERKNS0_ISB_EE = comdat any

$_ZNK5Eigen10MatrixBaseINS_13CwiseBinaryOpINS_8internal20scalar_difference_opIddEEKNS_5BlockINS_6MatrixIdLin1ELin1ELi0ELin1ELin1EEELin1ELin1ELb0EEES9_EEE9cwiseAbs2Ev = comdat any

$_ZNK5Eigen9DenseBaseINS_12CwiseUnaryOpINS_8internal14scalar_abs2_opIdEEKNS_13CwiseBinaryOpINS2_20scalar_difference_opIddEEKNS_5BlockINS_6MatrixIdLin1ELin1ELi0ELin1ELin1EEELin1ELin1ELb0EEESC_EEEEE3sumEv = comdat any

$_ZNK5Eigen10MatrixBaseINS_5BlockINS_6MatrixIdLin1ELin1ELi0ELin1ELin1EEELin1ELin1ELb0EEEE9cwiseAbs2Ev = comdat any

$_ZNK5Eigen9DenseBaseINS_12CwiseUnaryOpINS_8internal14scalar_abs2_opIdEEKNS_5BlockINS_6MatrixIdLin1ELin1ELi0ELin1ELin1EEELin1ELin1ELb0EEEEEE3sumEv = comdat any

$_ZN5Eigen13CwiseBinaryOpINS_8internal20scalar_difference_opIddEEKNS_5BlockINS_6MatrixIdLin1ELin1ELi0ELin1ELin1EEELin1ELin1ELb0EEES8_EC2ERS8_SA_RKS3_ = comdat any

$_ZN5Eigen17CwiseBinaryOpImplINS_8internal20scalar_difference_opIddEEKNS_5BlockINS_6MatrixIdLin1ELin1ELi0ELin1ELin1EEELin1ELin1ELb0EEES8_NS_5DenseEEC2Ev = comdat any

$_ZN5Eigen10MatrixBaseINS_13CwiseBinaryOpINS_8internal20scalar_difference_opIddEEKNS_5BlockINS_6MatrixIdLin1ELin1ELi0ELin1ELin1EEELin1ELin1ELb0EEES9_EEEC2Ev = comdat any

$_ZN5Eigen9DenseBaseINS_13CwiseBinaryOpINS_8internal20scalar_difference_opIddEEKNS_5BlockINS_6MatrixIdLin1ELin1ELi0ELin1ELin1EEELin1ELin1ELb0EEES9_EEEC2Ev = comdat any

$_ZNK5Eigen9EigenBaseINS_13CwiseBinaryOpINS_8internal20scalar_difference_opIddEEKNS_5BlockINS_6MatrixIdLin1ELin1ELi0ELin1ELin1EEELin1ELin1ELb0EEES9_EEE7derivedEv = comdat any

$_ZN5Eigen12CwiseUnaryOpINS_8internal14scalar_abs2_opIdEEKNS_13CwiseBinaryOpINS1_20scalar_difference_opIddEEKNS_5BlockINS_6MatrixIdLin1ELin1ELi0ELin1ELin1EEELin1ELin1ELb0EEESB_EEEC2ERSD_RKS3_ = comdat any

$_ZN5Eigen16CwiseUnaryOpImplINS_8internal14scalar_abs2_opIdEEKNS_13CwiseBinaryOpINS1_20scalar_difference_opIddEEKNS_5BlockINS_6MatrixIdLin1ELin1ELi0ELin1ELin1EEELin1ELin1ELb0EEESB_EENS_5DenseEEC2Ev = comdat any

$_ZN5Eigen10MatrixBaseINS_12CwiseUnaryOpINS_8internal14scalar_abs2_opIdEEKNS_13CwiseBinaryOpINS2_20scalar_difference_opIddEEKNS_5BlockINS_6MatrixIdLin1ELin1ELi0ELin1ELin1EEELin1ELin1ELb0EEESC_EEEEEC2Ev = comdat any

$_ZN5Eigen9DenseBaseINS_12CwiseUnaryOpINS_8internal14scalar_abs2_opIdEEKNS_13CwiseBinaryOpINS2_20scalar_difference_opIddEEKNS_5BlockINS_6MatrixIdLin1ELin1ELi0ELin1ELin1EEELin1ELin1ELb0EEESC_EEEEEC2Ev = comdat any

$_ZNK5Eigen9EigenBaseINS_12CwiseUnaryOpINS_8internal14scalar_abs2_opIdEEKNS_13CwiseBinaryOpINS2_20scalar_difference_opIddEEKNS_5BlockINS_6MatrixIdLin1ELin1ELi0ELin1ELin1EEELin1ELin1ELb0EEESC_EEEEE4sizeEv = comdat any

$_ZNK5Eigen9EigenBaseINS_12CwiseUnaryOpINS_8internal14scalar_abs2_opIdEEKNS_13CwiseBinaryOpINS2_20scalar_difference_opIddEEKNS_5BlockINS_6MatrixIdLin1ELin1ELi0ELin1ELin1EEELin1ELin1ELb0EEESC_EEEEE7derivedEv = comdat any

$_ZNK5Eigen9DenseBaseINS_12CwiseUnaryOpINS_8internal14scalar_abs2_opIdEEKNS_13CwiseBinaryOpINS2_20scalar_difference_opIddEEKNS_5BlockINS_6MatrixIdLin1ELin1ELi0ELin1ELin1EEELin1ELin1ELb0EEESC_EEEEE5reduxINS2_13scalar_sum_opIddEEEEdRKT_ = comdat any

$_ZNK5Eigen9EigenBaseINS_12CwiseUnaryOpINS_8internal14scalar_abs2_opIdEEKNS_13CwiseBinaryOpINS2_20scalar_difference_opIddEEKNS_5BlockINS_6MatrixIdLin1ELin1ELi0ELin1ELin1EEELin1ELin1ELb0EEESC_EEEEE4rowsEv = comdat any

$_ZNK5Eigen9EigenBaseINS_12CwiseUnaryOpINS_8internal14scalar_abs2_opIdEEKNS_13CwiseBinaryOpINS2_20scalar_difference_opIddEEKNS_5BlockINS_6MatrixIdLin1ELin1ELi0ELin1ELin1EEELin1ELin1ELb0EEESC_EEEEE4colsEv = comdat any

$_ZNK5Eigen12CwiseUnaryOpINS_8internal14scalar_abs2_opIdEEKNS_13CwiseBinaryOpINS1_20scalar_difference_opIddEEKNS_5BlockINS_6MatrixIdLin1ELin1ELi0ELin1ELin1EEELin1ELin1ELb0EEESB_EEE4rowsEv = comdat any

$_ZNK5Eigen13CwiseBinaryOpINS_8internal20scalar_difference_opIddEEKNS_5BlockINS_6MatrixIdLin1ELin1ELi0ELin1ELin1EEELin1ELin1ELb0EEES8_E4rowsEv = comdat any

$_ZNK5Eigen12CwiseUnaryOpINS_8internal14scalar_abs2_opIdEEKNS_13CwiseBinaryOpINS1_20scalar_difference_opIddEEKNS_5BlockINS_6MatrixIdLin1ELin1ELi0ELin1ELin1EEELin1ELin1ELb0EEESB_EEE4colsEv = comdat any

$_ZNK5Eigen13CwiseBinaryOpINS_8internal20scalar_difference_opIddEEKNS_5BlockINS_6MatrixIdLin1ELin1ELi0ELin1ELin1EEELin1ELin1ELb0EEES8_E4colsEv = comdat any

$_ZN5Eigen8internal15redux_evaluatorINS_12CwiseUnaryOpINS0_14scalar_abs2_opIdEEKNS_13CwiseBinaryOpINS0_20scalar_difference_opIddEEKNS_5BlockINS_6MatrixIdLin1ELin1ELi0ELin1ELin1EEELin1ELin1ELb0EEESC_EEEEEC2ERKSF_ = comdat any

$_ZN5Eigen8internal10redux_implINS0_13scalar_sum_opIddEENS0_15redux_evaluatorINS_12CwiseUnaryOpINS0_14scalar_abs2_opIdEEKNS_13CwiseBinaryOpINS0_20scalar_difference_opIddEEKNS_5BlockINS_6MatrixIdLin1ELin1ELi0ELin1ELin1EEELin1ELin1ELb0EEESF_EEEEEELi4ELi0EE3runISI_EEdRKSJ_RKS3_RKT_ = comdat any

$_ZN5Eigen8internal9evaluatorINS_12CwiseUnaryOpINS0_14scalar_abs2_opIdEEKNS_13CwiseBinaryOpINS0_20scalar_difference_opIddEEKNS_5BlockINS_6MatrixIdLin1ELin1ELi0ELin1ELin1EEELin1ELin1ELb0EEESC_EEEEEC2ERKSF_ = comdat any

$_ZN5Eigen8internal15unary_evaluatorINS_12CwiseUnaryOpINS0_14scalar_abs2_opIdEEKNS_13CwiseBinaryOpINS0_20scalar_difference_opIddEEKNS_5BlockINS_6MatrixIdLin1ELin1ELi0ELin1ELin1EEELin1ELin1ELb0EEESC_EEEENS0_10IndexBasedEdEC2ERKSF_ = comdat any

$_ZN5Eigen8internal15unary_evaluatorINS_12CwiseUnaryOpINS0_14scalar_abs2_opIdEEKNS_13CwiseBinaryOpINS0_20scalar_difference_opIddEEKNS_5BlockINS_6MatrixIdLin1ELin1ELi0ELin1ELin1EEELin1ELin1ELb0EEESC_EEEENS0_10IndexBasedEdE4DataC2ERKSF_ = comdat any

$_ZNK5Eigen12CwiseUnaryOpINS_8internal14scalar_abs2_opIdEEKNS_13CwiseBinaryOpINS1_20scalar_difference_opIddEEKNS_5BlockINS_6MatrixIdLin1ELin1ELi0ELin1ELin1EEELin1ELin1ELb0EEESB_EEE7functorEv = comdat any

$_ZNK5Eigen12CwiseUnaryOpINS_8internal14scalar_abs2_opIdEEKNS_13CwiseBinaryOpINS1_20scalar_difference_opIddEEKNS_5BlockINS_6MatrixIdLin1ELin1ELi0ELin1ELin1EEELin1ELin1ELb0EEESB_EEE16nestedExpressionEv = comdat any

$_ZN5Eigen8internal9evaluatorIKNS_13CwiseBinaryOpINS0_20scalar_difference_opIddEEKNS_5BlockINS_6MatrixIdLin1ELin1ELi0ELin1ELin1EEELin1ELin1ELb0EEES9_EEEC2ERSB_ = comdat any

$_ZN5Eigen8internal9evaluatorINS_13CwiseBinaryOpINS0_20scalar_difference_opIddEEKNS_5BlockINS_6MatrixIdLin1ELin1ELi0ELin1ELin1EEELin1ELin1ELb0EEES9_EEEC2ERKSA_ = comdat any

$_ZN5Eigen8internal16binary_evaluatorINS_13CwiseBinaryOpINS0_20scalar_difference_opIddEEKNS_5BlockINS_6MatrixIdLin1ELin1ELi0ELin1ELin1EEELin1ELin1ELb0EEES9_EENS0_10IndexBasedESB_ddEC2ERKSA_ = comdat any

$_ZN5Eigen8internal16binary_evaluatorINS_13CwiseBinaryOpINS0_20scalar_difference_opIddEEKNS_5BlockINS_6MatrixIdLin1ELin1ELi0ELin1ELin1EEELin1ELin1ELb0EEES9_EENS0_10IndexBasedESB_ddE4DataC2ERKSA_ = comdat any

$_ZNK5Eigen13CwiseBinaryOpINS_8internal20scalar_difference_opIddEEKNS_5BlockINS_6MatrixIdLin1ELin1ELi0ELin1ELin1EEELin1ELin1ELb0EEES8_E7functorEv = comdat any

$_ZNK5Eigen13CwiseBinaryOpINS_8internal20scalar_difference_opIddEEKNS_5BlockINS_6MatrixIdLin1ELin1ELi0ELin1ELin1EEELin1ELin1ELb0EEES8_E3lhsEv = comdat any

$_ZN5Eigen8internal9evaluatorIKNS_5BlockINS_6MatrixIdLin1ELin1ELi0ELin1ELin1EEELin1ELin1ELb0EEEEC2ERS6_ = comdat any

$_ZNK5Eigen13CwiseBinaryOpINS_8internal20scalar_difference_opIddEEKNS_5BlockINS_6MatrixIdLin1ELin1ELi0ELin1ELin1EEELin1ELin1ELb0EEES8_E3rhsEv = comdat any

$_ZNK5Eigen9DenseBaseINS_12CwiseUnaryOpINS_8internal14scalar_abs2_opIdEEKNS_13CwiseBinaryOpINS2_20scalar_difference_opIddEEKNS_5BlockINS_6MatrixIdLin1ELin1ELi0ELin1ELin1EEELin1ELin1ELb0EEESC_EEEEE9innerSizeEv = comdat any

$_ZNK5Eigen9DenseBaseINS_12CwiseUnaryOpINS_8internal14scalar_abs2_opIdEEKNS_13CwiseBinaryOpINS2_20scalar_difference_opIddEEKNS_5BlockINS_6MatrixIdLin1ELin1ELi0ELin1ELin1EEELin1ELin1ELb0EEESC_EEEEE9outerSizeEv = comdat any

$_ZNK5Eigen8internal15unary_evaluatorINS_12CwiseUnaryOpINS0_14scalar_abs2_opIdEEKNS_13CwiseBinaryOpINS0_20scalar_difference_opIddEEKNS_5BlockINS_6MatrixIdLin1ELin1ELi0ELin1ELin1EEELin1ELin1ELb0EEESC_EEEENS0_10IndexBasedEdE6packetILi0EDv2_dEET0_ll = comdat any

$_ZNK5Eigen8internal15redux_evaluatorINS_12CwiseUnaryOpINS0_14scalar_abs2_opIdEEKNS_13CwiseBinaryOpINS0_20scalar_difference_opIddEEKNS_5BlockINS_6MatrixIdLin1ELin1ELi0ELin1ELin1EEELin1ELin1ELb0EEESC_EEEEE18packetByOuterInnerILi0EDv2_dEET0_ll = comdat any

$_ZNK5Eigen8internal15redux_evaluatorINS_12CwiseUnaryOpINS0_14scalar_abs2_opIdEEKNS_13CwiseBinaryOpINS0_20scalar_difference_opIddEEKNS_5BlockINS_6MatrixIdLin1ELin1ELi0ELin1ELin1EEELin1ELin1ELb0EEESC_EEEEE17coeffByOuterInnerEll = comdat any

$_ZN5Eigen8internal10redux_implINS0_13scalar_sum_opIddEENS0_15redux_evaluatorINS_12CwiseUnaryOpINS0_14scalar_abs2_opIdEEKNS_13CwiseBinaryOpINS0_20scalar_difference_opIddEEKNS_5BlockINS_6MatrixIdLin1ELin1ELi0ELin1ELin1EEELin1ELin1ELb0EEESF_EEEEEELi0ELi0EE3runISI_EEdRKSJ_RKS3_RKT_ = comdat any

$_ZNK5Eigen8internal15unary_evaluatorINS_12CwiseUnaryOpINS0_14scalar_abs2_opIdEEKNS_13CwiseBinaryOpINS0_20scalar_difference_opIddEEKNS_5BlockINS_6MatrixIdLin1ELin1ELi0ELin1ELin1EEELin1ELin1ELb0EEESC_EEEENS0_10IndexBasedEdE4Data4funcEv = comdat any

$_ZNK5Eigen8internal16binary_evaluatorINS_13CwiseBinaryOpINS0_20scalar_difference_opIddEEKNS_5BlockINS_6MatrixIdLin1ELin1ELi0ELin1ELin1EEELin1ELin1ELb0EEES9_EENS0_10IndexBasedESB_ddE6packetILi0EDv2_dEET0_ll = comdat any

$_ZNK5Eigen8internal16binary_evaluatorINS_13CwiseBinaryOpINS0_20scalar_difference_opIddEEKNS_5BlockINS_6MatrixIdLin1ELin1ELi0ELin1ELin1EEELin1ELin1ELb0EEES9_EENS0_10IndexBasedESB_ddE4Data4funcEv = comdat any

$_ZNK5Eigen8internal17mapbase_evaluatorINS_5BlockINS_6MatrixIdLin1ELin1ELi0ELin1ELin1EEELin1ELin1ELb0EEES4_E6packetILi0EDv2_dEET0_ll = comdat any

$_ZN5Eigen8internal6ploaduIDv2_dEET_PKNS0_15unpacket_traitsIS3_E4typeE = comdat any

$_ZNK5Eigen8internal15unary_evaluatorINS_12CwiseUnaryOpINS0_14scalar_abs2_opIdEEKNS_13CwiseBinaryOpINS0_20scalar_difference_opIddEEKNS_5BlockINS_6MatrixIdLin1ELin1ELi0ELin1ELin1EEELin1ELin1ELb0EEESC_EEEENS0_10IndexBasedEdE5coeffEll = comdat any

$_ZNK5Eigen8internal16binary_evaluatorINS_13CwiseBinaryOpINS0_20scalar_difference_opIddEEKNS_5BlockINS_6MatrixIdLin1ELin1ELi0ELin1ELin1EEELin1ELin1ELb0EEES9_EENS0_10IndexBasedESB_ddE5coeffEll = comdat any

$_ZN5Eigen12CwiseUnaryOpINS_8internal14scalar_abs2_opIdEEKNS_5BlockINS_6MatrixIdLin1ELin1ELi0ELin1ELin1EEELin1ELin1ELb0EEEEC2ERS8_RKS3_ = comdat any

$_ZN5Eigen16CwiseUnaryOpImplINS_8internal14scalar_abs2_opIdEEKNS_5BlockINS_6MatrixIdLin1ELin1ELi0ELin1ELin1EEELin1ELin1ELb0EEENS_5DenseEEC2Ev = comdat any

$_ZN5Eigen10MatrixBaseINS_12CwiseUnaryOpINS_8internal14scalar_abs2_opIdEEKNS_5BlockINS_6MatrixIdLin1ELin1ELi0ELin1ELin1EEELin1ELin1ELb0EEEEEEC2Ev = comdat any

$_ZN5Eigen9DenseBaseINS_12CwiseUnaryOpINS_8internal14scalar_abs2_opIdEEKNS_5BlockINS_6MatrixIdLin1ELin1ELi0ELin1ELin1EEELin1ELin1ELb0EEEEEEC2Ev = comdat any

$_ZNK5Eigen9EigenBaseINS_12CwiseUnaryOpINS_8internal14scalar_abs2_opIdEEKNS_5BlockINS_6MatrixIdLin1ELin1ELi0ELin1ELin1EEELin1ELin1ELb0EEEEEE4sizeEv = comdat any

$_ZNK5Eigen9EigenBaseINS_12CwiseUnaryOpINS_8internal14scalar_abs2_opIdEEKNS_5BlockINS_6MatrixIdLin1ELin1ELi0ELin1ELin1EEELin1ELin1ELb0EEEEEE7derivedEv = comdat any

$_ZNK5Eigen9DenseBaseINS_12CwiseUnaryOpINS_8internal14scalar_abs2_opIdEEKNS_5BlockINS_6MatrixIdLin1ELin1ELi0ELin1ELin1EEELin1ELin1ELb0EEEEEE5reduxINS2_13scalar_sum_opIddEEEEdRKT_ = comdat any

$_ZNK5Eigen9EigenBaseINS_12CwiseUnaryOpINS_8internal14scalar_abs2_opIdEEKNS_5BlockINS_6MatrixIdLin1ELin1ELi0ELin1ELin1EEELin1ELin1ELb0EEEEEE4rowsEv = comdat any

$_ZNK5Eigen9EigenBaseINS_12CwiseUnaryOpINS_8internal14scalar_abs2_opIdEEKNS_5BlockINS_6MatrixIdLin1ELin1ELi0ELin1ELin1EEELin1ELin1ELb0EEEEEE4colsEv = comdat any

$_ZNK5Eigen12CwiseUnaryOpINS_8internal14scalar_abs2_opIdEEKNS_5BlockINS_6MatrixIdLin1ELin1ELi0ELin1ELin1EEELin1ELin1ELb0EEEE4rowsEv = comdat any

$_ZNK5Eigen12CwiseUnaryOpINS_8internal14scalar_abs2_opIdEEKNS_5BlockINS_6MatrixIdLin1ELin1ELi0ELin1ELin1EEELin1ELin1ELb0EEEE4colsEv = comdat any

$_ZN5Eigen8internal15redux_evaluatorINS_12CwiseUnaryOpINS0_14scalar_abs2_opIdEEKNS_5BlockINS_6MatrixIdLin1ELin1ELi0ELin1ELin1EEELin1ELin1ELb0EEEEEEC2ERKSA_ = comdat any

$_ZN5Eigen8internal10redux_implINS0_13scalar_sum_opIddEENS0_15redux_evaluatorINS_12CwiseUnaryOpINS0_14scalar_abs2_opIdEEKNS_5BlockINS_6MatrixIdLin1ELin1ELi0ELin1ELin1EEELin1ELin1ELb0EEEEEEELi4ELi0EE3runISD_EEdRKSE_RKS3_RKT_ = comdat any

$_ZN5Eigen8internal9evaluatorINS_12CwiseUnaryOpINS0_14scalar_abs2_opIdEEKNS_5BlockINS_6MatrixIdLin1ELin1ELi0ELin1ELin1EEELin1ELin1ELb0EEEEEEC2ERKSA_ = comdat any

$_ZN5Eigen8internal15unary_evaluatorINS_12CwiseUnaryOpINS0_14scalar_abs2_opIdEEKNS_5BlockINS_6MatrixIdLin1ELin1ELi0ELin1ELin1EEELin1ELin1ELb0EEEEENS0_10IndexBasedEdEC2ERKSA_ = comdat any

$_ZN5Eigen8internal15unary_evaluatorINS_12CwiseUnaryOpINS0_14scalar_abs2_opIdEEKNS_5BlockINS_6MatrixIdLin1ELin1ELi0ELin1ELin1EEELin1ELin1ELb0EEEEENS0_10IndexBasedEdE4DataC2ERKSA_ = comdat any

$_ZNK5Eigen12CwiseUnaryOpINS_8internal14scalar_abs2_opIdEEKNS_5BlockINS_6MatrixIdLin1ELin1ELi0ELin1ELin1EEELin1ELin1ELb0EEEE7functorEv = comdat any

$_ZNK5Eigen12CwiseUnaryOpINS_8internal14scalar_abs2_opIdEEKNS_5BlockINS_6MatrixIdLin1ELin1ELi0ELin1ELin1EEELin1ELin1ELb0EEEE16nestedExpressionEv = comdat any

$_ZNK5Eigen9DenseBaseINS_12CwiseUnaryOpINS_8internal14scalar_abs2_opIdEEKNS_5BlockINS_6MatrixIdLin1ELin1ELi0ELin1ELin1EEELin1ELin1ELb0EEEEEE9innerSizeEv = comdat any

$_ZNK5Eigen9DenseBaseINS_12CwiseUnaryOpINS_8internal14scalar_abs2_opIdEEKNS_5BlockINS_6MatrixIdLin1ELin1ELi0ELin1ELin1EEELin1ELin1ELb0EEEEEE9outerSizeEv = comdat any

$_ZNK5Eigen8internal15unary_evaluatorINS_12CwiseUnaryOpINS0_14scalar_abs2_opIdEEKNS_5BlockINS_6MatrixIdLin1ELin1ELi0ELin1ELin1EEELin1ELin1ELb0EEEEENS0_10IndexBasedEdE6packetILi0EDv2_dEET0_ll = comdat any

$_ZNK5Eigen8internal15redux_evaluatorINS_12CwiseUnaryOpINS0_14scalar_abs2_opIdEEKNS_5BlockINS_6MatrixIdLin1ELin1ELi0ELin1ELin1EEELin1ELin1ELb0EEEEEE18packetByOuterInnerILi0EDv2_dEET0_ll = comdat any

$_ZNK5Eigen8internal15redux_evaluatorINS_12CwiseUnaryOpINS0_14scalar_abs2_opIdEEKNS_5BlockINS_6MatrixIdLin1ELin1ELi0ELin1ELin1EEELin1ELin1ELb0EEEEEE17coeffByOuterInnerEll = comdat any

$_ZN5Eigen8internal10redux_implINS0_13scalar_sum_opIddEENS0_15redux_evaluatorINS_12CwiseUnaryOpINS0_14scalar_abs2_opIdEEKNS_5BlockINS_6MatrixIdLin1ELin1ELi0ELin1ELin1EEELin1ELin1ELb0EEEEEEELi0ELi0EE3runISD_EEdRKSE_RKS3_RKT_ = comdat any

$_ZNK5Eigen8internal15unary_evaluatorINS_12CwiseUnaryOpINS0_14scalar_abs2_opIdEEKNS_5BlockINS_6MatrixIdLin1ELin1ELi0ELin1ELin1EEELin1ELin1ELb0EEEEENS0_10IndexBasedEdE4Data4funcEv = comdat any

$_ZNK5Eigen8internal15unary_evaluatorINS_12CwiseUnaryOpINS0_14scalar_abs2_opIdEEKNS_5BlockINS_6MatrixIdLin1ELin1ELi0ELin1ELin1EEELin1ELin1ELb0EEEEENS0_10IndexBasedEdE5coeffEll = comdat any

$_ZN5Eigen8internal15eigen_zero_implINS_6MatrixIdLin1ELin1ELi0ELin1ELin1EEELb1EE3runERS3_ = comdat any

$_ZN5Eigen12CwiseUnaryOpINS_8internal15scalar_dummy_opIdLb1EEEKNS_5BlockIKNS0_INS1_14scalar_abs2_opIdEEKNS_6MatrixIdLin1ELin1ELi0ELin1ELin1EEEEELin1ELin1ELb0EEEEC2ERSD_RKS3_ = comdat any

$_ZN5Eigen16CwiseUnaryOpImplINS_8internal15scalar_dummy_opIdLb1EEEKNS_5BlockIKNS_12CwiseUnaryOpINS1_14scalar_abs2_opIdEEKNS_6MatrixIdLin1ELin1ELi0ELin1ELin1EEEEELin1ELin1ELb0EEENS_5DenseEEC2Ev = comdat any

$_ZN5Eigen10MatrixBaseINS_12CwiseUnaryOpINS_8internal15scalar_dummy_opIdLb1EEEKNS_5BlockIKNS1_INS2_14scalar_abs2_opIdEEKNS_6MatrixIdLin1ELin1ELi0ELin1ELin1EEEEELin1ELin1ELb0EEEEEEC2Ev = comdat any

$_ZN5Eigen9DenseBaseINS_12CwiseUnaryOpINS_8internal15scalar_dummy_opIdLb1EEEKNS_5BlockIKNS1_INS2_14scalar_abs2_opIdEEKNS_6MatrixIdLin1ELin1ELi0ELin1ELin1EEEEELin1ELin1ELb0EEEEEEC2Ev = comdat any

$_ZN5Eigen9BlockImplINS_6MatrixIdLin1ELin1ELi0ELin1ELin1EEELin1ELin1ELb0ENS_5DenseEEaSINS_12CwiseUnaryOpINS_8internal15scalar_dummy_opIdLb1EEEKNS_5BlockIKNS6_INS7_14scalar_abs2_opIdEEKS2_EELin1ELin1ELb0EEEEEEERS4_RKNS_9DenseBaseIT_EE = comdat any

$_ZNK5Eigen9EigenBaseINS_12CwiseUnaryOpINS_8internal15scalar_dummy_opIdLb1EEEKNS_5BlockIKNS1_INS2_14scalar_abs2_opIdEEKNS_6MatrixIdLin1ELin1ELi0ELin1ELin1EEEEELin1ELin1ELb0EEEEEE7derivedEv = comdat any

$_ZN5Eigen8internal15BlockImpl_denseINS_6MatrixIdLin1ELin1ELi0ELin1ELin1EEELin1ELin1ELb0ELb1EEaSINS_12CwiseUnaryOpINS0_15scalar_dummy_opIdLb1EEEKNS_5BlockIKNS6_INS0_14scalar_abs2_opIdEEKS3_EELin1ELin1ELb0EEEEEEERS4_RKNS_9DenseBaseIT_EE = comdat any

$_ZN5Eigen10MatrixBaseINS_5BlockINS_6MatrixIdLin1ELin1ELi0ELin1ELin1EEELin1ELin1ELb0EEEEaSINS_12CwiseUnaryOpINS_8internal15scalar_dummy_opIdLb1EEEKNS1_IKNS7_INS8_14scalar_abs2_opIdEEKS3_EELin1ELin1ELb0EEEEEEERS4_RKNS_9DenseBaseIT_EE = comdat any

$_ZN5Eigen8internal15call_assignmentINS_5BlockINS_6MatrixIdLin1ELin1ELi0ELin1ELin1EEELin1ELin1ELb0EEENS_12CwiseUnaryOpINS0_15scalar_dummy_opIdLb1EEEKNS2_IKNS6_INS0_14scalar_abs2_opIdEEKS4_EELin1ELin1ELb0EEEEEEEvRT_RKT0_ = comdat any

$_ZN5Eigen8internal15call_assignmentINS_5BlockINS_6MatrixIdLin1ELin1ELi0ELin1ELin1EEELin1ELin1ELb0EEENS_12CwiseUnaryOpINS0_15scalar_dummy_opIdLb1EEEKNS2_IKNS6_INS0_14scalar_abs2_opIdEEKS4_EELin1ELin1ELb0EEEEENS0_9assign_opIddEEEEvRT_RKT0_RKT1_NSt9enable_ifIXntsr25evaluator_assume_aliasingISL_EE5valueEPvE4typeE = comdat any

$_ZN5Eigen8internal24call_assignment_no_aliasINS_5BlockINS_6MatrixIdLin1ELin1ELi0ELin1ELin1EEELin1ELin1ELb0EEENS_12CwiseUnaryOpINS0_15scalar_dummy_opIdLb1EEEKNS2_IKNS6_INS0_14scalar_abs2_opIdEEKS4_EELin1ELin1ELb0EEEEENS0_9assign_opIddEEEEvRT_RKT0_RKT1_ = comdat any

$_ZN5Eigen8internal10AssignmentINS_5BlockINS_6MatrixIdLin1ELin1ELi0ELin1ELin1EEELin1ELin1ELb0EEENS_12CwiseUnaryOpINS0_15scalar_dummy_opIdLb1EEEKNS2_IKNS6_INS0_14scalar_abs2_opIdEEKS4_EELin1ELin1ELb0EEEEENS0_9assign_opIddEENS0_11Dense2DenseEvE3runERS5_RKSG_RKSI_ = comdat any

$_ZN5Eigen8internal18check_for_aliasingINS_5BlockINS_6MatrixIdLin1ELin1ELi0ELin1ELin1EEELin1ELin1ELb0EEENS_12CwiseUnaryOpINS0_15scalar_dummy_opIdLb1EEEKNS2_IKNS6_INS0_14scalar_abs2_opIdEEKS4_EELin1ELin1ELb0EEEEEEEvRKT_RKT0_ = comdat any

$_ZN5Eigen8internal26call_dense_assignment_loopINS_5BlockINS_6MatrixIdLin1ELin1ELi0ELin1ELin1EEELin1ELin1ELb0EEENS_12CwiseUnaryOpINS0_15scalar_dummy_opIdLb1EEEKNS2_IKNS6_INS0_14scalar_abs2_opIdEEKS4_EELin1ELin1ELb0EEEEENS0_9assign_opIddEEEEvRT_RKT0_RKT1_ = comdat any

$_ZN5Eigen8internal27checkTransposeAliasing_implINS_5BlockINS_6MatrixIdLin1ELin1ELi0ELin1ELin1EEELin1ELin1ELb0EEENS_12CwiseUnaryOpINS0_15scalar_dummy_opIdLb1EEEKNS2_IKNS6_INS0_14scalar_abs2_opIdEEKS4_EELin1ELin1ELb0EEEEELb0EE3runERKS5_RKSG_ = comdat any

$_ZN5Eigen8internal9evaluatorINS_12CwiseUnaryOpINS0_15scalar_dummy_opIdLb1EEEKNS_5BlockIKNS2_INS0_14scalar_abs2_opIdEEKNS_6MatrixIdLin1ELin1ELi0ELin1ELin1EEEEELin1ELin1ELb0EEEEEEC2ERKSF_ = comdat any

$_ZN5Eigen8internal17resize_if_allowedINS_5BlockINS_6MatrixIdLin1ELin1ELi0ELin1ELin1EEELin1ELin1ELb0EEENS_12CwiseUnaryOpINS0_15scalar_dummy_opIdLb1EEEKNS2_IKNS6_INS0_14scalar_abs2_opIdEEKS4_EELin1ELin1ELb0EEEEEddEEvRT_RKT0_RKNS0_9assign_opIT1_T2_EE = comdat any

$_ZN5Eigen8internal31generic_dense_assignment_kernelINS0_9evaluatorINS_5BlockINS_6MatrixIdLin1ELin1ELi0ELin1ELin1EEELin1ELin1ELb0EEEEENS2_INS_12CwiseUnaryOpINS0_15scalar_dummy_opIdLb1EEEKNS3_IKNS8_INS0_14scalar_abs2_opIdEEKS5_EELin1ELin1ELb0EEEEEEENS0_9assign_opIddEELi0EEC2ERS7_RKSJ_RKSL_RS6_ = comdat any

$_ZN5Eigen8internal21dense_assignment_loopINS0_31generic_dense_assignment_kernelINS0_9evaluatorINS_5BlockINS_6MatrixIdLin1ELin1ELi0ELin1ELin1EEELin1ELin1ELb0EEEEENS3_INS_12CwiseUnaryOpINS0_15scalar_dummy_opIdLb1EEEKNS4_IKNS9_INS0_14scalar_abs2_opIdEEKS6_EELin1ELin1ELb0EEEEEEENS0_9assign_opIddEELi0EEELi4ELi0EE3runERSN_ = comdat any

$_ZN5Eigen8internal15unary_evaluatorINS_12CwiseUnaryOpINS0_15scalar_dummy_opIdLb1EEEKNS_5BlockIKNS2_INS0_14scalar_abs2_opIdEEKNS_6MatrixIdLin1ELin1ELi0ELin1ELin1EEEEELin1ELin1ELb0EEEEENS0_10IndexBasedEdEC2ERKSF_ = comdat any

$_ZN5Eigen8internal15unary_evaluatorINS_12CwiseUnaryOpINS0_15scalar_dummy_opIdLb1EEEKNS_5BlockIKNS2_INS0_14scalar_abs2_opIdEEKNS_6MatrixIdLin1ELin1ELi0ELin1ELin1EEEEELin1ELin1ELb0EEEEENS0_10IndexBasedEdE4DataC2ERKSF_ = comdat any

$_ZNK5Eigen12CwiseUnaryOpINS_8internal15scalar_dummy_opIdLb1EEEKNS_5BlockIKNS0_INS1_14scalar_abs2_opIdEEKNS_6MatrixIdLin1ELin1ELi0ELin1ELin1EEEEELin1ELin1ELb0EEEE7functorEv = comdat any

$_ZNK5Eigen12CwiseUnaryOpINS_8internal15scalar_dummy_opIdLb1EEEKNS_5BlockIKNS0_INS1_14scalar_abs2_opIdEEKNS_6MatrixIdLin1ELin1ELi0ELin1ELin1EEEEELin1ELin1ELb0EEEE16nestedExpressionEv = comdat any

$_ZNK5Eigen12CwiseUnaryOpINS_8internal15scalar_dummy_opIdLb1EEEKNS_5BlockIKNS0_INS1_14scalar_abs2_opIdEEKNS_6MatrixIdLin1ELin1ELi0ELin1ELin1EEEEELin1ELin1ELb0EEEE4rowsEv = comdat any

$_ZNK5Eigen12CwiseUnaryOpINS_8internal15scalar_dummy_opIdLb1EEEKNS_5BlockIKNS0_INS1_14scalar_abs2_opIdEEKNS_6MatrixIdLin1ELin1ELi0ELin1ELin1EEEEELin1ELin1ELb0EEEE4colsEv = comdat any

$_ZNK5Eigen8internal31generic_dense_assignment_kernelINS0_9evaluatorINS_5BlockINS_6MatrixIdLin1ELin1ELi0ELin1ELin1EEELin1ELin1ELb0EEEEENS2_INS_12CwiseUnaryOpINS0_15scalar_dummy_opIdLb1EEEKNS3_IKNS8_INS0_14scalar_abs2_opIdEEKS5_EELin1ELin1ELb0EEEEEEENS0_9assign_opIddEELi0EE10dstDataPtrEv = comdat any

$_ZN5Eigen8internal21dense_assignment_loopINS0_31generic_dense_assignment_kernelINS0_9evaluatorINS_5BlockINS_6MatrixIdLin1ELin1ELi0ELin1ELin1EEELin1ELin1ELb0EEEEENS3_INS_12CwiseUnaryOpINS0_15scalar_dummy_opIdLb1EEEKNS4_IKNS9_INS0_14scalar_abs2_opIdEEKS6_EELin1ELin1ELb0EEEEEEENS0_9assign_opIddEELi0EEELi0ELi0EE3runERSN_ = comdat any

$_ZNK5Eigen8internal31generic_dense_assignment_kernelINS0_9evaluatorINS_5BlockINS_6MatrixIdLin1ELin1ELi0ELin1ELin1EEELin1ELin1ELb0EEEEENS2_INS_12CwiseUnaryOpINS0_15scalar_dummy_opIdLb1EEEKNS3_IKNS8_INS0_14scalar_abs2_opIdEEKS5_EELin1ELin1ELb0EEEEEEENS0_9assign_opIddEELi0EE9innerSizeEv = comdat any

$_ZNK5Eigen8internal31generic_dense_assignment_kernelINS0_9evaluatorINS_5BlockINS_6MatrixIdLin1ELin1ELi0ELin1ELin1EEELin1ELin1ELb0EEEEENS2_INS_12CwiseUnaryOpINS0_15scalar_dummy_opIdLb1EEEKNS3_IKNS8_INS0_14scalar_abs2_opIdEEKS5_EELin1ELin1ELb0EEEEEEENS0_9assign_opIddEELi0EE9outerSizeEv = comdat any

$_ZNK5Eigen8internal31generic_dense_assignment_kernelINS0_9evaluatorINS_5BlockINS_6MatrixIdLin1ELin1ELi0ELin1ELin1EEELin1ELin1ELb0EEEEENS2_INS_12CwiseUnaryOpINS0_15scalar_dummy_opIdLb1EEEKNS3_IKNS8_INS0_14scalar_abs2_opIdEEKS5_EELin1ELin1ELb0EEEEEEENS0_9assign_opIddEELi0EE11outerStrideEv = comdat any

$_ZN5Eigen8internal13first_alignedILi16EdlEET1_PKT0_S2_ = comdat any

$_ZN5Eigen8internal31generic_dense_assignment_kernelINS0_9evaluatorINS_5BlockINS_6MatrixIdLin1ELin1ELi0ELin1ELin1EEELin1ELin1ELb0EEEEENS2_INS_12CwiseUnaryOpINS0_15scalar_dummy_opIdLb1EEEKNS3_IKNS8_INS0_14scalar_abs2_opIdEEKS5_EELin1ELin1ELb0EEEEEEENS0_9assign_opIddEELi0EE23assignCoeffByOuterInnerEll = comdat any

$_ZN5Eigen8internal31generic_dense_assignment_kernelINS0_9evaluatorINS_5BlockINS_6MatrixIdLin1ELin1ELi0ELin1ELin1EEELin1ELin1ELb0EEEEENS2_INS_12CwiseUnaryOpINS0_15scalar_dummy_opIdLb1EEEKNS3_IKNS8_INS0_14scalar_abs2_opIdEEKS5_EELin1ELin1ELb0EEEEEEENS0_9assign_opIddEELi0EE24assignPacketByOuterInnerILi16ELi0EDv2_dEEvll = comdat any

$_ZN5Eigen7MapBaseINS_5BlockINS_6MatrixIdLin1ELin1ELi0ELin1ELin1EEELin1ELin1ELb0EEELi1EE4dataEv = comdat any

$_ZN5Eigen8internal31generic_dense_assignment_kernelINS0_9evaluatorINS_5BlockINS_6MatrixIdLin1ELin1ELi0ELin1ELin1EEELin1ELin1ELb0EEEEENS2_INS_12CwiseUnaryOpINS0_15scalar_dummy_opIdLb1EEEKNS3_IKNS8_INS0_14scalar_abs2_opIdEEKS5_EELin1ELin1ELb0EEEEEEENS0_9assign_opIddEELi0EE20rowIndexByOuterInnerEll = comdat any

$_ZN5Eigen8internal31generic_dense_assignment_kernelINS0_9evaluatorINS_5BlockINS_6MatrixIdLin1ELin1ELi0ELin1ELin1EEELin1ELin1ELb0EEEEENS2_INS_12CwiseUnaryOpINS0_15scalar_dummy_opIdLb1EEEKNS3_IKNS8_INS0_14scalar_abs2_opIdEEKS5_EELin1ELin1ELb0EEEEEEENS0_9assign_opIddEELi0EE20colIndexByOuterInnerEll = comdat any

$_ZN5Eigen8internal31generic_dense_assignment_kernelINS0_9evaluatorINS_5BlockINS_6MatrixIdLin1ELin1ELi0ELin1ELin1EEELin1ELin1ELb0EEEEENS2_INS_12CwiseUnaryOpINS0_15scalar_dummy_opIdLb1EEEKNS3_IKNS8_INS0_14scalar_abs2_opIdEEKS5_EELin1ELin1ELb0EEEEEEENS0_9assign_opIddEELi0EE11assignCoeffEll = comdat any

$_ZNK5Eigen8internal15unary_evaluatorINS_12CwiseUnaryOpINS0_15scalar_dummy_opIdLb1EEEKNS_5BlockIKNS2_INS0_14scalar_abs2_opIdEEKNS_6MatrixIdLin1ELin1ELi0ELin1ELin1EEEEELin1ELin1ELb0EEEEENS0_10IndexBasedEdE5coeffEll = comdat any

$_ZNK5Eigen8internal15unary_evaluatorINS_12CwiseUnaryOpINS0_15scalar_dummy_opIdLb1EEEKNS_5BlockIKNS2_INS0_14scalar_abs2_opIdEEKNS_6MatrixIdLin1ELin1ELi0ELin1ELin1EEEEELin1ELin1ELb0EEEEENS0_10IndexBasedEdE4Data4funcEv = comdat any

$_ZN5Eigen8internal31generic_dense_assignment_kernelINS0_9evaluatorINS_5BlockINS_6MatrixIdLin1ELin1ELi0ELin1ELin1EEELin1ELin1ELb0EEEEENS2_INS_12CwiseUnaryOpINS0_15scalar_dummy_opIdLb1EEEKNS3_IKNS8_INS0_14scalar_abs2_opIdEEKS5_EELin1ELin1ELb0EEEEEEENS0_9assign_opIddEELi0EE12assignPacketILi16ELi0EDv2_dEEvll = comdat any

$_ZNK5Eigen8internal15unary_evaluatorINS_12CwiseUnaryOpINS0_15scalar_dummy_opIdLb1EEEKNS_5BlockIKNS2_INS0_14scalar_abs2_opIdEEKNS_6MatrixIdLin1ELin1ELi0ELin1ELin1EEEEELin1ELin1ELb0EEEEENS0_10IndexBasedEdE6packetILi0EDv2_dEET0_ll = comdat any

$_ZNK5Eigen8internal15unary_evaluatorINS_5BlockIKNS_12CwiseUnaryOpINS0_14scalar_abs2_opIdEEKNS_6MatrixIdLin1ELin1ELi0ELin1ELin1EEEEELin1ELin1ELb0EEENS0_10IndexBasedEdE6packetILi0EDv2_dEET0_ll = comdat any

$_ZNK5Eigen8internal15unary_evaluatorINS_12CwiseUnaryOpINS0_14scalar_abs2_opIdEEKNS_6MatrixIdLin1ELin1ELi0ELin1ELin1EEEEENS0_10IndexBasedEdE6packetILi0EDv2_dEET0_ll = comdat any

$_ZNK5Eigen8internal9evaluatorINS_15PlainObjectBaseINS_6MatrixIdLin1ELin1ELi0ELin1ELin1EEEEEE6packetILi0EDv2_dEET0_ll = comdat any

$_ZSt3minIlERKT_S2_S2_ = comdat any

$_ZN5Eigen8internal15call_assignmentINS_13DeviceWrapperINS_5BlockINS_6MatrixIdLin1ELin1ELi0ELin1ELin1EEELin1ELin1ELb0EEENS_20CoreThreadPoolDeviceEEENS_12CwiseUnaryOpINS0_15scalar_dummy_opIdLb1EEEKNS3_IKNS9_INS0_14scalar_abs2_opIdEEKS5_EELin1ELin1ELb0EEEEENS0_9assign_opIddEEEEvRT_RKT0_RKT1_NSt9enable_ifIXntsr25evaluator_assume_aliasingISO_EE5valueEPvE4typeE = comdat any

$_ZN5Eigen8internal24call_assignment_no_aliasINS_5BlockINS_6MatrixIdLin1ELin1ELi0ELin1ELin1EEELin1ELin1ELb0EEENS_12CwiseUnaryOpINS0_15scalar_dummy_opIdLb1EEEKNS2_IKNS6_INS0_14scalar_abs2_opIdEEKS4_EELin1ELin1ELb0EEEEENS0_9assign_opIddEENS_20CoreThreadPoolDeviceEEEvNS_13DeviceWrapperIT_T2_EERKT0_RKT1_ = comdat any

$_ZN5Eigen8internal20AssignmentWithDeviceINS_5BlockINS_6MatrixIdLin1ELin1ELi0ELin1ELin1EEELin1ELin1ELb0EEENS_12CwiseUnaryOpINS0_15scalar_dummy_opIdLb1EEEKNS2_IKNS6_INS0_14scalar_abs2_opIdEEKS4_EELin1ELin1ELb0EEEEENS0_9assign_opIddEENS_20CoreThreadPoolDeviceENS0_11Dense2DenseEvE3runERS5_RKSG_RKSI_RSJ_ = comdat any

$_ZN5Eigen8internal26call_dense_assignment_loopINS_5BlockINS_6MatrixIdLin1ELin1ELi0ELin1ELin1EEELin1ELin1ELb0EEENS_12CwiseUnaryOpINS0_15scalar_dummy_opIdLb1EEEKNS2_IKNS6_INS0_14scalar_abs2_opIdEEKS4_EELin1ELin1ELb0EEEEENS0_9assign_opIddEENS_20CoreThreadPoolDeviceEEEvRT_RKT0_RKT1_RT2_ = comdat any

$_ZN5Eigen8internal33dense_assignment_loop_with_deviceINS0_31generic_dense_assignment_kernelINS0_9evaluatorINS_5BlockINS_6MatrixIdLin1ELin1ELi0ELin1ELin1EEELin1ELin1ELb0EEEEENS3_INS_12CwiseUnaryOpINS0_15scalar_dummy_opIdLb1EEEKNS4_IKNS9_INS0_14scalar_abs2_opIdEEKS6_EELin1ELin1ELb0EEEEEEENS0_9assign_opIddEELi0EEENS_20CoreThreadPoolDeviceELi4ELi0EE3runERSN_RSO_ = comdat any

$_ZN5Eigen8internal33dense_assignment_loop_with_deviceINS0_31generic_dense_assignment_kernelINS0_9evaluatorINS_5BlockINS_6MatrixIdLin1ELin1ELi0ELin1ELin1EEELin1ELin1ELb0EEEEENS3_INS_12CwiseUnaryOpINS0_15scalar_dummy_opIdLb1EEEKNS4_IKNS9_INS0_14scalar_abs2_opIdEEKS6_EELin1ELin1ELb0EEEEEEENS0_9assign_opIddEELi0EEENS_20CoreThreadPoolDeviceELi4ELi0EE23PacketAssignmentFunctorC2ERSN_ = comdat any

$_ZN5Eigen8internal33dense_assignment_loop_with_deviceINS0_31generic_dense_assignment_kernelINS0_9evaluatorINS_5BlockINS_6MatrixIdLin1ELin1ELi0ELin1ELin1EEELin1ELin1ELb0EEEEENS3_INS_12CwiseUnaryOpINS0_15scalar_dummy_opIdLb1EEEKNS4_IKNS9_INS0_14scalar_abs2_opIdEEKS6_EELin1ELin1ELb0EEEEEEENS0_9assign_opIddEELi0EEENS_20CoreThreadPoolDeviceELi4ELi0EE23ScalarAssignmentFunctorC2ERSN_ = comdat any

$_ZN5Eigen20CoreThreadPoolDevice11parallelForINS_8internal33dense_assignment_loop_with_deviceINS2_31generic_dense_assignment_kernelINS2_9evaluatorINS_5BlockINS_6MatrixIdLin1ELin1ELi0ELin1ELin1EEELin1ELin1ELb0EEEEENS5_INS_12CwiseUnaryOpINS2_15scalar_dummy_opIdLb1EEEKNS6_IKNSB_INS2_14scalar_abs2_opIdEEKS8_EELin1ELin1ELb0EEEEEEENS2_9assign_opIddEELi0EEES0_Li4ELi0EE23PacketAssignmentFunctorELi2EEEvllllRT_f = comdat any

$_ZN5Eigen20CoreThreadPoolDevice11parallelForINS_8internal33dense_assignment_loop_with_deviceINS2_31generic_dense_assignment_kernelINS2_9evaluatorINS_5BlockINS_6MatrixIdLin1ELin1ELi0ELin1ELin1EEELin1ELin1ELb0EEEEENS5_INS_12CwiseUnaryOpINS2_15scalar_dummy_opIdLb1EEEKNS6_IKNSB_INS2_14scalar_abs2_opIdEEKS8_EELin1ELin1ELb0EEEEEEENS2_9assign_opIddEELi0EEES0_Li4ELi0EE23ScalarAssignmentFunctorELi1EEEvllRT_f = comdat any

$_ZN5Eigen20CoreThreadPoolDevice15parallelForImplINS_8internal33dense_assignment_loop_with_deviceINS2_31generic_dense_assignment_kernelINS2_9evaluatorINS_5BlockINS_6MatrixIdLin1ELin1ELi0ELin1ELin1EEELin1ELin1ELb0EEEEENS5_INS_12CwiseUnaryOpINS2_15scalar_dummy_opIdLb1EEEKNS6_IKNSB_INS2_14scalar_abs2_opIdEEKS8_EELin1ELin1ELb0EEEEEEENS2_9assign_opIddEELi0EEES0_Li4ELi0EE23PacketAssignmentFunctorELi2EEEvllllRT_RNS_7BarrierEi = comdat any

$_ZNSt8functionIFvvEEC2IZN5Eigen20CoreThreadPoolDevice15parallelForImplINS3_8internal33dense_assignment_loop_with_deviceINS6_31generic_dense_assignment_kernelINS6_9evaluatorINS3_5BlockINS3_6MatrixIdLin1ELin1ELi0ELin1ELin1EEELin1ELin1ELb0EEEEENS9_INS3_12CwiseUnaryOpINS6_15scalar_dummy_opIdLb1EEEKNSA_IKNSF_INS6_14scalar_abs2_opIdEEKSC_EELin1ELin1ELb0EEEEEEENS6_9assign_opIddEELi0EEES4_Li4ELi0EE23PacketAssignmentFunctorELi2EEEvllllRT_RNS3_7BarrierEiEUlvE_vEEOSW_ = comdat any

$_ZNSt8functionIFvvEEC2IZN5Eigen20CoreThreadPoolDevice15parallelForImplINS3_8internal33dense_assignment_loop_with_deviceINS6_31generic_dense_assignment_kernelINS6_9evaluatorINS3_5BlockINS3_6MatrixIdLin1ELin1ELi0ELin1ELin1EEELin1ELin1ELb0EEEEENS9_INS3_12CwiseUnaryOpINS6_15scalar_dummy_opIdLb1EEEKNSA_IKNSF_INS6_14scalar_abs2_opIdEEKSC_EELin1ELin1ELb0EEEEEEENS6_9assign_opIddEELi0EEES4_Li4ELi0EE23PacketAssignmentFunctorELi2EEEvllllRT_RNS3_7BarrierEiEUlvE0_vEEOSW_ = comdat any

$_ZN5Eigen8internal33dense_assignment_loop_with_deviceINS0_31generic_dense_assignment_kernelINS0_9evaluatorINS_5BlockINS_6MatrixIdLin1ELin1ELi0ELin1ELin1EEELin1ELin1ELb0EEEEENS3_INS_12CwiseUnaryOpINS0_15scalar_dummy_opIdLb1EEEKNS4_IKNS9_INS0_14scalar_abs2_opIdEEKS6_EELin1ELin1ELb0EEEEEEENS0_9assign_opIddEELi0EEENS_20CoreThreadPoolDeviceELi4ELi0EE23PacketAssignmentFunctorclEll = comdat any

$_ZNSt14_Function_base13_Base_managerIZN5Eigen20CoreThreadPoolDevice15parallelForImplINS1_8internal33dense_assignment_loop_with_deviceINS4_31generic_dense_assignment_kernelINS4_9evaluatorINS1_5BlockINS1_6MatrixIdLin1ELin1ELi0ELin1ELin1EEELin1ELin1ELb0EEEEENS7_INS1_12CwiseUnaryOpINS4_15scalar_dummy_opIdLb1EEEKNS8_IKNSD_INS4_14scalar_abs2_opIdEEKSA_EELin1ELin1ELb0EEEEEEENS4_9assign_opIddEELi0EEES2_Li4ELi0EE23PacketAssignmentFunctorELi2EEEvllllRT_RNS1_7BarrierEiEUlvE_E21_M_not_empty_functionISY_EEbRKSU_ = comdat any

$_ZNSt14_Function_base13_Base_managerIZN5Eigen20CoreThreadPoolDevice15parallelForImplINS1_8internal33dense_assignment_loop_with_deviceINS4_31generic_dense_assignment_kernelINS4_9evaluatorINS1_5BlockINS1_6MatrixIdLin1ELin1ELi0ELin1ELin1EEELin1ELin1ELb0EEEEENS7_INS1_12CwiseUnaryOpINS4_15scalar_dummy_opIdLb1EEEKNS8_IKNSD_INS4_14scalar_abs2_opIdEEKSA_EELin1ELin1ELb0EEEEEEENS4_9assign_opIddEELi0EEES2_Li4ELi0EE23PacketAssignmentFunctorELi2EEEvllllRT_RNS1_7BarrierEiEUlvE_E15_M_init_functorISY_EEvRSt9_Any_dataOSU_ = comdat any

$_ZNSt17_Function_handlerIFvvEZN5Eigen20CoreThreadPoolDevice15parallelForImplINS1_8internal33dense_assignment_loop_with_deviceINS4_31generic_dense_assignment_kernelINS4_9evaluatorINS1_5BlockINS1_6MatrixIdLin1ELin1ELi0ELin1ELin1EEELin1ELin1ELb0EEEEENS7_INS1_12CwiseUnaryOpINS4_15scalar_dummy_opIdLb1EEEKNS8_IKNSD_INS4_14scalar_abs2_opIdEEKSA_EELin1ELin1ELb0EEEEEEENS4_9assign_opIddEELi0EEES2_Li4ELi0EE23PacketAssignmentFunctorELi2EEEvllllRT_RNS1_7BarrierEiEUlvE_E9_M_invokeERKSt9_Any_data = comdat any

$_ZNSt17_Function_handlerIFvvEZN5Eigen20CoreThreadPoolDevice15parallelForImplINS1_8internal33dense_assignment_loop_with_deviceINS4_31generic_dense_assignment_kernelINS4_9evaluatorINS1_5BlockINS1_6MatrixIdLin1ELin1ELi0ELin1ELin1EEELin1ELin1ELb0EEEEENS7_INS1_12CwiseUnaryOpINS4_15scalar_dummy_opIdLb1EEEKNS8_IKNSD_INS4_14scalar_abs2_opIdEEKSA_EELin1ELin1ELb0EEEEEEENS4_9assign_opIddEELi0EEES2_Li4ELi0EE23PacketAssignmentFunctorELi2EEEvllllRT_RNS1_7BarrierEiEUlvE_E10_M_managerERSt9_Any_dataRKS10_St18_Manager_operation = comdat any

$_ZNSt14_Function_base13_Base_managerIZN5Eigen20CoreThreadPoolDevice15parallelForImplINS1_8internal33dense_assignment_loop_with_deviceINS4_31generic_dense_assignment_kernelINS4_9evaluatorINS1_5BlockINS1_6MatrixIdLin1ELin1ELi0ELin1ELin1EEELin1ELin1ELb0EEEEENS7_INS1_12CwiseUnaryOpINS4_15scalar_dummy_opIdLb1EEEKNS8_IKNSD_INS4_14scalar_abs2_opIdEEKSA_EELin1ELin1ELb0EEEEEEENS4_9assign_opIddEELi0EEES2_Li4ELi0EE23PacketAssignmentFunctorELi2EEEvllllRT_RNS1_7BarrierEiEUlvE_E9_M_createISY_EEvRSt9_Any_dataOSU_St17integral_constantIbLb0EE = comdat any

$_ZNSt9_Any_data9_M_accessIPZN5Eigen20CoreThreadPoolDevice15parallelForImplINS1_8internal33dense_assignment_loop_with_deviceINS4_31generic_dense_assignment_kernelINS4_9evaluatorINS1_5BlockINS1_6MatrixIdLin1ELin1ELi0ELin1ELin1EEELin1ELin1ELb0EEEEENS7_INS1_12CwiseUnaryOpINS4_15scalar_dummy_opIdLb1EEEKNS8_IKNSD_INS4_14scalar_abs2_opIdEEKSA_EELin1ELin1ELb0EEEEEEENS4_9assign_opIddEELi0EEES2_Li4ELi0EE23PacketAssignmentFunctorELi2EEEvllllRT_RNS1_7BarrierEiEUlvE_EESV_v = comdat any

$_ZSt10__invoke_rIvRZN5Eigen20CoreThreadPoolDevice15parallelForImplINS0_8internal33dense_assignment_loop_with_deviceINS3_31generic_dense_assignment_kernelINS3_9evaluatorINS0_5BlockINS0_6MatrixIdLin1ELin1ELi0ELin1ELin1EEELin1ELin1ELb0EEEEENS6_INS0_12CwiseUnaryOpINS3_15scalar_dummy_opIdLb1EEEKNS7_IKNSC_INS3_14scalar_abs2_opIdEEKS9_EELin1ELin1ELb0EEEEEEENS3_9assign_opIddEELi0EEES1_Li4ELi0EE23PacketAssignmentFunctorELi2EEEvllllRT_RNS0_7BarrierEiEUlvE_JEENSt9enable_ifIXsr6__and_ISt7is_voidIST_ESt14__is_invocableIT0_JDpT1_EEEE5valueEST_E4typeEOS13_DpOS14_ = comdat any

$_ZNSt14_Function_base13_Base_managerIZN5Eigen20CoreThreadPoolDevice15parallelForImplINS1_8internal33dense_assignment_loop_with_deviceINS4_31generic_dense_assignment_kernelINS4_9evaluatorINS1_5BlockINS1_6MatrixIdLin1ELin1ELi0ELin1ELin1EEELin1ELin1ELb0EEEEENS7_INS1_12CwiseUnaryOpINS4_15scalar_dummy_opIdLb1EEEKNS8_IKNSD_INS4_14scalar_abs2_opIdEEKSA_EELin1ELin1ELb0EEEEEEENS4_9assign_opIddEELi0EEES2_Li4ELi0EE23PacketAssignmentFunctorELi2EEEvllllRT_RNS1_7BarrierEiEUlvE_E14_M_get_pointerERKSt9_Any_data = comdat any

$_ZSt13__invoke_implIvRZN5Eigen20CoreThreadPoolDevice15parallelForImplINS0_8internal33dense_assignment_loop_with_deviceINS3_31generic_dense_assignment_kernelINS3_9evaluatorINS0_5BlockINS0_6MatrixIdLin1ELin1ELi0ELin1ELin1EEELin1ELin1ELb0EEEEENS6_INS0_12CwiseUnaryOpINS3_15scalar_dummy_opIdLb1EEEKNS7_IKNSC_INS3_14scalar_abs2_opIdEEKS9_EELin1ELin1ELb0EEEEEEENS3_9assign_opIddEELi0EEES1_Li4ELi0EE23PacketAssignmentFunctorELi2EEEvllllRT_RNS0_7BarrierEiEUlvE_JEEST_St14__invoke_otherOT0_DpOT1_ = comdat any

$_ZZN5Eigen20CoreThreadPoolDevice15parallelForImplINS_8internal33dense_assignment_loop_with_deviceINS2_31generic_dense_assignment_kernelINS2_9evaluatorINS_5BlockINS_6MatrixIdLin1ELin1ELi0ELin1ELin1EEELin1ELin1ELb0EEEEENS5_INS_12CwiseUnaryOpINS2_15scalar_dummy_opIdLb1EEEKNS6_IKNSB_INS2_14scalar_abs2_opIdEEKS8_EELin1ELin1ELb0EEEEEEENS2_9assign_opIddEELi0EEES0_Li4ELi0EE23PacketAssignmentFunctorELi2EEEvllllRT_RNS_7BarrierEiENKUlvE_clEv = comdat any

$_ZNKSt9_Any_data9_M_accessIPZN5Eigen20CoreThreadPoolDevice15parallelForImplINS1_8internal33dense_assignment_loop_with_deviceINS4_31generic_dense_assignment_kernelINS4_9evaluatorINS1_5BlockINS1_6MatrixIdLin1ELin1ELi0ELin1ELin1EEELin1ELin1ELb0EEEEENS7_INS1_12CwiseUnaryOpINS4_15scalar_dummy_opIdLb1EEEKNS8_IKNSD_INS4_14scalar_abs2_opIdEEKSA_EELin1ELin1ELb0EEEEEEENS4_9assign_opIddEELi0EEES2_Li4ELi0EE23PacketAssignmentFunctorELi2EEEvllllRT_RNS1_7BarrierEiEUlvE_EERKSU_v = comdat any

$_ZNSt14_Function_base13_Base_managerIZN5Eigen20CoreThreadPoolDevice15parallelForImplINS1_8internal33dense_assignment_loop_with_deviceINS4_31generic_dense_assignment_kernelINS4_9evaluatorINS1_5BlockINS1_6MatrixIdLin1ELin1ELi0ELin1ELin1EEELin1ELin1ELb0EEEEENS7_INS1_12CwiseUnaryOpINS4_15scalar_dummy_opIdLb1EEEKNS8_IKNSD_INS4_14scalar_abs2_opIdEEKSA_EELin1ELin1ELb0EEEEEEENS4_9assign_opIddEELi0EEES2_Li4ELi0EE23PacketAssignmentFunctorELi2EEEvllllRT_RNS1_7BarrierEiEUlvE_E10_M_managerERSt9_Any_dataRKS10_St18_Manager_operation = comdat any

$_ZNSt14_Function_base13_Base_managerIZN5Eigen20CoreThreadPoolDevice15parallelForImplINS1_8internal33dense_assignment_loop_with_deviceINS4_31generic_dense_assignment_kernelINS4_9evaluatorINS1_5BlockINS1_6MatrixIdLin1ELin1ELi0ELin1ELin1EEELin1ELin1ELb0EEEEENS7_INS1_12CwiseUnaryOpINS4_15scalar_dummy_opIdLb1EEEKNS8_IKNSD_INS4_14scalar_abs2_opIdEEKSA_EELin1ELin1ELb0EEEEEEENS4_9assign_opIddEELi0EEES2_Li4ELi0EE23PacketAssignmentFunctorELi2EEEvllllRT_RNS1_7BarrierEiEUlvE_E15_M_init_functorIRKSY_EEvRSt9_Any_dataOSU_ = comdat any

$_ZNSt14_Function_base13_Base_managerIZN5Eigen20CoreThreadPoolDevice15parallelForImplINS1_8internal33dense_assignment_loop_with_deviceINS4_31generic_dense_assignment_kernelINS4_9evaluatorINS1_5BlockINS1_6MatrixIdLin1ELin1ELi0ELin1ELin1EEELin1ELin1ELb0EEEEENS7_INS1_12CwiseUnaryOpINS4_15scalar_dummy_opIdLb1EEEKNS8_IKNSD_INS4_14scalar_abs2_opIdEEKSA_EELin1ELin1ELb0EEEEEEENS4_9assign_opIddEELi0EEES2_Li4ELi0EE23PacketAssignmentFunctorELi2EEEvllllRT_RNS1_7BarrierEiEUlvE_E10_M_destroyERSt9_Any_dataSt17integral_constantIbLb0EE = comdat any

$_ZNSt14_Function_base13_Base_managerIZN5Eigen20CoreThreadPoolDevice15parallelForImplINS1_8internal33dense_assignment_loop_with_deviceINS4_31generic_dense_assignment_kernelINS4_9evaluatorINS1_5BlockINS1_6MatrixIdLin1ELin1ELi0ELin1ELin1EEELin1ELin1ELb0EEEEENS7_INS1_12CwiseUnaryOpINS4_15scalar_dummy_opIdLb1EEEKNS8_IKNSD_INS4_14scalar_abs2_opIdEEKSA_EELin1ELin1ELb0EEEEEEENS4_9assign_opIddEELi0EEES2_Li4ELi0EE23PacketAssignmentFunctorELi2EEEvllllRT_RNS1_7BarrierEiEUlvE_E9_M_createIRKSY_EEvRSt9_Any_dataOSU_St17integral_constantIbLb0EE = comdat any

$_ZNSt14_Function_base13_Base_managerIZN5Eigen20CoreThreadPoolDevice15parallelForImplINS1_8internal33dense_assignment_loop_with_deviceINS4_31generic_dense_assignment_kernelINS4_9evaluatorINS1_5BlockINS1_6MatrixIdLin1ELin1ELi0ELin1ELin1EEELin1ELin1ELb0EEEEENS7_INS1_12CwiseUnaryOpINS4_15scalar_dummy_opIdLb1EEEKNS8_IKNSD_INS4_14scalar_abs2_opIdEEKSA_EELin1ELin1ELb0EEEEEEENS4_9assign_opIddEELi0EEES2_Li4ELi0EE23PacketAssignmentFunctorELi2EEEvllllRT_RNS1_7BarrierEiEUlvE0_E21_M_not_empty_functionISY_EEbRKSU_ = comdat any

$_ZNSt14_Function_base13_Base_managerIZN5Eigen20CoreThreadPoolDevice15parallelForImplINS1_8internal33dense_assignment_loop_with_deviceINS4_31generic_dense_assignment_kernelINS4_9evaluatorINS1_5BlockINS1_6MatrixIdLin1ELin1ELi0ELin1ELin1EEELin1ELin1ELb0EEEEENS7_INS1_12CwiseUnaryOpINS4_15scalar_dummy_opIdLb1EEEKNS8_IKNSD_INS4_14scalar_abs2_opIdEEKSA_EELin1ELin1ELb0EEEEEEENS4_9assign_opIddEELi0EEES2_Li4ELi0EE23PacketAssignmentFunctorELi2EEEvllllRT_RNS1_7BarrierEiEUlvE0_E15_M_init_functorISY_EEvRSt9_Any_dataOSU_ = comdat any

$_ZNSt17_Function_handlerIFvvEZN5Eigen20CoreThreadPoolDevice15parallelForImplINS1_8internal33dense_assignment_loop_with_deviceINS4_31generic_dense_assignment_kernelINS4_9evaluatorINS1_5BlockINS1_6MatrixIdLin1ELin1ELi0ELin1ELin1EEELin1ELin1ELb0EEEEENS7_INS1_12CwiseUnaryOpINS4_15scalar_dummy_opIdLb1EEEKNS8_IKNSD_INS4_14scalar_abs2_opIdEEKSA_EELin1ELin1ELb0EEEEEEENS4_9assign_opIddEELi0EEES2_Li4ELi0EE23PacketAssignmentFunctorELi2EEEvllllRT_RNS1_7BarrierEiEUlvE0_E9_M_invokeERKSt9_Any_data = comdat any

$_ZNSt17_Function_handlerIFvvEZN5Eigen20CoreThreadPoolDevice15parallelForImplINS1_8internal33dense_assignment_loop_with_deviceINS4_31generic_dense_assignment_kernelINS4_9evaluatorINS1_5BlockINS1_6MatrixIdLin1ELin1ELi0ELin1ELin1EEELin1ELin1ELb0EEEEENS7_INS1_12CwiseUnaryOpINS4_15scalar_dummy_opIdLb1EEEKNS8_IKNSD_INS4_14scalar_abs2_opIdEEKSA_EELin1ELin1ELb0EEEEEEENS4_9assign_opIddEELi0EEES2_Li4ELi0EE23PacketAssignmentFunctorELi2EEEvllllRT_RNS1_7BarrierEiEUlvE0_E10_M_managerERSt9_Any_dataRKS10_St18_Manager_operation = comdat any

$_ZNSt14_Function_base13_Base_managerIZN5Eigen20CoreThreadPoolDevice15parallelForImplINS1_8internal33dense_assignment_loop_with_deviceINS4_31generic_dense_assignment_kernelINS4_9evaluatorINS1_5BlockINS1_6MatrixIdLin1ELin1ELi0ELin1ELin1EEELin1ELin1ELb0EEEEENS7_INS1_12CwiseUnaryOpINS4_15scalar_dummy_opIdLb1EEEKNS8_IKNSD_INS4_14scalar_abs2_opIdEEKSA_EELin1ELin1ELb0EEEEEEENS4_9assign_opIddEELi0EEES2_Li4ELi0EE23PacketAssignmentFunctorELi2EEEvllllRT_RNS1_7BarrierEiEUlvE0_E9_M_createISY_EEvRSt9_Any_dataOSU_St17integral_constantIbLb0EE = comdat any

$_ZNSt9_Any_data9_M_accessIPZN5Eigen20CoreThreadPoolDevice15parallelForImplINS1_8internal33dense_assignment_loop_with_deviceINS4_31generic_dense_assignment_kernelINS4_9evaluatorINS1_5BlockINS1_6MatrixIdLin1ELin1ELi0ELin1ELin1EEELin1ELin1ELb0EEEEENS7_INS1_12CwiseUnaryOpINS4_15scalar_dummy_opIdLb1EEEKNS8_IKNSD_INS4_14scalar_abs2_opIdEEKSA_EELin1ELin1ELb0EEEEEEENS4_9assign_opIddEELi0EEES2_Li4ELi0EE23PacketAssignmentFunctorELi2EEEvllllRT_RNS1_7BarrierEiEUlvE0_EESV_v = comdat any

$_ZSt10__invoke_rIvRZN5Eigen20CoreThreadPoolDevice15parallelForImplINS0_8internal33dense_assignment_loop_with_deviceINS3_31generic_dense_assignment_kernelINS3_9evaluatorINS0_5BlockINS0_6MatrixIdLin1ELin1ELi0ELin1ELin1EEELin1ELin1ELb0EEEEENS6_INS0_12CwiseUnaryOpINS3_15scalar_dummy_opIdLb1EEEKNS7_IKNSC_INS3_14scalar_abs2_opIdEEKS9_EELin1ELin1ELb0EEEEEEENS3_9assign_opIddEELi0EEES1_Li4ELi0EE23PacketAssignmentFunctorELi2EEEvllllRT_RNS0_7BarrierEiEUlvE0_JEENSt9enable_ifIXsr6__and_ISt7is_voidIST_ESt14__is_invocableIT0_JDpT1_EEEE5valueEST_E4typeEOS13_DpOS14_ = comdat any

$_ZNSt14_Function_base13_Base_managerIZN5Eigen20CoreThreadPoolDevice15parallelForImplINS1_8internal33dense_assignment_loop_with_deviceINS4_31generic_dense_assignment_kernelINS4_9evaluatorINS1_5BlockINS1_6MatrixIdLin1ELin1ELi0ELin1ELin1EEELin1ELin1ELb0EEEEENS7_INS1_12CwiseUnaryOpINS4_15scalar_dummy_opIdLb1EEEKNS8_IKNSD_INS4_14scalar_abs2_opIdEEKSA_EELin1ELin1ELb0EEEEEEENS4_9assign_opIddEELi0EEES2_Li4ELi0EE23PacketAssignmentFunctorELi2EEEvllllRT_RNS1_7BarrierEiEUlvE0_E14_M_get_pointerERKSt9_Any_data = comdat any

$_ZSt13__invoke_implIvRZN5Eigen20CoreThreadPoolDevice15parallelForImplINS0_8internal33dense_assignment_loop_with_deviceINS3_31generic_dense_assignment_kernelINS3_9evaluatorINS0_5BlockINS0_6MatrixIdLin1ELin1ELi0ELin1ELin1EEELin1ELin1ELb0EEEEENS6_INS0_12CwiseUnaryOpINS3_15scalar_dummy_opIdLb1EEEKNS7_IKNSC_INS3_14scalar_abs2_opIdEEKS9_EELin1ELin1ELb0EEEEEEENS3_9assign_opIddEELi0EEES1_Li4ELi0EE23PacketAssignmentFunctorELi2EEEvllllRT_RNS0_7BarrierEiEUlvE0_JEEST_St14__invoke_otherOT0_DpOT1_ = comdat any

$_ZZN5Eigen20CoreThreadPoolDevice15parallelForImplINS_8internal33dense_assignment_loop_with_deviceINS2_31generic_dense_assignment_kernelINS2_9evaluatorINS_5BlockINS_6MatrixIdLin1ELin1ELi0ELin1ELin1EEELin1ELin1ELb0EEEEENS5_INS_12CwiseUnaryOpINS2_15scalar_dummy_opIdLb1EEEKNS6_IKNSB_INS2_14scalar_abs2_opIdEEKS8_EELin1ELin1ELb0EEEEEEENS2_9assign_opIddEELi0EEES0_Li4ELi0EE23PacketAssignmentFunctorELi2EEEvllllRT_RNS_7BarrierEiENKUlvE0_clEv = comdat any

$_ZNKSt9_Any_data9_M_accessIPZN5Eigen20CoreThreadPoolDevice15parallelForImplINS1_8internal33dense_assignment_loop_with_deviceINS4_31generic_dense_assignment_kernelINS4_9evaluatorINS1_5BlockINS1_6MatrixIdLin1ELin1ELi0ELin1ELin1EEELin1ELin1ELb0EEEEENS7_INS1_12CwiseUnaryOpINS4_15scalar_dummy_opIdLb1EEEKNS8_IKNSD_INS4_14scalar_abs2_opIdEEKSA_EELin1ELin1ELb0EEEEEEENS4_9assign_opIddEELi0EEES2_Li4ELi0EE23PacketAssignmentFunctorELi2EEEvllllRT_RNS1_7BarrierEiEUlvE0_EERKSU_v = comdat any

$_ZNSt14_Function_base13_Base_managerIZN5Eigen20CoreThreadPoolDevice15parallelForImplINS1_8internal33dense_assignment_loop_with_deviceINS4_31generic_dense_assignment_kernelINS4_9evaluatorINS1_5BlockINS1_6MatrixIdLin1ELin1ELi0ELin1ELin1EEELin1ELin1ELb0EEEEENS7_INS1_12CwiseUnaryOpINS4_15scalar_dummy_opIdLb1EEEKNS8_IKNSD_INS4_14scalar_abs2_opIdEEKSA_EELin1ELin1ELb0EEEEEEENS4_9assign_opIddEELi0EEES2_Li4ELi0EE23PacketAssignmentFunctorELi2EEEvllllRT_RNS1_7BarrierEiEUlvE0_E10_M_managerERSt9_Any_dataRKS10_St18_Manager_operation = comdat any

$_ZNSt14_Function_base13_Base_managerIZN5Eigen20CoreThreadPoolDevice15parallelForImplINS1_8internal33dense_assignment_loop_with_deviceINS4_31generic_dense_assignment_kernelINS4_9evaluatorINS1_5BlockINS1_6MatrixIdLin1ELin1ELi0ELin1ELin1EEELin1ELin1ELb0EEEEENS7_INS1_12CwiseUnaryOpINS4_15scalar_dummy_opIdLb1EEEKNS8_IKNSD_INS4_14scalar_abs2_opIdEEKSA_EELin1ELin1ELb0EEEEEEENS4_9assign_opIddEELi0EEES2_Li4ELi0EE23PacketAssignmentFunctorELi2EEEvllllRT_RNS1_7BarrierEiEUlvE0_E15_M_init_functorIRKSY_EEvRSt9_Any_dataOSU_ = comdat any

$_ZNSt14_Function_base13_Base_managerIZN5Eigen20CoreThreadPoolDevice15parallelForImplINS1_8internal33dense_assignment_loop_with_deviceINS4_31generic_dense_assignment_kernelINS4_9evaluatorINS1_5BlockINS1_6MatrixIdLin1ELin1ELi0ELin1ELin1EEELin1ELin1ELb0EEEEENS7_INS1_12CwiseUnaryOpINS4_15scalar_dummy_opIdLb1EEEKNS8_IKNSD_INS4_14scalar_abs2_opIdEEKSA_EELin1ELin1ELb0EEEEEEENS4_9assign_opIddEELi0EEES2_Li4ELi0EE23PacketAssignmentFunctorELi2EEEvllllRT_RNS1_7BarrierEiEUlvE0_E10_M_destroyERSt9_Any_dataSt17integral_constantIbLb0EE = comdat any

$_ZNSt14_Function_base13_Base_managerIZN5Eigen20CoreThreadPoolDevice15parallelForImplINS1_8internal33dense_assignment_loop_with_deviceINS4_31generic_dense_assignment_kernelINS4_9evaluatorINS1_5BlockINS1_6MatrixIdLin1ELin1ELi0ELin1ELin1EEELin1ELin1ELb0EEEEENS7_INS1_12CwiseUnaryOpINS4_15scalar_dummy_opIdLb1EEEKNS8_IKNSD_INS4_14scalar_abs2_opIdEEKSA_EELin1ELin1ELb0EEEEEEENS4_9assign_opIddEELi0EEES2_Li4ELi0EE23PacketAssignmentFunctorELi2EEEvllllRT_RNS1_7BarrierEiEUlvE0_E9_M_createIRKSY_EEvRSt9_Any_dataOSU_St17integral_constantIbLb0EE = comdat any

$_ZN5Eigen8internal31generic_dense_assignment_kernelINS0_9evaluatorINS_5BlockINS_6MatrixIdLin1ELin1ELi0ELin1ELin1EEELin1ELin1ELb0EEEEENS2_INS_12CwiseUnaryOpINS0_15scalar_dummy_opIdLb1EEEKNS3_IKNS8_INS0_14scalar_abs2_opIdEEKS5_EELin1ELin1ELb0EEEEEEENS0_9assign_opIddEELi0EE24assignPacketByOuterInnerILi0ELi0EDv2_dEEvll = comdat any

$_ZN5Eigen8internal31generic_dense_assignment_kernelINS0_9evaluatorINS_5BlockINS_6MatrixIdLin1ELin1ELi0ELin1ELin1EEELin1ELin1ELb0EEEEENS2_INS_12CwiseUnaryOpINS0_15scalar_dummy_opIdLb1EEEKNS3_IKNS8_INS0_14scalar_abs2_opIdEEKS5_EELin1ELin1ELb0EEEEEEENS0_9assign_opIddEELi0EE12assignPacketILi0ELi0EDv2_dEEvll = comdat any

$_ZNK5Eigen8internal9assign_opIddE12assignPacketILi0EDv2_dEEvPdRKT0_ = comdat any

$_ZN5Eigen8internal7pstoreuIdDv2_dEEvPT_RKT0_ = comdat any

$_ZN5Eigen20CoreThreadPoolDevice15parallelForImplINS_8internal33dense_assignment_loop_with_deviceINS2_31generic_dense_assignment_kernelINS2_9evaluatorINS_5BlockINS_6MatrixIdLin1ELin1ELi0ELin1ELin1EEELin1ELin1ELb0EEEEENS5_INS_12CwiseUnaryOpINS2_15scalar_dummy_opIdLb1EEEKNS6_IKNSB_INS2_14scalar_abs2_opIdEEKS8_EELin1ELin1ELb0EEEEEEENS2_9assign_opIddEELi0EEES0_Li4ELi0EE23ScalarAssignmentFunctorELi1EEEvllRT_RNS_7BarrierEi = comdat any

$_ZNSt8functionIFvvEEC2IZN5Eigen20CoreThreadPoolDevice15parallelForImplINS3_8internal33dense_assignment_loop_with_deviceINS6_31generic_dense_assignment_kernelINS6_9evaluatorINS3_5BlockINS3_6MatrixIdLin1ELin1ELi0ELin1ELin1EEELin1ELin1ELb0EEEEENS9_INS3_12CwiseUnaryOpINS6_15scalar_dummy_opIdLb1EEEKNSA_IKNSF_INS6_14scalar_abs2_opIdEEKSC_EELin1ELin1ELb0EEEEEEENS6_9assign_opIddEELi0EEES4_Li4ELi0EE23ScalarAssignmentFunctorELi1EEEvllRT_RNS3_7BarrierEiEUlvE_vEEOSW_ = comdat any

$_ZN5Eigen8internal33dense_assignment_loop_with_deviceINS0_31generic_dense_assignment_kernelINS0_9evaluatorINS_5BlockINS_6MatrixIdLin1ELin1ELi0ELin1ELin1EEELin1ELin1ELb0EEEEENS3_INS_12CwiseUnaryOpINS0_15scalar_dummy_opIdLb1EEEKNS4_IKNS9_INS0_14scalar_abs2_opIdEEKS6_EELin1ELin1ELb0EEEEEEENS0_9assign_opIddEELi0EEENS_20CoreThreadPoolDeviceELi4ELi0EE23ScalarAssignmentFunctorclEl = comdat any

$_ZNSt14_Function_base13_Base_managerIZN5Eigen20CoreThreadPoolDevice15parallelForImplINS1_8internal33dense_assignment_loop_with_deviceINS4_31generic_dense_assignment_kernelINS4_9evaluatorINS1_5BlockINS1_6MatrixIdLin1ELin1ELi0ELin1ELin1EEELin1ELin1ELb0EEEEENS7_INS1_12CwiseUnaryOpINS4_15scalar_dummy_opIdLb1EEEKNS8_IKNSD_INS4_14scalar_abs2_opIdEEKSA_EELin1ELin1ELb0EEEEEEENS4_9assign_opIddEELi0EEES2_Li4ELi0EE23ScalarAssignmentFunctorELi1EEEvllRT_RNS1_7BarrierEiEUlvE_E21_M_not_empty_functionISY_EEbRKSU_ = comdat any

$_ZNSt14_Function_base13_Base_managerIZN5Eigen20CoreThreadPoolDevice15parallelForImplINS1_8internal33dense_assignment_loop_with_deviceINS4_31generic_dense_assignment_kernelINS4_9evaluatorINS1_5BlockINS1_6MatrixIdLin1ELin1ELi0ELin1ELin1EEELin1ELin1ELb0EEEEENS7_INS1_12CwiseUnaryOpINS4_15scalar_dummy_opIdLb1EEEKNS8_IKNSD_INS4_14scalar_abs2_opIdEEKSA_EELin1ELin1ELb0EEEEEEENS4_9assign_opIddEELi0EEES2_Li4ELi0EE23ScalarAssignmentFunctorELi1EEEvllRT_RNS1_7BarrierEiEUlvE_E15_M_init_functorISY_EEvRSt9_Any_dataOSU_ = comdat any

$_ZNSt17_Function_handlerIFvvEZN5Eigen20CoreThreadPoolDevice15parallelForImplINS1_8internal33dense_assignment_loop_with_deviceINS4_31generic_dense_assignment_kernelINS4_9evaluatorINS1_5BlockINS1_6MatrixIdLin1ELin1ELi0ELin1ELin1EEELin1ELin1ELb0EEEEENS7_INS1_12CwiseUnaryOpINS4_15scalar_dummy_opIdLb1EEEKNS8_IKNSD_INS4_14scalar_abs2_opIdEEKSA_EELin1ELin1ELb0EEEEEEENS4_9assign_opIddEELi0EEES2_Li4ELi0EE23ScalarAssignmentFunctorELi1EEEvllRT_RNS1_7BarrierEiEUlvE_E9_M_invokeERKSt9_Any_data = comdat any

$_ZNSt17_Function_handlerIFvvEZN5Eigen20CoreThreadPoolDevice15parallelForImplINS1_8internal33dense_assignment_loop_with_deviceINS4_31generic_dense_assignment_kernelINS4_9evaluatorINS1_5BlockINS1_6MatrixIdLin1ELin1ELi0ELin1ELin1EEELin1ELin1ELb0EEEEENS7_INS1_12CwiseUnaryOpINS4_15scalar_dummy_opIdLb1EEEKNS8_IKNSD_INS4_14scalar_abs2_opIdEEKSA_EELin1ELin1ELb0EEEEEEENS4_9assign_opIddEELi0EEES2_Li4ELi0EE23ScalarAssignmentFunctorELi1EEEvllRT_RNS1_7BarrierEiEUlvE_E10_M_managerERSt9_Any_dataRKS10_St18_Manager_operation = comdat any

$_ZNSt14_Function_base13_Base_managerIZN5Eigen20CoreThreadPoolDevice15parallelForImplINS1_8internal33dense_assignment_loop_with_deviceINS4_31generic_dense_assignment_kernelINS4_9evaluatorINS1_5BlockINS1_6MatrixIdLin1ELin1ELi0ELin1ELin1EEELin1ELin1ELb0EEEEENS7_INS1_12CwiseUnaryOpINS4_15scalar_dummy_opIdLb1EEEKNS8_IKNSD_INS4_14scalar_abs2_opIdEEKSA_EELin1ELin1ELb0EEEEEEENS4_9assign_opIddEELi0EEES2_Li4ELi0EE23ScalarAssignmentFunctorELi1EEEvllRT_RNS1_7BarrierEiEUlvE_E9_M_createISY_EEvRSt9_Any_dataOSU_St17integral_constantIbLb0EE = comdat any

$_ZNSt9_Any_data9_M_accessIPZN5Eigen20CoreThreadPoolDevice15parallelForImplINS1_8internal33dense_assignment_loop_with_deviceINS4_31generic_dense_assignment_kernelINS4_9evaluatorINS1_5BlockINS1_6MatrixIdLin1ELin1ELi0ELin1ELin1EEELin1ELin1ELb0EEEEENS7_INS1_12CwiseUnaryOpINS4_15scalar_dummy_opIdLb1EEEKNS8_IKNSD_INS4_14scalar_abs2_opIdEEKSA_EELin1ELin1ELb0EEEEEEENS4_9assign_opIddEELi0EEES2_Li4ELi0EE23ScalarAssignmentFunctorELi1EEEvllRT_RNS1_7BarrierEiEUlvE_EESV_v = comdat any

$_ZSt10__invoke_rIvRZN5Eigen20CoreThreadPoolDevice15parallelForImplINS0_8internal33dense_assignment_loop_with_deviceINS3_31generic_dense_assignment_kernelINS3_9evaluatorINS0_5BlockINS0_6MatrixIdLin1ELin1ELi0ELin1ELin1EEELin1ELin1ELb0EEEEENS6_INS0_12CwiseUnaryOpINS3_15scalar_dummy_opIdLb1EEEKNS7_IKNSC_INS3_14scalar_abs2_opIdEEKS9_EELin1ELin1ELb0EEEEEEENS3_9assign_opIddEELi0EEES1_Li4ELi0EE23ScalarAssignmentFunctorELi1EEEvllRT_RNS0_7BarrierEiEUlvE_JEENSt9enable_ifIXsr6__and_ISt7is_voidIST_ESt14__is_invocableIT0_JDpT1_EEEE5valueEST_E4typeEOS13_DpOS14_ = comdat any

$_ZNSt14_Function_base13_Base_managerIZN5Eigen20CoreThreadPoolDevice15parallelForImplINS1_8internal33dense_assignment_loop_with_deviceINS4_31generic_dense_assignment_kernelINS4_9evaluatorINS1_5BlockINS1_6MatrixIdLin1ELin1ELi0ELin1ELin1EEELin1ELin1ELb0EEEEENS7_INS1_12CwiseUnaryOpINS4_15scalar_dummy_opIdLb1EEEKNS8_IKNSD_INS4_14scalar_abs2_opIdEEKSA_EELin1ELin1ELb0EEEEEEENS4_9assign_opIddEELi0EEES2_Li4ELi0EE23ScalarAssignmentFunctorELi1EEEvllRT_RNS1_7BarrierEiEUlvE_E14_M_get_pointerERKSt9_Any_data = comdat any

$_ZSt13__invoke_implIvRZN5Eigen20CoreThreadPoolDevice15parallelForImplINS0_8internal33dense_assignment_loop_with_deviceINS3_31generic_dense_assignment_kernelINS3_9evaluatorINS0_5BlockINS0_6MatrixIdLin1ELin1ELi0ELin1ELin1EEELin1ELin1ELb0EEEEENS6_INS0_12CwiseUnaryOpINS3_15scalar_dummy_opIdLb1EEEKNS7_IKNSC_INS3_14scalar_abs2_opIdEEKS9_EELin1ELin1ELb0EEEEEEENS3_9assign_opIddEELi0EEES1_Li4ELi0EE23ScalarAssignmentFunctorELi1EEEvllRT_RNS0_7BarrierEiEUlvE_JEEST_St14__invoke_otherOT0_DpOT1_ = comdat any

$_ZZN5Eigen20CoreThreadPoolDevice15parallelForImplINS_8internal33dense_assignment_loop_with_deviceINS2_31generic_dense_assignment_kernelINS2_9evaluatorINS_5BlockINS_6MatrixIdLin1ELin1ELi0ELin1ELin1EEELin1ELin1ELb0EEEEENS5_INS_12CwiseUnaryOpINS2_15scalar_dummy_opIdLb1EEEKNS6_IKNSB_INS2_14scalar_abs2_opIdEEKS8_EELin1ELin1ELb0EEEEEEENS2_9assign_opIddEELi0EEES0_Li4ELi0EE23ScalarAssignmentFunctorELi1EEEvllRT_RNS_7BarrierEiENKUlvE_clEv = comdat any

$_ZNKSt9_Any_data9_M_accessIPZN5Eigen20CoreThreadPoolDevice15parallelForImplINS1_8internal33dense_assignment_loop_with_deviceINS4_31generic_dense_assignment_kernelINS4_9evaluatorINS1_5BlockINS1_6MatrixIdLin1ELin1ELi0ELin1ELin1EEELin1ELin1ELb0EEEEENS7_INS1_12CwiseUnaryOpINS4_15scalar_dummy_opIdLb1EEEKNS8_IKNSD_INS4_14scalar_abs2_opIdEEKSA_EELin1ELin1ELb0EEEEEEENS4_9assign_opIddEELi0EEES2_Li4ELi0EE23ScalarAssignmentFunctorELi1EEEvllRT_RNS1_7BarrierEiEUlvE_EERKSU_v = comdat any

$_ZNSt14_Function_base13_Base_managerIZN5Eigen20CoreThreadPoolDevice15parallelForImplINS1_8internal33dense_assignment_loop_with_deviceINS4_31generic_dense_assignment_kernelINS4_9evaluatorINS1_5BlockINS1_6MatrixIdLin1ELin1ELi0ELin1ELin1EEELin1ELin1ELb0EEEEENS7_INS1_12CwiseUnaryOpINS4_15scalar_dummy_opIdLb1EEEKNS8_IKNSD_INS4_14scalar_abs2_opIdEEKSA_EELin1ELin1ELb0EEEEEEENS4_9assign_opIddEELi0EEES2_Li4ELi0EE23ScalarAssignmentFunctorELi1EEEvllRT_RNS1_7BarrierEiEUlvE_E10_M_managerERSt9_Any_dataRKS10_St18_Manager_operation = comdat any

$_ZNSt14_Function_base13_Base_managerIZN5Eigen20CoreThreadPoolDevice15parallelForImplINS1_8internal33dense_assignment_loop_with_deviceINS4_31generic_dense_assignment_kernelINS4_9evaluatorINS1_5BlockINS1_6MatrixIdLin1ELin1ELi0ELin1ELin1EEELin1ELin1ELb0EEEEENS7_INS1_12CwiseUnaryOpINS4_15scalar_dummy_opIdLb1EEEKNS8_IKNSD_INS4_14scalar_abs2_opIdEEKSA_EELin1ELin1ELb0EEEEEEENS4_9assign_opIddEELi0EEES2_Li4ELi0EE23ScalarAssignmentFunctorELi1EEEvllRT_RNS1_7BarrierEiEUlvE_E15_M_init_functorIRKSY_EEvRSt9_Any_dataOSU_ = comdat any

$_ZNSt14_Function_base13_Base_managerIZN5Eigen20CoreThreadPoolDevice15parallelForImplINS1_8internal33dense_assignment_loop_with_deviceINS4_31generic_dense_assignment_kernelINS4_9evaluatorINS1_5BlockINS1_6MatrixIdLin1ELin1ELi0ELin1ELin1EEELin1ELin1ELb0EEEEENS7_INS1_12CwiseUnaryOpINS4_15scalar_dummy_opIdLb1EEEKNS8_IKNSD_INS4_14scalar_abs2_opIdEEKSA_EELin1ELin1ELb0EEEEEEENS4_9assign_opIddEELi0EEES2_Li4ELi0EE23ScalarAssignmentFunctorELi1EEEvllRT_RNS1_7BarrierEiEUlvE_E10_M_destroyERSt9_Any_dataSt17integral_constantIbLb0EE = comdat any

$_ZNSt14_Function_base13_Base_managerIZN5Eigen20CoreThreadPoolDevice15parallelForImplINS1_8internal33dense_assignment_loop_with_deviceINS4_31generic_dense_assignment_kernelINS4_9evaluatorINS1_5BlockINS1_6MatrixIdLin1ELin1ELi0ELin1ELin1EEELin1ELin1ELb0EEEEENS7_INS1_12CwiseUnaryOpINS4_15scalar_dummy_opIdLb1EEEKNS8_IKNSD_INS4_14scalar_abs2_opIdEEKSA_EELin1ELin1ELb0EEEEEEENS4_9assign_opIddEELi0EEES2_Li4ELi0EE23ScalarAssignmentFunctorELi1EEEvllRT_RNS1_7BarrierEiEUlvE_E9_M_createIRKSY_EEvRSt9_Any_dataOSU_St17integral_constantIbLb0EE = comdat any

$_ZN5Eigen8RunQueueINS_20StlThreadEnvironment4TaskELj1024EE5FlushEv = comdat any

$_ZN5Eigen6MatrixIfLi16ELi16ELi0ELi16ELi16EEC2IllEERKT_RKT0_ = comdat any

$_ZN5Eigen9DenseBaseINS_6MatrixIfLi16ELi16ELi0ELi16ELi16EEEE9setRandomEv = comdat any

$_ZNK5Eigen10MatrixBaseINS_6MatrixIfLi16ELi16ELi0ELi16ELi16EEEE9cwiseAbs2Ev = comdat any

$_ZNK5Eigen9DenseBaseINS_12CwiseUnaryOpINS_8internal14scalar_abs2_opIfEEKNS_6MatrixIfLi16ELi16ELi0ELi16ELi16EEEEEE9unaryExprINS2_15scalar_dummy_opIfLb0EEEEEKNS1_IT_KS8_EERKSD_ = comdat any

$_ZN5Eigen6MatrixIfLi16ELi16ELi0ELi16ELi16EEaSINS_12CwiseUnaryOpINS_8internal15scalar_dummy_opIfLb0EEEKNS3_INS4_14scalar_abs2_opIfEEKS1_EEEEEERS1_RKNS_9DenseBaseIT_EE = comdat any

$_ZN5Eigen9EigenBaseINS_6MatrixIfLi16ELi16ELi0ELi16ELi16EEEE6deviceINS_20CoreThreadPoolDeviceEEENS_13DeviceWrapperIS2_T_EERS7_ = comdat any

$_ZN5Eigen13DeviceWrapperINS_6MatrixIfLi16ELi16ELi0ELi16ELi16EEENS_20CoreThreadPoolDeviceEEaSINS_12CwiseUnaryOpINS_8internal15scalar_dummy_opIfLb0EEEKNS6_INS7_14scalar_abs2_opIfEEKS2_EEEEEERS2_RKNS_9EigenBaseIT_EE = comdat any

$_ZN5Eigen19verifyIsCwiseApproxINS_6MatrixIfLi16ELi16ELi0ELi16ELi16EEES2_EEbRKT_RKT0_b = comdat any

$_ZNK5Eigen9DenseBaseINS_12CwiseUnaryOpINS_8internal14scalar_abs2_opIfEEKNS_6MatrixIfLi16ELi16ELi0ELi16ELi16EEEEEE9unaryExprINS2_15scalar_dummy_opIfLb1EEEEEKNS1_IT_KS8_EERKSD_ = comdat any

$_ZN5Eigen6MatrixIfLi16ELi16ELi0ELi16ELi16EEaSINS_12CwiseUnaryOpINS_8internal15scalar_dummy_opIfLb1EEEKNS3_INS4_14scalar_abs2_opIfEEKS1_EEEEEERS1_RKNS_9DenseBaseIT_EE = comdat any

$_ZN5Eigen13DeviceWrapperINS_6MatrixIfLi16ELi16ELi0ELi16ELi16EEENS_20CoreThreadPoolDeviceEEaSINS_12CwiseUnaryOpINS_8internal15scalar_dummy_opIfLb1EEEKNS6_INS7_14scalar_abs2_opIfEEKS2_EEEEEERS2_RKNS_9EigenBaseIT_EE = comdat any

$_ZNK5Eigen9DenseBaseINS_12CwiseUnaryOpINS_8internal14scalar_abs2_opIfEEKNS_6MatrixIfLi16ELi16ELi0ELi16ELi16EEEEEE17bottomRightCornerIllEEKNS9_18ConstFixedBlockXprIXsr8internal15get_fixed_valueIT_EE5valueEXsr8internal15get_fixed_valueIT0_EE5valueEE4TypeESC_SD_ = comdat any

$_ZNK5Eigen9DenseBaseINS_5BlockIKNS_12CwiseUnaryOpINS_8internal14scalar_abs2_opIfEEKNS_6MatrixIfLi16ELi16ELi0ELi16ELi16EEEEELin1ELin1ELb0EEEE9unaryExprINS3_15scalar_dummy_opIfLb0EEEEEKNS2_IT_KSB_EERKSG_ = comdat any

$_ZN5Eigen9DenseBaseINS_6MatrixIfLi16ELi16ELi0ELi16ELi16EEEE17bottomRightCornerIllEENS3_13FixedBlockXprIXsr8internal15get_fixed_valueIT_EE5valueEXsr8internal15get_fixed_valueIT0_EE5valueEE4TypeES6_S7_ = comdat any

$_ZN5Eigen5BlockINS_6MatrixIfLi16ELi16ELi0ELi16ELi16EEELin1ELin1ELb0EEaSINS_12CwiseUnaryOpINS_8internal15scalar_dummy_opIfLb0EEEKNS0_IKNS5_INS6_14scalar_abs2_opIfEEKS2_EELin1ELin1ELb0EEEEEEERS3_RKNS_9DenseBaseIT_EE = comdat any

$_ZN5Eigen9EigenBaseINS_5BlockINS_6MatrixIfLi16ELi16ELi0ELi16ELi16EEELin1ELin1ELb0EEEE6deviceINS_20CoreThreadPoolDeviceEEENS_13DeviceWrapperIS4_T_EERS9_ = comdat any

$_ZN5Eigen13DeviceWrapperINS_5BlockINS_6MatrixIfLi16ELi16ELi0ELi16ELi16EEELin1ELin1ELb0EEENS_20CoreThreadPoolDeviceEEaSINS_12CwiseUnaryOpINS_8internal15scalar_dummy_opIfLb0EEEKNS1_IKNS8_INS9_14scalar_abs2_opIfEEKS3_EELin1ELin1ELb0EEEEEEERS4_RKNS_9EigenBaseIT_EE = comdat any

$_ZN5Eigen19verifyIsCwiseApproxINS_5BlockINS_6MatrixIfLi16ELi16ELi0ELi16ELi16EEELin1ELin1ELb0EEES4_EEbRKT_RKT0_b = comdat any

$_ZN5Eigen9DenseBaseINS_6MatrixIfLi16ELi16ELi0ELi16ELi16EEEE7setZeroEv = comdat any

$_ZNK5Eigen9DenseBaseINS_5BlockIKNS_12CwiseUnaryOpINS_8internal14scalar_abs2_opIfEEKNS_6MatrixIfLi16ELi16ELi0ELi16ELi16EEEEELin1ELin1ELb0EEEE9unaryExprINS3_15scalar_dummy_opIfLb1EEEEEKNS2_IT_KSB_EERKSG_ = comdat any

$_ZN5Eigen5BlockINS_6MatrixIfLi16ELi16ELi0ELi16ELi16EEELin1ELin1ELb0EEaSINS_12CwiseUnaryOpINS_8internal15scalar_dummy_opIfLb1EEEKNS0_IKNS5_INS6_14scalar_abs2_opIfEEKS2_EELin1ELin1ELb0EEEEEEERS3_RKNS_9DenseBaseIT_EE = comdat any

$_ZN5Eigen13DeviceWrapperINS_5BlockINS_6MatrixIfLi16ELi16ELi0ELi16ELi16EEELin1ELin1ELb0EEENS_20CoreThreadPoolDeviceEEaSINS_12CwiseUnaryOpINS_8internal15scalar_dummy_opIfLb1EEEKNS1_IKNS8_INS9_14scalar_abs2_opIfEEKS3_EELin1ELin1ELb0EEEEEEERS4_RKNS_9EigenBaseIT_EE = comdat any

$_ZN5Eigen15PlainObjectBaseINS_6MatrixIfLi16ELi16ELi0ELi16ELi16EEEE6_init2IllEEvllPNSt9enable_ifILb1ET_E4typeE = comdat any

$_ZN5Eigen15PlainObjectBaseINS_6MatrixIfLi16ELi16ELi0ELi16ELi16EEEE6resizeEll = comdat any

$_ZN5Eigen8internal17DenseStorage_implIfLi256ELi16ELi16ELi0EE6resizeElll = comdat any

$_ZN5Eigen9DenseBaseINS_6MatrixIfLi16ELi16ELi0ELi16ELi16EEEE6RandomEll = comdat any

$_ZNK5Eigen9EigenBaseINS_6MatrixIfLi16ELi16ELi0ELi16ELi16EEEE4rowsEv = comdat any

$_ZNK5Eigen9EigenBaseINS_6MatrixIfLi16ELi16ELi0ELi16ELi16EEEE4colsEv = comdat any

$_ZN5Eigen9DenseBaseINS_6MatrixIfLi16ELi16ELi0ELi16ELi16EEEEaSINS_14CwiseNullaryOpINS_8internal16scalar_random_opIfEES2_EEEERS2_RKNS0_IT_EE = comdat any

$_ZN5Eigen9DenseBaseINS_6MatrixIfLi16ELi16ELi0ELi16ELi16EEEE11NullaryExprINS_8internal16scalar_random_opIfEEEEKNS_14CwiseNullaryOpIT_S2_EEllRKS9_ = comdat any

$_ZN5Eigen14CwiseNullaryOpINS_8internal16scalar_random_opIfEENS_6MatrixIfLi16ELi16ELi0ELi16ELi16EEEEC2EllRKS3_ = comdat any

$_ZN5Eigen10MatrixBaseINS_14CwiseNullaryOpINS_8internal16scalar_random_opIfEENS_6MatrixIfLi16ELi16ELi0ELi16ELi16EEEEEEC2Ev = comdat any

$_ZN5Eigen8internal19variable_if_dynamicIlLi16EEC2El = comdat any

$_ZN5Eigen9DenseBaseINS_14CwiseNullaryOpINS_8internal16scalar_random_opIfEENS_6MatrixIfLi16ELi16ELi0ELi16ELi16EEEEEEC2Ev = comdat any

$_ZNK5Eigen9EigenBaseINS_6MatrixIfLi16ELi16ELi0ELi16ELi16EEEE7derivedEv = comdat any

$_ZNK5Eigen15PlainObjectBaseINS_6MatrixIfLi16ELi16ELi0ELi16ELi16EEEE4rowsEv = comdat any

$_ZNK5Eigen8internal17DenseStorage_implIfLi256ELi16ELi16ELi0EE4rowsEv = comdat any

$_ZNK5Eigen15PlainObjectBaseINS_6MatrixIfLi16ELi16ELi0ELi16ELi16EEEE4colsEv = comdat any

$_ZNK5Eigen8internal17DenseStorage_implIfLi256ELi16ELi16ELi0EE4colsEv = comdat any

$_ZN5Eigen8internal15call_assignmentINS_6MatrixIfLi16ELi16ELi0ELi16ELi16EEENS_14CwiseNullaryOpINS0_16scalar_random_opIfEES3_EEEEvRT_RKT0_ = comdat any

$_ZN5Eigen9EigenBaseINS_6MatrixIfLi16ELi16ELi0ELi16ELi16EEEE7derivedEv = comdat any

$_ZNK5Eigen9EigenBaseINS_14CwiseNullaryOpINS_8internal16scalar_random_opIfEENS_6MatrixIfLi16ELi16ELi0ELi16ELi16EEEEEE7derivedEv = comdat any

$_ZN5Eigen8internal15call_assignmentINS_6MatrixIfLi16ELi16ELi0ELi16ELi16EEENS_14CwiseNullaryOpINS0_16scalar_random_opIfEES3_EENS0_9assign_opIffEEEEvRT_RKT0_RKT1_NSt9enable_ifIXntsr25evaluator_assume_aliasingISC_EE5valueEPvE4typeE = comdat any

$_ZN5Eigen8internal24call_assignment_no_aliasINS_6MatrixIfLi16ELi16ELi0ELi16ELi16EEENS_14CwiseNullaryOpINS0_16scalar_random_opIfEES3_EENS0_9assign_opIffEEEEvRT_RKT0_RKT1_ = comdat any

$_ZN5Eigen8internal10AssignmentINS_6MatrixIfLi16ELi16ELi0ELi16ELi16EEENS_14CwiseNullaryOpINS0_16scalar_random_opIfEES3_EENS0_9assign_opIffEENS0_11Dense2DenseEvE3runERS3_RKS7_RKS9_ = comdat any

$_ZN5Eigen8internal18check_for_aliasingINS_6MatrixIfLi16ELi16ELi0ELi16ELi16EEENS_14CwiseNullaryOpINS0_16scalar_random_opIfEES3_EEEEvRKT_RKT0_ = comdat any

$_ZN5Eigen8internal26call_dense_assignment_loopINS_6MatrixIfLi16ELi16ELi0ELi16ELi16EEENS_14CwiseNullaryOpINS0_16scalar_random_opIfEES3_EENS0_9assign_opIffEEEEvRT_RKT0_RKT1_ = comdat any

$_ZN5Eigen8internal27checkTransposeAliasing_implINS_6MatrixIfLi16ELi16ELi0ELi16ELi16EEENS_14CwiseNullaryOpINS0_16scalar_random_opIfEES3_EELb0EE3runERKS3_RKS7_ = comdat any

$_ZN5Eigen8internal9evaluatorINS_14CwiseNullaryOpINS0_16scalar_random_opIfEENS_6MatrixIfLi16ELi16ELi0ELi16ELi16EEEEEEC2ERKS7_ = comdat any

$_ZN5Eigen8internal17resize_if_allowedINS_6MatrixIfLi16ELi16ELi0ELi16ELi16EEENS_14CwiseNullaryOpINS0_16scalar_random_opIfEES3_EEffEEvRT_RKT0_RKNS0_9assign_opIT1_T2_EE = comdat any

$_ZN5Eigen8internal9evaluatorINS_6MatrixIfLi16ELi16ELi0ELi16ELi16EEEEC2ERKS3_ = comdat any

$_ZNK5Eigen9EigenBaseINS_6MatrixIfLi16ELi16ELi0ELi16ELi16EEEE18const_cast_derivedEv = comdat any

$_ZN5Eigen8internal31generic_dense_assignment_kernelINS0_9evaluatorINS_6MatrixIfLi16ELi16ELi0ELi16ELi16EEEEENS2_INS_14CwiseNullaryOpINS0_16scalar_random_opIfEES4_EEEENS0_9assign_opIffEELi0EEC2ERS5_RKSA_RKSC_RS4_ = comdat any

$_ZN5Eigen8internal21dense_assignment_loopINS0_31generic_dense_assignment_kernelINS0_9evaluatorINS_6MatrixIfLi16ELi16ELi0ELi16ELi16EEEEENS3_INS_14CwiseNullaryOpINS0_16scalar_random_opIfEES5_EEEENS0_9assign_opIffEELi0EEELi1ELi0EE3runERSE_ = comdat any

$_ZNK5Eigen14CwiseNullaryOpINS_8internal16scalar_random_opIfEENS_6MatrixIfLi16ELi16ELi0ELi16ELi16EEEE7functorEv = comdat any

$_ZNK5Eigen14CwiseNullaryOpINS_8internal16scalar_random_opIfEENS_6MatrixIfLi16ELi16ELi0ELi16ELi16EEEE4rowsEv = comdat any

$_ZNK5Eigen14CwiseNullaryOpINS_8internal16scalar_random_opIfEENS_6MatrixIfLi16ELi16ELi0ELi16ELi16EEEE4colsEv = comdat any

$_ZN5Eigen8internal19variable_if_dynamicIlLi16EE5valueEv = comdat any

$_ZN5Eigen8internal9evaluatorINS_15PlainObjectBaseINS_6MatrixIfLi16ELi16ELi0ELi16ELi16EEEEEEC2ERKS5_ = comdat any

$_ZNK5Eigen15PlainObjectBaseINS_6MatrixIfLi16ELi16ELi0ELi16ELi16EEEE4dataEv = comdat any

$_ZNK5Eigen15DenseCoeffsBaseINS_6MatrixIfLi16ELi16ELi0ELi16ELi16EEELi3EE11outerStrideEv = comdat any

$_ZN5Eigen8internal30plainobjectbase_evaluator_dataIfLi16EEC2EPKfl = comdat any

$_ZNK5Eigen8internal17DenseStorage_implIfLi256ELi16ELi16ELi0EE4dataEv = comdat any

$_ZNK5Eigen6MatrixIfLi16ELi16ELi0ELi16ELi16EE11outerStrideEv = comdat any

$_ZNK5Eigen9DenseBaseINS_6MatrixIfLi16ELi16ELi0ELi16ELi16EEEE9innerSizeEv = comdat any

$_ZNK5Eigen8internal31generic_dense_assignment_kernelINS0_9evaluatorINS_6MatrixIfLi16ELi16ELi0ELi16ELi16EEEEENS2_INS_14CwiseNullaryOpINS0_16scalar_random_opIfEES4_EEEENS0_9assign_opIffEELi0EE4sizeEv = comdat any

$_ZN5Eigen8internal31generic_dense_assignment_kernelINS0_9evaluatorINS_6MatrixIfLi16ELi16ELi0ELi16ELi16EEEEENS2_INS_14CwiseNullaryOpINS0_16scalar_random_opIfEES4_EEEENS0_9assign_opIffEELi0EE11assignCoeffEl = comdat any

$_ZNK5Eigen9EigenBaseINS_6MatrixIfLi16ELi16ELi0ELi16ELi16EEEE4sizeEv = comdat any

$_ZNK5Eigen8internal9assign_opIffE11assignCoeffERfRKf = comdat any

$_ZN5Eigen8internal9evaluatorINS_15PlainObjectBaseINS_6MatrixIfLi16ELi16ELi0ELi16ELi16EEEEEE8coeffRefEl = comdat any

$_ZNK5Eigen8internal9evaluatorINS_14CwiseNullaryOpINS0_16scalar_random_opIfEENS_6MatrixIfLi16ELi16ELi0ELi16ELi16EEEEEE5coeffIlEEfT_ = comdat any

$_ZNK5Eigen8internal15nullary_wrapperIfNS0_16scalar_random_opIfEELb1ELb0ELb0EEclIlEEfRKS3_T_S8_ = comdat any

$_ZNK5Eigen8internal16scalar_random_opIfEclEv = comdat any

$_ZN5Eigen8internal6randomIfEENS0_13random_retvalINS0_36global_math_functions_filtering_baseIT_vE4typeEE4typeEv = comdat any

$_ZN5Eigen8internal19random_default_implIfLb0ELb0EE3runEv = comdat any

$_ZN5Eigen8internal19random_default_implIfLb0ELb0EE3runEi = comdat any

$_ZN5Eigen8internal17random_float_implIfLb1EE12mantissaBitsEv = comdat any

$_ZN5Eigen8internal17random_float_implIfLb1EE3runEi = comdat any

$_ZN5Eigen8internal13getRandomBitsIjEET_i = comdat any

$_ZN5Eigen6numext8bit_castIjfEET_RKT0_ = comdat any

$_ZN5Eigen6numext8bit_castIfjEET_RKT0_ = comdat any

$_ZN5Eigen8internal16random_bits_implIjE3runEi = comdat any

$_ZN5Eigen12CwiseUnaryOpINS_8internal14scalar_abs2_opIfEEKNS_6MatrixIfLi16ELi16ELi0ELi16ELi16EEEEC2ERS6_RKS3_ = comdat any

$_ZN5Eigen16CwiseUnaryOpImplINS_8internal14scalar_abs2_opIfEEKNS_6MatrixIfLi16ELi16ELi0ELi16ELi16EEENS_5DenseEEC2Ev = comdat any

$_ZN5Eigen10MatrixBaseINS_12CwiseUnaryOpINS_8internal14scalar_abs2_opIfEEKNS_6MatrixIfLi16ELi16ELi0ELi16ELi16EEEEEEC2Ev = comdat any

$_ZN5Eigen9DenseBaseINS_12CwiseUnaryOpINS_8internal14scalar_abs2_opIfEEKNS_6MatrixIfLi16ELi16ELi0ELi16ELi16EEEEEEC2Ev = comdat any

$_ZNK5Eigen9EigenBaseINS_12CwiseUnaryOpINS_8internal14scalar_abs2_opIfEEKNS_6MatrixIfLi16ELi16ELi0ELi16ELi16EEEEEE7derivedEv = comdat any

$_ZN5Eigen12CwiseUnaryOpINS_8internal15scalar_dummy_opIfLb0EEEKNS0_INS1_14scalar_abs2_opIfEEKNS_6MatrixIfLi16ELi16ELi0ELi16ELi16EEEEEEC2ERSA_RKS3_ = comdat any

$_ZN5Eigen16CwiseUnaryOpImplINS_8internal15scalar_dummy_opIfLb0EEEKNS_12CwiseUnaryOpINS1_14scalar_abs2_opIfEEKNS_6MatrixIfLi16ELi16ELi0ELi16ELi16EEEEENS_5DenseEEC2Ev = comdat any

$_ZN5Eigen10MatrixBaseINS_12CwiseUnaryOpINS_8internal15scalar_dummy_opIfLb0EEEKNS1_INS2_14scalar_abs2_opIfEEKNS_6MatrixIfLi16ELi16ELi0ELi16ELi16EEEEEEEEC2Ev = comdat any

$_ZN5Eigen9DenseBaseINS_12CwiseUnaryOpINS_8internal15scalar_dummy_opIfLb0EEEKNS1_INS2_14scalar_abs2_opIfEEKNS_6MatrixIfLi16ELi16ELi0ELi16ELi16EEEEEEEEC2Ev = comdat any

$_ZN5Eigen15PlainObjectBaseINS_6MatrixIfLi16ELi16ELi0ELi16ELi16EEEE4_setINS_12CwiseUnaryOpINS_8internal15scalar_dummy_opIfLb0EEEKNS5_INS6_14scalar_abs2_opIfEEKS2_EEEEEERS2_RKNS_9DenseBaseIT_EE = comdat any

$_ZN5Eigen8internal15call_assignmentINS_6MatrixIfLi16ELi16ELi0ELi16ELi16EEENS_12CwiseUnaryOpINS0_15scalar_dummy_opIfLb0EEEKNS4_INS0_14scalar_abs2_opIfEEKS3_EEEEEEvRT_RKT0_ = comdat any

$_ZNK5Eigen9EigenBaseINS_12CwiseUnaryOpINS_8internal15scalar_dummy_opIfLb0EEEKNS1_INS2_14scalar_abs2_opIfEEKNS_6MatrixIfLi16ELi16ELi0ELi16ELi16EEEEEEEE7derivedEv = comdat any

$_ZN5Eigen8internal15call_assignmentINS_6MatrixIfLi16ELi16ELi0ELi16ELi16EEENS_12CwiseUnaryOpINS0_15scalar_dummy_opIfLb0EEEKNS4_INS0_14scalar_abs2_opIfEEKS3_EEEENS0_9assign_opIffEEEEvRT_RKT0_RKT1_NSt9enable_ifIXntsr25evaluator_assume_aliasingISH_EE5valueEPvE4typeE = comdat any

$_ZN5Eigen8internal24call_assignment_no_aliasINS_6MatrixIfLi16ELi16ELi0ELi16ELi16EEENS_12CwiseUnaryOpINS0_15scalar_dummy_opIfLb0EEEKNS4_INS0_14scalar_abs2_opIfEEKS3_EEEENS0_9assign_opIffEEEEvRT_RKT0_RKT1_ = comdat any

$_ZN5Eigen8internal10AssignmentINS_6MatrixIfLi16ELi16ELi0ELi16ELi16EEENS_12CwiseUnaryOpINS0_15scalar_dummy_opIfLb0EEEKNS4_INS0_14scalar_abs2_opIfEEKS3_EEEENS0_9assign_opIffEENS0_11Dense2DenseEvE3runERS3_RKSC_RKSE_ = comdat any

$_ZN5Eigen8internal18check_for_aliasingINS_6MatrixIfLi16ELi16ELi0ELi16ELi16EEENS_12CwiseUnaryOpINS0_15scalar_dummy_opIfLb0EEEKNS4_INS0_14scalar_abs2_opIfEEKS3_EEEEEEvRKT_RKT0_ = comdat any

$_ZN5Eigen8internal26call_dense_assignment_loopINS_6MatrixIfLi16ELi16ELi0ELi16ELi16EEENS_12CwiseUnaryOpINS0_15scalar_dummy_opIfLb0EEEKNS4_INS0_14scalar_abs2_opIfEEKS3_EEEENS0_9assign_opIffEEEEvRT_RKT0_RKT1_ = comdat any

$_ZN5Eigen8internal27checkTransposeAliasing_implINS_6MatrixIfLi16ELi16ELi0ELi16ELi16EEENS_12CwiseUnaryOpINS0_15scalar_dummy_opIfLb0EEEKNS4_INS0_14scalar_abs2_opIfEEKS3_EEEELb0EE3runERS9_RKSC_ = comdat any

$_ZN5Eigen8internal9evaluatorINS_12CwiseUnaryOpINS0_15scalar_dummy_opIfLb0EEEKNS2_INS0_14scalar_abs2_opIfEEKNS_6MatrixIfLi16ELi16ELi0ELi16ELi16EEEEEEEEC2ERKSC_ = comdat any

$_ZN5Eigen8internal17resize_if_allowedINS_6MatrixIfLi16ELi16ELi0ELi16ELi16EEENS_12CwiseUnaryOpINS0_15scalar_dummy_opIfLb0EEEKNS4_INS0_14scalar_abs2_opIfEEKS3_EEEEffEEvRT_RKT0_RKNS0_9assign_opIT1_T2_EE = comdat any

$_ZN5Eigen8internal31generic_dense_assignment_kernelINS0_9evaluatorINS_6MatrixIfLi16ELi16ELi0ELi16ELi16EEEEENS2_INS_12CwiseUnaryOpINS0_15scalar_dummy_opIfLb0EEEKNS6_INS0_14scalar_abs2_opIfEEKS4_EEEEEENS0_9assign_opIffEELi0EEC2ERS5_RKSF_RKSH_RS4_ = comdat any

$_ZN5Eigen8internal21dense_assignment_loopINS0_31generic_dense_assignment_kernelINS0_9evaluatorINS_6MatrixIfLi16ELi16ELi0ELi16ELi16EEEEENS3_INS_12CwiseUnaryOpINS0_15scalar_dummy_opIfLb0EEEKNS7_INS0_14scalar_abs2_opIfEEKS5_EEEEEENS0_9assign_opIffEELi0EEELi1ELi0EE3runERSJ_ = comdat any

$_ZN5Eigen8internal15unary_evaluatorINS_12CwiseUnaryOpINS0_15scalar_dummy_opIfLb0EEEKNS2_INS0_14scalar_abs2_opIfEEKNS_6MatrixIfLi16ELi16ELi0ELi16ELi16EEEEEEENS0_10IndexBasedEfEC2ERKSC_ = comdat any

$_ZN5Eigen8internal15unary_evaluatorINS_12CwiseUnaryOpINS0_15scalar_dummy_opIfLb0EEEKNS2_INS0_14scalar_abs2_opIfEEKNS_6MatrixIfLi16ELi16ELi0ELi16ELi16EEEEEEENS0_10IndexBasedEfE4DataC2ERKSC_ = comdat any

$_ZNK5Eigen12CwiseUnaryOpINS_8internal15scalar_dummy_opIfLb0EEEKNS0_INS1_14scalar_abs2_opIfEEKNS_6MatrixIfLi16ELi16ELi0ELi16ELi16EEEEEE7functorEv = comdat any

$_ZNK5Eigen12CwiseUnaryOpINS_8internal15scalar_dummy_opIfLb0EEEKNS0_INS1_14scalar_abs2_opIfEEKNS_6MatrixIfLi16ELi16ELi0ELi16ELi16EEEEEE16nestedExpressionEv = comdat any

$_ZN5Eigen8internal9evaluatorIKNS_12CwiseUnaryOpINS0_14scalar_abs2_opIfEEKNS_6MatrixIfLi16ELi16ELi0ELi16ELi16EEEEEEC2ERS9_ = comdat any

$_ZN5Eigen8internal9evaluatorINS_12CwiseUnaryOpINS0_14scalar_abs2_opIfEEKNS_6MatrixIfLi16ELi16ELi0ELi16ELi16EEEEEEC2ERKS8_ = comdat any

$_ZN5Eigen8internal15unary_evaluatorINS_12CwiseUnaryOpINS0_14scalar_abs2_opIfEEKNS_6MatrixIfLi16ELi16ELi0ELi16ELi16EEEEENS0_10IndexBasedEfEC2ERKS8_ = comdat any

$_ZN5Eigen8internal15unary_evaluatorINS_12CwiseUnaryOpINS0_14scalar_abs2_opIfEEKNS_6MatrixIfLi16ELi16ELi0ELi16ELi16EEEEENS0_10IndexBasedEfE4DataC2ERKS8_ = comdat any

$_ZNK5Eigen12CwiseUnaryOpINS_8internal14scalar_abs2_opIfEEKNS_6MatrixIfLi16ELi16ELi0ELi16ELi16EEEE7functorEv = comdat any

$_ZNK5Eigen12CwiseUnaryOpINS_8internal14scalar_abs2_opIfEEKNS_6MatrixIfLi16ELi16ELi0ELi16ELi16EEEE16nestedExpressionEv = comdat any

$_ZN5Eigen8internal9evaluatorIKNS_6MatrixIfLi16ELi16ELi0ELi16ELi16EEEEC2ERS4_ = comdat any

$_ZNK5Eigen12CwiseUnaryOpINS_8internal15scalar_dummy_opIfLb0EEEKNS0_INS1_14scalar_abs2_opIfEEKNS_6MatrixIfLi16ELi16ELi0ELi16ELi16EEEEEE4rowsEv = comdat any

$_ZNK5Eigen12CwiseUnaryOpINS_8internal15scalar_dummy_opIfLb0EEEKNS0_INS1_14scalar_abs2_opIfEEKNS_6MatrixIfLi16ELi16ELi0ELi16ELi16EEEEEE4colsEv = comdat any

$_ZNK5Eigen12CwiseUnaryOpINS_8internal14scalar_abs2_opIfEEKNS_6MatrixIfLi16ELi16ELi0ELi16ELi16EEEE4rowsEv = comdat any

$_ZNK5Eigen12CwiseUnaryOpINS_8internal14scalar_abs2_opIfEEKNS_6MatrixIfLi16ELi16ELi0ELi16ELi16EEEE4colsEv = comdat any

$_ZNK5Eigen8internal31generic_dense_assignment_kernelINS0_9evaluatorINS_6MatrixIfLi16ELi16ELi0ELi16ELi16EEEEENS2_INS_12CwiseUnaryOpINS0_15scalar_dummy_opIfLb0EEEKNS6_INS0_14scalar_abs2_opIfEEKS4_EEEEEENS0_9assign_opIffEELi0EE4sizeEv = comdat any

$_ZN5Eigen8internal31generic_dense_assignment_kernelINS0_9evaluatorINS_6MatrixIfLi16ELi16ELi0ELi16ELi16EEEEENS2_INS_12CwiseUnaryOpINS0_15scalar_dummy_opIfLb0EEEKNS6_INS0_14scalar_abs2_opIfEEKS4_EEEEEENS0_9assign_opIffEELi0EE11assignCoeffEl = comdat any

$_ZNK5Eigen8internal15unary_evaluatorINS_12CwiseUnaryOpINS0_15scalar_dummy_opIfLb0EEEKNS2_INS0_14scalar_abs2_opIfEEKNS_6MatrixIfLi16ELi16ELi0ELi16ELi16EEEEEEENS0_10IndexBasedEfE5coeffEl = comdat any

$_ZNK5Eigen8internal15unary_evaluatorINS_12CwiseUnaryOpINS0_15scalar_dummy_opIfLb0EEEKNS2_INS0_14scalar_abs2_opIfEEKNS_6MatrixIfLi16ELi16ELi0ELi16ELi16EEEEEEENS0_10IndexBasedEfE4Data4funcEv = comdat any

$_ZNK5Eigen8internal15scalar_dummy_opIfLb0EEclERKf = comdat any

$_ZNK5Eigen8internal15unary_evaluatorINS_12CwiseUnaryOpINS0_14scalar_abs2_opIfEEKNS_6MatrixIfLi16ELi16ELi0ELi16ELi16EEEEENS0_10IndexBasedEfE5coeffEl = comdat any

$_ZNK5Eigen8internal15unary_evaluatorINS_12CwiseUnaryOpINS0_14scalar_abs2_opIfEEKNS_6MatrixIfLi16ELi16ELi0ELi16ELi16EEEEENS0_10IndexBasedEfE4Data4funcEv = comdat any

$_ZNK5Eigen8internal14scalar_abs2_opIfEclERKf = comdat any

$_ZNK5Eigen8internal9evaluatorINS_15PlainObjectBaseINS_6MatrixIfLi16ELi16ELi0ELi16ELi16EEEEEE5coeffEl = comdat any

$_ZN5Eigen6numext4abs2IfEENS_8internal11abs2_retvalINS2_36global_math_functions_filtering_baseIT_vE4typeEE4typeERKS5_ = comdat any

$_ZN5Eigen8internal9abs2_implIfE3runERKf = comdat any

$_ZN5Eigen8internal17abs2_impl_defaultIfLb0EE3runERKf = comdat any

$_ZN5Eigen13DeviceWrapperINS_6MatrixIfLi16ELi16ELi0ELi16ELi16EEENS_20CoreThreadPoolDeviceEEC2ERNS_9EigenBaseIS2_EERS3_ = comdat any

$_ZN5Eigen8internal15call_assignmentINS_13DeviceWrapperINS_6MatrixIfLi16ELi16ELi0ELi16ELi16EEENS_20CoreThreadPoolDeviceEEENS_12CwiseUnaryOpINS0_15scalar_dummy_opIfLb0EEEKNS7_INS0_14scalar_abs2_opIfEEKS4_EEEENS0_9assign_opIffEEEEvRT_RKT0_RKT1_NSt9enable_ifIXntsr25evaluator_assume_aliasingISK_EE5valueEPvE4typeE = comdat any

$_ZN5Eigen8internal24call_assignment_no_aliasINS_6MatrixIfLi16ELi16ELi0ELi16ELi16EEENS_12CwiseUnaryOpINS0_15scalar_dummy_opIfLb0EEEKNS4_INS0_14scalar_abs2_opIfEEKS3_EEEENS0_9assign_opIffEENS_20CoreThreadPoolDeviceEEEvNS_13DeviceWrapperIT_T2_EERKT0_RKT1_ = comdat any

$_ZN5Eigen13DeviceWrapperINS_6MatrixIfLi16ELi16ELi0ELi16ELi16EEENS_20CoreThreadPoolDeviceEE7derivedEv = comdat any

$_ZN5Eigen8internal20AssignmentWithDeviceINS_6MatrixIfLi16ELi16ELi0ELi16ELi16EEENS_12CwiseUnaryOpINS0_15scalar_dummy_opIfLb0EEEKNS4_INS0_14scalar_abs2_opIfEEKS3_EEEENS0_9assign_opIffEENS_20CoreThreadPoolDeviceENS0_11Dense2DenseEvE3runERS3_RKSC_RKSE_RSF_ = comdat any

$_ZN5Eigen13DeviceWrapperINS_6MatrixIfLi16ELi16ELi0ELi16ELi16EEENS_20CoreThreadPoolDeviceEE6deviceEv = comdat any

$_ZN5Eigen8internal26call_dense_assignment_loopINS_6MatrixIfLi16ELi16ELi0ELi16ELi16EEENS_12CwiseUnaryOpINS0_15scalar_dummy_opIfLb0EEEKNS4_INS0_14scalar_abs2_opIfEEKS3_EEEENS0_9assign_opIffEENS_20CoreThreadPoolDeviceEEEvRT_RKT0_RKT1_RT2_ = comdat any

$_ZN5Eigen8internal33dense_assignment_loop_with_deviceINS0_31generic_dense_assignment_kernelINS0_9evaluatorINS_6MatrixIfLi16ELi16ELi0ELi16ELi16EEEEENS3_INS_12CwiseUnaryOpINS0_15scalar_dummy_opIfLb0EEEKNS7_INS0_14scalar_abs2_opIfEEKS5_EEEEEENS0_9assign_opIffEELi0EEENS_20CoreThreadPoolDeviceELi1ELi0EE3runERSJ_RSK_ = comdat any

$_ZN5Eigen8internal33dense_assignment_loop_with_deviceINS0_31generic_dense_assignment_kernelINS0_9evaluatorINS_6MatrixIfLi16ELi16ELi0ELi16ELi16EEEEENS3_INS_12CwiseUnaryOpINS0_15scalar_dummy_opIfLb0EEEKNS7_INS0_14scalar_abs2_opIfEEKS5_EEEEEENS0_9assign_opIffEELi0EEENS_20CoreThreadPoolDeviceELi1ELi0EE17AssignmentFunctorC2ERSJ_ = comdat any

$_ZN5Eigen20CoreThreadPoolDevice11parallelForINS_8internal33dense_assignment_loop_with_deviceINS2_31generic_dense_assignment_kernelINS2_9evaluatorINS_6MatrixIfLi16ELi16ELi0ELi16ELi16EEEEENS5_INS_12CwiseUnaryOpINS2_15scalar_dummy_opIfLb0EEEKNS9_INS2_14scalar_abs2_opIfEEKS7_EEEEEENS2_9assign_opIffEELi0EEES0_Li1ELi0EE17AssignmentFunctorELi1EEEvllRT_f = comdat any

$_ZN5Eigen20CoreThreadPoolDevice15parallelForImplINS_8internal33dense_assignment_loop_with_deviceINS2_31generic_dense_assignment_kernelINS2_9evaluatorINS_6MatrixIfLi16ELi16ELi0ELi16ELi16EEEEENS5_INS_12CwiseUnaryOpINS2_15scalar_dummy_opIfLb0EEEKNS9_INS2_14scalar_abs2_opIfEEKS7_EEEEEENS2_9assign_opIffEELi0EEES0_Li1ELi0EE17AssignmentFunctorELi1EEEvllRT_RNS_7BarrierEi = comdat any

$_ZNSt8functionIFvvEEC2IZN5Eigen20CoreThreadPoolDevice15parallelForImplINS3_8internal33dense_assignment_loop_with_deviceINS6_31generic_dense_assignment_kernelINS6_9evaluatorINS3_6MatrixIfLi16ELi16ELi0ELi16ELi16EEEEENS9_INS3_12CwiseUnaryOpINS6_15scalar_dummy_opIfLb0EEEKNSD_INS6_14scalar_abs2_opIfEEKSB_EEEEEENS6_9assign_opIffEELi0EEES4_Li1ELi0EE17AssignmentFunctorELi1EEEvllRT_RNS3_7BarrierEiEUlvE_vEEOSS_ = comdat any

$_ZN5Eigen8internal33dense_assignment_loop_with_deviceINS0_31generic_dense_assignment_kernelINS0_9evaluatorINS_6MatrixIfLi16ELi16ELi0ELi16ELi16EEEEENS3_INS_12CwiseUnaryOpINS0_15scalar_dummy_opIfLb0EEEKNS7_INS0_14scalar_abs2_opIfEEKS5_EEEEEENS0_9assign_opIffEELi0EEENS_20CoreThreadPoolDeviceELi1ELi0EE17AssignmentFunctorclEl = comdat any

$_ZNSt14_Function_base13_Base_managerIZN5Eigen20CoreThreadPoolDevice15parallelForImplINS1_8internal33dense_assignment_loop_with_deviceINS4_31generic_dense_assignment_kernelINS4_9evaluatorINS1_6MatrixIfLi16ELi16ELi0ELi16ELi16EEEEENS7_INS1_12CwiseUnaryOpINS4_15scalar_dummy_opIfLb0EEEKNSB_INS4_14scalar_abs2_opIfEEKS9_EEEEEENS4_9assign_opIffEELi0EEES2_Li1ELi0EE17AssignmentFunctorELi1EEEvllRT_RNS1_7BarrierEiEUlvE_E21_M_not_empty_functionISU_EEbRKSQ_ = comdat any

$_ZNSt14_Function_base13_Base_managerIZN5Eigen20CoreThreadPoolDevice15parallelForImplINS1_8internal33dense_assignment_loop_with_deviceINS4_31generic_dense_assignment_kernelINS4_9evaluatorINS1_6MatrixIfLi16ELi16ELi0ELi16ELi16EEEEENS7_INS1_12CwiseUnaryOpINS4_15scalar_dummy_opIfLb0EEEKNSB_INS4_14scalar_abs2_opIfEEKS9_EEEEEENS4_9assign_opIffEELi0EEES2_Li1ELi0EE17AssignmentFunctorELi1EEEvllRT_RNS1_7BarrierEiEUlvE_E15_M_init_functorISU_EEvRSt9_Any_dataOSQ_ = comdat any

$_ZNSt17_Function_handlerIFvvEZN5Eigen20CoreThreadPoolDevice15parallelForImplINS1_8internal33dense_assignment_loop_with_deviceINS4_31generic_dense_assignment_kernelINS4_9evaluatorINS1_6MatrixIfLi16ELi16ELi0ELi16ELi16EEEEENS7_INS1_12CwiseUnaryOpINS4_15scalar_dummy_opIfLb0EEEKNSB_INS4_14scalar_abs2_opIfEEKS9_EEEEEENS4_9assign_opIffEELi0EEES2_Li1ELi0EE17AssignmentFunctorELi1EEEvllRT_RNS1_7BarrierEiEUlvE_E9_M_invokeERKSt9_Any_data = comdat any

$_ZNSt17_Function_handlerIFvvEZN5Eigen20CoreThreadPoolDevice15parallelForImplINS1_8internal33dense_assignment_loop_with_deviceINS4_31generic_dense_assignment_kernelINS4_9evaluatorINS1_6MatrixIfLi16ELi16ELi0ELi16ELi16EEEEENS7_INS1_12CwiseUnaryOpINS4_15scalar_dummy_opIfLb0EEEKNSB_INS4_14scalar_abs2_opIfEEKS9_EEEEEENS4_9assign_opIffEELi0EEES2_Li1ELi0EE17AssignmentFunctorELi1EEEvllRT_RNS1_7BarrierEiEUlvE_E10_M_managerERSt9_Any_dataRKSW_St18_Manager_operation = comdat any

$_ZNSt14_Function_base13_Base_managerIZN5Eigen20CoreThreadPoolDevice15parallelForImplINS1_8internal33dense_assignment_loop_with_deviceINS4_31generic_dense_assignment_kernelINS4_9evaluatorINS1_6MatrixIfLi16ELi16ELi0ELi16ELi16EEEEENS7_INS1_12CwiseUnaryOpINS4_15scalar_dummy_opIfLb0EEEKNSB_INS4_14scalar_abs2_opIfEEKS9_EEEEEENS4_9assign_opIffEELi0EEES2_Li1ELi0EE17AssignmentFunctorELi1EEEvllRT_RNS1_7BarrierEiEUlvE_E9_M_createISU_EEvRSt9_Any_dataOSQ_St17integral_constantIbLb0EE = comdat any

$_ZNSt9_Any_data9_M_accessIPZN5Eigen20CoreThreadPoolDevice15parallelForImplINS1_8internal33dense_assignment_loop_with_deviceINS4_31generic_dense_assignment_kernelINS4_9evaluatorINS1_6MatrixIfLi16ELi16ELi0ELi16ELi16EEEEENS7_INS1_12CwiseUnaryOpINS4_15scalar_dummy_opIfLb0EEEKNSB_INS4_14scalar_abs2_opIfEEKS9_EEEEEENS4_9assign_opIffEELi0EEES2_Li1ELi0EE17AssignmentFunctorELi1EEEvllRT_RNS1_7BarrierEiEUlvE_EESR_v = comdat any

$_ZSt10__invoke_rIvRZN5Eigen20CoreThreadPoolDevice15parallelForImplINS0_8internal33dense_assignment_loop_with_deviceINS3_31generic_dense_assignment_kernelINS3_9evaluatorINS0_6MatrixIfLi16ELi16ELi0ELi16ELi16EEEEENS6_INS0_12CwiseUnaryOpINS3_15scalar_dummy_opIfLb0EEEKNSA_INS3_14scalar_abs2_opIfEEKS8_EEEEEENS3_9assign_opIffEELi0EEES1_Li1ELi0EE17AssignmentFunctorELi1EEEvllRT_RNS0_7BarrierEiEUlvE_JEENSt9enable_ifIXsr6__and_ISt7is_voidISP_ESt14__is_invocableIT0_JDpT1_EEEE5valueESP_E4typeEOSZ_DpOS10_ = comdat any

$_ZNSt14_Function_base13_Base_managerIZN5Eigen20CoreThreadPoolDevice15parallelForImplINS1_8internal33dense_assignment_loop_with_deviceINS4_31generic_dense_assignment_kernelINS4_9evaluatorINS1_6MatrixIfLi16ELi16ELi0ELi16ELi16EEEEENS7_INS1_12CwiseUnaryOpINS4_15scalar_dummy_opIfLb0EEEKNSB_INS4_14scalar_abs2_opIfEEKS9_EEEEEENS4_9assign_opIffEELi0EEES2_Li1ELi0EE17AssignmentFunctorELi1EEEvllRT_RNS1_7BarrierEiEUlvE_E14_M_get_pointerERKSt9_Any_data = comdat any

$_ZSt13__invoke_implIvRZN5Eigen20CoreThreadPoolDevice15parallelForImplINS0_8internal33dense_assignment_loop_with_deviceINS3_31generic_dense_assignment_kernelINS3_9evaluatorINS0_6MatrixIfLi16ELi16ELi0ELi16ELi16EEEEENS6_INS0_12CwiseUnaryOpINS3_15scalar_dummy_opIfLb0EEEKNSA_INS3_14scalar_abs2_opIfEEKS8_EEEEEENS3_9assign_opIffEELi0EEES1_Li1ELi0EE17AssignmentFunctorELi1EEEvllRT_RNS0_7BarrierEiEUlvE_JEESP_St14__invoke_otherOT0_DpOT1_ = comdat any

$_ZZN5Eigen20CoreThreadPoolDevice15parallelForImplINS_8internal33dense_assignment_loop_with_deviceINS2_31generic_dense_assignment_kernelINS2_9evaluatorINS_6MatrixIfLi16ELi16ELi0ELi16ELi16EEEEENS5_INS_12CwiseUnaryOpINS2_15scalar_dummy_opIfLb0EEEKNS9_INS2_14scalar_abs2_opIfEEKS7_EEEEEENS2_9assign_opIffEELi0EEES0_Li1ELi0EE17AssignmentFunctorELi1EEEvllRT_RNS_7BarrierEiENKUlvE_clEv = comdat any

$_ZNKSt9_Any_data9_M_accessIPZN5Eigen20CoreThreadPoolDevice15parallelForImplINS1_8internal33dense_assignment_loop_with_deviceINS4_31generic_dense_assignment_kernelINS4_9evaluatorINS1_6MatrixIfLi16ELi16ELi0ELi16ELi16EEEEENS7_INS1_12CwiseUnaryOpINS4_15scalar_dummy_opIfLb0EEEKNSB_INS4_14scalar_abs2_opIfEEKS9_EEEEEENS4_9assign_opIffEELi0EEES2_Li1ELi0EE17AssignmentFunctorELi1EEEvllRT_RNS1_7BarrierEiEUlvE_EERKSQ_v = comdat any

$_ZNSt14_Function_base13_Base_managerIZN5Eigen20CoreThreadPoolDevice15parallelForImplINS1_8internal33dense_assignment_loop_with_deviceINS4_31generic_dense_assignment_kernelINS4_9evaluatorINS1_6MatrixIfLi16ELi16ELi0ELi16ELi16EEEEENS7_INS1_12CwiseUnaryOpINS4_15scalar_dummy_opIfLb0EEEKNSB_INS4_14scalar_abs2_opIfEEKS9_EEEEEENS4_9assign_opIffEELi0EEES2_Li1ELi0EE17AssignmentFunctorELi1EEEvllRT_RNS1_7BarrierEiEUlvE_E10_M_managerERSt9_Any_dataRKSW_St18_Manager_operation = comdat any

$_ZNSt14_Function_base13_Base_managerIZN5Eigen20CoreThreadPoolDevice15parallelForImplINS1_8internal33dense_assignment_loop_with_deviceINS4_31generic_dense_assignment_kernelINS4_9evaluatorINS1_6MatrixIfLi16ELi16ELi0ELi16ELi16EEEEENS7_INS1_12CwiseUnaryOpINS4_15scalar_dummy_opIfLb0EEEKNSB_INS4_14scalar_abs2_opIfEEKS9_EEEEEENS4_9assign_opIffEELi0EEES2_Li1ELi0EE17AssignmentFunctorELi1EEEvllRT_RNS1_7BarrierEiEUlvE_E15_M_init_functorIRKSU_EEvRSt9_Any_dataOSQ_ = comdat any

$_ZNSt14_Function_base13_Base_managerIZN5Eigen20CoreThreadPoolDevice15parallelForImplINS1_8internal33dense_assignment_loop_with_deviceINS4_31generic_dense_assignment_kernelINS4_9evaluatorINS1_6MatrixIfLi16ELi16ELi0ELi16ELi16EEEEENS7_INS1_12CwiseUnaryOpINS4_15scalar_dummy_opIfLb0EEEKNSB_INS4_14scalar_abs2_opIfEEKS9_EEEEEENS4_9assign_opIffEELi0EEES2_Li1ELi0EE17AssignmentFunctorELi1EEEvllRT_RNS1_7BarrierEiEUlvE_E10_M_destroyERSt9_Any_dataSt17integral_constantIbLb0EE = comdat any

$_ZNSt14_Function_base13_Base_managerIZN5Eigen20CoreThreadPoolDevice15parallelForImplINS1_8internal33dense_assignment_loop_with_deviceINS4_31generic_dense_assignment_kernelINS4_9evaluatorINS1_6MatrixIfLi16ELi16ELi0ELi16ELi16EEEEENS7_INS1_12CwiseUnaryOpINS4_15scalar_dummy_opIfLb0EEEKNSB_INS4_14scalar_abs2_opIfEEKS9_EEEEEENS4_9assign_opIffEELi0EEES2_Li1ELi0EE17AssignmentFunctorELi1EEEvllRT_RNS1_7BarrierEiEUlvE_E9_M_createIRKSU_EEvRSt9_Any_dataOSQ_St17integral_constantIbLb0EE = comdat any

$_ZN5Eigen18test_isCwiseApproxINS_6MatrixIfLi16ELi16ELi0ELi16ELi16EEES2_EEbRKNS_9DenseBaseIT_EERKNS3_IT0_EEb = comdat any

$_ZN5Eigen18get_test_precisionINS_6MatrixIfLi16ELi16ELi0ELi16ELi16EEEEENS_9NumTraitsINT_6ScalarEE4RealERKS4_PKS5_ = comdat any

$_ZN5Eigen19test_relative_errorINS_6MatrixIfLi16ELi16ELi0ELi16ELi16EEES2_EENS_9NumTraitsINT_10RealScalarEE10NonIntegerERKNS_9EigenBaseIS4_EERKNS8_IT0_EE = comdat any

$_ZNK5Eigen15DenseCoeffsBaseINS_6MatrixIfLi16ELi16ELi0ELi16ELi16EEELi0EEclEll = comdat any

$_ZN5Eigen6numext5isnanIfEEbRKT_ = comdat any

$_ZN5Eigen13test_isApproxEff = comdat any

$_ZNK5Eigen15DenseCoeffsBaseINS_6MatrixIfLi16ELi16ELi0ELi16ELi16EEELi0EE5coeffEll = comdat any

$_ZNK5Eigen8internal9evaluatorINS_15PlainObjectBaseINS_6MatrixIfLi16ELi16ELi0ELi16ELi16EEEEEE5coeffEll = comdat any

$_ZNK5Eigen8internal30plainobjectbase_evaluator_dataIfLi16EE11outerStrideEv = comdat any

$_ZN5Eigen8internal10isnan_implIfEENSt9enable_ifIXaaoosr3std14numeric_limitsIT_EE13has_quiet_NaNsr3std14numeric_limitsIS3_EE17has_signaling_NaNntsr9NumTraitsIS3_EE9IsComplexEbE4typeERKS3_ = comdat any

$_ZSt5isnanf = comdat any

$_ZN5Eigen6numext12equal_strictIffEEbRKT_RKT0_ = comdat any

$_ZN5Eigen8internal8isApproxIfEEbRKT_S4_RKNS_9NumTraitsIS2_E4RealE = comdat any

$_ZN5Eigen14test_precisionIfEENS_9NumTraitsIT_E4RealEv = comdat any

$_ZNKSt8equal_toIfEclERKfS2_ = comdat any

$_ZN5Eigen8internal25scalar_fuzzy_default_implIfLb0ELb0EE8isApproxERKfS4_S4_ = comdat any

$_ZSt3absf = comdat any

$_ZSt3minIfERKT_S2_S2_ = comdat any

$_ZSt4sqrtf = comdat any

$_ZNK5Eigen10MatrixBaseINS_6MatrixIfLi16ELi16ELi0ELi16ELi16EEEE6matrixEv = comdat any

$_ZNK5Eigen10MatrixBaseINS_6MatrixIfLi16ELi16ELi0ELi16ELi16EEEEmiIS2_EEKNS_13CwiseBinaryOpINS_8internal20scalar_difference_opIfNS6_6traitsIT_E6ScalarEEEKS2_KS9_EERKNS0_IS9_EE = comdat any

$_ZNK5Eigen10MatrixBaseINS_13CwiseBinaryOpINS_8internal20scalar_difference_opIffEEKNS_6MatrixIfLi16ELi16ELi0ELi16ELi16EEES7_EEE9cwiseAbs2Ev = comdat any

$_ZNK5Eigen9DenseBaseINS_12CwiseUnaryOpINS_8internal14scalar_abs2_opIfEEKNS_13CwiseBinaryOpINS2_20scalar_difference_opIffEEKNS_6MatrixIfLi16ELi16ELi0ELi16ELi16EEESA_EEEEE3sumEv = comdat any

$_ZNK5Eigen9DenseBaseINS_12CwiseUnaryOpINS_8internal14scalar_abs2_opIfEEKNS_6MatrixIfLi16ELi16ELi0ELi16ELi16EEEEEE3sumEv = comdat any

$_ZN5Eigen13CwiseBinaryOpINS_8internal20scalar_difference_opIffEEKNS_6MatrixIfLi16ELi16ELi0ELi16ELi16EEES6_EC2ERS6_S8_RKS3_ = comdat any

$_ZN5Eigen17CwiseBinaryOpImplINS_8internal20scalar_difference_opIffEEKNS_6MatrixIfLi16ELi16ELi0ELi16ELi16EEES6_NS_5DenseEEC2Ev = comdat any

$_ZN5Eigen10MatrixBaseINS_13CwiseBinaryOpINS_8internal20scalar_difference_opIffEEKNS_6MatrixIfLi16ELi16ELi0ELi16ELi16EEES7_EEEC2Ev = comdat any

$_ZN5Eigen9DenseBaseINS_13CwiseBinaryOpINS_8internal20scalar_difference_opIffEEKNS_6MatrixIfLi16ELi16ELi0ELi16ELi16EEES7_EEEC2Ev = comdat any

$_ZNK5Eigen9EigenBaseINS_13CwiseBinaryOpINS_8internal20scalar_difference_opIffEEKNS_6MatrixIfLi16ELi16ELi0ELi16ELi16EEES7_EEE7derivedEv = comdat any

$_ZN5Eigen12CwiseUnaryOpINS_8internal14scalar_abs2_opIfEEKNS_13CwiseBinaryOpINS1_20scalar_difference_opIffEEKNS_6MatrixIfLi16ELi16ELi0ELi16ELi16EEES9_EEEC2ERSB_RKS3_ = comdat any

$_ZN5Eigen16CwiseUnaryOpImplINS_8internal14scalar_abs2_opIfEEKNS_13CwiseBinaryOpINS1_20scalar_difference_opIffEEKNS_6MatrixIfLi16ELi16ELi0ELi16ELi16EEES9_EENS_5DenseEEC2Ev = comdat any

$_ZN5Eigen10MatrixBaseINS_12CwiseUnaryOpINS_8internal14scalar_abs2_opIfEEKNS_13CwiseBinaryOpINS2_20scalar_difference_opIffEEKNS_6MatrixIfLi16ELi16ELi0ELi16ELi16EEESA_EEEEEC2Ev = comdat any

$_ZN5Eigen9DenseBaseINS_12CwiseUnaryOpINS_8internal14scalar_abs2_opIfEEKNS_13CwiseBinaryOpINS2_20scalar_difference_opIffEEKNS_6MatrixIfLi16ELi16ELi0ELi16ELi16EEESA_EEEEEC2Ev = comdat any

$_ZNK5Eigen9EigenBaseINS_12CwiseUnaryOpINS_8internal14scalar_abs2_opIfEEKNS_13CwiseBinaryOpINS2_20scalar_difference_opIffEEKNS_6MatrixIfLi16ELi16ELi0ELi16ELi16EEESA_EEEEE7derivedEv = comdat any

$_ZNK5Eigen9DenseBaseINS_12CwiseUnaryOpINS_8internal14scalar_abs2_opIfEEKNS_13CwiseBinaryOpINS2_20scalar_difference_opIffEEKNS_6MatrixIfLi16ELi16ELi0ELi16ELi16EEESA_EEEEE5reduxINS2_13scalar_sum_opIffEEEEfRKT_ = comdat any

$_ZNK5Eigen9EigenBaseINS_12CwiseUnaryOpINS_8internal14scalar_abs2_opIfEEKNS_13CwiseBinaryOpINS2_20scalar_difference_opIffEEKNS_6MatrixIfLi16ELi16ELi0ELi16ELi16EEESA_EEEEE4rowsEv = comdat any

$_ZNK5Eigen9EigenBaseINS_12CwiseUnaryOpINS_8internal14scalar_abs2_opIfEEKNS_13CwiseBinaryOpINS2_20scalar_difference_opIffEEKNS_6MatrixIfLi16ELi16ELi0ELi16ELi16EEESA_EEEEE4colsEv = comdat any

$_ZN5Eigen8internal15redux_evaluatorINS_12CwiseUnaryOpINS0_14scalar_abs2_opIfEEKNS_13CwiseBinaryOpINS0_20scalar_difference_opIffEEKNS_6MatrixIfLi16ELi16ELi0ELi16ELi16EEESA_EEEEEC2ERKSD_ = comdat any

$_ZN5Eigen8internal10redux_implINS0_13scalar_sum_opIffEENS0_15redux_evaluatorINS_12CwiseUnaryOpINS0_14scalar_abs2_opIfEEKNS_13CwiseBinaryOpINS0_20scalar_difference_opIffEEKNS_6MatrixIfLi16ELi16ELi0ELi16ELi16EEESD_EEEEEELi3ELi0EE3runISG_EEfRKSH_RKS3_RKT_ = comdat any

$_ZNK5Eigen12CwiseUnaryOpINS_8internal14scalar_abs2_opIfEEKNS_13CwiseBinaryOpINS1_20scalar_difference_opIffEEKNS_6MatrixIfLi16ELi16ELi0ELi16ELi16EEES9_EEE4rowsEv = comdat any

$_ZNK5Eigen13CwiseBinaryOpINS_8internal20scalar_difference_opIffEEKNS_6MatrixIfLi16ELi16ELi0ELi16ELi16EEES6_E4rowsEv = comdat any

$_ZNK5Eigen12CwiseUnaryOpINS_8internal14scalar_abs2_opIfEEKNS_13CwiseBinaryOpINS1_20scalar_difference_opIffEEKNS_6MatrixIfLi16ELi16ELi0ELi16ELi16EEES9_EEE4colsEv = comdat any

$_ZNK5Eigen13CwiseBinaryOpINS_8internal20scalar_difference_opIffEEKNS_6MatrixIfLi16ELi16ELi0ELi16ELi16EEES6_E4colsEv = comdat any

$_ZN5Eigen8internal9evaluatorINS_12CwiseUnaryOpINS0_14scalar_abs2_opIfEEKNS_13CwiseBinaryOpINS0_20scalar_difference_opIffEEKNS_6MatrixIfLi16ELi16ELi0ELi16ELi16EEESA_EEEEEC2ERKSD_ = comdat any

$_ZN5Eigen8internal15unary_evaluatorINS_12CwiseUnaryOpINS0_14scalar_abs2_opIfEEKNS_13CwiseBinaryOpINS0_20scalar_difference_opIffEEKNS_6MatrixIfLi16ELi16ELi0ELi16ELi16EEESA_EEEENS0_10IndexBasedEfEC2ERKSD_ = comdat any

$_ZN5Eigen8internal15unary_evaluatorINS_12CwiseUnaryOpINS0_14scalar_abs2_opIfEEKNS_13CwiseBinaryOpINS0_20scalar_difference_opIffEEKNS_6MatrixIfLi16ELi16ELi0ELi16ELi16EEESA_EEEENS0_10IndexBasedEfE4DataC2ERKSD_ = comdat any

$_ZNK5Eigen12CwiseUnaryOpINS_8internal14scalar_abs2_opIfEEKNS_13CwiseBinaryOpINS1_20scalar_difference_opIffEEKNS_6MatrixIfLi16ELi16ELi0ELi16ELi16EEES9_EEE7functorEv = comdat any

$_ZNK5Eigen12CwiseUnaryOpINS_8internal14scalar_abs2_opIfEEKNS_13CwiseBinaryOpINS1_20scalar_difference_opIffEEKNS_6MatrixIfLi16ELi16ELi0ELi16ELi16EEES9_EEE16nestedExpressionEv = comdat any

$_ZN5Eigen8internal9evaluatorIKNS_13CwiseBinaryOpINS0_20scalar_difference_opIffEEKNS_6MatrixIfLi16ELi16ELi0ELi16ELi16EEES7_EEEC2ERS9_ = comdat any

$_ZN5Eigen8internal9evaluatorINS_13CwiseBinaryOpINS0_20scalar_difference_opIffEEKNS_6MatrixIfLi16ELi16ELi0ELi16ELi16EEES7_EEEC2ERKS8_ = comdat any

$_ZN5Eigen8internal16binary_evaluatorINS_13CwiseBinaryOpINS0_20scalar_difference_opIffEEKNS_6MatrixIfLi16ELi16ELi0ELi16ELi16EEES7_EENS0_10IndexBasedES9_ffEC2ERKS8_ = comdat any

$_ZN5Eigen8internal16binary_evaluatorINS_13CwiseBinaryOpINS0_20scalar_difference_opIffEEKNS_6MatrixIfLi16ELi16ELi0ELi16ELi16EEES7_EENS0_10IndexBasedES9_ffE4DataC2ERKS8_ = comdat any

$_ZNK5Eigen13CwiseBinaryOpINS_8internal20scalar_difference_opIffEEKNS_6MatrixIfLi16ELi16ELi0ELi16ELi16EEES6_E7functorEv = comdat any

$_ZNK5Eigen13CwiseBinaryOpINS_8internal20scalar_difference_opIffEEKNS_6MatrixIfLi16ELi16ELi0ELi16ELi16EEES6_E3lhsEv = comdat any

$_ZNK5Eigen13CwiseBinaryOpINS_8internal20scalar_difference_opIffEEKNS_6MatrixIfLi16ELi16ELi0ELi16ELi16EEES6_E3rhsEv = comdat any

$_ZNK5Eigen9EigenBaseINS_12CwiseUnaryOpINS_8internal14scalar_abs2_opIfEEKNS_13CwiseBinaryOpINS2_20scalar_difference_opIffEEKNS_6MatrixIfLi16ELi16ELi0ELi16ELi16EEESA_EEEEE4sizeEv = comdat any

$_ZNK5Eigen8internal15unary_evaluatorINS_12CwiseUnaryOpINS0_14scalar_abs2_opIfEEKNS_13CwiseBinaryOpINS0_20scalar_difference_opIffEEKNS_6MatrixIfLi16ELi16ELi0ELi16ELi16EEESA_EEEENS0_10IndexBasedEfE6packetILi16EDv4_fEET0_l = comdat any

$_ZNK5Eigen8internal13scalar_sum_opIffE8packetOpIDv4_fEET_RKS5_S7_ = comdat any

$_ZNK5Eigen8internal13scalar_sum_opIffE6preduxIDv4_fEEfRKT_ = comdat any

$_ZNK5Eigen8internal13scalar_sum_opIffEclERKfS4_ = comdat any

$_ZNK5Eigen8internal15unary_evaluatorINS_12CwiseUnaryOpINS0_14scalar_abs2_opIfEEKNS_13CwiseBinaryOpINS0_20scalar_difference_opIffEEKNS_6MatrixIfLi16ELi16ELi0ELi16ELi16EEESA_EEEENS0_10IndexBasedEfE5coeffEl = comdat any

$_ZN5Eigen8internal18first_aligned_implILi16ENS_12CwiseUnaryOpINS0_14scalar_abs2_opIfEEKNS_13CwiseBinaryOpINS0_20scalar_difference_opIffEEKNS_6MatrixIfLi16ELi16ELi0ELi16ELi16EEESA_EEEELb1EE3runERKSD_ = comdat any

$_ZNK5Eigen8internal15unary_evaluatorINS_12CwiseUnaryOpINS0_14scalar_abs2_opIfEEKNS_13CwiseBinaryOpINS0_20scalar_difference_opIffEEKNS_6MatrixIfLi16ELi16ELi0ELi16ELi16EEESA_EEEENS0_10IndexBasedEfE4Data4funcEv = comdat any

$_ZNK5Eigen8internal14scalar_abs2_opIfE8packetOpIDv4_fEEKT_RS6_ = comdat any

$_ZNK5Eigen8internal16binary_evaluatorINS_13CwiseBinaryOpINS0_20scalar_difference_opIffEEKNS_6MatrixIfLi16ELi16ELi0ELi16ELi16EEES7_EENS0_10IndexBasedES9_ffE6packetILi16EDv4_fEET0_l = comdat any

$_ZN5Eigen8internal4pmulIDv4_fEET_RKS3_S5_ = comdat any

$_ZNK5Eigen8internal16binary_evaluatorINS_13CwiseBinaryOpINS0_20scalar_difference_opIffEEKNS_6MatrixIfLi16ELi16ELi0ELi16ELi16EEES7_EENS0_10IndexBasedES9_ffE4Data4funcEv = comdat any

$_ZNK5Eigen8internal20scalar_difference_opIffE8packetOpIDv4_fEEKT_RS6_S7_ = comdat any

$_ZNK5Eigen8internal9evaluatorINS_15PlainObjectBaseINS_6MatrixIfLi16ELi16ELi0ELi16ELi16EEEEEE6packetILi16EDv4_fEET0_l = comdat any

$_ZN5Eigen8internal4psubIDv4_fEET_RKS3_S5_ = comdat any

$_ZN5Eigen8internal5ploadIDv4_fEET_PKNS0_15unpacket_traitsIS3_E4typeE = comdat any

$_ZN5Eigen8internal4paddIDv4_fEET_RKS3_S5_ = comdat any

$_ZN5Eigen8internal6preduxIDv4_fEENS0_15unpacket_traitsIT_E4typeERKS4_ = comdat any

$_ZN5Eigen8internal6pfirstIDv4_fEENS0_15unpacket_traitsIT_E4typeERKS4_ = comdat any

$_ZNK5Eigen8internal16binary_evaluatorINS_13CwiseBinaryOpINS0_20scalar_difference_opIffEEKNS_6MatrixIfLi16ELi16ELi0ELi16ELi16EEES7_EENS0_10IndexBasedES9_ffE5coeffEl = comdat any

$_ZNK5Eigen8internal20scalar_difference_opIffEclERKfS4_ = comdat any

$_ZNK5Eigen9DenseBaseINS_12CwiseUnaryOpINS_8internal14scalar_abs2_opIfEEKNS_6MatrixIfLi16ELi16ELi0ELi16ELi16EEEEEE5reduxINS2_13scalar_sum_opIffEEEEfRKT_ = comdat any

$_ZNK5Eigen9EigenBaseINS_12CwiseUnaryOpINS_8internal14scalar_abs2_opIfEEKNS_6MatrixIfLi16ELi16ELi0ELi16ELi16EEEEEE4rowsEv = comdat any

$_ZNK5Eigen9EigenBaseINS_12CwiseUnaryOpINS_8internal14scalar_abs2_opIfEEKNS_6MatrixIfLi16ELi16ELi0ELi16ELi16EEEEEE4colsEv = comdat any

$_ZN5Eigen8internal15redux_evaluatorINS_12CwiseUnaryOpINS0_14scalar_abs2_opIfEEKNS_6MatrixIfLi16ELi16ELi0ELi16ELi16EEEEEEC2ERKS8_ = comdat any

$_ZN5Eigen8internal10redux_implINS0_13scalar_sum_opIffEENS0_15redux_evaluatorINS_12CwiseUnaryOpINS0_14scalar_abs2_opIfEEKNS_6MatrixIfLi16ELi16ELi0ELi16ELi16EEEEEEELi3ELi0EE3runISB_EEfRKSC_RKS3_RKT_ = comdat any

$_ZNK5Eigen9EigenBaseINS_12CwiseUnaryOpINS_8internal14scalar_abs2_opIfEEKNS_6MatrixIfLi16ELi16ELi0ELi16ELi16EEEEEE4sizeEv = comdat any

$_ZNK5Eigen8internal15unary_evaluatorINS_12CwiseUnaryOpINS0_14scalar_abs2_opIfEEKNS_6MatrixIfLi16ELi16ELi0ELi16ELi16EEEEENS0_10IndexBasedEfE6packetILi16EDv4_fEET0_l = comdat any

$_ZN5Eigen8internal18first_aligned_implILi16ENS_12CwiseUnaryOpINS0_14scalar_abs2_opIfEEKNS_6MatrixIfLi16ELi16ELi0ELi16ELi16EEEEELb1EE3runERKS8_ = comdat any

$_ZN5Eigen12CwiseUnaryOpINS_8internal15scalar_dummy_opIfLb1EEEKNS0_INS1_14scalar_abs2_opIfEEKNS_6MatrixIfLi16ELi16ELi0ELi16ELi16EEEEEEC2ERSA_RKS3_ = comdat any

$_ZN5Eigen16CwiseUnaryOpImplINS_8internal15scalar_dummy_opIfLb1EEEKNS_12CwiseUnaryOpINS1_14scalar_abs2_opIfEEKNS_6MatrixIfLi16ELi16ELi0ELi16ELi16EEEEENS_5DenseEEC2Ev = comdat any

$_ZN5Eigen10MatrixBaseINS_12CwiseUnaryOpINS_8internal15scalar_dummy_opIfLb1EEEKNS1_INS2_14scalar_abs2_opIfEEKNS_6MatrixIfLi16ELi16ELi0ELi16ELi16EEEEEEEEC2Ev = comdat any

$_ZN5Eigen9DenseBaseINS_12CwiseUnaryOpINS_8internal15scalar_dummy_opIfLb1EEEKNS1_INS2_14scalar_abs2_opIfEEKNS_6MatrixIfLi16ELi16ELi0ELi16ELi16EEEEEEEEC2Ev = comdat any

$_ZN5Eigen15PlainObjectBaseINS_6MatrixIfLi16ELi16ELi0ELi16ELi16EEEE4_setINS_12CwiseUnaryOpINS_8internal15scalar_dummy_opIfLb1EEEKNS5_INS6_14scalar_abs2_opIfEEKS2_EEEEEERS2_RKNS_9DenseBaseIT_EE = comdat any

$_ZN5Eigen8internal15call_assignmentINS_6MatrixIfLi16ELi16ELi0ELi16ELi16EEENS_12CwiseUnaryOpINS0_15scalar_dummy_opIfLb1EEEKNS4_INS0_14scalar_abs2_opIfEEKS3_EEEEEEvRT_RKT0_ = comdat any

$_ZNK5Eigen9EigenBaseINS_12CwiseUnaryOpINS_8internal15scalar_dummy_opIfLb1EEEKNS1_INS2_14scalar_abs2_opIfEEKNS_6MatrixIfLi16ELi16ELi0ELi16ELi16EEEEEEEE7derivedEv = comdat any

$_ZN5Eigen8internal15call_assignmentINS_6MatrixIfLi16ELi16ELi0ELi16ELi16EEENS_12CwiseUnaryOpINS0_15scalar_dummy_opIfLb1EEEKNS4_INS0_14scalar_abs2_opIfEEKS3_EEEENS0_9assign_opIffEEEEvRT_RKT0_RKT1_NSt9enable_ifIXntsr25evaluator_assume_aliasingISH_EE5valueEPvE4typeE = comdat any

$_ZN5Eigen8internal24call_assignment_no_aliasINS_6MatrixIfLi16ELi16ELi0ELi16ELi16EEENS_12CwiseUnaryOpINS0_15scalar_dummy_opIfLb1EEEKNS4_INS0_14scalar_abs2_opIfEEKS3_EEEENS0_9assign_opIffEEEEvRT_RKT0_RKT1_ = comdat any

$_ZN5Eigen8internal10AssignmentINS_6MatrixIfLi16ELi16ELi0ELi16ELi16EEENS_12CwiseUnaryOpINS0_15scalar_dummy_opIfLb1EEEKNS4_INS0_14scalar_abs2_opIfEEKS3_EEEENS0_9assign_opIffEENS0_11Dense2DenseEvE3runERS3_RKSC_RKSE_ = comdat any

$_ZN5Eigen8internal18check_for_aliasingINS_6MatrixIfLi16ELi16ELi0ELi16ELi16EEENS_12CwiseUnaryOpINS0_15scalar_dummy_opIfLb1EEEKNS4_INS0_14scalar_abs2_opIfEEKS3_EEEEEEvRKT_RKT0_ = comdat any

$_ZN5Eigen8internal26call_dense_assignment_loopINS_6MatrixIfLi16ELi16ELi0ELi16ELi16EEENS_12CwiseUnaryOpINS0_15scalar_dummy_opIfLb1EEEKNS4_INS0_14scalar_abs2_opIfEEKS3_EEEENS0_9assign_opIffEEEEvRT_RKT0_RKT1_ = comdat any

$_ZN5Eigen8internal27checkTransposeAliasing_implINS_6MatrixIfLi16ELi16ELi0ELi16ELi16EEENS_12CwiseUnaryOpINS0_15scalar_dummy_opIfLb1EEEKNS4_INS0_14scalar_abs2_opIfEEKS3_EEEELb0EE3runERS9_RKSC_ = comdat any

$_ZN5Eigen8internal9evaluatorINS_12CwiseUnaryOpINS0_15scalar_dummy_opIfLb1EEEKNS2_INS0_14scalar_abs2_opIfEEKNS_6MatrixIfLi16ELi16ELi0ELi16ELi16EEEEEEEEC2ERKSC_ = comdat any

$_ZN5Eigen8internal17resize_if_allowedINS_6MatrixIfLi16ELi16ELi0ELi16ELi16EEENS_12CwiseUnaryOpINS0_15scalar_dummy_opIfLb1EEEKNS4_INS0_14scalar_abs2_opIfEEKS3_EEEEffEEvRT_RKT0_RKNS0_9assign_opIT1_T2_EE = comdat any

$_ZN5Eigen8internal31generic_dense_assignment_kernelINS0_9evaluatorINS_6MatrixIfLi16ELi16ELi0ELi16ELi16EEEEENS2_INS_12CwiseUnaryOpINS0_15scalar_dummy_opIfLb1EEEKNS6_INS0_14scalar_abs2_opIfEEKS4_EEEEEENS0_9assign_opIffEELi0EEC2ERS5_RKSF_RKSH_RS4_ = comdat any

$_ZN5Eigen8internal21dense_assignment_loopINS0_31generic_dense_assignment_kernelINS0_9evaluatorINS_6MatrixIfLi16ELi16ELi0ELi16ELi16EEEEENS3_INS_12CwiseUnaryOpINS0_15scalar_dummy_opIfLb1EEEKNS7_INS0_14scalar_abs2_opIfEEKS5_EEEEEENS0_9assign_opIffEELi0EEELi2ELi0EE3runERSJ_ = comdat any

$_ZN5Eigen8internal15unary_evaluatorINS_12CwiseUnaryOpINS0_15scalar_dummy_opIfLb1EEEKNS2_INS0_14scalar_abs2_opIfEEKNS_6MatrixIfLi16ELi16ELi0ELi16ELi16EEEEEEENS0_10IndexBasedEfEC2ERKSC_ = comdat any

$_ZN5Eigen8internal15unary_evaluatorINS_12CwiseUnaryOpINS0_15scalar_dummy_opIfLb1EEEKNS2_INS0_14scalar_abs2_opIfEEKNS_6MatrixIfLi16ELi16ELi0ELi16ELi16EEEEEEENS0_10IndexBasedEfE4DataC2ERKSC_ = comdat any

$_ZNK5Eigen12CwiseUnaryOpINS_8internal15scalar_dummy_opIfLb1EEEKNS0_INS1_14scalar_abs2_opIfEEKNS_6MatrixIfLi16ELi16ELi0ELi16ELi16EEEEEE7functorEv = comdat any

$_ZNK5Eigen12CwiseUnaryOpINS_8internal15scalar_dummy_opIfLb1EEEKNS0_INS1_14scalar_abs2_opIfEEKNS_6MatrixIfLi16ELi16ELi0ELi16ELi16EEEEEE16nestedExpressionEv = comdat any

$_ZNK5Eigen12CwiseUnaryOpINS_8internal15scalar_dummy_opIfLb1EEEKNS0_INS1_14scalar_abs2_opIfEEKNS_6MatrixIfLi16ELi16ELi0ELi16ELi16EEEEEE4rowsEv = comdat any

$_ZNK5Eigen12CwiseUnaryOpINS_8internal15scalar_dummy_opIfLb1EEEKNS0_INS1_14scalar_abs2_opIfEEKNS_6MatrixIfLi16ELi16ELi0ELi16ELi16EEEEEE4colsEv = comdat any

$_ZNK5Eigen8internal31generic_dense_assignment_kernelINS0_9evaluatorINS_6MatrixIfLi16ELi16ELi0ELi16ELi16EEEEENS2_INS_12CwiseUnaryOpINS0_15scalar_dummy_opIfLb1EEEKNS6_INS0_14scalar_abs2_opIfEEKS4_EEEEEENS0_9assign_opIffEELi0EE9innerSizeEv = comdat any

$_ZNK5Eigen8internal31generic_dense_assignment_kernelINS0_9evaluatorINS_6MatrixIfLi16ELi16ELi0ELi16ELi16EEEEENS2_INS_12CwiseUnaryOpINS0_15scalar_dummy_opIfLb1EEEKNS6_INS0_14scalar_abs2_opIfEEKS4_EEEEEENS0_9assign_opIffEELi0EE9outerSizeEv = comdat any

$_ZN5Eigen8internal31generic_dense_assignment_kernelINS0_9evaluatorINS_6MatrixIfLi16ELi16ELi0ELi16ELi16EEEEENS2_INS_12CwiseUnaryOpINS0_15scalar_dummy_opIfLb1EEEKNS6_INS0_14scalar_abs2_opIfEEKS4_EEEEEENS0_9assign_opIffEELi0EE24assignPacketByOuterInnerILi16ELi16EDv4_fEEvll = comdat any

$_ZNK5Eigen9DenseBaseINS_6MatrixIfLi16ELi16ELi0ELi16ELi16EEEE9outerSizeEv = comdat any

$_ZN5Eigen8internal31generic_dense_assignment_kernelINS0_9evaluatorINS_6MatrixIfLi16ELi16ELi0ELi16ELi16EEEEENS2_INS_12CwiseUnaryOpINS0_15scalar_dummy_opIfLb1EEEKNS6_INS0_14scalar_abs2_opIfEEKS4_EEEEEENS0_9assign_opIffEELi0EE20rowIndexByOuterInnerEll = comdat any

$_ZN5Eigen8internal31generic_dense_assignment_kernelINS0_9evaluatorINS_6MatrixIfLi16ELi16ELi0ELi16ELi16EEEEENS2_INS_12CwiseUnaryOpINS0_15scalar_dummy_opIfLb1EEEKNS6_INS0_14scalar_abs2_opIfEEKS4_EEEEEENS0_9assign_opIffEELi0EE20colIndexByOuterInnerEll = comdat any

$_ZN5Eigen8internal31generic_dense_assignment_kernelINS0_9evaluatorINS_6MatrixIfLi16ELi16ELi0ELi16ELi16EEEEENS2_INS_12CwiseUnaryOpINS0_15scalar_dummy_opIfLb1EEEKNS6_INS0_14scalar_abs2_opIfEEKS4_EEEEEENS0_9assign_opIffEELi0EE12assignPacketILi16ELi16EDv4_fEEvll = comdat any

$_ZNK5Eigen8internal9assign_opIffE12assignPacketILi16EDv4_fEEvPfRKT0_ = comdat any

$_ZN5Eigen8internal9evaluatorINS_15PlainObjectBaseINS_6MatrixIfLi16ELi16ELi0ELi16ELi16EEEEEE8coeffRefEll = comdat any

$_ZNK5Eigen8internal15unary_evaluatorINS_12CwiseUnaryOpINS0_15scalar_dummy_opIfLb1EEEKNS2_INS0_14scalar_abs2_opIfEEKNS_6MatrixIfLi16ELi16ELi0ELi16ELi16EEEEEEENS0_10IndexBasedEfE6packetILi16EDv4_fEET0_ll = comdat any

$_ZN5Eigen8internal6pstoreIfDv4_fEEvPT_RKT0_ = comdat any

$_ZNK5Eigen8internal15unary_evaluatorINS_12CwiseUnaryOpINS0_15scalar_dummy_opIfLb1EEEKNS2_INS0_14scalar_abs2_opIfEEKNS_6MatrixIfLi16ELi16ELi0ELi16ELi16EEEEEEENS0_10IndexBasedEfE4Data4funcEv = comdat any

$_ZNK5Eigen8internal15scalar_dummy_opIfLb1EE8packetOpIDv4_fEET_RKS5_ = comdat any

$_ZNK5Eigen8internal15unary_evaluatorINS_12CwiseUnaryOpINS0_14scalar_abs2_opIfEEKNS_6MatrixIfLi16ELi16ELi0ELi16ELi16EEEEENS0_10IndexBasedEfE6packetILi16EDv4_fEET0_ll = comdat any

$_ZNK5Eigen8internal9evaluatorINS_15PlainObjectBaseINS_6MatrixIfLi16ELi16ELi0ELi16ELi16EEEEEE6packetILi16EDv4_fEET0_ll = comdat any

$_ZN5Eigen8internal15call_assignmentINS_13DeviceWrapperINS_6MatrixIfLi16ELi16ELi0ELi16ELi16EEENS_20CoreThreadPoolDeviceEEENS_12CwiseUnaryOpINS0_15scalar_dummy_opIfLb1EEEKNS7_INS0_14scalar_abs2_opIfEEKS4_EEEENS0_9assign_opIffEEEEvRT_RKT0_RKT1_NSt9enable_ifIXntsr25evaluator_assume_aliasingISK_EE5valueEPvE4typeE = comdat any

$_ZN5Eigen8internal24call_assignment_no_aliasINS_6MatrixIfLi16ELi16ELi0ELi16ELi16EEENS_12CwiseUnaryOpINS0_15scalar_dummy_opIfLb1EEEKNS4_INS0_14scalar_abs2_opIfEEKS3_EEEENS0_9assign_opIffEENS_20CoreThreadPoolDeviceEEEvNS_13DeviceWrapperIT_T2_EERKT0_RKT1_ = comdat any

$_ZN5Eigen8internal20AssignmentWithDeviceINS_6MatrixIfLi16ELi16ELi0ELi16ELi16EEENS_12CwiseUnaryOpINS0_15scalar_dummy_opIfLb1EEEKNS4_INS0_14scalar_abs2_opIfEEKS3_EEEENS0_9assign_opIffEENS_20CoreThreadPoolDeviceENS0_11Dense2DenseEvE3runERS3_RKSC_RKSE_RSF_ = comdat any

$_ZN5Eigen8internal26call_dense_assignment_loopINS_6MatrixIfLi16ELi16ELi0ELi16ELi16EEENS_12CwiseUnaryOpINS0_15scalar_dummy_opIfLb1EEEKNS4_INS0_14scalar_abs2_opIfEEKS3_EEEENS0_9assign_opIffEENS_20CoreThreadPoolDeviceEEEvRT_RKT0_RKT1_RT2_ = comdat any

$_ZN5Eigen8internal33dense_assignment_loop_with_deviceINS0_31generic_dense_assignment_kernelINS0_9evaluatorINS_6MatrixIfLi16ELi16ELi0ELi16ELi16EEEEENS3_INS_12CwiseUnaryOpINS0_15scalar_dummy_opIfLb1EEEKNS7_INS0_14scalar_abs2_opIfEEKS5_EEEEEENS0_9assign_opIffEELi0EEENS_20CoreThreadPoolDeviceELi2ELi0EE3runERSJ_RSK_ = comdat any

$_ZN5Eigen8internal33dense_assignment_loop_with_deviceINS0_31generic_dense_assignment_kernelINS0_9evaluatorINS_6MatrixIfLi16ELi16ELi0ELi16ELi16EEEEENS3_INS_12CwiseUnaryOpINS0_15scalar_dummy_opIfLb1EEEKNS7_INS0_14scalar_abs2_opIfEEKS5_EEEEEENS0_9assign_opIffEELi0EEENS_20CoreThreadPoolDeviceELi2ELi0EE17AssignmentFunctorC2ERSJ_ = comdat any

$_ZN5Eigen20CoreThreadPoolDevice11parallelForINS_8internal33dense_assignment_loop_with_deviceINS2_31generic_dense_assignment_kernelINS2_9evaluatorINS_6MatrixIfLi16ELi16ELi0ELi16ELi16EEEEENS5_INS_12CwiseUnaryOpINS2_15scalar_dummy_opIfLb1EEEKNS9_INS2_14scalar_abs2_opIfEEKS7_EEEEEENS2_9assign_opIffEELi0EEES0_Li2ELi0EE17AssignmentFunctorELi4EEEvllllRT_f = comdat any

$_ZNK5Eigen20CoreThreadPoolDevice15calculateLevelsILi4EEEilf = comdat any

$_ZN5Eigen20CoreThreadPoolDevice15parallelForImplINS_8internal33dense_assignment_loop_with_deviceINS2_31generic_dense_assignment_kernelINS2_9evaluatorINS_6MatrixIfLi16ELi16ELi0ELi16ELi16EEEEENS5_INS_12CwiseUnaryOpINS2_15scalar_dummy_opIfLb1EEEKNS9_INS2_14scalar_abs2_opIfEEKS7_EEEEEENS2_9assign_opIffEELi0EEES0_Li2ELi0EE17AssignmentFunctorELi4EEEvllllRT_RNS_7BarrierEi = comdat any

$_ZNSt8functionIFvvEEC2IZN5Eigen20CoreThreadPoolDevice15parallelForImplINS3_8internal33dense_assignment_loop_with_deviceINS6_31generic_dense_assignment_kernelINS6_9evaluatorINS3_6MatrixIfLi16ELi16ELi0ELi16ELi16EEEEENS9_INS3_12CwiseUnaryOpINS6_15scalar_dummy_opIfLb1EEEKNSD_INS6_14scalar_abs2_opIfEEKSB_EEEEEENS6_9assign_opIffEELi0EEES4_Li2ELi0EE17AssignmentFunctorELi4EEEvllllRT_RNS3_7BarrierEiEUlvE_vEEOSS_ = comdat any

$_ZNSt8functionIFvvEEC2IZN5Eigen20CoreThreadPoolDevice15parallelForImplINS3_8internal33dense_assignment_loop_with_deviceINS6_31generic_dense_assignment_kernelINS6_9evaluatorINS3_6MatrixIfLi16ELi16ELi0ELi16ELi16EEEEENS9_INS3_12CwiseUnaryOpINS6_15scalar_dummy_opIfLb1EEEKNSD_INS6_14scalar_abs2_opIfEEKSB_EEEEEENS6_9assign_opIffEELi0EEES4_Li2ELi0EE17AssignmentFunctorELi4EEEvllllRT_RNS3_7BarrierEiEUlvE0_vEEOSS_ = comdat any

$_ZN5Eigen8internal33dense_assignment_loop_with_deviceINS0_31generic_dense_assignment_kernelINS0_9evaluatorINS_6MatrixIfLi16ELi16ELi0ELi16ELi16EEEEENS3_INS_12CwiseUnaryOpINS0_15scalar_dummy_opIfLb1EEEKNS7_INS0_14scalar_abs2_opIfEEKS5_EEEEEENS0_9assign_opIffEELi0EEENS_20CoreThreadPoolDeviceELi2ELi0EE17AssignmentFunctorclEll = comdat any

$_ZNSt14_Function_base13_Base_managerIZN5Eigen20CoreThreadPoolDevice15parallelForImplINS1_8internal33dense_assignment_loop_with_deviceINS4_31generic_dense_assignment_kernelINS4_9evaluatorINS1_6MatrixIfLi16ELi16ELi0ELi16ELi16EEEEENS7_INS1_12CwiseUnaryOpINS4_15scalar_dummy_opIfLb1EEEKNSB_INS4_14scalar_abs2_opIfEEKS9_EEEEEENS4_9assign_opIffEELi0EEES2_Li2ELi0EE17AssignmentFunctorELi4EEEvllllRT_RNS1_7BarrierEiEUlvE_E21_M_not_empty_functionISU_EEbRKSQ_ = comdat any

$_ZNSt14_Function_base13_Base_managerIZN5Eigen20CoreThreadPoolDevice15parallelForImplINS1_8internal33dense_assignment_loop_with_deviceINS4_31generic_dense_assignment_kernelINS4_9evaluatorINS1_6MatrixIfLi16ELi16ELi0ELi16ELi16EEEEENS7_INS1_12CwiseUnaryOpINS4_15scalar_dummy_opIfLb1EEEKNSB_INS4_14scalar_abs2_opIfEEKS9_EEEEEENS4_9assign_opIffEELi0EEES2_Li2ELi0EE17AssignmentFunctorELi4EEEvllllRT_RNS1_7BarrierEiEUlvE_E15_M_init_functorISU_EEvRSt9_Any_dataOSQ_ = comdat any

$_ZNSt17_Function_handlerIFvvEZN5Eigen20CoreThreadPoolDevice15parallelForImplINS1_8internal33dense_assignment_loop_with_deviceINS4_31generic_dense_assignment_kernelINS4_9evaluatorINS1_6MatrixIfLi16ELi16ELi0ELi16ELi16EEEEENS7_INS1_12CwiseUnaryOpINS4_15scalar_dummy_opIfLb1EEEKNSB_INS4_14scalar_abs2_opIfEEKS9_EEEEEENS4_9assign_opIffEELi0EEES2_Li2ELi0EE17AssignmentFunctorELi4EEEvllllRT_RNS1_7BarrierEiEUlvE_E9_M_invokeERKSt9_Any_data = comdat any

$_ZNSt17_Function_handlerIFvvEZN5Eigen20CoreThreadPoolDevice15parallelForImplINS1_8internal33dense_assignment_loop_with_deviceINS4_31generic_dense_assignment_kernelINS4_9evaluatorINS1_6MatrixIfLi16ELi16ELi0ELi16ELi16EEEEENS7_INS1_12CwiseUnaryOpINS4_15scalar_dummy_opIfLb1EEEKNSB_INS4_14scalar_abs2_opIfEEKS9_EEEEEENS4_9assign_opIffEELi0EEES2_Li2ELi0EE17AssignmentFunctorELi4EEEvllllRT_RNS1_7BarrierEiEUlvE_E10_M_managerERSt9_Any_dataRKSW_St18_Manager_operation = comdat any

$_ZNSt14_Function_base13_Base_managerIZN5Eigen20CoreThreadPoolDevice15parallelForImplINS1_8internal33dense_assignment_loop_with_deviceINS4_31generic_dense_assignment_kernelINS4_9evaluatorINS1_6MatrixIfLi16ELi16ELi0ELi16ELi16EEEEENS7_INS1_12CwiseUnaryOpINS4_15scalar_dummy_opIfLb1EEEKNSB_INS4_14scalar_abs2_opIfEEKS9_EEEEEENS4_9assign_opIffEELi0EEES2_Li2ELi0EE17AssignmentFunctorELi4EEEvllllRT_RNS1_7BarrierEiEUlvE_E9_M_createISU_EEvRSt9_Any_dataOSQ_St17integral_constantIbLb0EE = comdat any

$_ZNSt9_Any_data9_M_accessIPZN5Eigen20CoreThreadPoolDevice15parallelForImplINS1_8internal33dense_assignment_loop_with_deviceINS4_31generic_dense_assignment_kernelINS4_9evaluatorINS1_6MatrixIfLi16ELi16ELi0ELi16ELi16EEEEENS7_INS1_12CwiseUnaryOpINS4_15scalar_dummy_opIfLb1EEEKNSB_INS4_14scalar_abs2_opIfEEKS9_EEEEEENS4_9assign_opIffEELi0EEES2_Li2ELi0EE17AssignmentFunctorELi4EEEvllllRT_RNS1_7BarrierEiEUlvE_EESR_v = comdat any

$_ZSt10__invoke_rIvRZN5Eigen20CoreThreadPoolDevice15parallelForImplINS0_8internal33dense_assignment_loop_with_deviceINS3_31generic_dense_assignment_kernelINS3_9evaluatorINS0_6MatrixIfLi16ELi16ELi0ELi16ELi16EEEEENS6_INS0_12CwiseUnaryOpINS3_15scalar_dummy_opIfLb1EEEKNSA_INS3_14scalar_abs2_opIfEEKS8_EEEEEENS3_9assign_opIffEELi0EEES1_Li2ELi0EE17AssignmentFunctorELi4EEEvllllRT_RNS0_7BarrierEiEUlvE_JEENSt9enable_ifIXsr6__and_ISt7is_voidISP_ESt14__is_invocableIT0_JDpT1_EEEE5valueESP_E4typeEOSZ_DpOS10_ = comdat any

$_ZNSt14_Function_base13_Base_managerIZN5Eigen20CoreThreadPoolDevice15parallelForImplINS1_8internal33dense_assignment_loop_with_deviceINS4_31generic_dense_assignment_kernelINS4_9evaluatorINS1_6MatrixIfLi16ELi16ELi0ELi16ELi16EEEEENS7_INS1_12CwiseUnaryOpINS4_15scalar_dummy_opIfLb1EEEKNSB_INS4_14scalar_abs2_opIfEEKS9_EEEEEENS4_9assign_opIffEELi0EEES2_Li2ELi0EE17AssignmentFunctorELi4EEEvllllRT_RNS1_7BarrierEiEUlvE_E14_M_get_pointerERKSt9_Any_data = comdat any

$_ZSt13__invoke_implIvRZN5Eigen20CoreThreadPoolDevice15parallelForImplINS0_8internal33dense_assignment_loop_with_deviceINS3_31generic_dense_assignment_kernelINS3_9evaluatorINS0_6MatrixIfLi16ELi16ELi0ELi16ELi16EEEEENS6_INS0_12CwiseUnaryOpINS3_15scalar_dummy_opIfLb1EEEKNSA_INS3_14scalar_abs2_opIfEEKS8_EEEEEENS3_9assign_opIffEELi0EEES1_Li2ELi0EE17AssignmentFunctorELi4EEEvllllRT_RNS0_7BarrierEiEUlvE_JEESP_St14__invoke_otherOT0_DpOT1_ = comdat any

$_ZZN5Eigen20CoreThreadPoolDevice15parallelForImplINS_8internal33dense_assignment_loop_with_deviceINS2_31generic_dense_assignment_kernelINS2_9evaluatorINS_6MatrixIfLi16ELi16ELi0ELi16ELi16EEEEENS5_INS_12CwiseUnaryOpINS2_15scalar_dummy_opIfLb1EEEKNS9_INS2_14scalar_abs2_opIfEEKS7_EEEEEENS2_9assign_opIffEELi0EEES0_Li2ELi0EE17AssignmentFunctorELi4EEEvllllRT_RNS_7BarrierEiENKUlvE_clEv = comdat any

$_ZNKSt9_Any_data9_M_accessIPZN5Eigen20CoreThreadPoolDevice15parallelForImplINS1_8internal33dense_assignment_loop_with_deviceINS4_31generic_dense_assignment_kernelINS4_9evaluatorINS1_6MatrixIfLi16ELi16ELi0ELi16ELi16EEEEENS7_INS1_12CwiseUnaryOpINS4_15scalar_dummy_opIfLb1EEEKNSB_INS4_14scalar_abs2_opIfEEKS9_EEEEEENS4_9assign_opIffEELi0EEES2_Li2ELi0EE17AssignmentFunctorELi4EEEvllllRT_RNS1_7BarrierEiEUlvE_EERKSQ_v = comdat any

$_ZNSt14_Function_base13_Base_managerIZN5Eigen20CoreThreadPoolDevice15parallelForImplINS1_8internal33dense_assignment_loop_with_deviceINS4_31generic_dense_assignment_kernelINS4_9evaluatorINS1_6MatrixIfLi16ELi16ELi0ELi16ELi16EEEEENS7_INS1_12CwiseUnaryOpINS4_15scalar_dummy_opIfLb1EEEKNSB_INS4_14scalar_abs2_opIfEEKS9_EEEEEENS4_9assign_opIffEELi0EEES2_Li2ELi0EE17AssignmentFunctorELi4EEEvllllRT_RNS1_7BarrierEiEUlvE_E10_M_managerERSt9_Any_dataRKSW_St18_Manager_operation = comdat any

$_ZNSt14_Function_base13_Base_managerIZN5Eigen20CoreThreadPoolDevice15parallelForImplINS1_8internal33dense_assignment_loop_with_deviceINS4_31generic_dense_assignment_kernelINS4_9evaluatorINS1_6MatrixIfLi16ELi16ELi0ELi16ELi16EEEEENS7_INS1_12CwiseUnaryOpINS4_15scalar_dummy_opIfLb1EEEKNSB_INS4_14scalar_abs2_opIfEEKS9_EEEEEENS4_9assign_opIffEELi0EEES2_Li2ELi0EE17AssignmentFunctorELi4EEEvllllRT_RNS1_7BarrierEiEUlvE_E15_M_init_functorIRKSU_EEvRSt9_Any_dataOSQ_ = comdat any

$_ZNSt14_Function_base13_Base_managerIZN5Eigen20CoreThreadPoolDevice15parallelForImplINS1_8internal33dense_assignment_loop_with_deviceINS4_31generic_dense_assignment_kernelINS4_9evaluatorINS1_6MatrixIfLi16ELi16ELi0ELi16ELi16EEEEENS7_INS1_12CwiseUnaryOpINS4_15scalar_dummy_opIfLb1EEEKNSB_INS4_14scalar_abs2_opIfEEKS9_EEEEEENS4_9assign_opIffEELi0EEES2_Li2ELi0EE17AssignmentFunctorELi4EEEvllllRT_RNS1_7BarrierEiEUlvE_E10_M_destroyERSt9_Any_dataSt17integral_constantIbLb0EE = comdat any

$_ZNSt14_Function_base13_Base_managerIZN5Eigen20CoreThreadPoolDevice15parallelForImplINS1_8internal33dense_assignment_loop_with_deviceINS4_31generic_dense_assignment_kernelINS4_9evaluatorINS1_6MatrixIfLi16ELi16ELi0ELi16ELi16EEEEENS7_INS1_12CwiseUnaryOpINS4_15scalar_dummy_opIfLb1EEEKNSB_INS4_14scalar_abs2_opIfEEKS9_EEEEEENS4_9assign_opIffEELi0EEES2_Li2ELi0EE17AssignmentFunctorELi4EEEvllllRT_RNS1_7BarrierEiEUlvE_E9_M_createIRKSU_EEvRSt9_Any_dataOSQ_St17integral_constantIbLb0EE = comdat any

$_ZNSt14_Function_base13_Base_managerIZN5Eigen20CoreThreadPoolDevice15parallelForImplINS1_8internal33dense_assignment_loop_with_deviceINS4_31generic_dense_assignment_kernelINS4_9evaluatorINS1_6MatrixIfLi16ELi16ELi0ELi16ELi16EEEEENS7_INS1_12CwiseUnaryOpINS4_15scalar_dummy_opIfLb1EEEKNSB_INS4_14scalar_abs2_opIfEEKS9_EEEEEENS4_9assign_opIffEELi0EEES2_Li2ELi0EE17AssignmentFunctorELi4EEEvllllRT_RNS1_7BarrierEiEUlvE0_E21_M_not_empty_functionISU_EEbRKSQ_ = comdat any

$_ZNSt14_Function_base13_Base_managerIZN5Eigen20CoreThreadPoolDevice15parallelForImplINS1_8internal33dense_assignment_loop_with_deviceINS4_31generic_dense_assignment_kernelINS4_9evaluatorINS1_6MatrixIfLi16ELi16ELi0ELi16ELi16EEEEENS7_INS1_12CwiseUnaryOpINS4_15scalar_dummy_opIfLb1EEEKNSB_INS4_14scalar_abs2_opIfEEKS9_EEEEEENS4_9assign_opIffEELi0EEES2_Li2ELi0EE17AssignmentFunctorELi4EEEvllllRT_RNS1_7BarrierEiEUlvE0_E15_M_init_functorISU_EEvRSt9_Any_dataOSQ_ = comdat any

$_ZNSt17_Function_handlerIFvvEZN5Eigen20CoreThreadPoolDevice15parallelForImplINS1_8internal33dense_assignment_loop_with_deviceINS4_31generic_dense_assignment_kernelINS4_9evaluatorINS1_6MatrixIfLi16ELi16ELi0ELi16ELi16EEEEENS7_INS1_12CwiseUnaryOpINS4_15scalar_dummy_opIfLb1EEEKNSB_INS4_14scalar_abs2_opIfEEKS9_EEEEEENS4_9assign_opIffEELi0EEES2_Li2ELi0EE17AssignmentFunctorELi4EEEvllllRT_RNS1_7BarrierEiEUlvE0_E9_M_invokeERKSt9_Any_data = comdat any

$_ZNSt17_Function_handlerIFvvEZN5Eigen20CoreThreadPoolDevice15parallelForImplINS1_8internal33dense_assignment_loop_with_deviceINS4_31generic_dense_assignment_kernelINS4_9evaluatorINS1_6MatrixIfLi16ELi16ELi0ELi16ELi16EEEEENS7_INS1_12CwiseUnaryOpINS4_15scalar_dummy_opIfLb1EEEKNSB_INS4_14scalar_abs2_opIfEEKS9_EEEEEENS4_9assign_opIffEELi0EEES2_Li2ELi0EE17AssignmentFunctorELi4EEEvllllRT_RNS1_7BarrierEiEUlvE0_E10_M_managerERSt9_Any_dataRKSW_St18_Manager_operation = comdat any

$_ZNSt14_Function_base13_Base_managerIZN5Eigen20CoreThreadPoolDevice15parallelForImplINS1_8internal33dense_assignment_loop_with_deviceINS4_31generic_dense_assignment_kernelINS4_9evaluatorINS1_6MatrixIfLi16ELi16ELi0ELi16ELi16EEEEENS7_INS1_12CwiseUnaryOpINS4_15scalar_dummy_opIfLb1EEEKNSB_INS4_14scalar_abs2_opIfEEKS9_EEEEEENS4_9assign_opIffEELi0EEES2_Li2ELi0EE17AssignmentFunctorELi4EEEvllllRT_RNS1_7BarrierEiEUlvE0_E9_M_createISU_EEvRSt9_Any_dataOSQ_St17integral_constantIbLb0EE = comdat any

$_ZNSt9_Any_data9_M_accessIPZN5Eigen20CoreThreadPoolDevice15parallelForImplINS1_8internal33dense_assignment_loop_with_deviceINS4_31generic_dense_assignment_kernelINS4_9evaluatorINS1_6MatrixIfLi16ELi16ELi0ELi16ELi16EEEEENS7_INS1_12CwiseUnaryOpINS4_15scalar_dummy_opIfLb1EEEKNSB_INS4_14scalar_abs2_opIfEEKS9_EEEEEENS4_9assign_opIffEELi0EEES2_Li2ELi0EE17AssignmentFunctorELi4EEEvllllRT_RNS1_7BarrierEiEUlvE0_EESR_v = comdat any

$_ZSt10__invoke_rIvRZN5Eigen20CoreThreadPoolDevice15parallelForImplINS0_8internal33dense_assignment_loop_with_deviceINS3_31generic_dense_assignment_kernelINS3_9evaluatorINS0_6MatrixIfLi16ELi16ELi0ELi16ELi16EEEEENS6_INS0_12CwiseUnaryOpINS3_15scalar_dummy_opIfLb1EEEKNSA_INS3_14scalar_abs2_opIfEEKS8_EEEEEENS3_9assign_opIffEELi0EEES1_Li2ELi0EE17AssignmentFunctorELi4EEEvllllRT_RNS0_7BarrierEiEUlvE0_JEENSt9enable_ifIXsr6__and_ISt7is_voidISP_ESt14__is_invocableIT0_JDpT1_EEEE5valueESP_E4typeEOSZ_DpOS10_ = comdat any

$_ZNSt14_Function_base13_Base_managerIZN5Eigen20CoreThreadPoolDevice15parallelForImplINS1_8internal33dense_assignment_loop_with_deviceINS4_31generic_dense_assignment_kernelINS4_9evaluatorINS1_6MatrixIfLi16ELi16ELi0ELi16ELi16EEEEENS7_INS1_12CwiseUnaryOpINS4_15scalar_dummy_opIfLb1EEEKNSB_INS4_14scalar_abs2_opIfEEKS9_EEEEEENS4_9assign_opIffEELi0EEES2_Li2ELi0EE17AssignmentFunctorELi4EEEvllllRT_RNS1_7BarrierEiEUlvE0_E14_M_get_pointerERKSt9_Any_data = comdat any

$_ZSt13__invoke_implIvRZN5Eigen20CoreThreadPoolDevice15parallelForImplINS0_8internal33dense_assignment_loop_with_deviceINS3_31generic_dense_assignment_kernelINS3_9evaluatorINS0_6MatrixIfLi16ELi16ELi0ELi16ELi16EEEEENS6_INS0_12CwiseUnaryOpINS3_15scalar_dummy_opIfLb1EEEKNSA_INS3_14scalar_abs2_opIfEEKS8_EEEEEENS3_9assign_opIffEELi0EEES1_Li2ELi0EE17AssignmentFunctorELi4EEEvllllRT_RNS0_7BarrierEiEUlvE0_JEESP_St14__invoke_otherOT0_DpOT1_ = comdat any

$_ZZN5Eigen20CoreThreadPoolDevice15parallelForImplINS_8internal33dense_assignment_loop_with_deviceINS2_31generic_dense_assignment_kernelINS2_9evaluatorINS_6MatrixIfLi16ELi16ELi0ELi16ELi16EEEEENS5_INS_12CwiseUnaryOpINS2_15scalar_dummy_opIfLb1EEEKNS9_INS2_14scalar_abs2_opIfEEKS7_EEEEEENS2_9assign_opIffEELi0EEES0_Li2ELi0EE17AssignmentFunctorELi4EEEvllllRT_RNS_7BarrierEiENKUlvE0_clEv = comdat any

$_ZNKSt9_Any_data9_M_accessIPZN5Eigen20CoreThreadPoolDevice15parallelForImplINS1_8internal33dense_assignment_loop_with_deviceINS4_31generic_dense_assignment_kernelINS4_9evaluatorINS1_6MatrixIfLi16ELi16ELi0ELi16ELi16EEEEENS7_INS1_12CwiseUnaryOpINS4_15scalar_dummy_opIfLb1EEEKNSB_INS4_14scalar_abs2_opIfEEKS9_EEEEEENS4_9assign_opIffEELi0EEES2_Li2ELi0EE17AssignmentFunctorELi4EEEvllllRT_RNS1_7BarrierEiEUlvE0_EERKSQ_v = comdat any

$_ZNSt14_Function_base13_Base_managerIZN5Eigen20CoreThreadPoolDevice15parallelForImplINS1_8internal33dense_assignment_loop_with_deviceINS4_31generic_dense_assignment_kernelINS4_9evaluatorINS1_6MatrixIfLi16ELi16ELi0ELi16ELi16EEEEENS7_INS1_12CwiseUnaryOpINS4_15scalar_dummy_opIfLb1EEEKNSB_INS4_14scalar_abs2_opIfEEKS9_EEEEEENS4_9assign_opIffEELi0EEES2_Li2ELi0EE17AssignmentFunctorELi4EEEvllllRT_RNS1_7BarrierEiEUlvE0_E10_M_managerERSt9_Any_dataRKSW_St18_Manager_operation = comdat any

$_ZNSt14_Function_base13_Base_managerIZN5Eigen20CoreThreadPoolDevice15parallelForImplINS1_8internal33dense_assignment_loop_with_deviceINS4_31generic_dense_assignment_kernelINS4_9evaluatorINS1_6MatrixIfLi16ELi16ELi0ELi16ELi16EEEEENS7_INS1_12CwiseUnaryOpINS4_15scalar_dummy_opIfLb1EEEKNSB_INS4_14scalar_abs2_opIfEEKS9_EEEEEENS4_9assign_opIffEELi0EEES2_Li2ELi0EE17AssignmentFunctorELi4EEEvllllRT_RNS1_7BarrierEiEUlvE0_E15_M_init_functorIRKSU_EEvRSt9_Any_dataOSQ_ = comdat any

$_ZNSt14_Function_base13_Base_managerIZN5Eigen20CoreThreadPoolDevice15parallelForImplINS1_8internal33dense_assignment_loop_with_deviceINS4_31generic_dense_assignment_kernelINS4_9evaluatorINS1_6MatrixIfLi16ELi16ELi0ELi16ELi16EEEEENS7_INS1_12CwiseUnaryOpINS4_15scalar_dummy_opIfLb1EEEKNSB_INS4_14scalar_abs2_opIfEEKS9_EEEEEENS4_9assign_opIffEELi0EEES2_Li2ELi0EE17AssignmentFunctorELi4EEEvllllRT_RNS1_7BarrierEiEUlvE0_E10_M_destroyERSt9_Any_dataSt17integral_constantIbLb0EE = comdat any

$_ZNSt14_Function_base13_Base_managerIZN5Eigen20CoreThreadPoolDevice15parallelForImplINS1_8internal33dense_assignment_loop_with_deviceINS4_31generic_dense_assignment_kernelINS4_9evaluatorINS1_6MatrixIfLi16ELi16ELi0ELi16ELi16EEEEENS7_INS1_12CwiseUnaryOpINS4_15scalar_dummy_opIfLb1EEEKNSB_INS4_14scalar_abs2_opIfEEKS9_EEEEEENS4_9assign_opIffEELi0EEES2_Li2ELi0EE17AssignmentFunctorELi4EEEvllllRT_RNS1_7BarrierEiEUlvE0_E9_M_createIRKSU_EEvRSt9_Any_dataOSQ_St17integral_constantIbLb0EE = comdat any

$_ZN5Eigen8internal31generic_dense_assignment_kernelINS0_9evaluatorINS_6MatrixIfLi16ELi16ELi0ELi16ELi16EEEEENS2_INS_12CwiseUnaryOpINS0_15scalar_dummy_opIfLb1EEEKNS6_INS0_14scalar_abs2_opIfEEKS4_EEEEEENS0_9assign_opIffEELi0EE24assignPacketByOuterInnerILi0ELi0EDv4_fEEvll = comdat any

$_ZN5Eigen8internal31generic_dense_assignment_kernelINS0_9evaluatorINS_6MatrixIfLi16ELi16ELi0ELi16ELi16EEEEENS2_INS_12CwiseUnaryOpINS0_15scalar_dummy_opIfLb1EEEKNS6_INS0_14scalar_abs2_opIfEEKS4_EEEEEENS0_9assign_opIffEELi0EE12assignPacketILi0ELi0EDv4_fEEvll = comdat any

$_ZNK5Eigen8internal9assign_opIffE12assignPacketILi0EDv4_fEEvPfRKT0_ = comdat any

$_ZNK5Eigen8internal15unary_evaluatorINS_12CwiseUnaryOpINS0_15scalar_dummy_opIfLb1EEEKNS2_INS0_14scalar_abs2_opIfEEKNS_6MatrixIfLi16ELi16ELi0ELi16ELi16EEEEEEENS0_10IndexBasedEfE6packetILi0EDv4_fEET0_ll = comdat any

$_ZN5Eigen8internal7pstoreuIfDv4_fEEvPT_RKT0_ = comdat any

$_ZNK5Eigen8internal15unary_evaluatorINS_12CwiseUnaryOpINS0_14scalar_abs2_opIfEEKNS_6MatrixIfLi16ELi16ELi0ELi16ELi16EEEEENS0_10IndexBasedEfE6packetILi0EDv4_fEET0_ll = comdat any

$_ZNK5Eigen8internal9evaluatorINS_15PlainObjectBaseINS_6MatrixIfLi16ELi16ELi0ELi16ELi16EEEEEE6packetILi0EDv4_fEET0_ll = comdat any

$_ZN5Eigen8internal6ploaduIDv4_fEET_PKNS0_15unpacket_traitsIS3_E4typeE = comdat any

$_ZN5Eigen5BlockIKNS_12CwiseUnaryOpINS_8internal14scalar_abs2_opIfEEKNS_6MatrixIfLi16ELi16ELi0ELi16ELi16EEEEELin1ELin1ELb0EEC2ERS9_llll = comdat any

$_ZN5Eigen9BlockImplIKNS_12CwiseUnaryOpINS_8internal14scalar_abs2_opIfEEKNS_6MatrixIfLi16ELi16ELi0ELi16ELi16EEEEELin1ELin1ELb0ENS_5DenseEEC2ERS9_llll = comdat any

$_ZN5Eigen8internal15BlockImpl_denseIKNS_12CwiseUnaryOpINS0_14scalar_abs2_opIfEEKNS_6MatrixIfLi16ELi16ELi0ELi16ELi16EEEEELin1ELin1ELb0ELb0EEC2ERS9_llll = comdat any

$_ZN5Eigen10MatrixBaseINS_5BlockIKNS_12CwiseUnaryOpINS_8internal14scalar_abs2_opIfEEKNS_6MatrixIfLi16ELi16ELi0ELi16ELi16EEEEELin1ELin1ELb0EEEEC2Ev = comdat any

$_ZN5Eigen9DenseBaseINS_5BlockIKNS_12CwiseUnaryOpINS_8internal14scalar_abs2_opIfEEKNS_6MatrixIfLi16ELi16ELi0ELi16ELi16EEEEELin1ELin1ELb0EEEEC2Ev = comdat any

$_ZNK5Eigen9EigenBaseINS_5BlockIKNS_12CwiseUnaryOpINS_8internal14scalar_abs2_opIfEEKNS_6MatrixIfLi16ELi16ELi0ELi16ELi16EEEEELin1ELin1ELb0EEEE7derivedEv = comdat any

$_ZN5Eigen12CwiseUnaryOpINS_8internal15scalar_dummy_opIfLb0EEEKNS_5BlockIKNS0_INS1_14scalar_abs2_opIfEEKNS_6MatrixIfLi16ELi16ELi0ELi16ELi16EEEEELin1ELin1ELb0EEEEC2ERSD_RKS3_ = comdat any

$_ZN5Eigen16CwiseUnaryOpImplINS_8internal15scalar_dummy_opIfLb0EEEKNS_5BlockIKNS_12CwiseUnaryOpINS1_14scalar_abs2_opIfEEKNS_6MatrixIfLi16ELi16ELi0ELi16ELi16EEEEELin1ELin1ELb0EEENS_5DenseEEC2Ev = comdat any

$_ZN5Eigen10MatrixBaseINS_12CwiseUnaryOpINS_8internal15scalar_dummy_opIfLb0EEEKNS_5BlockIKNS1_INS2_14scalar_abs2_opIfEEKNS_6MatrixIfLi16ELi16ELi0ELi16ELi16EEEEELin1ELin1ELb0EEEEEEC2Ev = comdat any

$_ZN5Eigen9DenseBaseINS_12CwiseUnaryOpINS_8internal15scalar_dummy_opIfLb0EEEKNS_5BlockIKNS1_INS2_14scalar_abs2_opIfEEKNS_6MatrixIfLi16ELi16ELi0ELi16ELi16EEEEELin1ELin1ELb0EEEEEEC2Ev = comdat any

$_ZN5Eigen5BlockINS_6MatrixIfLi16ELi16ELi0ELi16ELi16EEELin1ELin1ELb0EEC2ERS2_llll = comdat any

$_ZN5Eigen9BlockImplINS_6MatrixIfLi16ELi16ELi0ELi16ELi16EEELin1ELin1ELb0ENS_5DenseEEC2ERS2_llll = comdat any

$_ZN5Eigen8internal15BlockImpl_denseINS_6MatrixIfLi16ELi16ELi0ELi16ELi16EEELin1ELin1ELb0ELb1EEC2ERS3_llll = comdat any

$_ZN5Eigen15PlainObjectBaseINS_6MatrixIfLi16ELi16ELi0ELi16ELi16EEEE4dataEv = comdat any

$_ZNK5Eigen6MatrixIfLi16ELi16ELi0ELi16ELi16EE11innerStrideEv = comdat any

$_ZN5Eigen7MapBaseINS_5BlockINS_6MatrixIfLi16ELi16ELi0ELi16ELi16EEELin1ELin1ELb0EEELi1EEC2EPfll = comdat any

$_ZN5Eigen8internal15BlockImpl_denseINS_6MatrixIfLi16ELi16ELi0ELi16ELi16EEELin1ELin1ELb0ELb1EE4initEv = comdat any

$_ZN5Eigen8internal17DenseStorage_implIfLi256ELi16ELi16ELi0EE4dataEv = comdat any

$_ZN5Eigen7MapBaseINS_5BlockINS_6MatrixIfLi16ELi16ELi0ELi16ELi16EEELin1ELin1ELb0EEELi0EEC2EPfll = comdat any

$_ZN5Eigen10MatrixBaseINS_5BlockINS_6MatrixIfLi16ELi16ELi0ELi16ELi16EEELin1ELin1ELb0EEEEC2Ev = comdat any

$_ZNK5Eigen7MapBaseINS_5BlockINS_6MatrixIfLi16ELi16ELi0ELi16ELi16EEELin1ELin1ELb0EEELi0EE11checkSanityIS4_EEvNSt9enable_ifIXeqsr8internal6traitsIT_EE9AlignmentLi0EEPvE4typeE = comdat any

$_ZN5Eigen9DenseBaseINS_5BlockINS_6MatrixIfLi16ELi16ELi0ELi16ELi16EEELin1ELin1ELb0EEEEC2Ev = comdat any

$_ZN5Eigen9BlockImplINS_6MatrixIfLi16ELi16ELi0ELi16ELi16EEELin1ELin1ELb0ENS_5DenseEEaSINS_12CwiseUnaryOpINS_8internal15scalar_dummy_opIfLb0EEEKNS_5BlockIKNS6_INS7_14scalar_abs2_opIfEEKS2_EELin1ELin1ELb0EEEEEEERS4_RKNS_9DenseBaseIT_EE = comdat any

$_ZNK5Eigen9EigenBaseINS_12CwiseUnaryOpINS_8internal15scalar_dummy_opIfLb0EEEKNS_5BlockIKNS1_INS2_14scalar_abs2_opIfEEKNS_6MatrixIfLi16ELi16ELi0ELi16ELi16EEEEELin1ELin1ELb0EEEEEE7derivedEv = comdat any

$_ZN5Eigen8internal15BlockImpl_denseINS_6MatrixIfLi16ELi16ELi0ELi16ELi16EEELin1ELin1ELb0ELb1EEaSINS_12CwiseUnaryOpINS0_15scalar_dummy_opIfLb0EEEKNS_5BlockIKNS6_INS0_14scalar_abs2_opIfEEKS3_EELin1ELin1ELb0EEEEEEERS4_RKNS_9DenseBaseIT_EE = comdat any

$_ZN5Eigen10MatrixBaseINS_5BlockINS_6MatrixIfLi16ELi16ELi0ELi16ELi16EEELin1ELin1ELb0EEEEaSINS_12CwiseUnaryOpINS_8internal15scalar_dummy_opIfLb0EEEKNS1_IKNS7_INS8_14scalar_abs2_opIfEEKS3_EELin1ELin1ELb0EEEEEEERS4_RKNS_9DenseBaseIT_EE = comdat any

$_ZN5Eigen8internal15call_assignmentINS_5BlockINS_6MatrixIfLi16ELi16ELi0ELi16ELi16EEELin1ELin1ELb0EEENS_12CwiseUnaryOpINS0_15scalar_dummy_opIfLb0EEEKNS2_IKNS6_INS0_14scalar_abs2_opIfEEKS4_EELin1ELin1ELb0EEEEEEEvRT_RKT0_ = comdat any

$_ZN5Eigen9EigenBaseINS_5BlockINS_6MatrixIfLi16ELi16ELi0ELi16ELi16EEELin1ELin1ELb0EEEE7derivedEv = comdat any

$_ZN5Eigen8internal15call_assignmentINS_5BlockINS_6MatrixIfLi16ELi16ELi0ELi16ELi16EEELin1ELin1ELb0EEENS_12CwiseUnaryOpINS0_15scalar_dummy_opIfLb0EEEKNS2_IKNS6_INS0_14scalar_abs2_opIfEEKS4_EELin1ELin1ELb0EEEEENS0_9assign_opIffEEEEvRT_RKT0_RKT1_NSt9enable_ifIXntsr25evaluator_assume_aliasingISL_EE5valueEPvE4typeE = comdat any

$_ZN5Eigen8internal24call_assignment_no_aliasINS_5BlockINS_6MatrixIfLi16ELi16ELi0ELi16ELi16EEELin1ELin1ELb0EEENS_12CwiseUnaryOpINS0_15scalar_dummy_opIfLb0EEEKNS2_IKNS6_INS0_14scalar_abs2_opIfEEKS4_EELin1ELin1ELb0EEEEENS0_9assign_opIffEEEEvRT_RKT0_RKT1_ = comdat any

$_ZN5Eigen8internal10AssignmentINS_5BlockINS_6MatrixIfLi16ELi16ELi0ELi16ELi16EEELin1ELin1ELb0EEENS_12CwiseUnaryOpINS0_15scalar_dummy_opIfLb0EEEKNS2_IKNS6_INS0_14scalar_abs2_opIfEEKS4_EELin1ELin1ELb0EEEEENS0_9assign_opIffEENS0_11Dense2DenseEvE3runERS5_RKSG_RKSI_ = comdat any

$_ZN5Eigen8internal18check_for_aliasingINS_5BlockINS_6MatrixIfLi16ELi16ELi0ELi16ELi16EEELin1ELin1ELb0EEENS_12CwiseUnaryOpINS0_15scalar_dummy_opIfLb0EEEKNS2_IKNS6_INS0_14scalar_abs2_opIfEEKS4_EELin1ELin1ELb0EEEEEEEvRKT_RKT0_ = comdat any

$_ZN5Eigen8internal26call_dense_assignment_loopINS_5BlockINS_6MatrixIfLi16ELi16ELi0ELi16ELi16EEELin1ELin1ELb0EEENS_12CwiseUnaryOpINS0_15scalar_dummy_opIfLb0EEEKNS2_IKNS6_INS0_14scalar_abs2_opIfEEKS4_EELin1ELin1ELb0EEEEENS0_9assign_opIffEEEEvRT_RKT0_RKT1_ = comdat any

$_ZNK5Eigen7MapBaseINS_5BlockINS_6MatrixIfLi16ELi16ELi0ELi16ELi16EEELin1ELin1ELb0EEELi0EE4rowsEv = comdat any

$_ZNK5Eigen7MapBaseINS_5BlockINS_6MatrixIfLi16ELi16ELi0ELi16ELi16EEELin1ELin1ELb0EEELi0EE4colsEv = comdat any

$_ZN5Eigen8internal27checkTransposeAliasing_implINS_5BlockINS_6MatrixIfLi16ELi16ELi0ELi16ELi16EEELin1ELin1ELb0EEENS_12CwiseUnaryOpINS0_15scalar_dummy_opIfLb0EEEKNS2_IKNS6_INS0_14scalar_abs2_opIfEEKS4_EELin1ELin1ELb0EEEEELb0EE3runERKS5_RKSG_ = comdat any

$_ZN5Eigen8internal9evaluatorINS_12CwiseUnaryOpINS0_15scalar_dummy_opIfLb0EEEKNS_5BlockIKNS2_INS0_14scalar_abs2_opIfEEKNS_6MatrixIfLi16ELi16ELi0ELi16ELi16EEEEELin1ELin1ELb0EEEEEEC2ERKSF_ = comdat any

$_ZN5Eigen8internal17resize_if_allowedINS_5BlockINS_6MatrixIfLi16ELi16ELi0ELi16ELi16EEELin1ELin1ELb0EEENS_12CwiseUnaryOpINS0_15scalar_dummy_opIfLb0EEEKNS2_IKNS6_INS0_14scalar_abs2_opIfEEKS4_EELin1ELin1ELb0EEEEEffEEvRT_RKT0_RKNS0_9assign_opIT1_T2_EE = comdat any

$_ZN5Eigen8internal9evaluatorINS_5BlockINS_6MatrixIfLi16ELi16ELi0ELi16ELi16EEELin1ELin1ELb0EEEEC2ERKS5_ = comdat any

$_ZNK5Eigen9EigenBaseINS_5BlockINS_6MatrixIfLi16ELi16ELi0ELi16ELi16EEELin1ELin1ELb0EEEE18const_cast_derivedEv = comdat any

$_ZN5Eigen8internal31generic_dense_assignment_kernelINS0_9evaluatorINS_5BlockINS_6MatrixIfLi16ELi16ELi0ELi16ELi16EEELin1ELin1ELb0EEEEENS2_INS_12CwiseUnaryOpINS0_15scalar_dummy_opIfLb0EEEKNS3_IKNS8_INS0_14scalar_abs2_opIfEEKS5_EELin1ELin1ELb0EEEEEEENS0_9assign_opIffEELi0EEC2ERS7_RKSJ_RKSL_RS6_ = comdat any

$_ZN5Eigen8internal21dense_assignment_loopINS0_31generic_dense_assignment_kernelINS0_9evaluatorINS_5BlockINS_6MatrixIfLi16ELi16ELi0ELi16ELi16EEELin1ELin1ELb0EEEEENS3_INS_12CwiseUnaryOpINS0_15scalar_dummy_opIfLb0EEEKNS4_IKNS9_INS0_14scalar_abs2_opIfEEKS6_EELin1ELin1ELb0EEEEEEENS0_9assign_opIffEELi0EEELi0ELi0EE3runERSN_ = comdat any

$_ZN5Eigen8internal15unary_evaluatorINS_12CwiseUnaryOpINS0_15scalar_dummy_opIfLb0EEEKNS_5BlockIKNS2_INS0_14scalar_abs2_opIfEEKNS_6MatrixIfLi16ELi16ELi0ELi16ELi16EEEEELin1ELin1ELb0EEEEENS0_10IndexBasedEfEC2ERKSF_ = comdat any

$_ZN5Eigen8internal15unary_evaluatorINS_12CwiseUnaryOpINS0_15scalar_dummy_opIfLb0EEEKNS_5BlockIKNS2_INS0_14scalar_abs2_opIfEEKNS_6MatrixIfLi16ELi16ELi0ELi16ELi16EEEEELin1ELin1ELb0EEEEENS0_10IndexBasedEfE4DataC2ERKSF_ = comdat any

$_ZNK5Eigen12CwiseUnaryOpINS_8internal15scalar_dummy_opIfLb0EEEKNS_5BlockIKNS0_INS1_14scalar_abs2_opIfEEKNS_6MatrixIfLi16ELi16ELi0ELi16ELi16EEEEELin1ELin1ELb0EEEE7functorEv = comdat any

$_ZNK5Eigen12CwiseUnaryOpINS_8internal15scalar_dummy_opIfLb0EEEKNS_5BlockIKNS0_INS1_14scalar_abs2_opIfEEKNS_6MatrixIfLi16ELi16ELi0ELi16ELi16EEEEELin1ELin1ELb0EEEE16nestedExpressionEv = comdat any

$_ZN5Eigen8internal9evaluatorIKNS_5BlockIKNS_12CwiseUnaryOpINS0_14scalar_abs2_opIfEEKNS_6MatrixIfLi16ELi16ELi0ELi16ELi16EEEEELin1ELin1ELb0EEEEC2ERSC_ = comdat any

$_ZN5Eigen8internal9evaluatorINS_5BlockIKNS_12CwiseUnaryOpINS0_14scalar_abs2_opIfEEKNS_6MatrixIfLi16ELi16ELi0ELi16ELi16EEEEELin1ELin1ELb0EEEEC2ERKSB_ = comdat any

$_ZN5Eigen8internal15block_evaluatorIKNS_12CwiseUnaryOpINS0_14scalar_abs2_opIfEEKNS_6MatrixIfLi16ELi16ELi0ELi16ELi16EEEEELin1ELin1ELb0ELb0EEC2ERKNS_5BlockIS9_Lin1ELin1ELb0EEE = comdat any

$_ZN5Eigen8internal15unary_evaluatorINS_5BlockIKNS_12CwiseUnaryOpINS0_14scalar_abs2_opIfEEKNS_6MatrixIfLi16ELi16ELi0ELi16ELi16EEEEELin1ELin1ELb0EEENS0_10IndexBasedEfEC2ERKSB_ = comdat any

$_ZNK5Eigen8internal15BlockImpl_denseIKNS_12CwiseUnaryOpINS0_14scalar_abs2_opIfEEKNS_6MatrixIfLi16ELi16ELi0ELi16ELi16EEEEELin1ELin1ELb0ELb0EE16nestedExpressionEv = comdat any

$_ZNK5Eigen8internal15BlockImpl_denseIKNS_12CwiseUnaryOpINS0_14scalar_abs2_opIfEEKNS_6MatrixIfLi16ELi16ELi0ELi16ELi16EEEEELin1ELin1ELb0ELb0EE8startRowEv = comdat any

$_ZNK5Eigen8internal15BlockImpl_denseIKNS_12CwiseUnaryOpINS0_14scalar_abs2_opIfEEKNS_6MatrixIfLi16ELi16ELi0ELi16ELi16EEEEELin1ELin1ELb0ELb0EE8startColEv = comdat any

$_ZNK5Eigen12CwiseUnaryOpINS_8internal15scalar_dummy_opIfLb0EEEKNS_5BlockIKNS0_INS1_14scalar_abs2_opIfEEKNS_6MatrixIfLi16ELi16ELi0ELi16ELi16EEEEELin1ELin1ELb0EEEE4rowsEv = comdat any

$_ZNK5Eigen12CwiseUnaryOpINS_8internal15scalar_dummy_opIfLb0EEEKNS_5BlockIKNS0_INS1_14scalar_abs2_opIfEEKNS_6MatrixIfLi16ELi16ELi0ELi16ELi16EEEEELin1ELin1ELb0EEEE4colsEv = comdat any

$_ZN5Eigen9DenseBaseINS_5BlockINS_6MatrixIfLi16ELi16ELi0ELi16ELi16EEELin1ELin1ELb0EEEE6resizeEll = comdat any

$_ZNK5Eigen8internal15BlockImpl_denseIKNS_12CwiseUnaryOpINS0_14scalar_abs2_opIfEEKNS_6MatrixIfLi16ELi16ELi0ELi16ELi16EEEEELin1ELin1ELb0ELb0EE4rowsEv = comdat any

$_ZNK5Eigen8internal15BlockImpl_denseIKNS_12CwiseUnaryOpINS0_14scalar_abs2_opIfEEKNS_6MatrixIfLi16ELi16ELi0ELi16ELi16EEEEELin1ELin1ELb0ELb0EE4colsEv = comdat any

$_ZNK5Eigen9EigenBaseINS_5BlockINS_6MatrixIfLi16ELi16ELi0ELi16ELi16EEELin1ELin1ELb0EEEE4rowsEv = comdat any

$_ZNK5Eigen9EigenBaseINS_5BlockINS_6MatrixIfLi16ELi16ELi0ELi16ELi16EEELin1ELin1ELb0EEEE4colsEv = comdat any

$_ZNK5Eigen9EigenBaseINS_5BlockINS_6MatrixIfLi16ELi16ELi0ELi16ELi16EEELin1ELin1ELb0EEEE7derivedEv = comdat any

$_ZN5Eigen8internal15block_evaluatorINS_6MatrixIfLi16ELi16ELi0ELi16ELi16EEELin1ELin1ELb0ELb1EEC2ERKNS_5BlockIS3_Lin1ELin1ELb0EEE = comdat any

$_ZN5Eigen8internal17mapbase_evaluatorINS_5BlockINS_6MatrixIfLi16ELi16ELi0ELi16ELi16EEELin1ELin1ELb0EEENS3_IfLin1ELin1ELi0ELi16ELi16EEEEC2ERKS5_ = comdat any

$_ZNK5Eigen7MapBaseINS_5BlockINS_6MatrixIfLi16ELi16ELi0ELi16ELi16EEELin1ELin1ELb0EEELi1EE4dataEv = comdat any

$_ZN5Eigen8internal14plain_enum_maxIiNS0_9evaluatorINS_5BlockINS_6MatrixIfLi16ELi16ELi0ELi16ELi16EEELin1ELin1ELb0EEEEUt_EEEiT_T0_ = comdat any

$_ZNK5Eigen8internal15BlockImpl_denseINS_6MatrixIfLi16ELi16ELi0ELi16ELi16EEELin1ELin1ELb0ELb1EE11innerStrideEv = comdat any

$_ZNK5Eigen8internal15BlockImpl_denseINS_6MatrixIfLi16ELi16ELi0ELi16ELi16EEELin1ELin1ELb0ELb1EE11outerStrideEv = comdat any

$_ZN5Eigen8internal18plain_enum_assertsIiNS0_9evaluatorINS_5BlockINS_6MatrixIfLi16ELi16ELi0ELi16ELi16EEELin1ELin1ELb0EEEEUt_EEEvT_T0_ = comdat any

$_ZNK5Eigen8internal31generic_dense_assignment_kernelINS0_9evaluatorINS_5BlockINS_6MatrixIfLi16ELi16ELi0ELi16ELi16EEELin1ELin1ELb0EEEEENS2_INS_12CwiseUnaryOpINS0_15scalar_dummy_opIfLb0EEEKNS3_IKNS8_INS0_14scalar_abs2_opIfEEKS5_EELin1ELin1ELb0EEEEEEENS0_9assign_opIffEELi0EE9outerSizeEv = comdat any

$_ZNK5Eigen8internal31generic_dense_assignment_kernelINS0_9evaluatorINS_5BlockINS_6MatrixIfLi16ELi16ELi0ELi16ELi16EEELin1ELin1ELb0EEEEENS2_INS_12CwiseUnaryOpINS0_15scalar_dummy_opIfLb0EEEKNS3_IKNS8_INS0_14scalar_abs2_opIfEEKS5_EELin1ELin1ELb0EEEEEEENS0_9assign_opIffEELi0EE9innerSizeEv = comdat any

$_ZN5Eigen8internal31generic_dense_assignment_kernelINS0_9evaluatorINS_5BlockINS_6MatrixIfLi16ELi16ELi0ELi16ELi16EEELin1ELin1ELb0EEEEENS2_INS_12CwiseUnaryOpINS0_15scalar_dummy_opIfLb0EEEKNS3_IKNS8_INS0_14scalar_abs2_opIfEEKS5_EELin1ELin1ELb0EEEEEEENS0_9assign_opIffEELi0EE23assignCoeffByOuterInnerEll = comdat any

$_ZNK5Eigen9DenseBaseINS_5BlockINS_6MatrixIfLi16ELi16ELi0ELi16ELi16EEELin1ELin1ELb0EEEE9outerSizeEv = comdat any

$_ZNK5Eigen9DenseBaseINS_5BlockINS_6MatrixIfLi16ELi16ELi0ELi16ELi16EEELin1ELin1ELb0EEEE9innerSizeEv = comdat any

$_ZN5Eigen8internal31generic_dense_assignment_kernelINS0_9evaluatorINS_5BlockINS_6MatrixIfLi16ELi16ELi0ELi16ELi16EEELin1ELin1ELb0EEEEENS2_INS_12CwiseUnaryOpINS0_15scalar_dummy_opIfLb0EEEKNS3_IKNS8_INS0_14scalar_abs2_opIfEEKS5_EELin1ELin1ELb0EEEEEEENS0_9assign_opIffEELi0EE20rowIndexByOuterInnerEll = comdat any

$_ZN5Eigen8internal31generic_dense_assignment_kernelINS0_9evaluatorINS_5BlockINS_6MatrixIfLi16ELi16ELi0ELi16ELi16EEELin1ELin1ELb0EEEEENS2_INS_12CwiseUnaryOpINS0_15scalar_dummy_opIfLb0EEEKNS3_IKNS8_INS0_14scalar_abs2_opIfEEKS5_EELin1ELin1ELb0EEEEEEENS0_9assign_opIffEELi0EE20colIndexByOuterInnerEll = comdat any

$_ZN5Eigen8internal31generic_dense_assignment_kernelINS0_9evaluatorINS_5BlockINS_6MatrixIfLi16ELi16ELi0ELi16ELi16EEELin1ELin1ELb0EEEEENS2_INS_12CwiseUnaryOpINS0_15scalar_dummy_opIfLb0EEEKNS3_IKNS8_INS0_14scalar_abs2_opIfEEKS5_EELin1ELin1ELb0EEEEEEENS0_9assign_opIffEELi0EE11assignCoeffEll = comdat any

$_ZN5Eigen8internal17mapbase_evaluatorINS_5BlockINS_6MatrixIfLi16ELi16ELi0ELi16ELi16EEELin1ELin1ELb0EEENS3_IfLin1ELin1ELi0ELi16ELi16EEEE8coeffRefEll = comdat any

$_ZNK5Eigen8internal15unary_evaluatorINS_12CwiseUnaryOpINS0_15scalar_dummy_opIfLb0EEEKNS_5BlockIKNS2_INS0_14scalar_abs2_opIfEEKNS_6MatrixIfLi16ELi16ELi0ELi16ELi16EEEEELin1ELin1ELb0EEEEENS0_10IndexBasedEfE5coeffEll = comdat any

$_ZNK5Eigen8internal17mapbase_evaluatorINS_5BlockINS_6MatrixIfLi16ELi16ELi0ELi16ELi16EEELin1ELin1ELb0EEENS3_IfLin1ELin1ELi0ELi16ELi16EEEE9colStrideEv = comdat any

$_ZNK5Eigen8internal17mapbase_evaluatorINS_5BlockINS_6MatrixIfLi16ELi16ELi0ELi16ELi16EEELin1ELin1ELb0EEENS3_IfLin1ELin1ELi0ELi16ELi16EEEE9rowStrideEv = comdat any

$_ZNK5Eigen8internal15unary_evaluatorINS_12CwiseUnaryOpINS0_15scalar_dummy_opIfLb0EEEKNS_5BlockIKNS2_INS0_14scalar_abs2_opIfEEKNS_6MatrixIfLi16ELi16ELi0ELi16ELi16EEEEELin1ELin1ELb0EEEEENS0_10IndexBasedEfE4Data4funcEv = comdat any

$_ZNK5Eigen8internal15unary_evaluatorINS_5BlockIKNS_12CwiseUnaryOpINS0_14scalar_abs2_opIfEEKNS_6MatrixIfLi16ELi16ELi0ELi16ELi16EEEEELin1ELin1ELb0EEENS0_10IndexBasedEfE5coeffEll = comdat any

$_ZNK5Eigen8internal15unary_evaluatorINS_12CwiseUnaryOpINS0_14scalar_abs2_opIfEEKNS_6MatrixIfLi16ELi16ELi0ELi16ELi16EEEEENS0_10IndexBasedEfE5coeffEll = comdat any

$_ZN5Eigen13DeviceWrapperINS_5BlockINS_6MatrixIfLi16ELi16ELi0ELi16ELi16EEELin1ELin1ELb0EEENS_20CoreThreadPoolDeviceEEC2ERNS_9EigenBaseIS4_EERS5_ = comdat any

$_ZN5Eigen8internal15call_assignmentINS_13DeviceWrapperINS_5BlockINS_6MatrixIfLi16ELi16ELi0ELi16ELi16EEELin1ELin1ELb0EEENS_20CoreThreadPoolDeviceEEENS_12CwiseUnaryOpINS0_15scalar_dummy_opIfLb0EEEKNS3_IKNS9_INS0_14scalar_abs2_opIfEEKS5_EELin1ELin1ELb0EEEEENS0_9assign_opIffEEEEvRT_RKT0_RKT1_NSt9enable_ifIXntsr25evaluator_assume_aliasingISO_EE5valueEPvE4typeE = comdat any

$_ZN5Eigen8internal24call_assignment_no_aliasINS_5BlockINS_6MatrixIfLi16ELi16ELi0ELi16ELi16EEELin1ELin1ELb0EEENS_12CwiseUnaryOpINS0_15scalar_dummy_opIfLb0EEEKNS2_IKNS6_INS0_14scalar_abs2_opIfEEKS4_EELin1ELin1ELb0EEEEENS0_9assign_opIffEENS_20CoreThreadPoolDeviceEEEvNS_13DeviceWrapperIT_T2_EERKT0_RKT1_ = comdat any

$_ZN5Eigen13DeviceWrapperINS_5BlockINS_6MatrixIfLi16ELi16ELi0ELi16ELi16EEELin1ELin1ELb0EEENS_20CoreThreadPoolDeviceEE7derivedEv = comdat any

$_ZN5Eigen8internal20AssignmentWithDeviceINS_5BlockINS_6MatrixIfLi16ELi16ELi0ELi16ELi16EEELin1ELin1ELb0EEENS_12CwiseUnaryOpINS0_15scalar_dummy_opIfLb0EEEKNS2_IKNS6_INS0_14scalar_abs2_opIfEEKS4_EELin1ELin1ELb0EEEEENS0_9assign_opIffEENS_20CoreThreadPoolDeviceENS0_11Dense2DenseEvE3runERS5_RKSG_RKSI_RSJ_ = comdat any

$_ZN5Eigen13DeviceWrapperINS_5BlockINS_6MatrixIfLi16ELi16ELi0ELi16ELi16EEELin1ELin1ELb0EEENS_20CoreThreadPoolDeviceEE6deviceEv = comdat any

$_ZN5Eigen8internal26call_dense_assignment_loopINS_5BlockINS_6MatrixIfLi16ELi16ELi0ELi16ELi16EEELin1ELin1ELb0EEENS_12CwiseUnaryOpINS0_15scalar_dummy_opIfLb0EEEKNS2_IKNS6_INS0_14scalar_abs2_opIfEEKS4_EELin1ELin1ELb0EEEEENS0_9assign_opIffEENS_20CoreThreadPoolDeviceEEEvRT_RKT0_RKT1_RT2_ = comdat any

$_ZN5Eigen8internal33dense_assignment_loop_with_deviceINS0_31generic_dense_assignment_kernelINS0_9evaluatorINS_5BlockINS_6MatrixIfLi16ELi16ELi0ELi16ELi16EEELin1ELin1ELb0EEEEENS3_INS_12CwiseUnaryOpINS0_15scalar_dummy_opIfLb0EEEKNS4_IKNS9_INS0_14scalar_abs2_opIfEEKS6_EELin1ELin1ELb0EEEEEEENS0_9assign_opIffEELi0EEENS_20CoreThreadPoolDeviceELi0ELi0EE3runERSN_RSO_ = comdat any

$_ZN5Eigen8internal33dense_assignment_loop_with_deviceINS0_31generic_dense_assignment_kernelINS0_9evaluatorINS_5BlockINS_6MatrixIfLi16ELi16ELi0ELi16ELi16EEELin1ELin1ELb0EEEEENS3_INS_12CwiseUnaryOpINS0_15scalar_dummy_opIfLb0EEEKNS4_IKNS9_INS0_14scalar_abs2_opIfEEKS6_EELin1ELin1ELb0EEEEEEENS0_9assign_opIffEELi0EEENS_20CoreThreadPoolDeviceELi0ELi0EE17AssignmentFunctorC2ERSN_ = comdat any

$_ZN5Eigen20CoreThreadPoolDevice11parallelForINS_8internal33dense_assignment_loop_with_deviceINS2_31generic_dense_assignment_kernelINS2_9evaluatorINS_5BlockINS_6MatrixIfLi16ELi16ELi0ELi16ELi16EEELin1ELin1ELb0EEEEENS5_INS_12CwiseUnaryOpINS2_15scalar_dummy_opIfLb0EEEKNS6_IKNSB_INS2_14scalar_abs2_opIfEEKS8_EELin1ELin1ELb0EEEEEEENS2_9assign_opIffEELi0EEES0_Li0ELi0EE17AssignmentFunctorELi1EEEvllllRT_f = comdat any

$_ZN5Eigen20CoreThreadPoolDevice15parallelForImplINS_8internal33dense_assignment_loop_with_deviceINS2_31generic_dense_assignment_kernelINS2_9evaluatorINS_5BlockINS_6MatrixIfLi16ELi16ELi0ELi16ELi16EEELin1ELin1ELb0EEEEENS5_INS_12CwiseUnaryOpINS2_15scalar_dummy_opIfLb0EEEKNS6_IKNSB_INS2_14scalar_abs2_opIfEEKS8_EELin1ELin1ELb0EEEEEEENS2_9assign_opIffEELi0EEES0_Li0ELi0EE17AssignmentFunctorELi1EEEvllllRT_RNS_7BarrierEi = comdat any

$_ZNSt8functionIFvvEEC2IZN5Eigen20CoreThreadPoolDevice15parallelForImplINS3_8internal33dense_assignment_loop_with_deviceINS6_31generic_dense_assignment_kernelINS6_9evaluatorINS3_5BlockINS3_6MatrixIfLi16ELi16ELi0ELi16ELi16EEELin1ELin1ELb0EEEEENS9_INS3_12CwiseUnaryOpINS6_15scalar_dummy_opIfLb0EEEKNSA_IKNSF_INS6_14scalar_abs2_opIfEEKSC_EELin1ELin1ELb0EEEEEEENS6_9assign_opIffEELi0EEES4_Li0ELi0EE17AssignmentFunctorELi1EEEvllllRT_RNS3_7BarrierEiEUlvE_vEEOSW_ = comdat any

$_ZNSt8functionIFvvEEC2IZN5Eigen20CoreThreadPoolDevice15parallelForImplINS3_8internal33dense_assignment_loop_with_deviceINS6_31generic_dense_assignment_kernelINS6_9evaluatorINS3_5BlockINS3_6MatrixIfLi16ELi16ELi0ELi16ELi16EEELin1ELin1ELb0EEEEENS9_INS3_12CwiseUnaryOpINS6_15scalar_dummy_opIfLb0EEEKNSA_IKNSF_INS6_14scalar_abs2_opIfEEKSC_EELin1ELin1ELb0EEEEEEENS6_9assign_opIffEELi0EEES4_Li0ELi0EE17AssignmentFunctorELi1EEEvllllRT_RNS3_7BarrierEiEUlvE0_vEEOSW_ = comdat any

$_ZN5Eigen8internal33dense_assignment_loop_with_deviceINS0_31generic_dense_assignment_kernelINS0_9evaluatorINS_5BlockINS_6MatrixIfLi16ELi16ELi0ELi16ELi16EEELin1ELin1ELb0EEEEENS3_INS_12CwiseUnaryOpINS0_15scalar_dummy_opIfLb0EEEKNS4_IKNS9_INS0_14scalar_abs2_opIfEEKS6_EELin1ELin1ELb0EEEEEEENS0_9assign_opIffEELi0EEENS_20CoreThreadPoolDeviceELi0ELi0EE17AssignmentFunctorclEll = comdat any

$_ZNSt14_Function_base13_Base_managerIZN5Eigen20CoreThreadPoolDevice15parallelForImplINS1_8internal33dense_assignment_loop_with_deviceINS4_31generic_dense_assignment_kernelINS4_9evaluatorINS1_5BlockINS1_6MatrixIfLi16ELi16ELi0ELi16ELi16EEELin1ELin1ELb0EEEEENS7_INS1_12CwiseUnaryOpINS4_15scalar_dummy_opIfLb0EEEKNS8_IKNSD_INS4_14scalar_abs2_opIfEEKSA_EELin1ELin1ELb0EEEEEEENS4_9assign_opIffEELi0EEES2_Li0ELi0EE17AssignmentFunctorELi1EEEvllllRT_RNS1_7BarrierEiEUlvE_E21_M_not_empty_functionISY_EEbRKSU_ = comdat any

$_ZNSt14_Function_base13_Base_managerIZN5Eigen20CoreThreadPoolDevice15parallelForImplINS1_8internal33dense_assignment_loop_with_deviceINS4_31generic_dense_assignment_kernelINS4_9evaluatorINS1_5BlockINS1_6MatrixIfLi16ELi16ELi0ELi16ELi16EEELin1ELin1ELb0EEEEENS7_INS1_12CwiseUnaryOpINS4_15scalar_dummy_opIfLb0EEEKNS8_IKNSD_INS4_14scalar_abs2_opIfEEKSA_EELin1ELin1ELb0EEEEEEENS4_9assign_opIffEELi0EEES2_Li0ELi0EE17AssignmentFunctorELi1EEEvllllRT_RNS1_7BarrierEiEUlvE_E15_M_init_functorISY_EEvRSt9_Any_dataOSU_ = comdat any

$_ZNSt17_Function_handlerIFvvEZN5Eigen20CoreThreadPoolDevice15parallelForImplINS1_8internal33dense_assignment_loop_with_deviceINS4_31generic_dense_assignment_kernelINS4_9evaluatorINS1_5BlockINS1_6MatrixIfLi16ELi16ELi0ELi16ELi16EEELin1ELin1ELb0EEEEENS7_INS1_12CwiseUnaryOpINS4_15scalar_dummy_opIfLb0EEEKNS8_IKNSD_INS4_14scalar_abs2_opIfEEKSA_EELin1ELin1ELb0EEEEEEENS4_9assign_opIffEELi0EEES2_Li0ELi0EE17AssignmentFunctorELi1EEEvllllRT_RNS1_7BarrierEiEUlvE_E9_M_invokeERKSt9_Any_data = comdat any

$_ZNSt17_Function_handlerIFvvEZN5Eigen20CoreThreadPoolDevice15parallelForImplINS1_8internal33dense_assignment_loop_with_deviceINS4_31generic_dense_assignment_kernelINS4_9evaluatorINS1_5BlockINS1_6MatrixIfLi16ELi16ELi0ELi16ELi16EEELin1ELin1ELb0EEEEENS7_INS1_12CwiseUnaryOpINS4_15scalar_dummy_opIfLb0EEEKNS8_IKNSD_INS4_14scalar_abs2_opIfEEKSA_EELin1ELin1ELb0EEEEEEENS4_9assign_opIffEELi0EEES2_Li0ELi0EE17AssignmentFunctorELi1EEEvllllRT_RNS1_7BarrierEiEUlvE_E10_M_managerERSt9_Any_dataRKS10_St18_Manager_operation = comdat any

$_ZNSt14_Function_base13_Base_managerIZN5Eigen20CoreThreadPoolDevice15parallelForImplINS1_8internal33dense_assignment_loop_with_deviceINS4_31generic_dense_assignment_kernelINS4_9evaluatorINS1_5BlockINS1_6MatrixIfLi16ELi16ELi0ELi16ELi16EEELin1ELin1ELb0EEEEENS7_INS1_12CwiseUnaryOpINS4_15scalar_dummy_opIfLb0EEEKNS8_IKNSD_INS4_14scalar_abs2_opIfEEKSA_EELin1ELin1ELb0EEEEEEENS4_9assign_opIffEELi0EEES2_Li0ELi0EE17AssignmentFunctorELi1EEEvllllRT_RNS1_7BarrierEiEUlvE_E9_M_createISY_EEvRSt9_Any_dataOSU_St17integral_constantIbLb0EE = comdat any

$_ZNSt9_Any_data9_M_accessIPZN5Eigen20CoreThreadPoolDevice15parallelForImplINS1_8internal33dense_assignment_loop_with_deviceINS4_31generic_dense_assignment_kernelINS4_9evaluatorINS1_5BlockINS1_6MatrixIfLi16ELi16ELi0ELi16ELi16EEELin1ELin1ELb0EEEEENS7_INS1_12CwiseUnaryOpINS4_15scalar_dummy_opIfLb0EEEKNS8_IKNSD_INS4_14scalar_abs2_opIfEEKSA_EELin1ELin1ELb0EEEEEEENS4_9assign_opIffEELi0EEES2_Li0ELi0EE17AssignmentFunctorELi1EEEvllllRT_RNS1_7BarrierEiEUlvE_EESV_v = comdat any

$_ZSt10__invoke_rIvRZN5Eigen20CoreThreadPoolDevice15parallelForImplINS0_8internal33dense_assignment_loop_with_deviceINS3_31generic_dense_assignment_kernelINS3_9evaluatorINS0_5BlockINS0_6MatrixIfLi16ELi16ELi0ELi16ELi16EEELin1ELin1ELb0EEEEENS6_INS0_12CwiseUnaryOpINS3_15scalar_dummy_opIfLb0EEEKNS7_IKNSC_INS3_14scalar_abs2_opIfEEKS9_EELin1ELin1ELb0EEEEEEENS3_9assign_opIffEELi0EEES1_Li0ELi0EE17AssignmentFunctorELi1EEEvllllRT_RNS0_7BarrierEiEUlvE_JEENSt9enable_ifIXsr6__and_ISt7is_voidIST_ESt14__is_invocableIT0_JDpT1_EEEE5valueEST_E4typeEOS13_DpOS14_ = comdat any

$_ZNSt14_Function_base13_Base_managerIZN5Eigen20CoreThreadPoolDevice15parallelForImplINS1_8internal33dense_assignment_loop_with_deviceINS4_31generic_dense_assignment_kernelINS4_9evaluatorINS1_5BlockINS1_6MatrixIfLi16ELi16ELi0ELi16ELi16EEELin1ELin1ELb0EEEEENS7_INS1_12CwiseUnaryOpINS4_15scalar_dummy_opIfLb0EEEKNS8_IKNSD_INS4_14scalar_abs2_opIfEEKSA_EELin1ELin1ELb0EEEEEEENS4_9assign_opIffEELi0EEES2_Li0ELi0EE17AssignmentFunctorELi1EEEvllllRT_RNS1_7BarrierEiEUlvE_E14_M_get_pointerERKSt9_Any_data = comdat any

$_ZSt13__invoke_implIvRZN5Eigen20CoreThreadPoolDevice15parallelForImplINS0_8internal33dense_assignment_loop_with_deviceINS3_31generic_dense_assignment_kernelINS3_9evaluatorINS0_5BlockINS0_6MatrixIfLi16ELi16ELi0ELi16ELi16EEELin1ELin1ELb0EEEEENS6_INS0_12CwiseUnaryOpINS3_15scalar_dummy_opIfLb0EEEKNS7_IKNSC_INS3_14scalar_abs2_opIfEEKS9_EELin1ELin1ELb0EEEEEEENS3_9assign_opIffEELi0EEES1_Li0ELi0EE17AssignmentFunctorELi1EEEvllllRT_RNS0_7BarrierEiEUlvE_JEEST_St14__invoke_otherOT0_DpOT1_ = comdat any

$_ZZN5Eigen20CoreThreadPoolDevice15parallelForImplINS_8internal33dense_assignment_loop_with_deviceINS2_31generic_dense_assignment_kernelINS2_9evaluatorINS_5BlockINS_6MatrixIfLi16ELi16ELi0ELi16ELi16EEELin1ELin1ELb0EEEEENS5_INS_12CwiseUnaryOpINS2_15scalar_dummy_opIfLb0EEEKNS6_IKNSB_INS2_14scalar_abs2_opIfEEKS8_EELin1ELin1ELb0EEEEEEENS2_9assign_opIffEELi0EEES0_Li0ELi0EE17AssignmentFunctorELi1EEEvllllRT_RNS_7BarrierEiENKUlvE_clEv = comdat any

$_ZNKSt9_Any_data9_M_accessIPZN5Eigen20CoreThreadPoolDevice15parallelForImplINS1_8internal33dense_assignment_loop_with_deviceINS4_31generic_dense_assignment_kernelINS4_9evaluatorINS1_5BlockINS1_6MatrixIfLi16ELi16ELi0ELi16ELi16EEELin1ELin1ELb0EEEEENS7_INS1_12CwiseUnaryOpINS4_15scalar_dummy_opIfLb0EEEKNS8_IKNSD_INS4_14scalar_abs2_opIfEEKSA_EELin1ELin1ELb0EEEEEEENS4_9assign_opIffEELi0EEES2_Li0ELi0EE17AssignmentFunctorELi1EEEvllllRT_RNS1_7BarrierEiEUlvE_EERKSU_v = comdat any

$_ZNSt14_Function_base13_Base_managerIZN5Eigen20CoreThreadPoolDevice15parallelForImplINS1_8internal33dense_assignment_loop_with_deviceINS4_31generic_dense_assignment_kernelINS4_9evaluatorINS1_5BlockINS1_6MatrixIfLi16ELi16ELi0ELi16ELi16EEELin1ELin1ELb0EEEEENS7_INS1_12CwiseUnaryOpINS4_15scalar_dummy_opIfLb0EEEKNS8_IKNSD_INS4_14scalar_abs2_opIfEEKSA_EELin1ELin1ELb0EEEEEEENS4_9assign_opIffEELi0EEES2_Li0ELi0EE17AssignmentFunctorELi1EEEvllllRT_RNS1_7BarrierEiEUlvE_E10_M_managerERSt9_Any_dataRKS10_St18_Manager_operation = comdat any

$_ZNSt14_Function_base13_Base_managerIZN5Eigen20CoreThreadPoolDevice15parallelForImplINS1_8internal33dense_assignment_loop_with_deviceINS4_31generic_dense_assignment_kernelINS4_9evaluatorINS1_5BlockINS1_6MatrixIfLi16ELi16ELi0ELi16ELi16EEELin1ELin1ELb0EEEEENS7_INS1_12CwiseUnaryOpINS4_15scalar_dummy_opIfLb0EEEKNS8_IKNSD_INS4_14scalar_abs2_opIfEEKSA_EELin1ELin1ELb0EEEEEEENS4_9assign_opIffEELi0EEES2_Li0ELi0EE17AssignmentFunctorELi1EEEvllllRT_RNS1_7BarrierEiEUlvE_E15_M_init_functorIRKSY_EEvRSt9_Any_dataOSU_ = comdat any

$_ZNSt14_Function_base13_Base_managerIZN5Eigen20CoreThreadPoolDevice15parallelForImplINS1_8internal33dense_assignment_loop_with_deviceINS4_31generic_dense_assignment_kernelINS4_9evaluatorINS1_5BlockINS1_6MatrixIfLi16ELi16ELi0ELi16ELi16EEELin1ELin1ELb0EEEEENS7_INS1_12CwiseUnaryOpINS4_15scalar_dummy_opIfLb0EEEKNS8_IKNSD_INS4_14scalar_abs2_opIfEEKSA_EELin1ELin1ELb0EEEEEEENS4_9assign_opIffEELi0EEES2_Li0ELi0EE17AssignmentFunctorELi1EEEvllllRT_RNS1_7BarrierEiEUlvE_E10_M_destroyERSt9_Any_dataSt17integral_constantIbLb0EE = comdat any

$_ZNSt14_Function_base13_Base_managerIZN5Eigen20CoreThreadPoolDevice15parallelForImplINS1_8internal33dense_assignment_loop_with_deviceINS4_31generic_dense_assignment_kernelINS4_9evaluatorINS1_5BlockINS1_6MatrixIfLi16ELi16ELi0ELi16ELi16EEELin1ELin1ELb0EEEEENS7_INS1_12CwiseUnaryOpINS4_15scalar_dummy_opIfLb0EEEKNS8_IKNSD_INS4_14scalar_abs2_opIfEEKSA_EELin1ELin1ELb0EEEEEEENS4_9assign_opIffEELi0EEES2_Li0ELi0EE17AssignmentFunctorELi1EEEvllllRT_RNS1_7BarrierEiEUlvE_E9_M_createIRKSY_EEvRSt9_Any_dataOSU_St17integral_constantIbLb0EE = comdat any

$_ZNSt14_Function_base13_Base_managerIZN5Eigen20CoreThreadPoolDevice15parallelForImplINS1_8internal33dense_assignment_loop_with_deviceINS4_31generic_dense_assignment_kernelINS4_9evaluatorINS1_5BlockINS1_6MatrixIfLi16ELi16ELi0ELi16ELi16EEELin1ELin1ELb0EEEEENS7_INS1_12CwiseUnaryOpINS4_15scalar_dummy_opIfLb0EEEKNS8_IKNSD_INS4_14scalar_abs2_opIfEEKSA_EELin1ELin1ELb0EEEEEEENS4_9assign_opIffEELi0EEES2_Li0ELi0EE17AssignmentFunctorELi1EEEvllllRT_RNS1_7BarrierEiEUlvE0_E21_M_not_empty_functionISY_EEbRKSU_ = comdat any

$_ZNSt14_Function_base13_Base_managerIZN5Eigen20CoreThreadPoolDevice15parallelForImplINS1_8internal33dense_assignment_loop_with_deviceINS4_31generic_dense_assignment_kernelINS4_9evaluatorINS1_5BlockINS1_6MatrixIfLi16ELi16ELi0ELi16ELi16EEELin1ELin1ELb0EEEEENS7_INS1_12CwiseUnaryOpINS4_15scalar_dummy_opIfLb0EEEKNS8_IKNSD_INS4_14scalar_abs2_opIfEEKSA_EELin1ELin1ELb0EEEEEEENS4_9assign_opIffEELi0EEES2_Li0ELi0EE17AssignmentFunctorELi1EEEvllllRT_RNS1_7BarrierEiEUlvE0_E15_M_init_functorISY_EEvRSt9_Any_dataOSU_ = comdat any

$_ZNSt17_Function_handlerIFvvEZN5Eigen20CoreThreadPoolDevice15parallelForImplINS1_8internal33dense_assignment_loop_with_deviceINS4_31generic_dense_assignment_kernelINS4_9evaluatorINS1_5BlockINS1_6MatrixIfLi16ELi16ELi0ELi16ELi16EEELin1ELin1ELb0EEEEENS7_INS1_12CwiseUnaryOpINS4_15scalar_dummy_opIfLb0EEEKNS8_IKNSD_INS4_14scalar_abs2_opIfEEKSA_EELin1ELin1ELb0EEEEEEENS4_9assign_opIffEELi0EEES2_Li0ELi0EE17AssignmentFunctorELi1EEEvllllRT_RNS1_7BarrierEiEUlvE0_E9_M_invokeERKSt9_Any_data = comdat any

$_ZNSt17_Function_handlerIFvvEZN5Eigen20CoreThreadPoolDevice15parallelForImplINS1_8internal33dense_assignment_loop_with_deviceINS4_31generic_dense_assignment_kernelINS4_9evaluatorINS1_5BlockINS1_6MatrixIfLi16ELi16ELi0ELi16ELi16EEELin1ELin1ELb0EEEEENS7_INS1_12CwiseUnaryOpINS4_15scalar_dummy_opIfLb0EEEKNS8_IKNSD_INS4_14scalar_abs2_opIfEEKSA_EELin1ELin1ELb0EEEEEEENS4_9assign_opIffEELi0EEES2_Li0ELi0EE17AssignmentFunctorELi1EEEvllllRT_RNS1_7BarrierEiEUlvE0_E10_M_managerERSt9_Any_dataRKS10_St18_Manager_operation = comdat any

$_ZNSt14_Function_base13_Base_managerIZN5Eigen20CoreThreadPoolDevice15parallelForImplINS1_8internal33dense_assignment_loop_with_deviceINS4_31generic_dense_assignment_kernelINS4_9evaluatorINS1_5BlockINS1_6MatrixIfLi16ELi16ELi0ELi16ELi16EEELin1ELin1ELb0EEEEENS7_INS1_12CwiseUnaryOpINS4_15scalar_dummy_opIfLb0EEEKNS8_IKNSD_INS4_14scalar_abs2_opIfEEKSA_EELin1ELin1ELb0EEEEEEENS4_9assign_opIffEELi0EEES2_Li0ELi0EE17AssignmentFunctorELi1EEEvllllRT_RNS1_7BarrierEiEUlvE0_E9_M_createISY_EEvRSt9_Any_dataOSU_St17integral_constantIbLb0EE = comdat any

$_ZNSt9_Any_data9_M_accessIPZN5Eigen20CoreThreadPoolDevice15parallelForImplINS1_8internal33dense_assignment_loop_with_deviceINS4_31generic_dense_assignment_kernelINS4_9evaluatorINS1_5BlockINS1_6MatrixIfLi16ELi16ELi0ELi16ELi16EEELin1ELin1ELb0EEEEENS7_INS1_12CwiseUnaryOpINS4_15scalar_dummy_opIfLb0EEEKNS8_IKNSD_INS4_14scalar_abs2_opIfEEKSA_EELin1ELin1ELb0EEEEEEENS4_9assign_opIffEELi0EEES2_Li0ELi0EE17AssignmentFunctorELi1EEEvllllRT_RNS1_7BarrierEiEUlvE0_EESV_v = comdat any

$_ZSt10__invoke_rIvRZN5Eigen20CoreThreadPoolDevice15parallelForImplINS0_8internal33dense_assignment_loop_with_deviceINS3_31generic_dense_assignment_kernelINS3_9evaluatorINS0_5BlockINS0_6MatrixIfLi16ELi16ELi0ELi16ELi16EEELin1ELin1ELb0EEEEENS6_INS0_12CwiseUnaryOpINS3_15scalar_dummy_opIfLb0EEEKNS7_IKNSC_INS3_14scalar_abs2_opIfEEKS9_EELin1ELin1ELb0EEEEEEENS3_9assign_opIffEELi0EEES1_Li0ELi0EE17AssignmentFunctorELi1EEEvllllRT_RNS0_7BarrierEiEUlvE0_JEENSt9enable_ifIXsr6__and_ISt7is_voidIST_ESt14__is_invocableIT0_JDpT1_EEEE5valueEST_E4typeEOS13_DpOS14_ = comdat any

$_ZNSt14_Function_base13_Base_managerIZN5Eigen20CoreThreadPoolDevice15parallelForImplINS1_8internal33dense_assignment_loop_with_deviceINS4_31generic_dense_assignment_kernelINS4_9evaluatorINS1_5BlockINS1_6MatrixIfLi16ELi16ELi0ELi16ELi16EEELin1ELin1ELb0EEEEENS7_INS1_12CwiseUnaryOpINS4_15scalar_dummy_opIfLb0EEEKNS8_IKNSD_INS4_14scalar_abs2_opIfEEKSA_EELin1ELin1ELb0EEEEEEENS4_9assign_opIffEELi0EEES2_Li0ELi0EE17AssignmentFunctorELi1EEEvllllRT_RNS1_7BarrierEiEUlvE0_E14_M_get_pointerERKSt9_Any_data = comdat any

$_ZSt13__invoke_implIvRZN5Eigen20CoreThreadPoolDevice15parallelForImplINS0_8internal33dense_assignment_loop_with_deviceINS3_31generic_dense_assignment_kernelINS3_9evaluatorINS0_5BlockINS0_6MatrixIfLi16ELi16ELi0ELi16ELi16EEELin1ELin1ELb0EEEEENS6_INS0_12CwiseUnaryOpINS3_15scalar_dummy_opIfLb0EEEKNS7_IKNSC_INS3_14scalar_abs2_opIfEEKS9_EELin1ELin1ELb0EEEEEEENS3_9assign_opIffEELi0EEES1_Li0ELi0EE17AssignmentFunctorELi1EEEvllllRT_RNS0_7BarrierEiEUlvE0_JEEST_St14__invoke_otherOT0_DpOT1_ = comdat any

$_ZZN5Eigen20CoreThreadPoolDevice15parallelForImplINS_8internal33dense_assignment_loop_with_deviceINS2_31generic_dense_assignment_kernelINS2_9evaluatorINS_5BlockINS_6MatrixIfLi16ELi16ELi0ELi16ELi16EEELin1ELin1ELb0EEEEENS5_INS_12CwiseUnaryOpINS2_15scalar_dummy_opIfLb0EEEKNS6_IKNSB_INS2_14scalar_abs2_opIfEEKS8_EELin1ELin1ELb0EEEEEEENS2_9assign_opIffEELi0EEES0_Li0ELi0EE17AssignmentFunctorELi1EEEvllllRT_RNS_7BarrierEiENKUlvE0_clEv = comdat any

$_ZNKSt9_Any_data9_M_accessIPZN5Eigen20CoreThreadPoolDevice15parallelForImplINS1_8internal33dense_assignment_loop_with_deviceINS4_31generic_dense_assignment_kernelINS4_9evaluatorINS1_5BlockINS1_6MatrixIfLi16ELi16ELi0ELi16ELi16EEELin1ELin1ELb0EEEEENS7_INS1_12CwiseUnaryOpINS4_15scalar_dummy_opIfLb0EEEKNS8_IKNSD_INS4_14scalar_abs2_opIfEEKSA_EELin1ELin1ELb0EEEEEEENS4_9assign_opIffEELi0EEES2_Li0ELi0EE17AssignmentFunctorELi1EEEvllllRT_RNS1_7BarrierEiEUlvE0_EERKSU_v = comdat any

$_ZNSt14_Function_base13_Base_managerIZN5Eigen20CoreThreadPoolDevice15parallelForImplINS1_8internal33dense_assignment_loop_with_deviceINS4_31generic_dense_assignment_kernelINS4_9evaluatorINS1_5BlockINS1_6MatrixIfLi16ELi16ELi0ELi16ELi16EEELin1ELin1ELb0EEEEENS7_INS1_12CwiseUnaryOpINS4_15scalar_dummy_opIfLb0EEEKNS8_IKNSD_INS4_14scalar_abs2_opIfEEKSA_EELin1ELin1ELb0EEEEEEENS4_9assign_opIffEELi0EEES2_Li0ELi0EE17AssignmentFunctorELi1EEEvllllRT_RNS1_7BarrierEiEUlvE0_E10_M_managerERSt9_Any_dataRKS10_St18_Manager_operation = comdat any

$_ZNSt14_Function_base13_Base_managerIZN5Eigen20CoreThreadPoolDevice15parallelForImplINS1_8internal33dense_assignment_loop_with_deviceINS4_31generic_dense_assignment_kernelINS4_9evaluatorINS1_5BlockINS1_6MatrixIfLi16ELi16ELi0ELi16ELi16EEELin1ELin1ELb0EEEEENS7_INS1_12CwiseUnaryOpINS4_15scalar_dummy_opIfLb0EEEKNS8_IKNSD_INS4_14scalar_abs2_opIfEEKSA_EELin1ELin1ELb0EEEEEEENS4_9assign_opIffEELi0EEES2_Li0ELi0EE17AssignmentFunctorELi1EEEvllllRT_RNS1_7BarrierEiEUlvE0_E15_M_init_functorIRKSY_EEvRSt9_Any_dataOSU_ = comdat any

$_ZNSt14_Function_base13_Base_managerIZN5Eigen20CoreThreadPoolDevice15parallelForImplINS1_8internal33dense_assignment_loop_with_deviceINS4_31generic_dense_assignment_kernelINS4_9evaluatorINS1_5BlockINS1_6MatrixIfLi16ELi16ELi0ELi16ELi16EEELin1ELin1ELb0EEEEENS7_INS1_12CwiseUnaryOpINS4_15scalar_dummy_opIfLb0EEEKNS8_IKNSD_INS4_14scalar_abs2_opIfEEKSA_EELin1ELin1ELb0EEEEEEENS4_9assign_opIffEELi0EEES2_Li0ELi0EE17AssignmentFunctorELi1EEEvllllRT_RNS1_7BarrierEiEUlvE0_E10_M_destroyERSt9_Any_dataSt17integral_constantIbLb0EE = comdat any

$_ZNSt14_Function_base13_Base_managerIZN5Eigen20CoreThreadPoolDevice15parallelForImplINS1_8internal33dense_assignment_loop_with_deviceINS4_31generic_dense_assignment_kernelINS4_9evaluatorINS1_5BlockINS1_6MatrixIfLi16ELi16ELi0ELi16ELi16EEELin1ELin1ELb0EEEEENS7_INS1_12CwiseUnaryOpINS4_15scalar_dummy_opIfLb0EEEKNS8_IKNSD_INS4_14scalar_abs2_opIfEEKSA_EELin1ELin1ELb0EEEEEEENS4_9assign_opIffEELi0EEES2_Li0ELi0EE17AssignmentFunctorELi1EEEvllllRT_RNS1_7BarrierEiEUlvE0_E9_M_createIRKSY_EEvRSt9_Any_dataOSU_St17integral_constantIbLb0EE = comdat any

$_ZN5Eigen18test_isCwiseApproxINS_5BlockINS_6MatrixIfLi16ELi16ELi0ELi16ELi16EEELin1ELin1ELb0EEES4_EEbRKNS_9DenseBaseIT_EERKNS5_IT0_EEb = comdat any

$_ZN5Eigen18get_test_precisionINS_5BlockINS_6MatrixIfLi16ELi16ELi0ELi16ELi16EEELin1ELin1ELb0EEEEENS_9NumTraitsINT_6ScalarEE4RealERKS6_PKS7_ = comdat any

$_ZN5Eigen19test_relative_errorINS_5BlockINS_6MatrixIfLi16ELi16ELi0ELi16ELi16EEELin1ELin1ELb0EEES4_EENS_9NumTraitsINT_10RealScalarEE10NonIntegerERKNS_9EigenBaseIS6_EERKNSA_IT0_EE = comdat any

$_ZNK5Eigen15DenseCoeffsBaseINS_5BlockINS_6MatrixIfLi16ELi16ELi0ELi16ELi16EEELin1ELin1ELb0EEELi0EEclEll = comdat any

$_ZNK5Eigen15DenseCoeffsBaseINS_5BlockINS_6MatrixIfLi16ELi16ELi0ELi16ELi16EEELin1ELin1ELb0EEELi0EE5coeffEll = comdat any

$_ZNK5Eigen8internal17mapbase_evaluatorINS_5BlockINS_6MatrixIfLi16ELi16ELi0ELi16ELi16EEELin1ELin1ELb0EEENS3_IfLin1ELin1ELi0ELi16ELi16EEEE5coeffEll = comdat any

$_ZNK5Eigen10MatrixBaseINS_5BlockINS_6MatrixIfLi16ELi16ELi0ELi16ELi16EEELin1ELin1ELb0EEEE6matrixEv = comdat any

$_ZNK5Eigen10MatrixBaseINS_5BlockINS_6MatrixIfLi16ELi16ELi0ELi16ELi16EEELin1ELin1ELb0EEEEmiIS4_EEKNS_13CwiseBinaryOpINS_8internal20scalar_difference_opIfNS8_6traitsIT_E6ScalarEEEKS4_KSB_EERKNS0_ISB_EE = comdat any

$_ZNK5Eigen10MatrixBaseINS_13CwiseBinaryOpINS_8internal20scalar_difference_opIffEEKNS_5BlockINS_6MatrixIfLi16ELi16ELi0ELi16ELi16EEELin1ELin1ELb0EEES9_EEE9cwiseAbs2Ev = comdat any

$_ZNK5Eigen9DenseBaseINS_12CwiseUnaryOpINS_8internal14scalar_abs2_opIfEEKNS_13CwiseBinaryOpINS2_20scalar_difference_opIffEEKNS_5BlockINS_6MatrixIfLi16ELi16ELi0ELi16ELi16EEELin1ELin1ELb0EEESC_EEEEE3sumEv = comdat any

$_ZNK5Eigen10MatrixBaseINS_5BlockINS_6MatrixIfLi16ELi16ELi0ELi16ELi16EEELin1ELin1ELb0EEEE9cwiseAbs2Ev = comdat any

$_ZNK5Eigen9DenseBaseINS_12CwiseUnaryOpINS_8internal14scalar_abs2_opIfEEKNS_5BlockINS_6MatrixIfLi16ELi16ELi0ELi16ELi16EEELin1ELin1ELb0EEEEEE3sumEv = comdat any

$_ZN5Eigen13CwiseBinaryOpINS_8internal20scalar_difference_opIffEEKNS_5BlockINS_6MatrixIfLi16ELi16ELi0ELi16ELi16EEELin1ELin1ELb0EEES8_EC2ERS8_SA_RKS3_ = comdat any

$_ZN5Eigen17CwiseBinaryOpImplINS_8internal20scalar_difference_opIffEEKNS_5BlockINS_6MatrixIfLi16ELi16ELi0ELi16ELi16EEELin1ELin1ELb0EEES8_NS_5DenseEEC2Ev = comdat any

$_ZN5Eigen10MatrixBaseINS_13CwiseBinaryOpINS_8internal20scalar_difference_opIffEEKNS_5BlockINS_6MatrixIfLi16ELi16ELi0ELi16ELi16EEELin1ELin1ELb0EEES9_EEEC2Ev = comdat any

$_ZN5Eigen9DenseBaseINS_13CwiseBinaryOpINS_8internal20scalar_difference_opIffEEKNS_5BlockINS_6MatrixIfLi16ELi16ELi0ELi16ELi16EEELin1ELin1ELb0EEES9_EEEC2Ev = comdat any

$_ZNK5Eigen9EigenBaseINS_13CwiseBinaryOpINS_8internal20scalar_difference_opIffEEKNS_5BlockINS_6MatrixIfLi16ELi16ELi0ELi16ELi16EEELin1ELin1ELb0EEES9_EEE7derivedEv = comdat any

$_ZN5Eigen12CwiseUnaryOpINS_8internal14scalar_abs2_opIfEEKNS_13CwiseBinaryOpINS1_20scalar_difference_opIffEEKNS_5BlockINS_6MatrixIfLi16ELi16ELi0ELi16ELi16EEELin1ELin1ELb0EEESB_EEEC2ERSD_RKS3_ = comdat any

$_ZN5Eigen16CwiseUnaryOpImplINS_8internal14scalar_abs2_opIfEEKNS_13CwiseBinaryOpINS1_20scalar_difference_opIffEEKNS_5BlockINS_6MatrixIfLi16ELi16ELi0ELi16ELi16EEELin1ELin1ELb0EEESB_EENS_5DenseEEC2Ev = comdat any

$_ZN5Eigen10MatrixBaseINS_12CwiseUnaryOpINS_8internal14scalar_abs2_opIfEEKNS_13CwiseBinaryOpINS2_20scalar_difference_opIffEEKNS_5BlockINS_6MatrixIfLi16ELi16ELi0ELi16ELi16EEELin1ELin1ELb0EEESC_EEEEEC2Ev = comdat any

$_ZN5Eigen9DenseBaseINS_12CwiseUnaryOpINS_8internal14scalar_abs2_opIfEEKNS_13CwiseBinaryOpINS2_20scalar_difference_opIffEEKNS_5BlockINS_6MatrixIfLi16ELi16ELi0ELi16ELi16EEELin1ELin1ELb0EEESC_EEEEEC2Ev = comdat any

$_ZNK5Eigen9EigenBaseINS_12CwiseUnaryOpINS_8internal14scalar_abs2_opIfEEKNS_13CwiseBinaryOpINS2_20scalar_difference_opIffEEKNS_5BlockINS_6MatrixIfLi16ELi16ELi0ELi16ELi16EEELin1ELin1ELb0EEESC_EEEEE4sizeEv = comdat any

$_ZNK5Eigen9EigenBaseINS_12CwiseUnaryOpINS_8internal14scalar_abs2_opIfEEKNS_13CwiseBinaryOpINS2_20scalar_difference_opIffEEKNS_5BlockINS_6MatrixIfLi16ELi16ELi0ELi16ELi16EEELin1ELin1ELb0EEESC_EEEEE7derivedEv = comdat any

$_ZNK5Eigen9DenseBaseINS_12CwiseUnaryOpINS_8internal14scalar_abs2_opIfEEKNS_13CwiseBinaryOpINS2_20scalar_difference_opIffEEKNS_5BlockINS_6MatrixIfLi16ELi16ELi0ELi16ELi16EEELin1ELin1ELb0EEESC_EEEEE5reduxINS2_13scalar_sum_opIffEEEEfRKT_ = comdat any

$_ZNK5Eigen9EigenBaseINS_12CwiseUnaryOpINS_8internal14scalar_abs2_opIfEEKNS_13CwiseBinaryOpINS2_20scalar_difference_opIffEEKNS_5BlockINS_6MatrixIfLi16ELi16ELi0ELi16ELi16EEELin1ELin1ELb0EEESC_EEEEE4rowsEv = comdat any

$_ZNK5Eigen9EigenBaseINS_12CwiseUnaryOpINS_8internal14scalar_abs2_opIfEEKNS_13CwiseBinaryOpINS2_20scalar_difference_opIffEEKNS_5BlockINS_6MatrixIfLi16ELi16ELi0ELi16ELi16EEELin1ELin1ELb0EEESC_EEEEE4colsEv = comdat any

$_ZNK5Eigen12CwiseUnaryOpINS_8internal14scalar_abs2_opIfEEKNS_13CwiseBinaryOpINS1_20scalar_difference_opIffEEKNS_5BlockINS_6MatrixIfLi16ELi16ELi0ELi16ELi16EEELin1ELin1ELb0EEESB_EEE4rowsEv = comdat any

$_ZNK5Eigen13CwiseBinaryOpINS_8internal20scalar_difference_opIffEEKNS_5BlockINS_6MatrixIfLi16ELi16ELi0ELi16ELi16EEELin1ELin1ELb0EEES8_E4rowsEv = comdat any

$_ZNK5Eigen12CwiseUnaryOpINS_8internal14scalar_abs2_opIfEEKNS_13CwiseBinaryOpINS1_20scalar_difference_opIffEEKNS_5BlockINS_6MatrixIfLi16ELi16ELi0ELi16ELi16EEELin1ELin1ELb0EEESB_EEE4colsEv = comdat any

$_ZNK5Eigen13CwiseBinaryOpINS_8internal20scalar_difference_opIffEEKNS_5BlockINS_6MatrixIfLi16ELi16ELi0ELi16ELi16EEELin1ELin1ELb0EEES8_E4colsEv = comdat any

$_ZN5Eigen8internal15redux_evaluatorINS_12CwiseUnaryOpINS0_14scalar_abs2_opIfEEKNS_13CwiseBinaryOpINS0_20scalar_difference_opIffEEKNS_5BlockINS_6MatrixIfLi16ELi16ELi0ELi16ELi16EEELin1ELin1ELb0EEESC_EEEEEC2ERKSF_ = comdat any

$_ZN5Eigen8internal10redux_implINS0_13scalar_sum_opIffEENS0_15redux_evaluatorINS_12CwiseUnaryOpINS0_14scalar_abs2_opIfEEKNS_13CwiseBinaryOpINS0_20scalar_difference_opIffEEKNS_5BlockINS_6MatrixIfLi16ELi16ELi0ELi16ELi16EEELin1ELin1ELb0EEESF_EEEEEELi4ELi0EE3runISI_EEfRKSJ_RKS3_RKT_ = comdat any

$_ZN5Eigen8internal9evaluatorINS_12CwiseUnaryOpINS0_14scalar_abs2_opIfEEKNS_13CwiseBinaryOpINS0_20scalar_difference_opIffEEKNS_5BlockINS_6MatrixIfLi16ELi16ELi0ELi16ELi16EEELin1ELin1ELb0EEESC_EEEEEC2ERKSF_ = comdat any

$_ZN5Eigen8internal15unary_evaluatorINS_12CwiseUnaryOpINS0_14scalar_abs2_opIfEEKNS_13CwiseBinaryOpINS0_20scalar_difference_opIffEEKNS_5BlockINS_6MatrixIfLi16ELi16ELi0ELi16ELi16EEELin1ELin1ELb0EEESC_EEEENS0_10IndexBasedEfEC2ERKSF_ = comdat any

$_ZN5Eigen8internal15unary_evaluatorINS_12CwiseUnaryOpINS0_14scalar_abs2_opIfEEKNS_13CwiseBinaryOpINS0_20scalar_difference_opIffEEKNS_5BlockINS_6MatrixIfLi16ELi16ELi0ELi16ELi16EEELin1ELin1ELb0EEESC_EEEENS0_10IndexBasedEfE4DataC2ERKSF_ = comdat any

$_ZNK5Eigen12CwiseUnaryOpINS_8internal14scalar_abs2_opIfEEKNS_13CwiseBinaryOpINS1_20scalar_difference_opIffEEKNS_5BlockINS_6MatrixIfLi16ELi16ELi0ELi16ELi16EEELin1ELin1ELb0EEESB_EEE7functorEv = comdat any

$_ZNK5Eigen12CwiseUnaryOpINS_8internal14scalar_abs2_opIfEEKNS_13CwiseBinaryOpINS1_20scalar_difference_opIffEEKNS_5BlockINS_6MatrixIfLi16ELi16ELi0ELi16ELi16EEELin1ELin1ELb0EEESB_EEE16nestedExpressionEv = comdat any

$_ZN5Eigen8internal9evaluatorIKNS_13CwiseBinaryOpINS0_20scalar_difference_opIffEEKNS_5BlockINS_6MatrixIfLi16ELi16ELi0ELi16ELi16EEELin1ELin1ELb0EEES9_EEEC2ERSB_ = comdat any

$_ZN5Eigen8internal9evaluatorINS_13CwiseBinaryOpINS0_20scalar_difference_opIffEEKNS_5BlockINS_6MatrixIfLi16ELi16ELi0ELi16ELi16EEELin1ELin1ELb0EEES9_EEEC2ERKSA_ = comdat any

$_ZN5Eigen8internal16binary_evaluatorINS_13CwiseBinaryOpINS0_20scalar_difference_opIffEEKNS_5BlockINS_6MatrixIfLi16ELi16ELi0ELi16ELi16EEELin1ELin1ELb0EEES9_EENS0_10IndexBasedESB_ffEC2ERKSA_ = comdat any

$_ZN5Eigen8internal16binary_evaluatorINS_13CwiseBinaryOpINS0_20scalar_difference_opIffEEKNS_5BlockINS_6MatrixIfLi16ELi16ELi0ELi16ELi16EEELin1ELin1ELb0EEES9_EENS0_10IndexBasedESB_ffE4DataC2ERKSA_ = comdat any

$_ZNK5Eigen13CwiseBinaryOpINS_8internal20scalar_difference_opIffEEKNS_5BlockINS_6MatrixIfLi16ELi16ELi0ELi16ELi16EEELin1ELin1ELb0EEES8_E7functorEv = comdat any

$_ZNK5Eigen13CwiseBinaryOpINS_8internal20scalar_difference_opIffEEKNS_5BlockINS_6MatrixIfLi16ELi16ELi0ELi16ELi16EEELin1ELin1ELb0EEES8_E3lhsEv = comdat any

$_ZN5Eigen8internal9evaluatorIKNS_5BlockINS_6MatrixIfLi16ELi16ELi0ELi16ELi16EEELin1ELin1ELb0EEEEC2ERS6_ = comdat any

$_ZNK5Eigen13CwiseBinaryOpINS_8internal20scalar_difference_opIffEEKNS_5BlockINS_6MatrixIfLi16ELi16ELi0ELi16ELi16EEELin1ELin1ELb0EEES8_E3rhsEv = comdat any

$_ZNK5Eigen9DenseBaseINS_12CwiseUnaryOpINS_8internal14scalar_abs2_opIfEEKNS_13CwiseBinaryOpINS2_20scalar_difference_opIffEEKNS_5BlockINS_6MatrixIfLi16ELi16ELi0ELi16ELi16EEELin1ELin1ELb0EEESC_EEEEE9innerSizeEv = comdat any

$_ZNK5Eigen9DenseBaseINS_12CwiseUnaryOpINS_8internal14scalar_abs2_opIfEEKNS_13CwiseBinaryOpINS2_20scalar_difference_opIffEEKNS_5BlockINS_6MatrixIfLi16ELi16ELi0ELi16ELi16EEELin1ELin1ELb0EEESC_EEEEE9outerSizeEv = comdat any

$_ZNK5Eigen8internal15unary_evaluatorINS_12CwiseUnaryOpINS0_14scalar_abs2_opIfEEKNS_13CwiseBinaryOpINS0_20scalar_difference_opIffEEKNS_5BlockINS_6MatrixIfLi16ELi16ELi0ELi16ELi16EEELin1ELin1ELb0EEESC_EEEENS0_10IndexBasedEfE6packetILi0EDv4_fEET0_ll = comdat any

$_ZNK5Eigen8internal15redux_evaluatorINS_12CwiseUnaryOpINS0_14scalar_abs2_opIfEEKNS_13CwiseBinaryOpINS0_20scalar_difference_opIffEEKNS_5BlockINS_6MatrixIfLi16ELi16ELi0ELi16ELi16EEELin1ELin1ELb0EEESC_EEEEE18packetByOuterInnerILi0EDv4_fEET0_ll = comdat any

$_ZNK5Eigen8internal15redux_evaluatorINS_12CwiseUnaryOpINS0_14scalar_abs2_opIfEEKNS_13CwiseBinaryOpINS0_20scalar_difference_opIffEEKNS_5BlockINS_6MatrixIfLi16ELi16ELi0ELi16ELi16EEELin1ELin1ELb0EEESC_EEEEE17coeffByOuterInnerEll = comdat any

$_ZN5Eigen8internal10redux_implINS0_13scalar_sum_opIffEENS0_15redux_evaluatorINS_12CwiseUnaryOpINS0_14scalar_abs2_opIfEEKNS_13CwiseBinaryOpINS0_20scalar_difference_opIffEEKNS_5BlockINS_6MatrixIfLi16ELi16ELi0ELi16ELi16EEELin1ELin1ELb0EEESF_EEEEEELi0ELi0EE3runISI_EEfRKSJ_RKS3_RKT_ = comdat any

$_ZNK5Eigen8internal15unary_evaluatorINS_12CwiseUnaryOpINS0_14scalar_abs2_opIfEEKNS_13CwiseBinaryOpINS0_20scalar_difference_opIffEEKNS_5BlockINS_6MatrixIfLi16ELi16ELi0ELi16ELi16EEELin1ELin1ELb0EEESC_EEEENS0_10IndexBasedEfE4Data4funcEv = comdat any

$_ZNK5Eigen8internal16binary_evaluatorINS_13CwiseBinaryOpINS0_20scalar_difference_opIffEEKNS_5BlockINS_6MatrixIfLi16ELi16ELi0ELi16ELi16EEELin1ELin1ELb0EEES9_EENS0_10IndexBasedESB_ffE6packetILi0EDv4_fEET0_ll = comdat any

$_ZNK5Eigen8internal16binary_evaluatorINS_13CwiseBinaryOpINS0_20scalar_difference_opIffEEKNS_5BlockINS_6MatrixIfLi16ELi16ELi0ELi16ELi16EEELin1ELin1ELb0EEES9_EENS0_10IndexBasedESB_ffE4Data4funcEv = comdat any

$_ZNK5Eigen8internal17mapbase_evaluatorINS_5BlockINS_6MatrixIfLi16ELi16ELi0ELi16ELi16EEELin1ELin1ELb0EEENS3_IfLin1ELin1ELi0ELi16ELi16EEEE6packetILi0EDv4_fEET0_ll = comdat any

$_ZNK5Eigen8internal15unary_evaluatorINS_12CwiseUnaryOpINS0_14scalar_abs2_opIfEEKNS_13CwiseBinaryOpINS0_20scalar_difference_opIffEEKNS_5BlockINS_6MatrixIfLi16ELi16ELi0ELi16ELi16EEELin1ELin1ELb0EEESC_EEEENS0_10IndexBasedEfE5coeffEll = comdat any

$_ZNK5Eigen8internal16binary_evaluatorINS_13CwiseBinaryOpINS0_20scalar_difference_opIffEEKNS_5BlockINS_6MatrixIfLi16ELi16ELi0ELi16ELi16EEELin1ELin1ELb0EEES9_EENS0_10IndexBasedESB_ffE5coeffEll = comdat any

$_ZN5Eigen12CwiseUnaryOpINS_8internal14scalar_abs2_opIfEEKNS_5BlockINS_6MatrixIfLi16ELi16ELi0ELi16ELi16EEELin1ELin1ELb0EEEEC2ERS8_RKS3_ = comdat any

$_ZN5Eigen16CwiseUnaryOpImplINS_8internal14scalar_abs2_opIfEEKNS_5BlockINS_6MatrixIfLi16ELi16ELi0ELi16ELi16EEELin1ELin1ELb0EEENS_5DenseEEC2Ev = comdat any

$_ZN5Eigen10MatrixBaseINS_12CwiseUnaryOpINS_8internal14scalar_abs2_opIfEEKNS_5BlockINS_6MatrixIfLi16ELi16ELi0ELi16ELi16EEELin1ELin1ELb0EEEEEEC2Ev = comdat any

$_ZN5Eigen9DenseBaseINS_12CwiseUnaryOpINS_8internal14scalar_abs2_opIfEEKNS_5BlockINS_6MatrixIfLi16ELi16ELi0ELi16ELi16EEELin1ELin1ELb0EEEEEEC2Ev = comdat any

$_ZNK5Eigen9EigenBaseINS_12CwiseUnaryOpINS_8internal14scalar_abs2_opIfEEKNS_5BlockINS_6MatrixIfLi16ELi16ELi0ELi16ELi16EEELin1ELin1ELb0EEEEEE4sizeEv = comdat any

$_ZNK5Eigen9EigenBaseINS_12CwiseUnaryOpINS_8internal14scalar_abs2_opIfEEKNS_5BlockINS_6MatrixIfLi16ELi16ELi0ELi16ELi16EEELin1ELin1ELb0EEEEEE7derivedEv = comdat any

$_ZNK5Eigen9DenseBaseINS_12CwiseUnaryOpINS_8internal14scalar_abs2_opIfEEKNS_5BlockINS_6MatrixIfLi16ELi16ELi0ELi16ELi16EEELin1ELin1ELb0EEEEEE5reduxINS2_13scalar_sum_opIffEEEEfRKT_ = comdat any

$_ZNK5Eigen9EigenBaseINS_12CwiseUnaryOpINS_8internal14scalar_abs2_opIfEEKNS_5BlockINS_6MatrixIfLi16ELi16ELi0ELi16ELi16EEELin1ELin1ELb0EEEEEE4rowsEv = comdat any

$_ZNK5Eigen9EigenBaseINS_12CwiseUnaryOpINS_8internal14scalar_abs2_opIfEEKNS_5BlockINS_6MatrixIfLi16ELi16ELi0ELi16ELi16EEELin1ELin1ELb0EEEEEE4colsEv = comdat any

$_ZNK5Eigen12CwiseUnaryOpINS_8internal14scalar_abs2_opIfEEKNS_5BlockINS_6MatrixIfLi16ELi16ELi0ELi16ELi16EEELin1ELin1ELb0EEEE4rowsEv = comdat any

$_ZNK5Eigen12CwiseUnaryOpINS_8internal14scalar_abs2_opIfEEKNS_5BlockINS_6MatrixIfLi16ELi16ELi0ELi16ELi16EEELin1ELin1ELb0EEEE4colsEv = comdat any

$_ZN5Eigen8internal15redux_evaluatorINS_12CwiseUnaryOpINS0_14scalar_abs2_opIfEEKNS_5BlockINS_6MatrixIfLi16ELi16ELi0ELi16ELi16EEELin1ELin1ELb0EEEEEEC2ERKSA_ = comdat any

$_ZN5Eigen8internal10redux_implINS0_13scalar_sum_opIffEENS0_15redux_evaluatorINS_12CwiseUnaryOpINS0_14scalar_abs2_opIfEEKNS_5BlockINS_6MatrixIfLi16ELi16ELi0ELi16ELi16EEELin1ELin1ELb0EEEEEEELi4ELi0EE3runISD_EEfRKSE_RKS3_RKT_ = comdat any

$_ZN5Eigen8internal9evaluatorINS_12CwiseUnaryOpINS0_14scalar_abs2_opIfEEKNS_5BlockINS_6MatrixIfLi16ELi16ELi0ELi16ELi16EEELin1ELin1ELb0EEEEEEC2ERKSA_ = comdat any

$_ZN5Eigen8internal15unary_evaluatorINS_12CwiseUnaryOpINS0_14scalar_abs2_opIfEEKNS_5BlockINS_6MatrixIfLi16ELi16ELi0ELi16ELi16EEELin1ELin1ELb0EEEEENS0_10IndexBasedEfEC2ERKSA_ = comdat any

$_ZN5Eigen8internal15unary_evaluatorINS_12CwiseUnaryOpINS0_14scalar_abs2_opIfEEKNS_5BlockINS_6MatrixIfLi16ELi16ELi0ELi16ELi16EEELin1ELin1ELb0EEEEENS0_10IndexBasedEfE4DataC2ERKSA_ = comdat any

$_ZNK5Eigen12CwiseUnaryOpINS_8internal14scalar_abs2_opIfEEKNS_5BlockINS_6MatrixIfLi16ELi16ELi0ELi16ELi16EEELin1ELin1ELb0EEEE7functorEv = comdat any

$_ZNK5Eigen12CwiseUnaryOpINS_8internal14scalar_abs2_opIfEEKNS_5BlockINS_6MatrixIfLi16ELi16ELi0ELi16ELi16EEELin1ELin1ELb0EEEE16nestedExpressionEv = comdat any

$_ZNK5Eigen9DenseBaseINS_12CwiseUnaryOpINS_8internal14scalar_abs2_opIfEEKNS_5BlockINS_6MatrixIfLi16ELi16ELi0ELi16ELi16EEELin1ELin1ELb0EEEEEE9innerSizeEv = comdat any

$_ZNK5Eigen9DenseBaseINS_12CwiseUnaryOpINS_8internal14scalar_abs2_opIfEEKNS_5BlockINS_6MatrixIfLi16ELi16ELi0ELi16ELi16EEELin1ELin1ELb0EEEEEE9outerSizeEv = comdat any

$_ZNK5Eigen8internal15unary_evaluatorINS_12CwiseUnaryOpINS0_14scalar_abs2_opIfEEKNS_5BlockINS_6MatrixIfLi16ELi16ELi0ELi16ELi16EEELin1ELin1ELb0EEEEENS0_10IndexBasedEfE6packetILi0EDv4_fEET0_ll = comdat any

$_ZNK5Eigen8internal15redux_evaluatorINS_12CwiseUnaryOpINS0_14scalar_abs2_opIfEEKNS_5BlockINS_6MatrixIfLi16ELi16ELi0ELi16ELi16EEELin1ELin1ELb0EEEEEE18packetByOuterInnerILi0EDv4_fEET0_ll = comdat any

$_ZNK5Eigen8internal15redux_evaluatorINS_12CwiseUnaryOpINS0_14scalar_abs2_opIfEEKNS_5BlockINS_6MatrixIfLi16ELi16ELi0ELi16ELi16EEELin1ELin1ELb0EEEEEE17coeffByOuterInnerEll = comdat any

$_ZN5Eigen8internal10redux_implINS0_13scalar_sum_opIffEENS0_15redux_evaluatorINS_12CwiseUnaryOpINS0_14scalar_abs2_opIfEEKNS_5BlockINS_6MatrixIfLi16ELi16ELi0ELi16ELi16EEELin1ELin1ELb0EEEEEEELi0ELi0EE3runISD_EEfRKSE_RKS3_RKT_ = comdat any

$_ZNK5Eigen8internal15unary_evaluatorINS_12CwiseUnaryOpINS0_14scalar_abs2_opIfEEKNS_5BlockINS_6MatrixIfLi16ELi16ELi0ELi16ELi16EEELin1ELin1ELb0EEEEENS0_10IndexBasedEfE4Data4funcEv = comdat any

$_ZNK5Eigen8internal15unary_evaluatorINS_12CwiseUnaryOpINS0_14scalar_abs2_opIfEEKNS_5BlockINS_6MatrixIfLi16ELi16ELi0ELi16ELi16EEELin1ELin1ELb0EEEEENS0_10IndexBasedEfE5coeffEll = comdat any

$_ZN5Eigen8internal15eigen_zero_implINS_6MatrixIfLi16ELi16ELi0ELi16ELi16EEELb1EE3runERS3_ = comdat any

$_ZN5Eigen12CwiseUnaryOpINS_8internal15scalar_dummy_opIfLb1EEEKNS_5BlockIKNS0_INS1_14scalar_abs2_opIfEEKNS_6MatrixIfLi16ELi16ELi0ELi16ELi16EEEEELin1ELin1ELb0EEEEC2ERSD_RKS3_ = comdat any

$_ZN5Eigen16CwiseUnaryOpImplINS_8internal15scalar_dummy_opIfLb1EEEKNS_5BlockIKNS_12CwiseUnaryOpINS1_14scalar_abs2_opIfEEKNS_6MatrixIfLi16ELi16ELi0ELi16ELi16EEEEELin1ELin1ELb0EEENS_5DenseEEC2Ev = comdat any

$_ZN5Eigen10MatrixBaseINS_12CwiseUnaryOpINS_8internal15scalar_dummy_opIfLb1EEEKNS_5BlockIKNS1_INS2_14scalar_abs2_opIfEEKNS_6MatrixIfLi16ELi16ELi0ELi16ELi16EEEEELin1ELin1ELb0EEEEEEC2Ev = comdat any

$_ZN5Eigen9DenseBaseINS_12CwiseUnaryOpINS_8internal15scalar_dummy_opIfLb1EEEKNS_5BlockIKNS1_INS2_14scalar_abs2_opIfEEKNS_6MatrixIfLi16ELi16ELi0ELi16ELi16EEEEELin1ELin1ELb0EEEEEEC2Ev = comdat any

$_ZN5Eigen9BlockImplINS_6MatrixIfLi16ELi16ELi0ELi16ELi16EEELin1ELin1ELb0ENS_5DenseEEaSINS_12CwiseUnaryOpINS_8internal15scalar_dummy_opIfLb1EEEKNS_5BlockIKNS6_INS7_14scalar_abs2_opIfEEKS2_EELin1ELin1ELb0EEEEEEERS4_RKNS_9DenseBaseIT_EE = comdat any

$_ZNK5Eigen9EigenBaseINS_12CwiseUnaryOpINS_8internal15scalar_dummy_opIfLb1EEEKNS_5BlockIKNS1_INS2_14scalar_abs2_opIfEEKNS_6MatrixIfLi16ELi16ELi0ELi16ELi16EEEEELin1ELin1ELb0EEEEEE7derivedEv = comdat any

$_ZN5Eigen8internal15BlockImpl_denseINS_6MatrixIfLi16ELi16ELi0ELi16ELi16EEELin1ELin1ELb0ELb1EEaSINS_12CwiseUnaryOpINS0_15scalar_dummy_opIfLb1EEEKNS_5BlockIKNS6_INS0_14scalar_abs2_opIfEEKS3_EELin1ELin1ELb0EEEEEEERS4_RKNS_9DenseBaseIT_EE = comdat any

$_ZN5Eigen10MatrixBaseINS_5BlockINS_6MatrixIfLi16ELi16ELi0ELi16ELi16EEELin1ELin1ELb0EEEEaSINS_12CwiseUnaryOpINS_8internal15scalar_dummy_opIfLb1EEEKNS1_IKNS7_INS8_14scalar_abs2_opIfEEKS3_EELin1ELin1ELb0EEEEEEERS4_RKNS_9DenseBaseIT_EE = comdat any

$_ZN5Eigen8internal15call_assignmentINS_5BlockINS_6MatrixIfLi16ELi16ELi0ELi16ELi16EEELin1ELin1ELb0EEENS_12CwiseUnaryOpINS0_15scalar_dummy_opIfLb1EEEKNS2_IKNS6_INS0_14scalar_abs2_opIfEEKS4_EELin1ELin1ELb0EEEEEEEvRT_RKT0_ = comdat any

$_ZN5Eigen8internal15call_assignmentINS_5BlockINS_6MatrixIfLi16ELi16ELi0ELi16ELi16EEELin1ELin1ELb0EEENS_12CwiseUnaryOpINS0_15scalar_dummy_opIfLb1EEEKNS2_IKNS6_INS0_14scalar_abs2_opIfEEKS4_EELin1ELin1ELb0EEEEENS0_9assign_opIffEEEEvRT_RKT0_RKT1_NSt9enable_ifIXntsr25evaluator_assume_aliasingISL_EE5valueEPvE4typeE = comdat any

$_ZN5Eigen8internal24call_assignment_no_aliasINS_5BlockINS_6MatrixIfLi16ELi16ELi0ELi16ELi16EEELin1ELin1ELb0EEENS_12CwiseUnaryOpINS0_15scalar_dummy_opIfLb1EEEKNS2_IKNS6_INS0_14scalar_abs2_opIfEEKS4_EELin1ELin1ELb0EEEEENS0_9assign_opIffEEEEvRT_RKT0_RKT1_ = comdat any

$_ZN5Eigen8internal10AssignmentINS_5BlockINS_6MatrixIfLi16ELi16ELi0ELi16ELi16EEELin1ELin1ELb0EEENS_12CwiseUnaryOpINS0_15scalar_dummy_opIfLb1EEEKNS2_IKNS6_INS0_14scalar_abs2_opIfEEKS4_EELin1ELin1ELb0EEEEENS0_9assign_opIffEENS0_11Dense2DenseEvE3runERS5_RKSG_RKSI_ = comdat any

$_ZN5Eigen8internal18check_for_aliasingINS_5BlockINS_6MatrixIfLi16ELi16ELi0ELi16ELi16EEELin1ELin1ELb0EEENS_12CwiseUnaryOpINS0_15scalar_dummy_opIfLb1EEEKNS2_IKNS6_INS0_14scalar_abs2_opIfEEKS4_EELin1ELin1ELb0EEEEEEEvRKT_RKT0_ = comdat any

$_ZN5Eigen8internal26call_dense_assignment_loopINS_5BlockINS_6MatrixIfLi16ELi16ELi0ELi16ELi16EEELin1ELin1ELb0EEENS_12CwiseUnaryOpINS0_15scalar_dummy_opIfLb1EEEKNS2_IKNS6_INS0_14scalar_abs2_opIfEEKS4_EELin1ELin1ELb0EEEEENS0_9assign_opIffEEEEvRT_RKT0_RKT1_ = comdat any

$_ZN5Eigen8internal27checkTransposeAliasing_implINS_5BlockINS_6MatrixIfLi16ELi16ELi0ELi16ELi16EEELin1ELin1ELb0EEENS_12CwiseUnaryOpINS0_15scalar_dummy_opIfLb1EEEKNS2_IKNS6_INS0_14scalar_abs2_opIfEEKS4_EELin1ELin1ELb0EEEEELb0EE3runERKS5_RKSG_ = comdat any

$_ZN5Eigen8internal9evaluatorINS_12CwiseUnaryOpINS0_15scalar_dummy_opIfLb1EEEKNS_5BlockIKNS2_INS0_14scalar_abs2_opIfEEKNS_6MatrixIfLi16ELi16ELi0ELi16ELi16EEEEELin1ELin1ELb0EEEEEEC2ERKSF_ = comdat any

$_ZN5Eigen8internal17resize_if_allowedINS_5BlockINS_6MatrixIfLi16ELi16ELi0ELi16ELi16EEELin1ELin1ELb0EEENS_12CwiseUnaryOpINS0_15scalar_dummy_opIfLb1EEEKNS2_IKNS6_INS0_14scalar_abs2_opIfEEKS4_EELin1ELin1ELb0EEEEEffEEvRT_RKT0_RKNS0_9assign_opIT1_T2_EE = comdat any

$_ZN5Eigen8internal31generic_dense_assignment_kernelINS0_9evaluatorINS_5BlockINS_6MatrixIfLi16ELi16ELi0ELi16ELi16EEELin1ELin1ELb0EEEEENS2_INS_12CwiseUnaryOpINS0_15scalar_dummy_opIfLb1EEEKNS3_IKNS8_INS0_14scalar_abs2_opIfEEKS5_EELin1ELin1ELb0EEEEEEENS0_9assign_opIffEELi0EEC2ERS7_RKSJ_RKSL_RS6_ = comdat any

$_ZN5Eigen8internal21dense_assignment_loopINS0_31generic_dense_assignment_kernelINS0_9evaluatorINS_5BlockINS_6MatrixIfLi16ELi16ELi0ELi16ELi16EEELin1ELin1ELb0EEEEENS3_INS_12CwiseUnaryOpINS0_15scalar_dummy_opIfLb1EEEKNS4_IKNS9_INS0_14scalar_abs2_opIfEEKS6_EELin1ELin1ELb0EEEEEEENS0_9assign_opIffEELi0EEELi4ELi0EE3runERSN_ = comdat any

$_ZN5Eigen8internal15unary_evaluatorINS_12CwiseUnaryOpINS0_15scalar_dummy_opIfLb1EEEKNS_5BlockIKNS2_INS0_14scalar_abs2_opIfEEKNS_6MatrixIfLi16ELi16ELi0ELi16ELi16EEEEELin1ELin1ELb0EEEEENS0_10IndexBasedEfEC2ERKSF_ = comdat any

$_ZN5Eigen8internal15unary_evaluatorINS_12CwiseUnaryOpINS0_15scalar_dummy_opIfLb1EEEKNS_5BlockIKNS2_INS0_14scalar_abs2_opIfEEKNS_6MatrixIfLi16ELi16ELi0ELi16ELi16EEEEELin1ELin1ELb0EEEEENS0_10IndexBasedEfE4DataC2ERKSF_ = comdat any

$_ZNK5Eigen12CwiseUnaryOpINS_8internal15scalar_dummy_opIfLb1EEEKNS_5BlockIKNS0_INS1_14scalar_abs2_opIfEEKNS_6MatrixIfLi16ELi16ELi0ELi16ELi16EEEEELin1ELin1ELb0EEEE7functorEv = comdat any

$_ZNK5Eigen12CwiseUnaryOpINS_8internal15scalar_dummy_opIfLb1EEEKNS_5BlockIKNS0_INS1_14scalar_abs2_opIfEEKNS_6MatrixIfLi16ELi16ELi0ELi16ELi16EEEEELin1ELin1ELb0EEEE16nestedExpressionEv = comdat any

$_ZNK5Eigen12CwiseUnaryOpINS_8internal15scalar_dummy_opIfLb1EEEKNS_5BlockIKNS0_INS1_14scalar_abs2_opIfEEKNS_6MatrixIfLi16ELi16ELi0ELi16ELi16EEEEELin1ELin1ELb0EEEE4rowsEv = comdat any

$_ZNK5Eigen12CwiseUnaryOpINS_8internal15scalar_dummy_opIfLb1EEEKNS_5BlockIKNS0_INS1_14scalar_abs2_opIfEEKNS_6MatrixIfLi16ELi16ELi0ELi16ELi16EEEEELin1ELin1ELb0EEEE4colsEv = comdat any

$_ZNK5Eigen8internal31generic_dense_assignment_kernelINS0_9evaluatorINS_5BlockINS_6MatrixIfLi16ELi16ELi0ELi16ELi16EEELin1ELin1ELb0EEEEENS2_INS_12CwiseUnaryOpINS0_15scalar_dummy_opIfLb1EEEKNS3_IKNS8_INS0_14scalar_abs2_opIfEEKS5_EELin1ELin1ELb0EEEEEEENS0_9assign_opIffEELi0EE10dstDataPtrEv = comdat any

$_ZN5Eigen8internal21dense_assignment_loopINS0_31generic_dense_assignment_kernelINS0_9evaluatorINS_5BlockINS_6MatrixIfLi16ELi16ELi0ELi16ELi16EEELin1ELin1ELb0EEEEENS3_INS_12CwiseUnaryOpINS0_15scalar_dummy_opIfLb1EEEKNS4_IKNS9_INS0_14scalar_abs2_opIfEEKS6_EELin1ELin1ELb0EEEEEEENS0_9assign_opIffEELi0EEELi0ELi0EE3runERSN_ = comdat any

$_ZNK5Eigen8internal31generic_dense_assignment_kernelINS0_9evaluatorINS_5BlockINS_6MatrixIfLi16ELi16ELi0ELi16ELi16EEELin1ELin1ELb0EEEEENS2_INS_12CwiseUnaryOpINS0_15scalar_dummy_opIfLb1EEEKNS3_IKNS8_INS0_14scalar_abs2_opIfEEKS5_EELin1ELin1ELb0EEEEEEENS0_9assign_opIffEELi0EE9innerSizeEv = comdat any

$_ZNK5Eigen8internal31generic_dense_assignment_kernelINS0_9evaluatorINS_5BlockINS_6MatrixIfLi16ELi16ELi0ELi16ELi16EEELin1ELin1ELb0EEEEENS2_INS_12CwiseUnaryOpINS0_15scalar_dummy_opIfLb1EEEKNS3_IKNS8_INS0_14scalar_abs2_opIfEEKS5_EELin1ELin1ELb0EEEEEEENS0_9assign_opIffEELi0EE9outerSizeEv = comdat any

$_ZNK5Eigen8internal31generic_dense_assignment_kernelINS0_9evaluatorINS_5BlockINS_6MatrixIfLi16ELi16ELi0ELi16ELi16EEELin1ELin1ELb0EEEEENS2_INS_12CwiseUnaryOpINS0_15scalar_dummy_opIfLb1EEEKNS3_IKNS8_INS0_14scalar_abs2_opIfEEKS5_EELin1ELin1ELb0EEEEEEENS0_9assign_opIffEELi0EE11outerStrideEv = comdat any

$_ZN5Eigen8internal13first_alignedILi16EflEET1_PKT0_S2_ = comdat any

$_ZN5Eigen8internal31generic_dense_assignment_kernelINS0_9evaluatorINS_5BlockINS_6MatrixIfLi16ELi16ELi0ELi16ELi16EEELin1ELin1ELb0EEEEENS2_INS_12CwiseUnaryOpINS0_15scalar_dummy_opIfLb1EEEKNS3_IKNS8_INS0_14scalar_abs2_opIfEEKS5_EELin1ELin1ELb0EEEEEEENS0_9assign_opIffEELi0EE23assignCoeffByOuterInnerEll = comdat any

$_ZN5Eigen8internal31generic_dense_assignment_kernelINS0_9evaluatorINS_5BlockINS_6MatrixIfLi16ELi16ELi0ELi16ELi16EEELin1ELin1ELb0EEEEENS2_INS_12CwiseUnaryOpINS0_15scalar_dummy_opIfLb1EEEKNS3_IKNS8_INS0_14scalar_abs2_opIfEEKS5_EELin1ELin1ELb0EEEEEEENS0_9assign_opIffEELi0EE24assignPacketByOuterInnerILi16ELi0EDv4_fEEvll = comdat any

$_ZN5Eigen7MapBaseINS_5BlockINS_6MatrixIfLi16ELi16ELi0ELi16ELi16EEELin1ELin1ELb0EEELi1EE4dataEv = comdat any

$_ZN5Eigen8internal31generic_dense_assignment_kernelINS0_9evaluatorINS_5BlockINS_6MatrixIfLi16ELi16ELi0ELi16ELi16EEELin1ELin1ELb0EEEEENS2_INS_12CwiseUnaryOpINS0_15scalar_dummy_opIfLb1EEEKNS3_IKNS8_INS0_14scalar_abs2_opIfEEKS5_EELin1ELin1ELb0EEEEEEENS0_9assign_opIffEELi0EE20rowIndexByOuterInnerEll = comdat any

$_ZN5Eigen8internal31generic_dense_assignment_kernelINS0_9evaluatorINS_5BlockINS_6MatrixIfLi16ELi16ELi0ELi16ELi16EEELin1ELin1ELb0EEEEENS2_INS_12CwiseUnaryOpINS0_15scalar_dummy_opIfLb1EEEKNS3_IKNS8_INS0_14scalar_abs2_opIfEEKS5_EELin1ELin1ELb0EEEEEEENS0_9assign_opIffEELi0EE20colIndexByOuterInnerEll = comdat any

$_ZN5Eigen8internal31generic_dense_assignment_kernelINS0_9evaluatorINS_5BlockINS_6MatrixIfLi16ELi16ELi0ELi16ELi16EEELin1ELin1ELb0EEEEENS2_INS_12CwiseUnaryOpINS0_15scalar_dummy_opIfLb1EEEKNS3_IKNS8_INS0_14scalar_abs2_opIfEEKS5_EELin1ELin1ELb0EEEEEEENS0_9assign_opIffEELi0EE11assignCoeffEll = comdat any

$_ZNK5Eigen8internal15unary_evaluatorINS_12CwiseUnaryOpINS0_15scalar_dummy_opIfLb1EEEKNS_5BlockIKNS2_INS0_14scalar_abs2_opIfEEKNS_6MatrixIfLi16ELi16ELi0ELi16ELi16EEEEELin1ELin1ELb0EEEEENS0_10IndexBasedEfE5coeffEll = comdat any

$_ZNK5Eigen8internal15unary_evaluatorINS_12CwiseUnaryOpINS0_15scalar_dummy_opIfLb1EEEKNS_5BlockIKNS2_INS0_14scalar_abs2_opIfEEKNS_6MatrixIfLi16ELi16ELi0ELi16ELi16EEEEELin1ELin1ELb0EEEEENS0_10IndexBasedEfE4Data4funcEv = comdat any

$_ZNK5Eigen8internal15scalar_dummy_opIfLb1EEclERKf = comdat any

$_ZN5Eigen8internal31generic_dense_assignment_kernelINS0_9evaluatorINS_5BlockINS_6MatrixIfLi16ELi16ELi0ELi16ELi16EEELin1ELin1ELb0EEEEENS2_INS_12CwiseUnaryOpINS0_15scalar_dummy_opIfLb1EEEKNS3_IKNS8_INS0_14scalar_abs2_opIfEEKS5_EELin1ELin1ELb0EEEEEEENS0_9assign_opIffEELi0EE12assignPacketILi16ELi0EDv4_fEEvll = comdat any

$_ZNK5Eigen8internal15unary_evaluatorINS_12CwiseUnaryOpINS0_15scalar_dummy_opIfLb1EEEKNS_5BlockIKNS2_INS0_14scalar_abs2_opIfEEKNS_6MatrixIfLi16ELi16ELi0ELi16ELi16EEEEELin1ELin1ELb0EEEEENS0_10IndexBasedEfE6packetILi0EDv4_fEET0_ll = comdat any

$_ZNK5Eigen8internal15unary_evaluatorINS_5BlockIKNS_12CwiseUnaryOpINS0_14scalar_abs2_opIfEEKNS_6MatrixIfLi16ELi16ELi0ELi16ELi16EEEEELin1ELin1ELb0EEENS0_10IndexBasedEfE6packetILi0EDv4_fEET0_ll = comdat any

$_ZN5Eigen8internal15call_assignmentINS_13DeviceWrapperINS_5BlockINS_6MatrixIfLi16ELi16ELi0ELi16ELi16EEELin1ELin1ELb0EEENS_20CoreThreadPoolDeviceEEENS_12CwiseUnaryOpINS0_15scalar_dummy_opIfLb1EEEKNS3_IKNS9_INS0_14scalar_abs2_opIfEEKS5_EELin1ELin1ELb0EEEEENS0_9assign_opIffEEEEvRT_RKT0_RKT1_NSt9enable_ifIXntsr25evaluator_assume_aliasingISO_EE5valueEPvE4typeE = comdat any

$_ZN5Eigen8internal24call_assignment_no_aliasINS_5BlockINS_6MatrixIfLi16ELi16ELi0ELi16ELi16EEELin1ELin1ELb0EEENS_12CwiseUnaryOpINS0_15scalar_dummy_opIfLb1EEEKNS2_IKNS6_INS0_14scalar_abs2_opIfEEKS4_EELin1ELin1ELb0EEEEENS0_9assign_opIffEENS_20CoreThreadPoolDeviceEEEvNS_13DeviceWrapperIT_T2_EERKT0_RKT1_ = comdat any

$_ZN5Eigen8internal20AssignmentWithDeviceINS_5BlockINS_6MatrixIfLi16ELi16ELi0ELi16ELi16EEELin1ELin1ELb0EEENS_12CwiseUnaryOpINS0_15scalar_dummy_opIfLb1EEEKNS2_IKNS6_INS0_14scalar_abs2_opIfEEKS4_EELin1ELin1ELb0EEEEENS0_9assign_opIffEENS_20CoreThreadPoolDeviceENS0_11Dense2DenseEvE3runERS5_RKSG_RKSI_RSJ_ = comdat any

$_ZN5Eigen8internal26call_dense_assignment_loopINS_5BlockINS_6MatrixIfLi16ELi16ELi0ELi16ELi16EEELin1ELin1ELb0EEENS_12CwiseUnaryOpINS0_15scalar_dummy_opIfLb1EEEKNS2_IKNS6_INS0_14scalar_abs2_opIfEEKS4_EELin1ELin1ELb0EEEEENS0_9assign_opIffEENS_20CoreThreadPoolDeviceEEEvRT_RKT0_RKT1_RT2_ = comdat any

$_ZN5Eigen8internal33dense_assignment_loop_with_deviceINS0_31generic_dense_assignment_kernelINS0_9evaluatorINS_5BlockINS_6MatrixIfLi16ELi16ELi0ELi16ELi16EEELin1ELin1ELb0EEEEENS3_INS_12CwiseUnaryOpINS0_15scalar_dummy_opIfLb1EEEKNS4_IKNS9_INS0_14scalar_abs2_opIfEEKS6_EELin1ELin1ELb0EEEEEEENS0_9assign_opIffEELi0EEENS_20CoreThreadPoolDeviceELi4ELi0EE3runERSN_RSO_ = comdat any

$_ZN5Eigen8internal33dense_assignment_loop_with_deviceINS0_31generic_dense_assignment_kernelINS0_9evaluatorINS_5BlockINS_6MatrixIfLi16ELi16ELi0ELi16ELi16EEELin1ELin1ELb0EEEEENS3_INS_12CwiseUnaryOpINS0_15scalar_dummy_opIfLb1EEEKNS4_IKNS9_INS0_14scalar_abs2_opIfEEKS6_EELin1ELin1ELb0EEEEEEENS0_9assign_opIffEELi0EEENS_20CoreThreadPoolDeviceELi4ELi0EE23PacketAssignmentFunctorC2ERSN_ = comdat any

$_ZN5Eigen8internal33dense_assignment_loop_with_deviceINS0_31generic_dense_assignment_kernelINS0_9evaluatorINS_5BlockINS_6MatrixIfLi16ELi16ELi0ELi16ELi16EEELin1ELin1ELb0EEEEENS3_INS_12CwiseUnaryOpINS0_15scalar_dummy_opIfLb1EEEKNS4_IKNS9_INS0_14scalar_abs2_opIfEEKS6_EELin1ELin1ELb0EEEEEEENS0_9assign_opIffEELi0EEENS_20CoreThreadPoolDeviceELi4ELi0EE23ScalarAssignmentFunctorC2ERSN_ = comdat any

$_ZN5Eigen20CoreThreadPoolDevice11parallelForINS_8internal33dense_assignment_loop_with_deviceINS2_31generic_dense_assignment_kernelINS2_9evaluatorINS_5BlockINS_6MatrixIfLi16ELi16ELi0ELi16ELi16EEELin1ELin1ELb0EEEEENS5_INS_12CwiseUnaryOpINS2_15scalar_dummy_opIfLb1EEEKNS6_IKNSB_INS2_14scalar_abs2_opIfEEKS8_EELin1ELin1ELb0EEEEEEENS2_9assign_opIffEELi0EEES0_Li4ELi0EE23PacketAssignmentFunctorELi4EEEvllllRT_f = comdat any

$_ZN5Eigen20CoreThreadPoolDevice11parallelForINS_8internal33dense_assignment_loop_with_deviceINS2_31generic_dense_assignment_kernelINS2_9evaluatorINS_5BlockINS_6MatrixIfLi16ELi16ELi0ELi16ELi16EEELin1ELin1ELb0EEEEENS5_INS_12CwiseUnaryOpINS2_15scalar_dummy_opIfLb1EEEKNS6_IKNSB_INS2_14scalar_abs2_opIfEEKS8_EELin1ELin1ELb0EEEEEEENS2_9assign_opIffEELi0EEES0_Li4ELi0EE23ScalarAssignmentFunctorELi1EEEvllRT_f = comdat any

$_ZN5Eigen20CoreThreadPoolDevice15parallelForImplINS_8internal33dense_assignment_loop_with_deviceINS2_31generic_dense_assignment_kernelINS2_9evaluatorINS_5BlockINS_6MatrixIfLi16ELi16ELi0ELi16ELi16EEELin1ELin1ELb0EEEEENS5_INS_12CwiseUnaryOpINS2_15scalar_dummy_opIfLb1EEEKNS6_IKNSB_INS2_14scalar_abs2_opIfEEKS8_EELin1ELin1ELb0EEEEEEENS2_9assign_opIffEELi0EEES0_Li4ELi0EE23PacketAssignmentFunctorELi4EEEvllllRT_RNS_7BarrierEi = comdat any

$_ZNSt8functionIFvvEEC2IZN5Eigen20CoreThreadPoolDevice15parallelForImplINS3_8internal33dense_assignment_loop_with_deviceINS6_31generic_dense_assignment_kernelINS6_9evaluatorINS3_5BlockINS3_6MatrixIfLi16ELi16ELi0ELi16ELi16EEELin1ELin1ELb0EEEEENS9_INS3_12CwiseUnaryOpINS6_15scalar_dummy_opIfLb1EEEKNSA_IKNSF_INS6_14scalar_abs2_opIfEEKSC_EELin1ELin1ELb0EEEEEEENS6_9assign_opIffEELi0EEES4_Li4ELi0EE23PacketAssignmentFunctorELi4EEEvllllRT_RNS3_7BarrierEiEUlvE_vEEOSW_ = comdat any

$_ZNSt8functionIFvvEEC2IZN5Eigen20CoreThreadPoolDevice15parallelForImplINS3_8internal33dense_assignment_loop_with_deviceINS6_31generic_dense_assignment_kernelINS6_9evaluatorINS3_5BlockINS3_6MatrixIfLi16ELi16ELi0ELi16ELi16EEELin1ELin1ELb0EEEEENS9_INS3_12CwiseUnaryOpINS6_15scalar_dummy_opIfLb1EEEKNSA_IKNSF_INS6_14scalar_abs2_opIfEEKSC_EELin1ELin1ELb0EEEEEEENS6_9assign_opIffEELi0EEES4_Li4ELi0EE23PacketAssignmentFunctorELi4EEEvllllRT_RNS3_7BarrierEiEUlvE0_vEEOSW_ = comdat any

$_ZN5Eigen8internal33dense_assignment_loop_with_deviceINS0_31generic_dense_assignment_kernelINS0_9evaluatorINS_5BlockINS_6MatrixIfLi16ELi16ELi0ELi16ELi16EEELin1ELin1ELb0EEEEENS3_INS_12CwiseUnaryOpINS0_15scalar_dummy_opIfLb1EEEKNS4_IKNS9_INS0_14scalar_abs2_opIfEEKS6_EELin1ELin1ELb0EEEEEEENS0_9assign_opIffEELi0EEENS_20CoreThreadPoolDeviceELi4ELi0EE23PacketAssignmentFunctorclEll = comdat any

$_ZNSt14_Function_base13_Base_managerIZN5Eigen20CoreThreadPoolDevice15parallelForImplINS1_8internal33dense_assignment_loop_with_deviceINS4_31generic_dense_assignment_kernelINS4_9evaluatorINS1_5BlockINS1_6MatrixIfLi16ELi16ELi0ELi16ELi16EEELin1ELin1ELb0EEEEENS7_INS1_12CwiseUnaryOpINS4_15scalar_dummy_opIfLb1EEEKNS8_IKNSD_INS4_14scalar_abs2_opIfEEKSA_EELin1ELin1ELb0EEEEEEENS4_9assign_opIffEELi0EEES2_Li4ELi0EE23PacketAssignmentFunctorELi4EEEvllllRT_RNS1_7BarrierEiEUlvE_E21_M_not_empty_functionISY_EEbRKSU_ = comdat any

$_ZNSt14_Function_base13_Base_managerIZN5Eigen20CoreThreadPoolDevice15parallelForImplINS1_8internal33dense_assignment_loop_with_deviceINS4_31generic_dense_assignment_kernelINS4_9evaluatorINS1_5BlockINS1_6MatrixIfLi16ELi16ELi0ELi16ELi16EEELin1ELin1ELb0EEEEENS7_INS1_12CwiseUnaryOpINS4_15scalar_dummy_opIfLb1EEEKNS8_IKNSD_INS4_14scalar_abs2_opIfEEKSA_EELin1ELin1ELb0EEEEEEENS4_9assign_opIffEELi0EEES2_Li4ELi0EE23PacketAssignmentFunctorELi4EEEvllllRT_RNS1_7BarrierEiEUlvE_E15_M_init_functorISY_EEvRSt9_Any_dataOSU_ = comdat any

$_ZNSt17_Function_handlerIFvvEZN5Eigen20CoreThreadPoolDevice15parallelForImplINS1_8internal33dense_assignment_loop_with_deviceINS4_31generic_dense_assignment_kernelINS4_9evaluatorINS1_5BlockINS1_6MatrixIfLi16ELi16ELi0ELi16ELi16EEELin1ELin1ELb0EEEEENS7_INS1_12CwiseUnaryOpINS4_15scalar_dummy_opIfLb1EEEKNS8_IKNSD_INS4_14scalar_abs2_opIfEEKSA_EELin1ELin1ELb0EEEEEEENS4_9assign_opIffEELi0EEES2_Li4ELi0EE23PacketAssignmentFunctorELi4EEEvllllRT_RNS1_7BarrierEiEUlvE_E9_M_invokeERKSt9_Any_data = comdat any

$_ZNSt17_Function_handlerIFvvEZN5Eigen20CoreThreadPoolDevice15parallelForImplINS1_8internal33dense_assignment_loop_with_deviceINS4_31generic_dense_assignment_kernelINS4_9evaluatorINS1_5BlockINS1_6MatrixIfLi16ELi16ELi0ELi16ELi16EEELin1ELin1ELb0EEEEENS7_INS1_12CwiseUnaryOpINS4_15scalar_dummy_opIfLb1EEEKNS8_IKNSD_INS4_14scalar_abs2_opIfEEKSA_EELin1ELin1ELb0EEEEEEENS4_9assign_opIffEELi0EEES2_Li4ELi0EE23PacketAssignmentFunctorELi4EEEvllllRT_RNS1_7BarrierEiEUlvE_E10_M_managerERSt9_Any_dataRKS10_St18_Manager_operation = comdat any

$_ZNSt14_Function_base13_Base_managerIZN5Eigen20CoreThreadPoolDevice15parallelForImplINS1_8internal33dense_assignment_loop_with_deviceINS4_31generic_dense_assignment_kernelINS4_9evaluatorINS1_5BlockINS1_6MatrixIfLi16ELi16ELi0ELi16ELi16EEELin1ELin1ELb0EEEEENS7_INS1_12CwiseUnaryOpINS4_15scalar_dummy_opIfLb1EEEKNS8_IKNSD_INS4_14scalar_abs2_opIfEEKSA_EELin1ELin1ELb0EEEEEEENS4_9assign_opIffEELi0EEES2_Li4ELi0EE23PacketAssignmentFunctorELi4EEEvllllRT_RNS1_7BarrierEiEUlvE_E9_M_createISY_EEvRSt9_Any_dataOSU_St17integral_constantIbLb0EE = comdat any

$_ZNSt9_Any_data9_M_accessIPZN5Eigen20CoreThreadPoolDevice15parallelForImplINS1_8internal33dense_assignment_loop_with_deviceINS4_31generic_dense_assignment_kernelINS4_9evaluatorINS1_5BlockINS1_6MatrixIfLi16ELi16ELi0ELi16ELi16EEELin1ELin1ELb0EEEEENS7_INS1_12CwiseUnaryOpINS4_15scalar_dummy_opIfLb1EEEKNS8_IKNSD_INS4_14scalar_abs2_opIfEEKSA_EELin1ELin1ELb0EEEEEEENS4_9assign_opIffEELi0EEES2_Li4ELi0EE23PacketAssignmentFunctorELi4EEEvllllRT_RNS1_7BarrierEiEUlvE_EESV_v = comdat any

$_ZSt10__invoke_rIvRZN5Eigen20CoreThreadPoolDevice15parallelForImplINS0_8internal33dense_assignment_loop_with_deviceINS3_31generic_dense_assignment_kernelINS3_9evaluatorINS0_5BlockINS0_6MatrixIfLi16ELi16ELi0ELi16ELi16EEELin1ELin1ELb0EEEEENS6_INS0_12CwiseUnaryOpINS3_15scalar_dummy_opIfLb1EEEKNS7_IKNSC_INS3_14scalar_abs2_opIfEEKS9_EELin1ELin1ELb0EEEEEEENS3_9assign_opIffEELi0EEES1_Li4ELi0EE23PacketAssignmentFunctorELi4EEEvllllRT_RNS0_7BarrierEiEUlvE_JEENSt9enable_ifIXsr6__and_ISt7is_voidIST_ESt14__is_invocableIT0_JDpT1_EEEE5valueEST_E4typeEOS13_DpOS14_ = comdat any

$_ZNSt14_Function_base13_Base_managerIZN5Eigen20CoreThreadPoolDevice15parallelForImplINS1_8internal33dense_assignment_loop_with_deviceINS4_31generic_dense_assignment_kernelINS4_9evaluatorINS1_5BlockINS1_6MatrixIfLi16ELi16ELi0ELi16ELi16EEELin1ELin1ELb0EEEEENS7_INS1_12CwiseUnaryOpINS4_15scalar_dummy_opIfLb1EEEKNS8_IKNSD_INS4_14scalar_abs2_opIfEEKSA_EELin1ELin1ELb0EEEEEEENS4_9assign_opIffEELi0EEES2_Li4ELi0EE23PacketAssignmentFunctorELi4EEEvllllRT_RNS1_7BarrierEiEUlvE_E14_M_get_pointerERKSt9_Any_data = comdat any

$_ZSt13__invoke_implIvRZN5Eigen20CoreThreadPoolDevice15parallelForImplINS0_8internal33dense_assignment_loop_with_deviceINS3_31generic_dense_assignment_kernelINS3_9evaluatorINS0_5BlockINS0_6MatrixIfLi16ELi16ELi0ELi16ELi16EEELin1ELin1ELb0EEEEENS6_INS0_12CwiseUnaryOpINS3_15scalar_dummy_opIfLb1EEEKNS7_IKNSC_INS3_14scalar_abs2_opIfEEKS9_EELin1ELin1ELb0EEEEEEENS3_9assign_opIffEELi0EEES1_Li4ELi0EE23PacketAssignmentFunctorELi4EEEvllllRT_RNS0_7BarrierEiEUlvE_JEEST_St14__invoke_otherOT0_DpOT1_ = comdat any

$_ZZN5Eigen20CoreThreadPoolDevice15parallelForImplINS_8internal33dense_assignment_loop_with_deviceINS2_31generic_dense_assignment_kernelINS2_9evaluatorINS_5BlockINS_6MatrixIfLi16ELi16ELi0ELi16ELi16EEELin1ELin1ELb0EEEEENS5_INS_12CwiseUnaryOpINS2_15scalar_dummy_opIfLb1EEEKNS6_IKNSB_INS2_14scalar_abs2_opIfEEKS8_EELin1ELin1ELb0EEEEEEENS2_9assign_opIffEELi0EEES0_Li4ELi0EE23PacketAssignmentFunctorELi4EEEvllllRT_RNS_7BarrierEiENKUlvE_clEv = comdat any

$_ZNKSt9_Any_data9_M_accessIPZN5Eigen20CoreThreadPoolDevice15parallelForImplINS1_8internal33dense_assignment_loop_with_deviceINS4_31generic_dense_assignment_kernelINS4_9evaluatorINS1_5BlockINS1_6MatrixIfLi16ELi16ELi0ELi16ELi16EEELin1ELin1ELb0EEEEENS7_INS1_12CwiseUnaryOpINS4_15scalar_dummy_opIfLb1EEEKNS8_IKNSD_INS4_14scalar_abs2_opIfEEKSA_EELin1ELin1ELb0EEEEEEENS4_9assign_opIffEELi0EEES2_Li4ELi0EE23PacketAssignmentFunctorELi4EEEvllllRT_RNS1_7BarrierEiEUlvE_EERKSU_v = comdat any

$_ZNSt14_Function_base13_Base_managerIZN5Eigen20CoreThreadPoolDevice15parallelForImplINS1_8internal33dense_assignment_loop_with_deviceINS4_31generic_dense_assignment_kernelINS4_9evaluatorINS1_5BlockINS1_6MatrixIfLi16ELi16ELi0ELi16ELi16EEELin1ELin1ELb0EEEEENS7_INS1_12CwiseUnaryOpINS4_15scalar_dummy_opIfLb1EEEKNS8_IKNSD_INS4_14scalar_abs2_opIfEEKSA_EELin1ELin1ELb0EEEEEEENS4_9assign_opIffEELi0EEES2_Li4ELi0EE23PacketAssignmentFunctorELi4EEEvllllRT_RNS1_7BarrierEiEUlvE_E10_M_managerERSt9_Any_dataRKS10_St18_Manager_operation = comdat any

$_ZNSt14_Function_base13_Base_managerIZN5Eigen20CoreThreadPoolDevice15parallelForImplINS1_8internal33dense_assignment_loop_with_deviceINS4_31generic_dense_assignment_kernelINS4_9evaluatorINS1_5BlockINS1_6MatrixIfLi16ELi16ELi0ELi16ELi16EEELin1ELin1ELb0EEEEENS7_INS1_12CwiseUnaryOpINS4_15scalar_dummy_opIfLb1EEEKNS8_IKNSD_INS4_14scalar_abs2_opIfEEKSA_EELin1ELin1ELb0EEEEEEENS4_9assign_opIffEELi0EEES2_Li4ELi0EE23PacketAssignmentFunctorELi4EEEvllllRT_RNS1_7BarrierEiEUlvE_E15_M_init_functorIRKSY_EEvRSt9_Any_dataOSU_ = comdat any

$_ZNSt14_Function_base13_Base_managerIZN5Eigen20CoreThreadPoolDevice15parallelForImplINS1_8internal33dense_assignment_loop_with_deviceINS4_31generic_dense_assignment_kernelINS4_9evaluatorINS1_5BlockINS1_6MatrixIfLi16ELi16ELi0ELi16ELi16EEELin1ELin1ELb0EEEEENS7_INS1_12CwiseUnaryOpINS4_15scalar_dummy_opIfLb1EEEKNS8_IKNSD_INS4_14scalar_abs2_opIfEEKSA_EELin1ELin1ELb0EEEEEEENS4_9assign_opIffEELi0EEES2_Li4ELi0EE23PacketAssignmentFunctorELi4EEEvllllRT_RNS1_7BarrierEiEUlvE_E10_M_destroyERSt9_Any_dataSt17integral_constantIbLb0EE = comdat any

$_ZNSt14_Function_base13_Base_managerIZN5Eigen20CoreThreadPoolDevice15parallelForImplINS1_8internal33dense_assignment_loop_with_deviceINS4_31generic_dense_assignment_kernelINS4_9evaluatorINS1_5BlockINS1_6MatrixIfLi16ELi16ELi0ELi16ELi16EEELin1ELin1ELb0EEEEENS7_INS1_12CwiseUnaryOpINS4_15scalar_dummy_opIfLb1EEEKNS8_IKNSD_INS4_14scalar_abs2_opIfEEKSA_EELin1ELin1ELb0EEEEEEENS4_9assign_opIffEELi0EEES2_Li4ELi0EE23PacketAssignmentFunctorELi4EEEvllllRT_RNS1_7BarrierEiEUlvE_E9_M_createIRKSY_EEvRSt9_Any_dataOSU_St17integral_constantIbLb0EE = comdat any

$_ZNSt14_Function_base13_Base_managerIZN5Eigen20CoreThreadPoolDevice15parallelForImplINS1_8internal33dense_assignment_loop_with_deviceINS4_31generic_dense_assignment_kernelINS4_9evaluatorINS1_5BlockINS1_6MatrixIfLi16ELi16ELi0ELi16ELi16EEELin1ELin1ELb0EEEEENS7_INS1_12CwiseUnaryOpINS4_15scalar_dummy_opIfLb1EEEKNS8_IKNSD_INS4_14scalar_abs2_opIfEEKSA_EELin1ELin1ELb0EEEEEEENS4_9assign_opIffEELi0EEES2_Li4ELi0EE23PacketAssignmentFunctorELi4EEEvllllRT_RNS1_7BarrierEiEUlvE0_E21_M_not_empty_functionISY_EEbRKSU_ = comdat any

$_ZNSt14_Function_base13_Base_managerIZN5Eigen20CoreThreadPoolDevice15parallelForImplINS1_8internal33dense_assignment_loop_with_deviceINS4_31generic_dense_assignment_kernelINS4_9evaluatorINS1_5BlockINS1_6MatrixIfLi16ELi16ELi0ELi16ELi16EEELin1ELin1ELb0EEEEENS7_INS1_12CwiseUnaryOpINS4_15scalar_dummy_opIfLb1EEEKNS8_IKNSD_INS4_14scalar_abs2_opIfEEKSA_EELin1ELin1ELb0EEEEEEENS4_9assign_opIffEELi0EEES2_Li4ELi0EE23PacketAssignmentFunctorELi4EEEvllllRT_RNS1_7BarrierEiEUlvE0_E15_M_init_functorISY_EEvRSt9_Any_dataOSU_ = comdat any

$_ZNSt17_Function_handlerIFvvEZN5Eigen20CoreThreadPoolDevice15parallelForImplINS1_8internal33dense_assignment_loop_with_deviceINS4_31generic_dense_assignment_kernelINS4_9evaluatorINS1_5BlockINS1_6MatrixIfLi16ELi16ELi0ELi16ELi16EEELin1ELin1ELb0EEEEENS7_INS1_12CwiseUnaryOpINS4_15scalar_dummy_opIfLb1EEEKNS8_IKNSD_INS4_14scalar_abs2_opIfEEKSA_EELin1ELin1ELb0EEEEEEENS4_9assign_opIffEELi0EEES2_Li4ELi0EE23PacketAssignmentFunctorELi4EEEvllllRT_RNS1_7BarrierEiEUlvE0_E9_M_invokeERKSt9_Any_data = comdat any

$_ZNSt17_Function_handlerIFvvEZN5Eigen20CoreThreadPoolDevice15parallelForImplINS1_8internal33dense_assignment_loop_with_deviceINS4_31generic_dense_assignment_kernelINS4_9evaluatorINS1_5BlockINS1_6MatrixIfLi16ELi16ELi0ELi16ELi16EEELin1ELin1ELb0EEEEENS7_INS1_12CwiseUnaryOpINS4_15scalar_dummy_opIfLb1EEEKNS8_IKNSD_INS4_14scalar_abs2_opIfEEKSA_EELin1ELin1ELb0EEEEEEENS4_9assign_opIffEELi0EEES2_Li4ELi0EE23PacketAssignmentFunctorELi4EEEvllllRT_RNS1_7BarrierEiEUlvE0_E10_M_managerERSt9_Any_dataRKS10_St18_Manager_operation = comdat any

$_ZNSt14_Function_base13_Base_managerIZN5Eigen20CoreThreadPoolDevice15parallelForImplINS1_8internal33dense_assignment_loop_with_deviceINS4_31generic_dense_assignment_kernelINS4_9evaluatorINS1_5BlockINS1_6MatrixIfLi16ELi16ELi0ELi16ELi16EEELin1ELin1ELb0EEEEENS7_INS1_12CwiseUnaryOpINS4_15scalar_dummy_opIfLb1EEEKNS8_IKNSD_INS4_14scalar_abs2_opIfEEKSA_EELin1ELin1ELb0EEEEEEENS4_9assign_opIffEELi0EEES2_Li4ELi0EE23PacketAssignmentFunctorELi4EEEvllllRT_RNS1_7BarrierEiEUlvE0_E9_M_createISY_EEvRSt9_Any_dataOSU_St17integral_constantIbLb0EE = comdat any

$_ZNSt9_Any_data9_M_accessIPZN5Eigen20CoreThreadPoolDevice15parallelForImplINS1_8internal33dense_assignment_loop_with_deviceINS4_31generic_dense_assignment_kernelINS4_9evaluatorINS1_5BlockINS1_6MatrixIfLi16ELi16ELi0ELi16ELi16EEELin1ELin1ELb0EEEEENS7_INS1_12CwiseUnaryOpINS4_15scalar_dummy_opIfLb1EEEKNS8_IKNSD_INS4_14scalar_abs2_opIfEEKSA_EELin1ELin1ELb0EEEEEEENS4_9assign_opIffEELi0EEES2_Li4ELi0EE23PacketAssignmentFunctorELi4EEEvllllRT_RNS1_7BarrierEiEUlvE0_EESV_v = comdat any

$_ZSt10__invoke_rIvRZN5Eigen20CoreThreadPoolDevice15parallelForImplINS0_8internal33dense_assignment_loop_with_deviceINS3_31generic_dense_assignment_kernelINS3_9evaluatorINS0_5BlockINS0_6MatrixIfLi16ELi16ELi0ELi16ELi16EEELin1ELin1ELb0EEEEENS6_INS0_12CwiseUnaryOpINS3_15scalar_dummy_opIfLb1EEEKNS7_IKNSC_INS3_14scalar_abs2_opIfEEKS9_EELin1ELin1ELb0EEEEEEENS3_9assign_opIffEELi0EEES1_Li4ELi0EE23PacketAssignmentFunctorELi4EEEvllllRT_RNS0_7BarrierEiEUlvE0_JEENSt9enable_ifIXsr6__and_ISt7is_voidIST_ESt14__is_invocableIT0_JDpT1_EEEE5valueEST_E4typeEOS13_DpOS14_ = comdat any

$_ZNSt14_Function_base13_Base_managerIZN5Eigen20CoreThreadPoolDevice15parallelForImplINS1_8internal33dense_assignment_loop_with_deviceINS4_31generic_dense_assignment_kernelINS4_9evaluatorINS1_5BlockINS1_6MatrixIfLi16ELi16ELi0ELi16ELi16EEELin1ELin1ELb0EEEEENS7_INS1_12CwiseUnaryOpINS4_15scalar_dummy_opIfLb1EEEKNS8_IKNSD_INS4_14scalar_abs2_opIfEEKSA_EELin1ELin1ELb0EEEEEEENS4_9assign_opIffEELi0EEES2_Li4ELi0EE23PacketAssignmentFunctorELi4EEEvllllRT_RNS1_7BarrierEiEUlvE0_E14_M_get_pointerERKSt9_Any_data = comdat any

$_ZSt13__invoke_implIvRZN5Eigen20CoreThreadPoolDevice15parallelForImplINS0_8internal33dense_assignment_loop_with_deviceINS3_31generic_dense_assignment_kernelINS3_9evaluatorINS0_5BlockINS0_6MatrixIfLi16ELi16ELi0ELi16ELi16EEELin1ELin1ELb0EEEEENS6_INS0_12CwiseUnaryOpINS3_15scalar_dummy_opIfLb1EEEKNS7_IKNSC_INS3_14scalar_abs2_opIfEEKS9_EELin1ELin1ELb0EEEEEEENS3_9assign_opIffEELi0EEES1_Li4ELi0EE23PacketAssignmentFunctorELi4EEEvllllRT_RNS0_7BarrierEiEUlvE0_JEEST_St14__invoke_otherOT0_DpOT1_ = comdat any

$_ZZN5Eigen20CoreThreadPoolDevice15parallelForImplINS_8internal33dense_assignment_loop_with_deviceINS2_31generic_dense_assignment_kernelINS2_9evaluatorINS_5BlockINS_6MatrixIfLi16ELi16ELi0ELi16ELi16EEELin1ELin1ELb0EEEEENS5_INS_12CwiseUnaryOpINS2_15scalar_dummy_opIfLb1EEEKNS6_IKNSB_INS2_14scalar_abs2_opIfEEKS8_EELin1ELin1ELb0EEEEEEENS2_9assign_opIffEELi0EEES0_Li4ELi0EE23PacketAssignmentFunctorELi4EEEvllllRT_RNS_7BarrierEiENKUlvE0_clEv = comdat any

$_ZNKSt9_Any_data9_M_accessIPZN5Eigen20CoreThreadPoolDevice15parallelForImplINS1_8internal33dense_assignment_loop_with_deviceINS4_31generic_dense_assignment_kernelINS4_9evaluatorINS1_5BlockINS1_6MatrixIfLi16ELi16ELi0ELi16ELi16EEELin1ELin1ELb0EEEEENS7_INS1_12CwiseUnaryOpINS4_15scalar_dummy_opIfLb1EEEKNS8_IKNSD_INS4_14scalar_abs2_opIfEEKSA_EELin1ELin1ELb0EEEEEEENS4_9assign_opIffEELi0EEES2_Li4ELi0EE23PacketAssignmentFunctorELi4EEEvllllRT_RNS1_7BarrierEiEUlvE0_EERKSU_v = comdat any

$_ZNSt14_Function_base13_Base_managerIZN5Eigen20CoreThreadPoolDevice15parallelForImplINS1_8internal33dense_assignment_loop_with_deviceINS4_31generic_dense_assignment_kernelINS4_9evaluatorINS1_5BlockINS1_6MatrixIfLi16ELi16ELi0ELi16ELi16EEELin1ELin1ELb0EEEEENS7_INS1_12CwiseUnaryOpINS4_15scalar_dummy_opIfLb1EEEKNS8_IKNSD_INS4_14scalar_abs2_opIfEEKSA_EELin1ELin1ELb0EEEEEEENS4_9assign_opIffEELi0EEES2_Li4ELi0EE23PacketAssignmentFunctorELi4EEEvllllRT_RNS1_7BarrierEiEUlvE0_E10_M_managerERSt9_Any_dataRKS10_St18_Manager_operation = comdat any

$_ZNSt14_Function_base13_Base_managerIZN5Eigen20CoreThreadPoolDevice15parallelForImplINS1_8internal33dense_assignment_loop_with_deviceINS4_31generic_dense_assignment_kernelINS4_9evaluatorINS1_5BlockINS1_6MatrixIfLi16ELi16ELi0ELi16ELi16EEELin1ELin1ELb0EEEEENS7_INS1_12CwiseUnaryOpINS4_15scalar_dummy_opIfLb1EEEKNS8_IKNSD_INS4_14scalar_abs2_opIfEEKSA_EELin1ELin1ELb0EEEEEEENS4_9assign_opIffEELi0EEES2_Li4ELi0EE23PacketAssignmentFunctorELi4EEEvllllRT_RNS1_7BarrierEiEUlvE0_E15_M_init_functorIRKSY_EEvRSt9_Any_dataOSU_ = comdat any

$_ZNSt14_Function_base13_Base_managerIZN5Eigen20CoreThreadPoolDevice15parallelForImplINS1_8internal33dense_assignment_loop_with_deviceINS4_31generic_dense_assignment_kernelINS4_9evaluatorINS1_5BlockINS1_6MatrixIfLi16ELi16ELi0ELi16ELi16EEELin1ELin1ELb0EEEEENS7_INS1_12CwiseUnaryOpINS4_15scalar_dummy_opIfLb1EEEKNS8_IKNSD_INS4_14scalar_abs2_opIfEEKSA_EELin1ELin1ELb0EEEEEEENS4_9assign_opIffEELi0EEES2_Li4ELi0EE23PacketAssignmentFunctorELi4EEEvllllRT_RNS1_7BarrierEiEUlvE0_E10_M_destroyERSt9_Any_dataSt17integral_constantIbLb0EE = comdat any

$_ZNSt14_Function_base13_Base_managerIZN5Eigen20CoreThreadPoolDevice15parallelForImplINS1_8internal33dense_assignment_loop_with_deviceINS4_31generic_dense_assignment_kernelINS4_9evaluatorINS1_5BlockINS1_6MatrixIfLi16ELi16ELi0ELi16ELi16EEELin1ELin1ELb0EEEEENS7_INS1_12CwiseUnaryOpINS4_15scalar_dummy_opIfLb1EEEKNS8_IKNSD_INS4_14scalar_abs2_opIfEEKSA_EELin1ELin1ELb0EEEEEEENS4_9assign_opIffEELi0EEES2_Li4ELi0EE23PacketAssignmentFunctorELi4EEEvllllRT_RNS1_7BarrierEiEUlvE0_E9_M_createIRKSY_EEvRSt9_Any_dataOSU_St17integral_constantIbLb0EE = comdat any

$_ZN5Eigen8internal31generic_dense_assignment_kernelINS0_9evaluatorINS_5BlockINS_6MatrixIfLi16ELi16ELi0ELi16ELi16EEELin1ELin1ELb0EEEEENS2_INS_12CwiseUnaryOpINS0_15scalar_dummy_opIfLb1EEEKNS3_IKNS8_INS0_14scalar_abs2_opIfEEKS5_EELin1ELin1ELb0EEEEEEENS0_9assign_opIffEELi0EE24assignPacketByOuterInnerILi0ELi0EDv4_fEEvll = comdat any

$_ZN5Eigen8internal31generic_dense_assignment_kernelINS0_9evaluatorINS_5BlockINS_6MatrixIfLi16ELi16ELi0ELi16ELi16EEELin1ELin1ELb0EEEEENS2_INS_12CwiseUnaryOpINS0_15scalar_dummy_opIfLb1EEEKNS3_IKNS8_INS0_14scalar_abs2_opIfEEKS5_EELin1ELin1ELb0EEEEEEENS0_9assign_opIffEELi0EE12assignPacketILi0ELi0EDv4_fEEvll = comdat any

$_ZN5Eigen20CoreThreadPoolDevice15parallelForImplINS_8internal33dense_assignment_loop_with_deviceINS2_31generic_dense_assignment_kernelINS2_9evaluatorINS_5BlockINS_6MatrixIfLi16ELi16ELi0ELi16ELi16EEELin1ELin1ELb0EEEEENS5_INS_12CwiseUnaryOpINS2_15scalar_dummy_opIfLb1EEEKNS6_IKNSB_INS2_14scalar_abs2_opIfEEKS8_EELin1ELin1ELb0EEEEEEENS2_9assign_opIffEELi0EEES0_Li4ELi0EE23ScalarAssignmentFunctorELi1EEEvllRT_RNS_7BarrierEi = comdat any

$_ZNSt8functionIFvvEEC2IZN5Eigen20CoreThreadPoolDevice15parallelForImplINS3_8internal33dense_assignment_loop_with_deviceINS6_31generic_dense_assignment_kernelINS6_9evaluatorINS3_5BlockINS3_6MatrixIfLi16ELi16ELi0ELi16ELi16EEELin1ELin1ELb0EEEEENS9_INS3_12CwiseUnaryOpINS6_15scalar_dummy_opIfLb1EEEKNSA_IKNSF_INS6_14scalar_abs2_opIfEEKSC_EELin1ELin1ELb0EEEEEEENS6_9assign_opIffEELi0EEES4_Li4ELi0EE23ScalarAssignmentFunctorELi1EEEvllRT_RNS3_7BarrierEiEUlvE_vEEOSW_ = comdat any

$_ZN5Eigen8internal33dense_assignment_loop_with_deviceINS0_31generic_dense_assignment_kernelINS0_9evaluatorINS_5BlockINS_6MatrixIfLi16ELi16ELi0ELi16ELi16EEELin1ELin1ELb0EEEEENS3_INS_12CwiseUnaryOpINS0_15scalar_dummy_opIfLb1EEEKNS4_IKNS9_INS0_14scalar_abs2_opIfEEKS6_EELin1ELin1ELb0EEEEEEENS0_9assign_opIffEELi0EEENS_20CoreThreadPoolDeviceELi4ELi0EE23ScalarAssignmentFunctorclEl = comdat any

$_ZNSt14_Function_base13_Base_managerIZN5Eigen20CoreThreadPoolDevice15parallelForImplINS1_8internal33dense_assignment_loop_with_deviceINS4_31generic_dense_assignment_kernelINS4_9evaluatorINS1_5BlockINS1_6MatrixIfLi16ELi16ELi0ELi16ELi16EEELin1ELin1ELb0EEEEENS7_INS1_12CwiseUnaryOpINS4_15scalar_dummy_opIfLb1EEEKNS8_IKNSD_INS4_14scalar_abs2_opIfEEKSA_EELin1ELin1ELb0EEEEEEENS4_9assign_opIffEELi0EEES2_Li4ELi0EE23ScalarAssignmentFunctorELi1EEEvllRT_RNS1_7BarrierEiEUlvE_E21_M_not_empty_functionISY_EEbRKSU_ = comdat any

$_ZNSt14_Function_base13_Base_managerIZN5Eigen20CoreThreadPoolDevice15parallelForImplINS1_8internal33dense_assignment_loop_with_deviceINS4_31generic_dense_assignment_kernelINS4_9evaluatorINS1_5BlockINS1_6MatrixIfLi16ELi16ELi0ELi16ELi16EEELin1ELin1ELb0EEEEENS7_INS1_12CwiseUnaryOpINS4_15scalar_dummy_opIfLb1EEEKNS8_IKNSD_INS4_14scalar_abs2_opIfEEKSA_EELin1ELin1ELb0EEEEEEENS4_9assign_opIffEELi0EEES2_Li4ELi0EE23ScalarAssignmentFunctorELi1EEEvllRT_RNS1_7BarrierEiEUlvE_E15_M_init_functorISY_EEvRSt9_Any_dataOSU_ = comdat any

$_ZNSt17_Function_handlerIFvvEZN5Eigen20CoreThreadPoolDevice15parallelForImplINS1_8internal33dense_assignment_loop_with_deviceINS4_31generic_dense_assignment_kernelINS4_9evaluatorINS1_5BlockINS1_6MatrixIfLi16ELi16ELi0ELi16ELi16EEELin1ELin1ELb0EEEEENS7_INS1_12CwiseUnaryOpINS4_15scalar_dummy_opIfLb1EEEKNS8_IKNSD_INS4_14scalar_abs2_opIfEEKSA_EELin1ELin1ELb0EEEEEEENS4_9assign_opIffEELi0EEES2_Li4ELi0EE23ScalarAssignmentFunctorELi1EEEvllRT_RNS1_7BarrierEiEUlvE_E9_M_invokeERKSt9_Any_data = comdat any

$_ZNSt17_Function_handlerIFvvEZN5Eigen20CoreThreadPoolDevice15parallelForImplINS1_8internal33dense_assignment_loop_with_deviceINS4_31generic_dense_assignment_kernelINS4_9evaluatorINS1_5BlockINS1_6MatrixIfLi16ELi16ELi0ELi16ELi16EEELin1ELin1ELb0EEEEENS7_INS1_12CwiseUnaryOpINS4_15scalar_dummy_opIfLb1EEEKNS8_IKNSD_INS4_14scalar_abs2_opIfEEKSA_EELin1ELin1ELb0EEEEEEENS4_9assign_opIffEELi0EEES2_Li4ELi0EE23ScalarAssignmentFunctorELi1EEEvllRT_RNS1_7BarrierEiEUlvE_E10_M_managerERSt9_Any_dataRKS10_St18_Manager_operation = comdat any

$_ZNSt14_Function_base13_Base_managerIZN5Eigen20CoreThreadPoolDevice15parallelForImplINS1_8internal33dense_assignment_loop_with_deviceINS4_31generic_dense_assignment_kernelINS4_9evaluatorINS1_5BlockINS1_6MatrixIfLi16ELi16ELi0ELi16ELi16EEELin1ELin1ELb0EEEEENS7_INS1_12CwiseUnaryOpINS4_15scalar_dummy_opIfLb1EEEKNS8_IKNSD_INS4_14scalar_abs2_opIfEEKSA_EELin1ELin1ELb0EEEEEEENS4_9assign_opIffEELi0EEES2_Li4ELi0EE23ScalarAssignmentFunctorELi1EEEvllRT_RNS1_7BarrierEiEUlvE_E9_M_createISY_EEvRSt9_Any_dataOSU_St17integral_constantIbLb0EE = comdat any

$_ZNSt9_Any_data9_M_accessIPZN5Eigen20CoreThreadPoolDevice15parallelForImplINS1_8internal33dense_assignment_loop_with_deviceINS4_31generic_dense_assignment_kernelINS4_9evaluatorINS1_5BlockINS1_6MatrixIfLi16ELi16ELi0ELi16ELi16EEELin1ELin1ELb0EEEEENS7_INS1_12CwiseUnaryOpINS4_15scalar_dummy_opIfLb1EEEKNS8_IKNSD_INS4_14scalar_abs2_opIfEEKSA_EELin1ELin1ELb0EEEEEEENS4_9assign_opIffEELi0EEES2_Li4ELi0EE23ScalarAssignmentFunctorELi1EEEvllRT_RNS1_7BarrierEiEUlvE_EESV_v = comdat any

$_ZSt10__invoke_rIvRZN5Eigen20CoreThreadPoolDevice15parallelForImplINS0_8internal33dense_assignment_loop_with_deviceINS3_31generic_dense_assignment_kernelINS3_9evaluatorINS0_5BlockINS0_6MatrixIfLi16ELi16ELi0ELi16ELi16EEELin1ELin1ELb0EEEEENS6_INS0_12CwiseUnaryOpINS3_15scalar_dummy_opIfLb1EEEKNS7_IKNSC_INS3_14scalar_abs2_opIfEEKS9_EELin1ELin1ELb0EEEEEEENS3_9assign_opIffEELi0EEES1_Li4ELi0EE23ScalarAssignmentFunctorELi1EEEvllRT_RNS0_7BarrierEiEUlvE_JEENSt9enable_ifIXsr6__and_ISt7is_voidIST_ESt14__is_invocableIT0_JDpT1_EEEE5valueEST_E4typeEOS13_DpOS14_ = comdat any

$_ZNSt14_Function_base13_Base_managerIZN5Eigen20CoreThreadPoolDevice15parallelForImplINS1_8internal33dense_assignment_loop_with_deviceINS4_31generic_dense_assignment_kernelINS4_9evaluatorINS1_5BlockINS1_6MatrixIfLi16ELi16ELi0ELi16ELi16EEELin1ELin1ELb0EEEEENS7_INS1_12CwiseUnaryOpINS4_15scalar_dummy_opIfLb1EEEKNS8_IKNSD_INS4_14scalar_abs2_opIfEEKSA_EELin1ELin1ELb0EEEEEEENS4_9assign_opIffEELi0EEES2_Li4ELi0EE23ScalarAssignmentFunctorELi1EEEvllRT_RNS1_7BarrierEiEUlvE_E14_M_get_pointerERKSt9_Any_data = comdat any

$_ZSt13__invoke_implIvRZN5Eigen20CoreThreadPoolDevice15parallelForImplINS0_8internal33dense_assignment_loop_with_deviceINS3_31generic_dense_assignment_kernelINS3_9evaluatorINS0_5BlockINS0_6MatrixIfLi16ELi16ELi0ELi16ELi16EEELin1ELin1ELb0EEEEENS6_INS0_12CwiseUnaryOpINS3_15scalar_dummy_opIfLb1EEEKNS7_IKNSC_INS3_14scalar_abs2_opIfEEKS9_EELin1ELin1ELb0EEEEEEENS3_9assign_opIffEELi0EEES1_Li4ELi0EE23ScalarAssignmentFunctorELi1EEEvllRT_RNS0_7BarrierEiEUlvE_JEEST_St14__invoke_otherOT0_DpOT1_ = comdat any

$_ZZN5Eigen20CoreThreadPoolDevice15parallelForImplINS_8internal33dense_assignment_loop_with_deviceINS2_31generic_dense_assignment_kernelINS2_9evaluatorINS_5BlockINS_6MatrixIfLi16ELi16ELi0ELi16ELi16EEELin1ELin1ELb0EEEEENS5_INS_12CwiseUnaryOpINS2_15scalar_dummy_opIfLb1EEEKNS6_IKNSB_INS2_14scalar_abs2_opIfEEKS8_EELin1ELin1ELb0EEEEEEENS2_9assign_opIffEELi0EEES0_Li4ELi0EE23ScalarAssignmentFunctorELi1EEEvllRT_RNS_7BarrierEiENKUlvE_clEv = comdat any

$_ZNKSt9_Any_data9_M_accessIPZN5Eigen20CoreThreadPoolDevice15parallelForImplINS1_8internal33dense_assignment_loop_with_deviceINS4_31generic_dense_assignment_kernelINS4_9evaluatorINS1_5BlockINS1_6MatrixIfLi16ELi16ELi0ELi16ELi16EEELin1ELin1ELb0EEEEENS7_INS1_12CwiseUnaryOpINS4_15scalar_dummy_opIfLb1EEEKNS8_IKNSD_INS4_14scalar_abs2_opIfEEKSA_EELin1ELin1ELb0EEEEEEENS4_9assign_opIffEELi0EEES2_Li4ELi0EE23ScalarAssignmentFunctorELi1EEEvllRT_RNS1_7BarrierEiEUlvE_EERKSU_v = comdat any

$_ZNSt14_Function_base13_Base_managerIZN5Eigen20CoreThreadPoolDevice15parallelForImplINS1_8internal33dense_assignment_loop_with_deviceINS4_31generic_dense_assignment_kernelINS4_9evaluatorINS1_5BlockINS1_6MatrixIfLi16ELi16ELi0ELi16ELi16EEELin1ELin1ELb0EEEEENS7_INS1_12CwiseUnaryOpINS4_15scalar_dummy_opIfLb1EEEKNS8_IKNSD_INS4_14scalar_abs2_opIfEEKSA_EELin1ELin1ELb0EEEEEEENS4_9assign_opIffEELi0EEES2_Li4ELi0EE23ScalarAssignmentFunctorELi1EEEvllRT_RNS1_7BarrierEiEUlvE_E10_M_managerERSt9_Any_dataRKS10_St18_Manager_operation = comdat any

$_ZNSt14_Function_base13_Base_managerIZN5Eigen20CoreThreadPoolDevice15parallelForImplINS1_8internal33dense_assignment_loop_with_deviceINS4_31generic_dense_assignment_kernelINS4_9evaluatorINS1_5BlockINS1_6MatrixIfLi16ELi16ELi0ELi16ELi16EEELin1ELin1ELb0EEEEENS7_INS1_12CwiseUnaryOpINS4_15scalar_dummy_opIfLb1EEEKNS8_IKNSD_INS4_14scalar_abs2_opIfEEKSA_EELin1ELin1ELb0EEEEEEENS4_9assign_opIffEELi0EEES2_Li4ELi0EE23ScalarAssignmentFunctorELi1EEEvllRT_RNS1_7BarrierEiEUlvE_E15_M_init_functorIRKSY_EEvRSt9_Any_dataOSU_ = comdat any

$_ZNSt14_Function_base13_Base_managerIZN5Eigen20CoreThreadPoolDevice15parallelForImplINS1_8internal33dense_assignment_loop_with_deviceINS4_31generic_dense_assignment_kernelINS4_9evaluatorINS1_5BlockINS1_6MatrixIfLi16ELi16ELi0ELi16ELi16EEELin1ELin1ELb0EEEEENS7_INS1_12CwiseUnaryOpINS4_15scalar_dummy_opIfLb1EEEKNS8_IKNSD_INS4_14scalar_abs2_opIfEEKSA_EELin1ELin1ELb0EEEEEEENS4_9assign_opIffEELi0EEES2_Li4ELi0EE23ScalarAssignmentFunctorELi1EEEvllRT_RNS1_7BarrierEiEUlvE_E10_M_destroyERSt9_Any_dataSt17integral_constantIbLb0EE = comdat any

$_ZNSt14_Function_base13_Base_managerIZN5Eigen20CoreThreadPoolDevice15parallelForImplINS1_8internal33dense_assignment_loop_with_deviceINS4_31generic_dense_assignment_kernelINS4_9evaluatorINS1_5BlockINS1_6MatrixIfLi16ELi16ELi0ELi16ELi16EEELin1ELin1ELb0EEEEENS7_INS1_12CwiseUnaryOpINS4_15scalar_dummy_opIfLb1EEEKNS8_IKNSD_INS4_14scalar_abs2_opIfEEKSA_EELin1ELin1ELb0EEEEEEENS4_9assign_opIffEELi0EEES2_Li4ELi0EE23ScalarAssignmentFunctorELi1EEEvllRT_RNS1_7BarrierEiEUlvE_E9_M_createIRKSY_EEvRSt9_Any_dataOSU_St17integral_constantIbLb0EE = comdat any

$_ZZN5Eigen9EigenTest20get_registered_testsEvE19ms_registered_tests = comdat any

$_ZGVZN5Eigen9EigenTest20get_registered_testsEvE19ms_registered_tests = comdat any

$_ZTSN5Eigen22eigen_assert_exceptionE = comdat any

$_ZTIN5Eigen22eigen_assert_exceptionE = comdat any

$_ZTVN5Eigen15ThreadPoolTemplINS_20StlThreadEnvironmentEEE = comdat any

$_ZTSN5Eigen15ThreadPoolTemplINS_20StlThreadEnvironmentEEE = comdat any

$_ZTSN5Eigen19ThreadPoolInterfaceE = comdat any

$_ZTIN5Eigen19ThreadPoolInterfaceE = comdat any

$_ZTIN5Eigen15ThreadPoolTemplINS_20StlThreadEnvironmentEEE = comdat any

$_ZTVN5Eigen19ThreadPoolInterfaceE = comdat any

$_ZTVNSt6thread11_State_implINS_8_InvokerISt5tupleIJSt8functionIFvvEEEEEEEE = comdat any

$_ZTSNSt6thread11_State_implINS_8_InvokerISt5tupleIJSt8functionIFvvEEEEEEEE = comdat any

$_ZTINSt6thread11_State_implINS_8_InvokerISt5tupleIJSt8functionIFvvEEEEEEEE = comdat any

$_ZZN5Eigen15ThreadPoolTemplINS_20StlThreadEnvironmentEE12GetPerThreadEvE11per_thread_ = comdat any

$_ZTSZN5Eigen15ThreadPoolTemplINS_20StlThreadEnvironmentEEC1EibS1_EUlvE_ = comdat any

$_ZTIZN5Eigen15ThreadPoolTemplINS_20StlThreadEnvironmentEEC1EibS1_EUlvE_ = comdat any

$_ZZN5Eigen8internal15count_bits_implIivE3clzEiE18kLeadingBitsOffset = comdat any

$_ZTSZN5Eigen20CoreThreadPoolDevice15parallelForImplINS_8internal33dense_assignment_loop_with_deviceINS2_31generic_dense_assignment_kernelINS2_9evaluatorINS_6MatrixIdLin1ELin1ELi0ELin1ELin1EEEEENS5_INS_12CwiseUnaryOpINS2_15scalar_dummy_opIdLb0EEEKNS9_INS2_14scalar_abs2_opIdEEKS7_EEEEEENS2_9assign_opIddEELi0EEES0_Li1ELi0EE17AssignmentFunctorELi1EEEvllRT_RNS_7BarrierEiEUlvE_ = comdat any

$_ZTIZN5Eigen20CoreThreadPoolDevice15parallelForImplINS_8internal33dense_assignment_loop_with_deviceINS2_31generic_dense_assignment_kernelINS2_9evaluatorINS_6MatrixIdLin1ELin1ELi0ELin1ELin1EEEEENS5_INS_12CwiseUnaryOpINS2_15scalar_dummy_opIdLb0EEEKNS9_INS2_14scalar_abs2_opIdEEKS7_EEEEEENS2_9assign_opIddEELi0EEES0_Li1ELi0EE17AssignmentFunctorELi1EEEvllRT_RNS_7BarrierEiEUlvE_ = comdat any

$_ZTSZN5Eigen20CoreThreadPoolDevice15parallelForImplINS_8internal33dense_assignment_loop_with_deviceINS2_31generic_dense_assignment_kernelINS2_9evaluatorINS_6MatrixIdLin1ELin1ELi0ELin1ELin1EEEEENS5_INS_12CwiseUnaryOpINS2_15scalar_dummy_opIdLb1EEEKNS9_INS2_14scalar_abs2_opIdEEKS7_EEEEEENS2_9assign_opIddEELi0EEES0_Li3ELi0EE17AssignmentFunctorELi2EEEvllRT_RNS_7BarrierEiEUlvE_ = comdat any

$_ZTIZN5Eigen20CoreThreadPoolDevice15parallelForImplINS_8internal33dense_assignment_loop_with_deviceINS2_31generic_dense_assignment_kernelINS2_9evaluatorINS_6MatrixIdLin1ELin1ELi0ELin1ELin1EEEEENS5_INS_12CwiseUnaryOpINS2_15scalar_dummy_opIdLb1EEEKNS9_INS2_14scalar_abs2_opIdEEKS7_EEEEEENS2_9assign_opIddEELi0EEES0_Li3ELi0EE17AssignmentFunctorELi2EEEvllRT_RNS_7BarrierEiEUlvE_ = comdat any

$_ZTSZN5Eigen20CoreThreadPoolDevice15parallelForImplINS_8internal33dense_assignment_loop_with_deviceINS2_31generic_dense_assignment_kernelINS2_9evaluatorINS_5BlockINS_6MatrixIdLin1ELin1ELi0ELin1ELin1EEELin1ELin1ELb0EEEEENS5_INS_12CwiseUnaryOpINS2_15scalar_dummy_opIdLb0EEEKNS6_IKNSB_INS2_14scalar_abs2_opIdEEKS8_EELin1ELin1ELb0EEEEEEENS2_9assign_opIddEELi0EEES0_Li0ELi0EE17AssignmentFunctorELi1EEEvllllRT_RNS_7BarrierEiEUlvE_ = comdat any

$_ZTIZN5Eigen20CoreThreadPoolDevice15parallelForImplINS_8internal33dense_assignment_loop_with_deviceINS2_31generic_dense_assignment_kernelINS2_9evaluatorINS_5BlockINS_6MatrixIdLin1ELin1ELi0ELin1ELin1EEELin1ELin1ELb0EEEEENS5_INS_12CwiseUnaryOpINS2_15scalar_dummy_opIdLb0EEEKNS6_IKNSB_INS2_14scalar_abs2_opIdEEKS8_EELin1ELin1ELb0EEEEEEENS2_9assign_opIddEELi0EEES0_Li0ELi0EE17AssignmentFunctorELi1EEEvllllRT_RNS_7BarrierEiEUlvE_ = comdat any

$_ZTSZN5Eigen20CoreThreadPoolDevice15parallelForImplINS_8internal33dense_assignment_loop_with_deviceINS2_31generic_dense_assignment_kernelINS2_9evaluatorINS_5BlockINS_6MatrixIdLin1ELin1ELi0ELin1ELin1EEELin1ELin1ELb0EEEEENS5_INS_12CwiseUnaryOpINS2_15scalar_dummy_opIdLb0EEEKNS6_IKNSB_INS2_14scalar_abs2_opIdEEKS8_EELin1ELin1ELb0EEEEEEENS2_9assign_opIddEELi0EEES0_Li0ELi0EE17AssignmentFunctorELi1EEEvllllRT_RNS_7BarrierEiEUlvE0_ = comdat any

$_ZTIZN5Eigen20CoreThreadPoolDevice15parallelForImplINS_8internal33dense_assignment_loop_with_deviceINS2_31generic_dense_assignment_kernelINS2_9evaluatorINS_5BlockINS_6MatrixIdLin1ELin1ELi0ELin1ELin1EEELin1ELin1ELb0EEEEENS5_INS_12CwiseUnaryOpINS2_15scalar_dummy_opIdLb0EEEKNS6_IKNSB_INS2_14scalar_abs2_opIdEEKS8_EELin1ELin1ELb0EEEEEEENS2_9assign_opIddEELi0EEES0_Li0ELi0EE17AssignmentFunctorELi1EEEvllllRT_RNS_7BarrierEiEUlvE0_ = comdat any

$_ZTSZN5Eigen20CoreThreadPoolDevice15parallelForImplINS_8internal33dense_assignment_loop_with_deviceINS2_31generic_dense_assignment_kernelINS2_9evaluatorINS_5BlockINS_6MatrixIdLin1ELin1ELi0ELin1ELin1EEELin1ELin1ELb0EEEEENS5_INS_12CwiseUnaryOpINS2_15scalar_dummy_opIdLb1EEEKNS6_IKNSB_INS2_14scalar_abs2_opIdEEKS8_EELin1ELin1ELb0EEEEEEENS2_9assign_opIddEELi0EEES0_Li4ELi0EE23PacketAssignmentFunctorELi2EEEvllllRT_RNS_7BarrierEiEUlvE_ = comdat any

$_ZTIZN5Eigen20CoreThreadPoolDevice15parallelForImplINS_8internal33dense_assignment_loop_with_deviceINS2_31generic_dense_assignment_kernelINS2_9evaluatorINS_5BlockINS_6MatrixIdLin1ELin1ELi0ELin1ELin1EEELin1ELin1ELb0EEEEENS5_INS_12CwiseUnaryOpINS2_15scalar_dummy_opIdLb1EEEKNS6_IKNSB_INS2_14scalar_abs2_opIdEEKS8_EELin1ELin1ELb0EEEEEEENS2_9assign_opIddEELi0EEES0_Li4ELi0EE23PacketAssignmentFunctorELi2EEEvllllRT_RNS_7BarrierEiEUlvE_ = comdat any

$_ZTSZN5Eigen20CoreThreadPoolDevice15parallelForImplINS_8internal33dense_assignment_loop_with_deviceINS2_31generic_dense_assignment_kernelINS2_9evaluatorINS_5BlockINS_6MatrixIdLin1ELin1ELi0ELin1ELin1EEELin1ELin1ELb0EEEEENS5_INS_12CwiseUnaryOpINS2_15scalar_dummy_opIdLb1EEEKNS6_IKNSB_INS2_14scalar_abs2_opIdEEKS8_EELin1ELin1ELb0EEEEEEENS2_9assign_opIddEELi0EEES0_Li4ELi0EE23PacketAssignmentFunctorELi2EEEvllllRT_RNS_7BarrierEiEUlvE0_ = comdat any

$_ZTIZN5Eigen20CoreThreadPoolDevice15parallelForImplINS_8internal33dense_assignment_loop_with_deviceINS2_31generic_dense_assignment_kernelINS2_9evaluatorINS_5BlockINS_6MatrixIdLin1ELin1ELi0ELin1ELin1EEELin1ELin1ELb0EEEEENS5_INS_12CwiseUnaryOpINS2_15scalar_dummy_opIdLb1EEEKNS6_IKNSB_INS2_14scalar_abs2_opIdEEKS8_EELin1ELin1ELb0EEEEEEENS2_9assign_opIddEELi0EEES0_Li4ELi0EE23PacketAssignmentFunctorELi2EEEvllllRT_RNS_7BarrierEiEUlvE0_ = comdat any

$_ZTSZN5Eigen20CoreThreadPoolDevice15parallelForImplINS_8internal33dense_assignment_loop_with_deviceINS2_31generic_dense_assignment_kernelINS2_9evaluatorINS_5BlockINS_6MatrixIdLin1ELin1ELi0ELin1ELin1EEELin1ELin1ELb0EEEEENS5_INS_12CwiseUnaryOpINS2_15scalar_dummy_opIdLb1EEEKNS6_IKNSB_INS2_14scalar_abs2_opIdEEKS8_EELin1ELin1ELb0EEEEEEENS2_9assign_opIddEELi0EEES0_Li4ELi0EE23ScalarAssignmentFunctorELi1EEEvllRT_RNS_7BarrierEiEUlvE_ = comdat any

$_ZTIZN5Eigen20CoreThreadPoolDevice15parallelForImplINS_8internal33dense_assignment_loop_with_deviceINS2_31generic_dense_assignment_kernelINS2_9evaluatorINS_5BlockINS_6MatrixIdLin1ELin1ELi0ELin1ELin1EEELin1ELin1ELb0EEEEENS5_INS_12CwiseUnaryOpINS2_15scalar_dummy_opIdLb1EEEKNS6_IKNSB_INS2_14scalar_abs2_opIdEEKS8_EELin1ELin1ELb0EEEEEEENS2_9assign_opIddEELi0EEES0_Li4ELi0EE23ScalarAssignmentFunctorELi1EEEvllRT_RNS_7BarrierEiEUlvE_ = comdat any

$_ZTSZN5Eigen20CoreThreadPoolDevice15parallelForImplINS_8internal33dense_assignment_loop_with_deviceINS2_31generic_dense_assignment_kernelINS2_9evaluatorINS_6MatrixIfLi16ELi16ELi0ELi16ELi16EEEEENS5_INS_12CwiseUnaryOpINS2_15scalar_dummy_opIfLb0EEEKNS9_INS2_14scalar_abs2_opIfEEKS7_EEEEEENS2_9assign_opIffEELi0EEES0_Li1ELi0EE17AssignmentFunctorELi1EEEvllRT_RNS_7BarrierEiEUlvE_ = comdat any

$_ZTIZN5Eigen20CoreThreadPoolDevice15parallelForImplINS_8internal33dense_assignment_loop_with_deviceINS2_31generic_dense_assignment_kernelINS2_9evaluatorINS_6MatrixIfLi16ELi16ELi0ELi16ELi16EEEEENS5_INS_12CwiseUnaryOpINS2_15scalar_dummy_opIfLb0EEEKNS9_INS2_14scalar_abs2_opIfEEKS7_EEEEEENS2_9assign_opIffEELi0EEES0_Li1ELi0EE17AssignmentFunctorELi1EEEvllRT_RNS_7BarrierEiEUlvE_ = comdat any

$_ZTSZN5Eigen20CoreThreadPoolDevice15parallelForImplINS_8internal33dense_assignment_loop_with_deviceINS2_31generic_dense_assignment_kernelINS2_9evaluatorINS_6MatrixIfLi16ELi16ELi0ELi16ELi16EEEEENS5_INS_12CwiseUnaryOpINS2_15scalar_dummy_opIfLb1EEEKNS9_INS2_14scalar_abs2_opIfEEKS7_EEEEEENS2_9assign_opIffEELi0EEES0_Li2ELi0EE17AssignmentFunctorELi4EEEvllllRT_RNS_7BarrierEiEUlvE_ = comdat any

$_ZTIZN5Eigen20CoreThreadPoolDevice15parallelForImplINS_8internal33dense_assignment_loop_with_deviceINS2_31generic_dense_assignment_kernelINS2_9evaluatorINS_6MatrixIfLi16ELi16ELi0ELi16ELi16EEEEENS5_INS_12CwiseUnaryOpINS2_15scalar_dummy_opIfLb1EEEKNS9_INS2_14scalar_abs2_opIfEEKS7_EEEEEENS2_9assign_opIffEELi0EEES0_Li2ELi0EE17AssignmentFunctorELi4EEEvllllRT_RNS_7BarrierEiEUlvE_ = comdat any

$_ZTSZN5Eigen20CoreThreadPoolDevice15parallelForImplINS_8internal33dense_assignment_loop_with_deviceINS2_31generic_dense_assignment_kernelINS2_9evaluatorINS_6MatrixIfLi16ELi16ELi0ELi16ELi16EEEEENS5_INS_12CwiseUnaryOpINS2_15scalar_dummy_opIfLb1EEEKNS9_INS2_14scalar_abs2_opIfEEKS7_EEEEEENS2_9assign_opIffEELi0EEES0_Li2ELi0EE17AssignmentFunctorELi4EEEvllllRT_RNS_7BarrierEiEUlvE0_ = comdat any

$_ZTIZN5Eigen20CoreThreadPoolDevice15parallelForImplINS_8internal33dense_assignment_loop_with_deviceINS2_31generic_dense_assignment_kernelINS2_9evaluatorINS_6MatrixIfLi16ELi16ELi0ELi16ELi16EEEEENS5_INS_12CwiseUnaryOpINS2_15scalar_dummy_opIfLb1EEEKNS9_INS2_14scalar_abs2_opIfEEKS7_EEEEEENS2_9assign_opIffEELi0EEES0_Li2ELi0EE17AssignmentFunctorELi4EEEvllllRT_RNS_7BarrierEiEUlvE0_ = comdat any

$_ZTSZN5Eigen20CoreThreadPoolDevice15parallelForImplINS_8internal33dense_assignment_loop_with_deviceINS2_31generic_dense_assignment_kernelINS2_9evaluatorINS_5BlockINS_6MatrixIfLi16ELi16ELi0ELi16ELi16EEELin1ELin1ELb0EEEEENS5_INS_12CwiseUnaryOpINS2_15scalar_dummy_opIfLb0EEEKNS6_IKNSB_INS2_14scalar_abs2_opIfEEKS8_EELin1ELin1ELb0EEEEEEENS2_9assign_opIffEELi0EEES0_Li0ELi0EE17AssignmentFunctorELi1EEEvllllRT_RNS_7BarrierEiEUlvE_ = comdat any

$_ZTIZN5Eigen20CoreThreadPoolDevice15parallelForImplINS_8internal33dense_assignment_loop_with_deviceINS2_31generic_dense_assignment_kernelINS2_9evaluatorINS_5BlockINS_6MatrixIfLi16ELi16ELi0ELi16ELi16EEELin1ELin1ELb0EEEEENS5_INS_12CwiseUnaryOpINS2_15scalar_dummy_opIfLb0EEEKNS6_IKNSB_INS2_14scalar_abs2_opIfEEKS8_EELin1ELin1ELb0EEEEEEENS2_9assign_opIffEELi0EEES0_Li0ELi0EE17AssignmentFunctorELi1EEEvllllRT_RNS_7BarrierEiEUlvE_ = comdat any

$_ZTSZN5Eigen20CoreThreadPoolDevice15parallelForImplINS_8internal33dense_assignment_loop_with_deviceINS2_31generic_dense_assignment_kernelINS2_9evaluatorINS_5BlockINS_6MatrixIfLi16ELi16ELi0ELi16ELi16EEELin1ELin1ELb0EEEEENS5_INS_12CwiseUnaryOpINS2_15scalar_dummy_opIfLb0EEEKNS6_IKNSB_INS2_14scalar_abs2_opIfEEKS8_EELin1ELin1ELb0EEEEEEENS2_9assign_opIffEELi0EEES0_Li0ELi0EE17AssignmentFunctorELi1EEEvllllRT_RNS_7BarrierEiEUlvE0_ = comdat any

$_ZTIZN5Eigen20CoreThreadPoolDevice15parallelForImplINS_8internal33dense_assignment_loop_with_deviceINS2_31generic_dense_assignment_kernelINS2_9evaluatorINS_5BlockINS_6MatrixIfLi16ELi16ELi0ELi16ELi16EEELin1ELin1ELb0EEEEENS5_INS_12CwiseUnaryOpINS2_15scalar_dummy_opIfLb0EEEKNS6_IKNSB_INS2_14scalar_abs2_opIfEEKS8_EELin1ELin1ELb0EEEEEEENS2_9assign_opIffEELi0EEES0_Li0ELi0EE17AssignmentFunctorELi1EEEvllllRT_RNS_7BarrierEiEUlvE0_ = comdat any

$_ZTSZN5Eigen20CoreThreadPoolDevice15parallelForImplINS_8internal33dense_assignment_loop_with_deviceINS2_31generic_dense_assignment_kernelINS2_9evaluatorINS_5BlockINS_6MatrixIfLi16ELi16ELi0ELi16ELi16EEELin1ELin1ELb0EEEEENS5_INS_12CwiseUnaryOpINS2_15scalar_dummy_opIfLb1EEEKNS6_IKNSB_INS2_14scalar_abs2_opIfEEKS8_EELin1ELin1ELb0EEEEEEENS2_9assign_opIffEELi0EEES0_Li4ELi0EE23PacketAssignmentFunctorELi4EEEvllllRT_RNS_7BarrierEiEUlvE_ = comdat any

$_ZTIZN5Eigen20CoreThreadPoolDevice15parallelForImplINS_8internal33dense_assignment_loop_with_deviceINS2_31generic_dense_assignment_kernelINS2_9evaluatorINS_5BlockINS_6MatrixIfLi16ELi16ELi0ELi16ELi16EEELin1ELin1ELb0EEEEENS5_INS_12CwiseUnaryOpINS2_15scalar_dummy_opIfLb1EEEKNS6_IKNSB_INS2_14scalar_abs2_opIfEEKS8_EELin1ELin1ELb0EEEEEEENS2_9assign_opIffEELi0EEES0_Li4ELi0EE23PacketAssignmentFunctorELi4EEEvllllRT_RNS_7BarrierEiEUlvE_ = comdat any

$_ZTSZN5Eigen20CoreThreadPoolDevice15parallelForImplINS_8internal33dense_assignment_loop_with_deviceINS2_31generic_dense_assignment_kernelINS2_9evaluatorINS_5BlockINS_6MatrixIfLi16ELi16ELi0ELi16ELi16EEELin1ELin1ELb0EEEEENS5_INS_12CwiseUnaryOpINS2_15scalar_dummy_opIfLb1EEEKNS6_IKNSB_INS2_14scalar_abs2_opIfEEKS8_EELin1ELin1ELb0EEEEEEENS2_9assign_opIffEELi0EEES0_Li4ELi0EE23PacketAssignmentFunctorELi4EEEvllllRT_RNS_7BarrierEiEUlvE0_ = comdat any

$_ZTIZN5Eigen20CoreThreadPoolDevice15parallelForImplINS_8internal33dense_assignment_loop_with_deviceINS2_31generic_dense_assignment_kernelINS2_9evaluatorINS_5BlockINS_6MatrixIfLi16ELi16ELi0ELi16ELi16EEELin1ELin1ELb0EEEEENS5_INS_12CwiseUnaryOpINS2_15scalar_dummy_opIfLb1EEEKNS6_IKNSB_INS2_14scalar_abs2_opIfEEKS8_EELin1ELin1ELb0EEEEEEENS2_9assign_opIffEELi0EEES0_Li4ELi0EE23PacketAssignmentFunctorELi4EEEvllllRT_RNS_7BarrierEiEUlvE0_ = comdat any

$_ZTSZN5Eigen20CoreThreadPoolDevice15parallelForImplINS_8internal33dense_assignment_loop_with_deviceINS2_31generic_dense_assignment_kernelINS2_9evaluatorINS_5BlockINS_6MatrixIfLi16ELi16ELi0ELi16ELi16EEELin1ELin1ELb0EEEEENS5_INS_12CwiseUnaryOpINS2_15scalar_dummy_opIfLb1EEEKNS6_IKNSB_INS2_14scalar_abs2_opIfEEKS8_EELin1ELin1ELb0EEEEEEENS2_9assign_opIffEELi0EEES0_Li4ELi0EE23ScalarAssignmentFunctorELi1EEEvllRT_RNS_7BarrierEiEUlvE_ = comdat any

$_ZTIZN5Eigen20CoreThreadPoolDevice15parallelForImplINS_8internal33dense_assignment_loop_with_deviceINS2_31generic_dense_assignment_kernelINS2_9evaluatorINS_5BlockINS_6MatrixIfLi16ELi16ELi0ELi16ELi16EEELin1ELin1ELb0EEEEENS5_INS_12CwiseUnaryOpINS2_15scalar_dummy_opIfLb1EEEKNS6_IKNSB_INS2_14scalar_abs2_opIfEEKS8_EELin1ELin1ELb0EEEEEEENS2_9assign_opIffEELi0EEES0_Li4ELi0EE23ScalarAssignmentFunctorELi1EEEvllRT_RNS_7BarrierEiEUlvE_ = comdat any

@_ZStL8__ioinit = internal global %"class.std::ios_base::Init" zeroinitializer, align 1
@__dso_handle = external hidden global i8
@_ZN5EigenL12g_test_stackB5cxx11E = internal global %"class.std::vector" zeroinitializer, align 8
@.str = private unnamed_addr constant [6 x i8] c"float\00", align 1
@.str.2 = private unnamed_addr constant [7 x i8] c"double\00", align 1
@.str.3 = private unnamed_addr constant [12 x i8] c"long double\00", align 1
@.str.4 = private unnamed_addr constant [5 x i8] c"half\00", align 1
@.str.5 = private unnamed_addr constant [9 x i8] c"bfloat16\00", align 1
@.str.6 = private unnamed_addr constant [7 x i8] c"int8_t\00", align 1
@.str.7 = private unnamed_addr constant [8 x i8] c"int16_t\00", align 1
@.str.8 = private unnamed_addr constant [8 x i8] c"int32_t\00", align 1
@.str.9 = private unnamed_addr constant [8 x i8] c"int64_t\00", align 1
@.str.10 = private unnamed_addr constant [8 x i8] c"uint8_t\00", align 1
@.str.11 = private unnamed_addr constant [9 x i8] c"uint16_t\00", align 1
@.str.12 = private unnamed_addr constant [9 x i8] c"uint32_t\00", align 1
@.str.13 = private unnamed_addr constant [9 x i8] c"uint64_t\00", align 1
@.str.14 = private unnamed_addr constant [15 x i8] c"complex<float>\00", align 1
@.str.15 = private unnamed_addr constant [16 x i8] c"complex<double>\00", align 1
@.str.16 = private unnamed_addr constant [21 x i8] c"complex<long double>\00", align 1
@.str.17 = private unnamed_addr constant [13 x i8] c"complex<int>\00", align 1
@_ZN5EigenL16g_has_set_repeatE = internal global i8 0, align 1
@_ZN5EigenL14g_has_set_seedE = internal global i8 0, align 1
@_ZSt4cout = external global %"class.std::basic_ostream", align 8
@.str.18 = private unnamed_addr constant [10 x i8] c"Argument \00", align 1
@.str.19 = private unnamed_addr constant [36 x i8] c" conflicting with a former argument\00", align 1
@.str.20 = private unnamed_addr constant [62 x i8] c"This test application takes the following optional arguments:\00", align 1
@.str.21 = private unnamed_addr constant [45 x i8] c"  rN     Repeat each test N times (default: \00", align 1
@.str.22 = private unnamed_addr constant [2 x i8] c")\00", align 1
@.str.23 = private unnamed_addr constant [75 x i8] c"  sN     Use N as seed for random numbers (default: based on current time)\00", align 1
@.str.24 = private unnamed_addr constant [66 x i8] c"If defined, the environment variables EIGEN_REPEAT and EIGEN_SEED\00", align 1
@.str.25 = private unnamed_addr constant [53 x i8] c"will be used as default values for these parameters.\00", align 1
@.str.26 = private unnamed_addr constant [13 x i8] c"EIGEN_REPEAT\00", align 1
@.str.27 = private unnamed_addr constant [11 x i8] c"EIGEN_SEED\00", align 1
@_ZN5EigenL6g_seedE = internal global i32 0, align 4
@_ZN5EigenL8g_repeatE = internal global i32 1, align 4
@.str.28 = private unnamed_addr constant [48 x i8] c"Initializing random number generator with seed \00", align 1
@.str.29 = private unnamed_addr constant [7 x i8] c"Seed: \00", align 1
@.str.30 = private unnamed_addr constant [21 x i8] c"Repeating each test \00", align 1
@.str.31 = private unnamed_addr constant [7 x i8] c" times\00", align 1
@.str.32 = private unnamed_addr constant [14 x i8] c"./test/main.h\00", align 1
@.str.33 = private unnamed_addr constant [28 x i8] c"EigenTest::all().size() > 0\00", align 1
@_ZL17test_handler_test = internal global %"class.Eigen::EigenTest" zeroinitializer, align 8
@.str.35 = private unnamed_addr constant [5 x i8] c"test\00", align 1
@.str.36 = private unnamed_addr constant [47 x i8] c"test_threaded_assignment(MatrixXd(), 123, 123)\00", align 1
@.str.37 = private unnamed_addr constant [50 x i8] c"test_threaded_assignment(Matrix<float, 16, 16>())\00", align 1
@.str.38 = private unnamed_addr constant [22 x i8] c"Invalid repeat value \00", align 1
@.str.39 = private unnamed_addr constant [20 x i8] c"Invalid seed value \00", align 1
@_ZN5EigenL12g_test_levelE = internal global i32 0, align 4
@_ZSt4cerr = external global %"class.std::basic_ostream", align 8
@.str.40 = private unnamed_addr constant [10 x i8] c"WARNING: \00", align 1
@.str.41 = private unnamed_addr constant [6 x i8] c"Test \00", align 1
@.str.42 = private unnamed_addr constant [12 x i8] c" failed in \00", align 1
@.str.43 = private unnamed_addr constant [3 x i8] c" (\00", align 1
@.str.44 = private unnamed_addr constant [5 x i8] c"    \00", align 1
@.str.45 = private unnamed_addr constant [8 x i8] c"Stack:\0A\00", align 1
@.str.46 = private unnamed_addr constant [5 x i8] c"  - \00", align 1
@.str.47 = private unnamed_addr constant [2 x i8] c"\0A\00", align 1
@_ZZN5Eigen9EigenTest20get_registered_testsEvE19ms_registered_tests = linkonce_odr dso_local global ptr null, comdat, align 8
@_ZGVZN5Eigen9EigenTest20get_registered_testsEvE19ms_registered_tests = linkonce_odr dso_local global i64 0, comdat, align 8
@.str.48 = private unnamed_addr constant [26 x i8] c"vector::_M_realloc_insert\00", align 1
@_ZN5EigenL14no_more_assertE = internal global i8 0, align 1
@_ZN5EigenL32report_on_cerr_on_assert_failureE = internal global i8 1, align 1
@.str.49 = private unnamed_addr constant [142 x i8] c"this assertion is explained here: http://eigen.tuxfamily.org/dox-devel/group__TopicUnalignedArrayAssert.html **** READ THIS WEB PAGE !!! ****\00", align 1
@.str.50 = private unnamed_addr constant [223 x i8] c"(is_constant_evaluated() || (std::uintptr_t(array) % Alignment == 0)) && \22this assertion is explained here: \22 \22http://eigen.tuxfamily.org/dox-devel/group__TopicUnalignedArrayAssert.html\22 \22 **** READ THIS WEB PAGE !!! ****\22\00", align 1
@.str.51 = private unnamed_addr constant [32 x i8] c"./Eigen/src/Core/DenseStorage.h\00", align 1
@__PRETTY_FUNCTION__._ZN5Eigen8internal11plain_arrayIfLi256ELi0ELi16EEC2Ev = private unnamed_addr constant [129 x i8] c"Eigen::internal::plain_array<float, 256, 0, 16>::plain_array() [T = float, Size = 256, MatrixOrArrayOptions = 0, Alignment = 16]\00", align 1
@_ZTVN10__cxxabiv117__class_type_infoE = external global ptr
@_ZTSN5Eigen22eigen_assert_exceptionE = linkonce_odr dso_local constant [33 x i8] c"N5Eigen22eigen_assert_exceptionE\00", comdat, align 1
@_ZTIN5Eigen22eigen_assert_exceptionE = linkonce_odr dso_local constant { ptr, ptr } { ptr getelementptr inbounds (ptr, ptr @_ZTVN10__cxxabiv117__class_type_infoE, i64 2), ptr @_ZTSN5Eigen22eigen_assert_exceptionE }, comdat, align 8
@.str.52 = private unnamed_addr constant [31 x i8] c"./test/assignment_threaded.cpp\00", align 1
@.str.53 = private unnamed_addr constant [36 x i8] c"verifyIsCwiseApprox(ref, dst, true)\00", align 1
@.str.54 = private unnamed_addr constant [116 x i8] c"verifyIsCwiseApprox(ref.bottomRightCorner(blockRows, blockCols), dst.bottomRightCorner(blockRows, blockCols), true)\00", align 1
@_ZTVN5Eigen15ThreadPoolTemplINS_20StlThreadEnvironmentEEE = linkonce_odr dso_local unnamed_addr constant { [9 x ptr] } { [9 x ptr] [ptr null, ptr @_ZTIN5Eigen15ThreadPoolTemplINS_20StlThreadEnvironmentEEE, ptr @_ZN5Eigen15ThreadPoolTemplINS_20StlThreadEnvironmentEE8ScheduleESt8functionIFvvEE, ptr @_ZN5Eigen15ThreadPoolTemplINS_20StlThreadEnvironmentEE16ScheduleWithHintESt8functionIFvvEEii, ptr @_ZN5Eigen15ThreadPoolTemplINS_20StlThreadEnvironmentEE6CancelEv, ptr @_ZNK5Eigen15ThreadPoolTemplINS_20StlThreadEnvironmentEE10NumThreadsEv, ptr @_ZNK5Eigen15ThreadPoolTemplINS_20StlThreadEnvironmentEE15CurrentThreadIdEv, ptr @_ZN5Eigen15ThreadPoolTemplINS_20StlThreadEnvironmentEED2Ev, ptr @_ZN5Eigen15ThreadPoolTemplINS_20StlThreadEnvironmentEED0Ev] }, comdat, align 8
@.str.55 = private unnamed_addr constant [27 x i8] c"num_threads_ < kMaxThreads\00", align 1
@.str.56 = private unnamed_addr constant [47 x i8] c"./Eigen/src/ThreadPool/NonBlockingThreadPool.h\00", align 1
@__PRETTY_FUNCTION__._ZN5Eigen15ThreadPoolTemplINS_20StlThreadEnvironmentEEC2EibS1_ = private unnamed_addr constant [137 x i8] c"Eigen::ThreadPoolTempl<Eigen::StlThreadEnvironment>::ThreadPoolTempl(int, bool, Environment) [Environment = Eigen::StlThreadEnvironment]\00", align 1
@_ZTVN10__cxxabiv120__si_class_type_infoE = external global ptr
@_ZTSN5Eigen15ThreadPoolTemplINS_20StlThreadEnvironmentEEE = linkonce_odr dso_local constant [54 x i8] c"N5Eigen15ThreadPoolTemplINS_20StlThreadEnvironmentEEE\00", comdat, align 1
@_ZTSN5Eigen19ThreadPoolInterfaceE = linkonce_odr dso_local constant [30 x i8] c"N5Eigen19ThreadPoolInterfaceE\00", comdat, align 1
@_ZTIN5Eigen19ThreadPoolInterfaceE = linkonce_odr dso_local constant { ptr, ptr } { ptr getelementptr inbounds (ptr, ptr @_ZTVN10__cxxabiv117__class_type_infoE, i64 2), ptr @_ZTSN5Eigen19ThreadPoolInterfaceE }, comdat, align 8
@_ZTIN5Eigen15ThreadPoolTemplINS_20StlThreadEnvironmentEEE = linkonce_odr dso_local constant { ptr, ptr, ptr } { ptr getelementptr inbounds (ptr, ptr @_ZTVN10__cxxabiv120__si_class_type_infoE, i64 2), ptr @_ZTSN5Eigen15ThreadPoolTemplINS_20StlThreadEnvironmentEEE, ptr @_ZTIN5Eigen19ThreadPoolInterfaceE }, comdat, align 8
@_ZTVN5Eigen19ThreadPoolInterfaceE = linkonce_odr dso_local unnamed_addr constant { [9 x ptr] } { [9 x ptr] [ptr null, ptr @_ZTIN5Eigen19ThreadPoolInterfaceE, ptr @__cxa_pure_virtual, ptr @_ZN5Eigen19ThreadPoolInterface16ScheduleWithHintESt8functionIFvvEEii, ptr @_ZN5Eigen19ThreadPoolInterface6CancelEv, ptr @__cxa_pure_virtual, ptr @__cxa_pure_virtual, ptr @_ZN5Eigen19ThreadPoolInterfaceD2Ev, ptr @_ZN5Eigen19ThreadPoolInterfaceD0Ev] }, comdat, align 8
@.str.57 = private unnamed_addr constant [86 x i8] c"Alignment must be at least sizeof(void*), less than or equal to 128, and a power of 2\00", align 1
@.str.58 = private unnamed_addr constant [176 x i8] c"alignment >= sizeof(void*) && alignment <= 128 && (alignment & (alignment - 1)) == 0 && \22Alignment must be at least sizeof(void*), less than or equal to 128, and a power of 2\22\00", align 1
@.str.59 = private unnamed_addr constant [31 x i8] c"./Eigen/src/Core/util/Memory.h\00", align 1
@__PRETTY_FUNCTION__._ZN5Eigen8internal23handmade_aligned_mallocEmm = private unnamed_addr constant [73 x i8] c"void *Eigen::internal::handmade_aligned_malloc(std::size_t, std::size_t)\00", align 1
@.str.60 = private unnamed_addr constant [40 x i8] c"waiters.size() < (1 << kWaiterBits) - 1\00", align 1
@.str.61 = private unnamed_addr constant [36 x i8] c"./Eigen/src/ThreadPool/EventCount.h\00", align 1
@__PRETTY_FUNCTION__._ZN5Eigen10EventCountC2ERNS_13MaxSizeVectorINS0_6WaiterEEE = private unnamed_addr constant [74 x i8] c"Eigen::EventCount::EventCount(MaxSizeVector<Eigen::EventCount::Waiter> &)\00", align 1
@.str.62 = private unnamed_addr constant [14 x i8] c"n <= reserve_\00", align 1
@.str.63 = private unnamed_addr constant [38 x i8] c"./Eigen/src/Core/util/MaxSizeVector.h\00", align 1
@__PRETTY_FUNCTION__._ZN5Eigen13MaxSizeVectorINS_10EventCount6WaiterEE6resizeEm = private unnamed_addr constant [106 x i8] c"void Eigen::MaxSizeVector<Eigen::EventCount::Waiter>::resize(std::size_t) [T = Eigen::EventCount::Waiter]\00", align 1
@.str.64 = private unnamed_addr constant [11 x i8] c"size_ == n\00", align 1
@.str.65 = private unnamed_addr constant [17 x i8] c"size_ < reserve_\00", align 1
@__PRETTY_FUNCTION__._ZN5Eigen13MaxSizeVectorINS0_IjEEE12emplace_backIiEEvRKT_ = private unnamed_addr constant [137 x i8] c"void Eigen::MaxSizeVector<Eigen::MaxSizeVector<unsigned int>>::emplace_back(const X &) [T = Eigen::MaxSizeVector<unsigned int>, X = int]\00", align 1
@__PRETTY_FUNCTION__._ZN5Eigen13MaxSizeVectorIjE9push_backERKj = private unnamed_addr constant [81 x i8] c"void Eigen::MaxSizeVector<unsigned int>::push_back(const T &) [T = unsigned int]\00", align 1
@.str.66 = private unnamed_addr constant [10 x i8] c"size_ > 0\00", align 1
@__PRETTY_FUNCTION__._ZN5Eigen13MaxSizeVectorINS0_IjEEE4backEv = private unnamed_addr constant [109 x i8] c"T &Eigen::MaxSizeVector<Eigen::MaxSizeVector<unsigned int>>::back() [T = Eigen::MaxSizeVector<unsigned int>]\00", align 1
@__PRETTY_FUNCTION__._ZN5Eigen13MaxSizeVectorINS_15ThreadPoolTemplINS_20StlThreadEnvironmentEE10ThreadDataEE6resizeEm = private unnamed_addr constant [182 x i8] c"void Eigen::MaxSizeVector<Eigen::ThreadPoolTempl<Eigen::StlThreadEnvironment>::ThreadData>::resize(std::size_t) [T = Eigen::ThreadPoolTempl<Eigen::StlThreadEnvironment>::ThreadData]\00", align 1
@.str.67 = private unnamed_addr constant [12 x i8] c"Size() == 0\00", align 1
@.str.68 = private unnamed_addr constant [34 x i8] c"./Eigen/src/ThreadPool/RunQueue.h\00", align 1
@__PRETTY_FUNCTION__._ZN5Eigen8RunQueueINS_20StlThreadEnvironment4TaskELj1024EED2Ev = private unnamed_addr constant [127 x i8] c"Eigen::RunQueue<Eigen::StlThreadEnvironment::Task, 1024>::~RunQueue() [Work = Eigen::StlThreadEnvironment::Task, kSize = 1024]\00", align 1
@.str.69 = private unnamed_addr constant [10 x i8] c"i < size_\00", align 1
@__PRETTY_FUNCTION__._ZN5Eigen13MaxSizeVectorINS_15ThreadPoolTemplINS_20StlThreadEnvironmentEE10ThreadDataEEixEm = private unnamed_addr constant [184 x i8] c"T &Eigen::MaxSizeVector<Eigen::ThreadPoolTempl<Eigen::StlThreadEnvironment>::ThreadData>::operator[](std::size_t) [T = Eigen::ThreadPoolTempl<Eigen::StlThreadEnvironment>::ThreadData]\00", align 1
@_ZTVNSt6thread11_State_implINS_8_InvokerISt5tupleIJSt8functionIFvvEEEEEEEE = linkonce_odr dso_local unnamed_addr constant { [5 x ptr] } { [5 x ptr] [ptr null, ptr @_ZTINSt6thread11_State_implINS_8_InvokerISt5tupleIJSt8functionIFvvEEEEEEEE, ptr @_ZNSt6thread11_State_implINS_8_InvokerISt5tupleIJSt8functionIFvvEEEEEEED2Ev, ptr @_ZNSt6thread11_State_implINS_8_InvokerISt5tupleIJSt8functionIFvvEEEEEEED0Ev, ptr @_ZNSt6thread11_State_implINS_8_InvokerISt5tupleIJSt8functionIFvvEEEEEEE6_M_runEv] }, comdat, align 8
@_ZTSNSt6thread11_State_implINS_8_InvokerISt5tupleIJSt8functionIFvvEEEEEEEE = linkonce_odr dso_local constant [71 x i8] c"NSt6thread11_State_implINS_8_InvokerISt5tupleIJSt8functionIFvvEEEEEEEE\00", comdat, align 1
@_ZTINSt6thread6_StateE = external constant ptr
@_ZTINSt6thread11_State_implINS_8_InvokerISt5tupleIJSt8functionIFvvEEEEEEEE = linkonce_odr dso_local constant { ptr, ptr, ptr } { ptr getelementptr inbounds (ptr, ptr @_ZTVN10__cxxabiv120__si_class_type_infoE, i64 2), ptr @_ZTSNSt6thread11_State_implINS_8_InvokerISt5tupleIJSt8functionIFvvEEEEEEEE, ptr @_ZTINSt6thread6_StateE }, comdat, align 8
@_ZTVNSt6thread6_StateE = external unnamed_addr constant { [5 x ptr] }, align 8
@_ZZN5Eigen15ThreadPoolTemplINS_20StlThreadEnvironmentEE12GetPerThreadEvE11per_thread_ = linkonce_odr dso_local thread_local global { ptr, i64, i32 } { ptr null, i64 0, i32 -1 }, comdat, align 8
@__PRETTY_FUNCTION__._ZN5Eigen13MaxSizeVectorINS_10EventCount6WaiterEEixEm = private unnamed_addr constant [108 x i8] c"T &Eigen::MaxSizeVector<Eigen::EventCount::Waiter>::operator[](std::size_t) [T = Eigen::EventCount::Waiter]\00", align 1
@.str.70 = private unnamed_addr constant [11 x i8] c"start >= 0\00", align 1
@__PRETTY_FUNCTION__._ZN5Eigen15ThreadPoolTemplINS_20StlThreadEnvironmentEE12AssertBoundsEii = private unnamed_addr constant [125 x i8] c"void Eigen::ThreadPoolTempl<Eigen::StlThreadEnvironment>::AssertBounds(int, int) [Environment = Eigen::StlThreadEnvironment]\00", align 1
@.str.71 = private unnamed_addr constant [12 x i8] c"start < end\00", align 1
@.str.72 = private unnamed_addr constant [20 x i8] c"end <= num_threads_\00", align 1
@.str.73 = private unnamed_addr constant [43 x i8] c"all_coprimes_[size - 1].size() < (1 << 30)\00", align 1
@__PRETTY_FUNCTION__._ZN5Eigen15ThreadPoolTemplINS_20StlThreadEnvironmentEE5StealEjj = private unnamed_addr constant [160 x i8] c"Eigen::ThreadPoolTempl::Task Eigen::ThreadPoolTempl<Eigen::StlThreadEnvironment>::Steal(unsigned int, unsigned int) [Environment = Eigen::StlThreadEnvironment]\00", align 1
@.str.74 = private unnamed_addr constant [23 x i8] c"start + victim < limit\00", align 1
@__PRETTY_FUNCTION__._ZN5Eigen13MaxSizeVectorINS0_IjEEEixEm = private unnamed_addr constant [126 x i8] c"T &Eigen::MaxSizeVector<Eigen::MaxSizeVector<unsigned int>>::operator[](std::size_t) [T = Eigen::MaxSizeVector<unsigned int>]\00", align 1
@__PRETTY_FUNCTION__._ZN5Eigen13MaxSizeVectorIjEixEm = private unnamed_addr constant [82 x i8] c"T &Eigen::MaxSizeVector<unsigned int>::operator[](std::size_t) [T = unsigned int]\00", align 1
@.str.75 = private unnamed_addr constant [55 x i8] c"(CalculateSize(front, back) == 0) == (maybe_zero == 0)\00", align 1
@__PRETTY_FUNCTION__._ZNK5Eigen8RunQueueINS_20StlThreadEnvironment4TaskELj1024EE14SizeOrNotEmptyILb0EEEjv = private unnamed_addr constant [177 x i8] c"unsigned int Eigen::RunQueue<Eigen::StlThreadEnvironment::Task, 1024>::SizeOrNotEmpty() const [Work = Eigen::StlThreadEnvironment::Task, kSize = 1024, NeedSizeEstimate = false]\00", align 1
@.str.76 = private unnamed_addr constant [36 x i8] c"num_no_notification <= num_spinning\00", align 1
@__PRETTY_FUNCTION__._ZN5Eigen15ThreadPoolTemplINS_20StlThreadEnvironmentEE13SpinningState6DecodeEm = private unnamed_addr constant [174 x i8] c"static Eigen::ThreadPoolTempl::SpinningState Eigen::ThreadPoolTempl<Eigen::StlThreadEnvironment>::SpinningState::Decode(uint64_t) [Environment = Eigen::StlThreadEnvironment]\00", align 1
@__PRETTY_FUNCTION__._ZNK5Eigen15ThreadPoolTemplINS_20StlThreadEnvironmentEE13SpinningState6EncodeEv = private unnamed_addr constant [136 x i8] c"uint64_t Eigen::ThreadPoolTempl<Eigen::StlThreadEnvironment>::SpinningState::Encode() const [Environment = Eigen::StlThreadEnvironment]\00", align 1
@.str.77 = private unnamed_addr constant [6 x i8] c"!t->f\00", align 1
@__PRETTY_FUNCTION__._ZN5Eigen15ThreadPoolTemplINS_20StlThreadEnvironmentEE11WaitForWorkEPNS_10EventCount6WaiterEPNS1_4TaskE = private unnamed_addr constant [168 x i8] c"bool Eigen::ThreadPoolTempl<Eigen::StlThreadEnvironment>::WaitForWork(EventCount::Waiter *, Eigen::ThreadPoolTempl::Task *) [Environment = Eigen::StlThreadEnvironment]\00", align 1
@.str.78 = private unnamed_addr constant [19 x i8] c"waiters >= signals\00", align 1
@__PRETTY_FUNCTION__._ZN5Eigen10EventCount10CheckStateEmb = private unnamed_addr constant [58 x i8] c"static void Eigen::EventCount::CheckState(uint64_t, bool)\00", align 1
@.str.79 = private unnamed_addr constant [33 x i8] c"waiters < (1 << kWaiterBits) - 1\00", align 1
@.str.80 = private unnamed_addr constant [23 x i8] c"!waiter || waiters > 0\00", align 1
@.str.81 = private unnamed_addr constant [39 x i8] c"Index value is too big for target type\00", align 1
@.str.82 = private unnamed_addr constant [83 x i8] c"idx <= NumTraits<IndexDest>::highest() && \22Index value is too big for target type\22\00", align 1
@.str.83 = private unnamed_addr constant [34 x i8] c"./Eigen/src/Core/util/XprHelper.h\00", align 1
@__PRETTY_FUNCTION__._ZN5Eigen8internal18convert_index_implImmLb1ELb0ELb1ELb0EE3runERKm = private unnamed_addr constant [292 x i8] c"static IndexDest Eigen::internal::convert_index_impl<unsigned long, unsigned long, true, false, true, false>::run(const IndexSrc &) [IndexDest = unsigned long, IndexSrc = unsigned long, IndexDestIsInteger = true, IndexDestIsSigned = false, IndexSrcIsInteger = true, IndexSrcIsSigned = false]\00", align 1
@.str.84 = private unnamed_addr constant [30 x i8] c"(w->epoch & ~kEpochMask) == 0\00", align 1
@__PRETTY_FUNCTION__._ZN5Eigen10EventCount10CommitWaitEPNS0_6WaiterE = private unnamed_addr constant [64 x i8] c"void Eigen::EventCount::CommitWait(Eigen::EventCount::Waiter *)\00", align 1
@_ZTSZN5Eigen15ThreadPoolTemplINS_20StlThreadEnvironmentEEC1EibS1_EUlvE_ = linkonce_odr dso_local constant [68 x i8] c"ZN5Eigen15ThreadPoolTemplINS_20StlThreadEnvironmentEEC1EibS1_EUlvE_\00", comdat, align 1
@_ZTIZN5Eigen15ThreadPoolTemplINS_20StlThreadEnvironmentEEC1EibS1_EUlvE_ = linkonce_odr dso_local constant { ptr, ptr } { ptr getelementptr inbounds (ptr, ptr @_ZTVN10__cxxabiv117__class_type_infoE, i64 2), ptr @_ZTSZN5Eigen15ThreadPoolTemplINS_20StlThreadEnvironmentEEC1EibS1_EUlvE_ }, comdat, align 8
@.str.85 = private unnamed_addr constant [28 x i8] c"state_.load() == kStackMask\00", align 1
@__PRETTY_FUNCTION__._ZN5Eigen10EventCountD2Ev = private unnamed_addr constant [33 x i8] c"Eigen::EventCount::~EventCount()\00", align 1
@.str.86 = private unnamed_addr constant [14 x i8] c"start < limit\00", align 1
@__PRETTY_FUNCTION__._ZN5Eigen15ThreadPoolTemplINS_20StlThreadEnvironmentEE16ScheduleWithHintESt8functionIFvvEEii = private unnamed_addr constant [161 x i8] c"virtual void Eigen::ThreadPoolTempl<Eigen::StlThreadEnvironment>::ScheduleWithHint(std::function<void ()>, int, int) [Environment = Eigen::StlThreadEnvironment]\00", align 1
@.str.87 = private unnamed_addr constant [22 x i8] c"limit <= num_threads_\00", align 1
@.str.88 = private unnamed_addr constant [20 x i8] c"start + rnd < limit\00", align 1
@.str.89 = private unnamed_addr constant [41 x i8] c"threadCostThreshold must be non-negative\00", align 1
@.str.90 = private unnamed_addr constant [74 x i8] c"threadCostThreshold >= 0.0f && \22threadCostThreshold must be non-negative\22\00", align 1
@.str.91 = private unnamed_addr constant [46 x i8] c"./Eigen/src/ThreadPool/CoreThreadPoolDevice.h\00", align 1
@__PRETTY_FUNCTION__._ZN5Eigen20CoreThreadPoolDeviceC2ERNS_15ThreadPoolTemplINS_20StlThreadEnvironmentEEEf = private unnamed_addr constant [78 x i8] c"Eigen::CoreThreadPoolDevice::CoreThreadPoolDevice(Eigen::ThreadPool &, float)\00", align 1
@.str.92 = private unnamed_addr constant [47 x i8] c"Invalid sizes when resizing a matrix or array.\00", align 1
@.str.93 = private unnamed_addr constant [503 x i8] c"internal::check_implication(RowsAtCompileTime != Dynamic, rows == RowsAtCompileTime) && internal::check_implication(ColsAtCompileTime != Dynamic, cols == ColsAtCompileTime) && internal::check_implication(RowsAtCompileTime == Dynamic && MaxRowsAtCompileTime != Dynamic, rows <= MaxRowsAtCompileTime) && internal::check_implication(ColsAtCompileTime == Dynamic && MaxColsAtCompileTime != Dynamic, cols <= MaxColsAtCompileTime) && rows >= 0 && cols >= 0 && \22Invalid sizes when resizing a matrix or array.\22\00", align 1
@.str.94 = private unnamed_addr constant [35 x i8] c"./Eigen/src/Core/PlainObjectBase.h\00", align 1
@__PRETTY_FUNCTION__._ZN5Eigen15PlainObjectBaseINS_6MatrixIdLin1ELin1ELi0ELin1ELin1EEEE6resizeEll = private unnamed_addr constant [143 x i8] c"void Eigen::PlainObjectBase<Eigen::Matrix<double, -1, -1, 0>>::resize(Eigen::Index, Eigen::Index) [Derived = Eigen::Matrix<double, -1, -1, 0>]\00", align 1
@_ZTISt9bad_alloc = external constant ptr
@_ZTVSt9bad_alloc = external unnamed_addr constant { [5 x ptr] }, align 8
@_ZTVSt9exception = external unnamed_addr constant { [5 x ptr] }, align 8
@.str.95 = private unnamed_addr constant [141 x i8] c"System's malloc returned an unaligned pointer. Compile with EIGEN_MALLOC_ALREADY_ALIGNED=0 to fallback to handmade aligned memory allocator.\00", align 1
@.str.96 = private unnamed_addr constant [196 x i8] c"(size < 16 || (std::size_t(result) % 16) == 0) && \22System's malloc returned an unaligned pointer. Compile with EIGEN_MALLOC_ALREADY_ALIGNED=0 to fallback \22 \22to handmade aligned memory allocator.\22\00", align 1
@__PRETTY_FUNCTION__._ZN5Eigen8internal14aligned_mallocEm = private unnamed_addr constant [51 x i8] c"void *Eigen::internal::aligned_malloc(std::size_t)\00", align 1
@.str.97 = private unnamed_addr constant [149 x i8] c"rows >= 0 && (RowsAtCompileTime == Dynamic || RowsAtCompileTime == rows) && cols >= 0 && (ColsAtCompileTime == Dynamic || ColsAtCompileTime == cols)\00", align 1
@.str.98 = private unnamed_addr constant [34 x i8] c"./Eigen/src/Core/CwiseNullaryOp.h\00", align 1
@__PRETTY_FUNCTION__._ZN5Eigen14CwiseNullaryOpINS_8internal16scalar_random_opIdEENS_6MatrixIdLin1ELin1ELi0ELin1ELin1EEEEC2EllRKS3_ = private unnamed_addr constant [265 x i8] c"Eigen::CwiseNullaryOp<Eigen::internal::scalar_random_op<double>, Eigen::Matrix<double, -1, -1, 0>>::CwiseNullaryOp(Eigen::Index, Eigen::Index, const NullaryOp &) [NullaryOp = Eigen::internal::scalar_random_op<double>, MatrixType = Eigen::Matrix<double, -1, -1, 0>]\00", align 1
@.str.99 = private unnamed_addr constant [47 x i8] c"dst.rows() == dstRows && dst.cols() == dstCols\00", align 1
@.str.100 = private unnamed_addr constant [35 x i8] c"./Eigen/src/Core/AssignEvaluator.h\00", align 1
@__PRETTY_FUNCTION__._ZN5Eigen8internal17resize_if_allowedINS_6MatrixIdLin1ELin1ELi0ELin1ELin1EEENS_14CwiseNullaryOpINS0_16scalar_random_opIdEES3_EEddEEvRT_RKT0_RKNS0_9assign_opIT1_T2_EE = private unnamed_addr constant [298 x i8] c"void Eigen::internal::resize_if_allowed(DstXprType &, const SrcXprType &, const internal::assign_op<T1, T2> &) [DstXprType = Eigen::Matrix<double, -1, -1, 0>, SrcXprType = Eigen::CwiseNullaryOp<Eigen::internal::scalar_random_op<double>, Eigen::Matrix<double, -1, -1, 0>>, T1 = double, T2 = double]\00", align 1
@.str.101 = private unnamed_addr constant [54 x i8] c"numRandomBits >= 0 && numRandomBits <= mantissaBits()\00", align 1
@.str.102 = private unnamed_addr constant [30 x i8] c"./Eigen/src/Core/RandomImpl.h\00", align 1
@__PRETTY_FUNCTION__._ZN5Eigen8internal17random_float_implIdLb1EE3runEi = private unnamed_addr constant [107 x i8] c"static Scalar Eigen::internal::random_float_impl<double, true>::run(int) [Scalar = double, BuiltIn = true]\00", align 1
@.str.103 = private unnamed_addr constant [54 x i8] c"(numRandomBits >= 0) && (numRandomBits <= kTotalBits)\00", align 1
@__PRETTY_FUNCTION__._ZN5Eigen8internal16random_bits_implImE3runEi = private unnamed_addr constant [98 x i8] c"static Scalar Eigen::internal::random_bits_impl<unsigned long>::run(int) [Scalar = unsigned long]\00", align 1
@__PRETTY_FUNCTION__._ZN5Eigen8internal17resize_if_allowedINS_6MatrixIdLin1ELin1ELi0ELin1ELin1EEENS_12CwiseUnaryOpINS0_15scalar_dummy_opIdLb0EEEKNS4_INS0_14scalar_abs2_opIdEEKS3_EEEEddEEvRT_RKT0_RKNS0_9assign_opIT1_T2_EE = private unnamed_addr constant [376 x i8] c"void Eigen::internal::resize_if_allowed(DstXprType &, const SrcXprType &, const internal::assign_op<T1, T2> &) [DstXprType = Eigen::Matrix<double, -1, -1, 0>, SrcXprType = Eigen::CwiseUnaryOp<Eigen::internal::scalar_dummy_op<double, false>, const Eigen::CwiseUnaryOp<Eigen::internal::scalar_abs2_op<double>, const Eigen::Matrix<double, -1, -1, 0>>>, T1 = double, T2 = double]\00", align 1
@.str.104 = private unnamed_addr constant [26 x i8] c"cost must be non-negative\00", align 1
@.str.105 = private unnamed_addr constant [44 x i8] c"cost >= 0.0f && \22cost must be non-negative\22\00", align 1
@__PRETTY_FUNCTION__._ZNK5Eigen20CoreThreadPoolDevice15calculateLevelsILi1EEEilf = private unnamed_addr constant [93 x i8] c"int Eigen::CoreThreadPoolDevice::calculateLevels(Eigen::Index, float) const [PacketSize = 1]\00", align 1
@_ZZN5Eigen8internal15count_bits_implIivE3clzEiE18kLeadingBitsOffset = linkonce_odr dso_local constant i32 0, comdat, align 4
@.str.106 = private unnamed_addr constant [29 x i8] c"((count << 1) >> 1) == count\00", align 1
@.str.107 = private unnamed_addr constant [33 x i8] c"./Eigen/src/ThreadPool/Barrier.h\00", align 1
@__PRETTY_FUNCTION__._ZN5Eigen7BarrierC2Ej = private unnamed_addr constant [38 x i8] c"Eigen::Barrier::Barrier(unsigned int)\00", align 1
@.str.108 = private unnamed_addr constant [55 x i8] c"this function assumes size is a multiple of PacketSize\00", align 1
@.str.109 = private unnamed_addr constant [83 x i8] c"size % PacketSize == 0 && \22this function assumes size is a multiple of PacketSize\22\00", align 1
@__PRETTY_FUNCTION__._ZN5Eigen20CoreThreadPoolDevice15parallelForImplINS_8internal33dense_assignment_loop_with_deviceINS2_31generic_dense_assignment_kernelINS2_9evaluatorINS_6MatrixIdLin1ELin1ELi0ELin1ELin1EEEEENS5_INS_12CwiseUnaryOpINS2_15scalar_dummy_opIdLb0EEEKNS9_INS2_14scalar_abs2_opIdEEKS7_EEEEEENS2_9assign_opIddEELi0EEES0_Li1ELi0EE17AssignmentFunctorELi1EEEvllRT_RNS_7BarrierEi = private unnamed_addr constant [620 x i8] c"void Eigen::CoreThreadPoolDevice::parallelForImpl(Eigen::Index, Eigen::Index, UnaryFunctor &, Eigen::Barrier &, int) [UnaryFunctor = Eigen::internal::dense_assignment_loop_with_device<Eigen::internal::generic_dense_assignment_kernel<Eigen::internal::evaluator<Eigen::Matrix<double, -1, -1, 0>>, Eigen::internal::evaluator<Eigen::CwiseUnaryOp<Eigen::internal::scalar_dummy_op<double, false>, const Eigen::CwiseUnaryOp<Eigen::internal::scalar_abs2_op<double>, const Eigen::Matrix<double, -1, -1, 0>>>>, Eigen::internal::assign_op<double, double>, 0>, Eigen::CoreThreadPoolDevice, 1, 0>::AssignmentFunctor, PacketSize = 1]\00", align 1
@.str.110 = private unnamed_addr constant [7 x i8] c"a >= 0\00", align 1
@.str.111 = private unnamed_addr constant [33 x i8] c"./Eigen/src/Core/MathFunctions.h\00", align 1
@__PRETTY_FUNCTION__._ZN5Eigen6numext10round_downIliEET_S2_T0_ = private unnamed_addr constant [54 x i8] c"T Eigen::numext::round_down(T, U) [T = long, U = int]\00", align 1
@.str.112 = private unnamed_addr constant [6 x i8] c"b > 0\00", align 1
@_ZTSZN5Eigen20CoreThreadPoolDevice15parallelForImplINS_8internal33dense_assignment_loop_with_deviceINS2_31generic_dense_assignment_kernelINS2_9evaluatorINS_6MatrixIdLin1ELin1ELi0ELin1ELin1EEEEENS5_INS_12CwiseUnaryOpINS2_15scalar_dummy_opIdLb0EEEKNS9_INS2_14scalar_abs2_opIdEEKS7_EEEEEENS2_9assign_opIddEELi0EEES0_Li1ELi0EE17AssignmentFunctorELi1EEEvllRT_RNS_7BarrierEiEUlvE_ = linkonce_odr dso_local constant [371 x i8] c"ZN5Eigen20CoreThreadPoolDevice15parallelForImplINS_8internal33dense_assignment_loop_with_deviceINS2_31generic_dense_assignment_kernelINS2_9evaluatorINS_6MatrixIdLin1ELin1ELi0ELin1ELin1EEEEENS5_INS_12CwiseUnaryOpINS2_15scalar_dummy_opIdLb0EEEKNS9_INS2_14scalar_abs2_opIdEEKS7_EEEEEENS2_9assign_opIddEELi0EEES0_Li1ELi0EE17AssignmentFunctorELi1EEEvllRT_RNS_7BarrierEiEUlvE_\00", comdat, align 1
@_ZTIZN5Eigen20CoreThreadPoolDevice15parallelForImplINS_8internal33dense_assignment_loop_with_deviceINS2_31generic_dense_assignment_kernelINS2_9evaluatorINS_6MatrixIdLin1ELin1ELi0ELin1ELin1EEEEENS5_INS_12CwiseUnaryOpINS2_15scalar_dummy_opIdLb0EEEKNS9_INS2_14scalar_abs2_opIdEEKS7_EEEEEENS2_9assign_opIddEELi0EEES0_Li1ELi0EE17AssignmentFunctorELi1EEEvllRT_RNS_7BarrierEiEUlvE_ = linkonce_odr dso_local constant { ptr, ptr } { ptr getelementptr inbounds (ptr, ptr @_ZTVN10__cxxabiv117__class_type_infoE, i64 2), ptr @_ZTSZN5Eigen20CoreThreadPoolDevice15parallelForImplINS_8internal33dense_assignment_loop_with_deviceINS2_31generic_dense_assignment_kernelINS2_9evaluatorINS_6MatrixIdLin1ELin1ELi0ELin1ELin1EEEEENS5_INS_12CwiseUnaryOpINS2_15scalar_dummy_opIdLb0EEEKNS9_INS2_14scalar_abs2_opIdEEKS7_EEEEEENS2_9assign_opIddEELi0EEES0_Li1ELi0EE17AssignmentFunctorELi1EEEvllRT_RNS_7BarrierEiEUlvE_ }, comdat, align 8
@.str.113 = private unnamed_addr constant [20 x i8] c"((v + 2) & ~1) != 0\00", align 1
@__PRETTY_FUNCTION__._ZN5Eigen7Barrier6NotifyEv = private unnamed_addr constant [30 x i8] c"void Eigen::Barrier::Notify()\00", align 1
@.str.114 = private unnamed_addr constant [11 x i8] c"!notified_\00", align 1
@.str.115 = private unnamed_addr constant [19 x i8] c"(state_ >> 1) == 0\00", align 1
@__PRETTY_FUNCTION__._ZN5Eigen7BarrierD2Ev = private unnamed_addr constant [27 x i8] c"Eigen::Barrier::~Barrier()\00", align 1
@.str.116 = private unnamed_addr constant [30 x i8] c"Values are not an exact match\00", align 1
@.str.117 = private unnamed_addr constant [36 x i8] c"Difference too large wrt tolerance \00", align 1
@.str.118 = private unnamed_addr constant [22 x i8] c", relative error is: \00", align 1
@.str.119 = private unnamed_addr constant [53 x i8] c"row >= 0 && row < rows() && col >= 0 && col < cols()\00", align 1
@.str.120 = private unnamed_addr constant [35 x i8] c"./Eigen/src/Core/DenseCoeffsBase.h\00", align 1
@__PRETTY_FUNCTION__._ZNK5Eigen15DenseCoeffsBaseINS_6MatrixIdLin1ELin1ELi0ELin1ELin1EEELi0EEclEll = private unnamed_addr constant [225 x i8] c"Eigen::DenseCoeffsBase<type-parameter-0-0, 0>::CoeffReturnType Eigen::DenseCoeffsBase<Eigen::Matrix<double, -1, -1, 0>, 0>::operator()(Eigen::Index, Eigen::Index) const [Derived = Eigen::Matrix<double, -1, -1, 0>, Level = 0]\00", align 1
@__PRETTY_FUNCTION__._ZNK5Eigen15DenseCoeffsBaseINS_6MatrixIdLin1ELin1ELi0ELin1ELin1EEELi0EE5coeffEll = private unnamed_addr constant [220 x i8] c"Eigen::DenseCoeffsBase<type-parameter-0-0, 0>::CoeffReturnType Eigen::DenseCoeffsBase<Eigen::Matrix<double, -1, -1, 0>, 0>::coeff(Eigen::Index, Eigen::Index) const [Derived = Eigen::Matrix<double, -1, -1, 0>, Level = 0]\00", align 1
@.str.121 = private unnamed_addr constant [57 x i8] c"aLhs.rows() == aRhs.rows() && aLhs.cols() == aRhs.cols()\00", align 1
@.str.122 = private unnamed_addr constant [33 x i8] c"./Eigen/src/Core/CwiseBinaryOp.h\00", align 1
@__PRETTY_FUNCTION__._ZN5Eigen13CwiseBinaryOpINS_8internal20scalar_difference_opIddEEKNS_6MatrixIdLin1ELin1ELi0ELin1ELin1EEES6_EC2ERS6_S8_RKS3_ = private unnamed_addr constant [402 x i8] c"Eigen::CwiseBinaryOp<Eigen::internal::scalar_difference_op<double>, const Eigen::Matrix<double, -1, -1, 0>, const Eigen::Matrix<double, -1, -1, 0>>::CwiseBinaryOp(const Eigen::CwiseBinaryOp::Lhs &, const Eigen::CwiseBinaryOp::Rhs &, const BinaryOp &) [BinaryOp = Eigen::internal::scalar_difference_op<double>, Lhs = const Eigen::Matrix<double, -1, -1, 0>, Rhs = const Eigen::Matrix<double, -1, -1, 0>]\00", align 1
@.str.123 = private unnamed_addr constant [30 x i8] c"you are using an empty matrix\00", align 1
@.str.124 = private unnamed_addr constant [72 x i8] c"this->rows() > 0 && this->cols() > 0 && \22you are using an empty matrix\22\00", align 1
@.str.125 = private unnamed_addr constant [25 x i8] c"./Eigen/src/Core/Redux.h\00", align 1
@__PRETTY_FUNCTION__._ZNK5Eigen9DenseBaseINS_12CwiseUnaryOpINS_8internal14scalar_abs2_opIdEEKNS_13CwiseBinaryOpINS2_20scalar_difference_opIddEEKNS_6MatrixIdLin1ELin1ELi0ELin1ELin1EEESA_EEEEE5reduxINS2_13scalar_sum_opIddEEEEdRKT_ = private unnamed_addr constant [583 x i8] c"typename internal::traits<Derived>::Scalar Eigen::DenseBase<Eigen::CwiseUnaryOp<Eigen::internal::scalar_abs2_op<double>, const Eigen::CwiseBinaryOp<Eigen::internal::scalar_difference_op<double>, const Eigen::Matrix<double, -1, -1, 0>, const Eigen::Matrix<double, -1, -1, 0>>>>::redux(const Func &) const [Derived = Eigen::CwiseUnaryOp<Eigen::internal::scalar_abs2_op<double>, const Eigen::CwiseBinaryOp<Eigen::internal::scalar_difference_op<double>, const Eigen::Matrix<double, -1, -1, 0>, const Eigen::Matrix<double, -1, -1, 0>>>, BinaryOp = Eigen::internal::scalar_sum_op<double>]\00", align 1
@__PRETTY_FUNCTION__._ZNK5Eigen9DenseBaseINS_12CwiseUnaryOpINS_8internal14scalar_abs2_opIdEEKNS_6MatrixIdLin1ELin1ELi0ELin1ELin1EEEEEE5reduxINS2_13scalar_sum_opIddEEEEdRKT_ = private unnamed_addr constant [353 x i8] c"typename internal::traits<Derived>::Scalar Eigen::DenseBase<Eigen::CwiseUnaryOp<Eigen::internal::scalar_abs2_op<double>, const Eigen::Matrix<double, -1, -1, 0>>>::redux(const Func &) const [Derived = Eigen::CwiseUnaryOp<Eigen::internal::scalar_abs2_op<double>, const Eigen::Matrix<double, -1, -1, 0>>, BinaryOp = Eigen::internal::scalar_sum_op<double>]\00", align 1
@__PRETTY_FUNCTION__._ZN5Eigen8internal17resize_if_allowedINS_6MatrixIdLin1ELin1ELi0ELin1ELin1EEENS_12CwiseUnaryOpINS0_15scalar_dummy_opIdLb1EEEKNS4_INS0_14scalar_abs2_opIdEEKS3_EEEEddEEvRT_RKT0_RKNS0_9assign_opIT1_T2_EE = private unnamed_addr constant [375 x i8] c"void Eigen::internal::resize_if_allowed(DstXprType &, const SrcXprType &, const internal::assign_op<T1, T2> &) [DstXprType = Eigen::Matrix<double, -1, -1, 0>, SrcXprType = Eigen::CwiseUnaryOp<Eigen::internal::scalar_dummy_op<double, true>, const Eigen::CwiseUnaryOp<Eigen::internal::scalar_abs2_op<double>, const Eigen::Matrix<double, -1, -1, 0>>>, T1 = double, T2 = double]\00", align 1
@__PRETTY_FUNCTION__._ZN5Eigen6numext10round_downIllEET_S2_T0_ = private unnamed_addr constant [55 x i8] c"T Eigen::numext::round_down(T, U) [T = long, U = long]\00", align 1
@__PRETTY_FUNCTION__._ZNK5Eigen20CoreThreadPoolDevice15calculateLevelsILi2EEEilf = private unnamed_addr constant [93 x i8] c"int Eigen::CoreThreadPoolDevice::calculateLevels(Eigen::Index, float) const [PacketSize = 2]\00", align 1
@__PRETTY_FUNCTION__._ZN5Eigen20CoreThreadPoolDevice15parallelForImplINS_8internal33dense_assignment_loop_with_deviceINS2_31generic_dense_assignment_kernelINS2_9evaluatorINS_6MatrixIdLin1ELin1ELi0ELin1ELin1EEEEENS5_INS_12CwiseUnaryOpINS2_15scalar_dummy_opIdLb1EEEKNS9_INS2_14scalar_abs2_opIdEEKS7_EEEEEENS2_9assign_opIddEELi0EEES0_Li3ELi0EE17AssignmentFunctorELi2EEEvllRT_RNS_7BarrierEi = private unnamed_addr constant [619 x i8] c"void Eigen::CoreThreadPoolDevice::parallelForImpl(Eigen::Index, Eigen::Index, UnaryFunctor &, Eigen::Barrier &, int) [UnaryFunctor = Eigen::internal::dense_assignment_loop_with_device<Eigen::internal::generic_dense_assignment_kernel<Eigen::internal::evaluator<Eigen::Matrix<double, -1, -1, 0>>, Eigen::internal::evaluator<Eigen::CwiseUnaryOp<Eigen::internal::scalar_dummy_op<double, true>, const Eigen::CwiseUnaryOp<Eigen::internal::scalar_abs2_op<double>, const Eigen::Matrix<double, -1, -1, 0>>>>, Eigen::internal::assign_op<double, double>, 0>, Eigen::CoreThreadPoolDevice, 3, 0>::AssignmentFunctor, PacketSize = 2]\00", align 1
@_ZTSZN5Eigen20CoreThreadPoolDevice15parallelForImplINS_8internal33dense_assignment_loop_with_deviceINS2_31generic_dense_assignment_kernelINS2_9evaluatorINS_6MatrixIdLin1ELin1ELi0ELin1ELin1EEEEENS5_INS_12CwiseUnaryOpINS2_15scalar_dummy_opIdLb1EEEKNS9_INS2_14scalar_abs2_opIdEEKS7_EEEEEENS2_9assign_opIddEELi0EEES0_Li3ELi0EE17AssignmentFunctorELi2EEEvllRT_RNS_7BarrierEiEUlvE_ = linkonce_odr dso_local constant [371 x i8] c"ZN5Eigen20CoreThreadPoolDevice15parallelForImplINS_8internal33dense_assignment_loop_with_deviceINS2_31generic_dense_assignment_kernelINS2_9evaluatorINS_6MatrixIdLin1ELin1ELi0ELin1ELin1EEEEENS5_INS_12CwiseUnaryOpINS2_15scalar_dummy_opIdLb1EEEKNS9_INS2_14scalar_abs2_opIdEEKS7_EEEEEENS2_9assign_opIddEELi0EEES0_Li3ELi0EE17AssignmentFunctorELi2EEEvllRT_RNS_7BarrierEiEUlvE_\00", comdat, align 1
@_ZTIZN5Eigen20CoreThreadPoolDevice15parallelForImplINS_8internal33dense_assignment_loop_with_deviceINS2_31generic_dense_assignment_kernelINS2_9evaluatorINS_6MatrixIdLin1ELin1ELi0ELin1ELin1EEEEENS5_INS_12CwiseUnaryOpINS2_15scalar_dummy_opIdLb1EEEKNS9_INS2_14scalar_abs2_opIdEEKS7_EEEEEENS2_9assign_opIddEELi0EEES0_Li3ELi0EE17AssignmentFunctorELi2EEEvllRT_RNS_7BarrierEiEUlvE_ = linkonce_odr dso_local constant { ptr, ptr } { ptr getelementptr inbounds (ptr, ptr @_ZTVN10__cxxabiv117__class_type_infoE, i64 2), ptr @_ZTSZN5Eigen20CoreThreadPoolDevice15parallelForImplINS_8internal33dense_assignment_loop_with_deviceINS2_31generic_dense_assignment_kernelINS2_9evaluatorINS_6MatrixIdLin1ELin1ELi0ELin1ELin1EEEEENS5_INS_12CwiseUnaryOpINS2_15scalar_dummy_opIdLb1EEEKNS9_INS2_14scalar_abs2_opIdEEKS7_EEEEEENS2_9assign_opIddEELi0EEES0_Li3ELi0EE17AssignmentFunctorELi2EEEvllRT_RNS_7BarrierEiEUlvE_ }, comdat, align 8
@.str.126 = private unnamed_addr constant [143 x i8] c"startRow >= 0 && blockRows >= 0 && startRow <= xpr.rows() - blockRows && startCol >= 0 && blockCols >= 0 && startCol <= xpr.cols() - blockCols\00", align 1
@.str.127 = private unnamed_addr constant [25 x i8] c"./Eigen/src/Core/Block.h\00", align 1
@__PRETTY_FUNCTION__._ZN5Eigen5BlockIKNS_12CwiseUnaryOpINS_8internal14scalar_abs2_opIdEEKNS_6MatrixIdLin1ELin1ELi0ELin1ELin1EEEEELin1ELin1ELb0EEC2ERS9_llll = private unnamed_addr constant [381 x i8] c"Eigen::Block<const Eigen::CwiseUnaryOp<Eigen::internal::scalar_abs2_op<double>, const Eigen::Matrix<double, -1, -1, 0>>, -1, -1, false>::Block(XprType &, Eigen::Index, Eigen::Index, Eigen::Index, Eigen::Index) [XprType = const Eigen::CwiseUnaryOp<Eigen::internal::scalar_abs2_op<double>, const Eigen::Matrix<double, -1, -1, 0>>, BlockRows = -1, BlockCols = -1, InnerPanel = false]\00", align 1
@__PRETTY_FUNCTION__._ZN5Eigen5BlockINS_6MatrixIdLin1ELin1ELi0ELin1ELin1EEELin1ELin1ELb0EEC2ERS2_llll = private unnamed_addr constant [233 x i8] c"Eigen::Block<Eigen::Matrix<double, -1, -1, 0>, -1, -1, false>::Block(XprType &, Eigen::Index, Eigen::Index, Eigen::Index, Eigen::Index) [XprType = Eigen::Matrix<double, -1, -1, 0>, BlockRows = -1, BlockCols = -1, InnerPanel = false]\00", align 1
@.str.128 = private unnamed_addr constant [169 x i8] c"(dataPtr == 0) || (rows >= 0 && (RowsAtCompileTime == Dynamic || RowsAtCompileTime == rows) && cols >= 0 && (ColsAtCompileTime == Dynamic || ColsAtCompileTime == cols))\00", align 1
@.str.129 = private unnamed_addr constant [27 x i8] c"./Eigen/src/Core/MapBase.h\00", align 1
@__PRETTY_FUNCTION__._ZN5Eigen7MapBaseINS_5BlockINS_6MatrixIdLin1ELin1ELi0ELin1ELin1EEELin1ELin1ELb0EEELi0EEC2EPdll = private unnamed_addr constant [255 x i8] c"Eigen::MapBase<Eigen::Block<Eigen::Matrix<double, -1, -1, 0>, -1, -1, false>, 0>::MapBase(Eigen::MapBase<type-parameter-0-0, 0>::PointerType, Eigen::Index, Eigen::Index) [Derived = Eigen::Block<Eigen::Matrix<double, -1, -1, 0>, -1, -1, false>, Level = 0]\00", align 1
@.str.130 = private unnamed_addr constant [27 x i8] c"data is not scalar-aligned\00", align 1
@.str.131 = private unnamed_addr constant [80 x i8] c"(std::uintptr_t(m_data) % alignof(Scalar) == 0) && \22data is not scalar-aligned\22\00", align 1
@__PRETTY_FUNCTION__._ZNK5Eigen7MapBaseINS_5BlockINS_6MatrixIdLin1ELin1ELi0ELin1ELin1EEELin1ELin1ELb0EEELi0EE11checkSanityIS4_EEvNSt9enable_ifIXeqsr8internal6traitsIT_EE9AlignmentLi0EEPvE4typeE = private unnamed_addr constant [320 x i8] c"void Eigen::MapBase<Eigen::Block<Eigen::Matrix<double, -1, -1, 0>, -1, -1, false>, 0>::checkSanity(std::enable_if_t<internal::traits<T>::Alignment == 0, void *>) const [Derived = Eigen::Block<Eigen::Matrix<double, -1, -1, 0>, -1, -1, false>, Level = 0, T = Eigen::Block<Eigen::Matrix<double, -1, -1, 0>, -1, -1, false>]\00", align 1
@__PRETTY_FUNCTION__._ZN5Eigen8internal17resize_if_allowedINS_5BlockINS_6MatrixIdLin1ELin1ELi0ELin1ELin1EEELin1ELin1ELb0EEENS_12CwiseUnaryOpINS0_15scalar_dummy_opIdLb0EEEKNS2_IKNS6_INS0_14scalar_abs2_opIdEEKS4_EELin1ELin1ELb0EEEEEddEEvRT_RKT0_RKNS0_9assign_opIT1_T2_EE = private unnamed_addr constant [440 x i8] c"void Eigen::internal::resize_if_allowed(DstXprType &, const SrcXprType &, const internal::assign_op<T1, T2> &) [DstXprType = Eigen::Block<Eigen::Matrix<double, -1, -1, 0>, -1, -1, false>, SrcXprType = Eigen::CwiseUnaryOp<Eigen::internal::scalar_dummy_op<double, false>, const Eigen::Block<const Eigen::CwiseUnaryOp<Eigen::internal::scalar_abs2_op<double>, const Eigen::Matrix<double, -1, -1, 0>>, -1, -1, false>>, T1 = double, T2 = double]\00", align 1
@.str.132 = private unnamed_addr constant [55 x i8] c"DenseBase::resize() does not actually allow to resize.\00", align 1
@.str.133 = private unnamed_addr constant [105 x i8] c"rows == this->rows() && cols == this->cols() && \22DenseBase::resize() does not actually allow to resize.\22\00", align 1
@.str.134 = private unnamed_addr constant [29 x i8] c"./Eigen/src/Core/DenseBase.h\00", align 1
@__PRETTY_FUNCTION__._ZN5Eigen9DenseBaseINS_5BlockINS_6MatrixIdLin1ELin1ELi0ELin1ELin1EEELin1ELin1ELb0EEEE6resizeEll = private unnamed_addr constant [195 x i8] c"void Eigen::DenseBase<Eigen::Block<Eigen::Matrix<double, -1, -1, 0>, -1, -1, false>>::resize(Eigen::Index, Eigen::Index) [Derived = Eigen::Block<Eigen::Matrix<double, -1, -1, 0>, -1, -1, false>]\00", align 1
@.str.135 = private unnamed_addr constant [20 x i8] c"data is not aligned\00", align 1
@.str.136 = private unnamed_addr constant [151 x i8] c"(internal::is_constant_evaluated() || (std::uintptr_t(block.data()) % plain_enum_max(1, evaluator<XprType>::Alignment)) == 0) && \22data is not aligned\22\00", align 1
@.str.137 = private unnamed_addr constant [34 x i8] c"./Eigen/src/Core/CoreEvaluators.h\00", align 1
@__PRETTY_FUNCTION__._ZN5Eigen8internal15block_evaluatorINS_6MatrixIdLin1ELin1ELi0ELin1ELin1EEELin1ELin1ELb0ELb1EEC2ERKNS_5BlockIS3_Lin1ELin1ELb0EEE = private unnamed_addr constant [337 x i8] c"Eigen::internal::block_evaluator<Eigen::Matrix<double, -1, -1, 0>, -1, -1, false, true>::block_evaluator(const Eigen::internal::block_evaluator<type-parameter-0-0, BlockRows, BlockCols, InnerPanel, true>::XprType &) [ArgType = Eigen::Matrix<double, -1, -1, 0>, BlockRows = -1, BlockCols = -1, InnerPanel = false, HasDirectAccess = true]\00", align 1
@.str.138 = private unnamed_addr constant [14 x i8] c"v == T(Value)\00", align 1
@__PRETTY_FUNCTION__._ZN5Eigen8internal19variable_if_dynamicIlLi1EEC2El = private unnamed_addr constant [92 x i8] c"Eigen::internal::variable_if_dynamic<long, 1>::variable_if_dynamic(T) [T = long, Value = 1]\00", align 1
@.str.139 = private unnamed_addr constant [60 x i8] c"this function assumes innerSize is a multiple of PacketSize\00", align 1
@.str.140 = private unnamed_addr constant [93 x i8] c"innerSize % PacketSize == 0 && \22this function assumes innerSize is a multiple of PacketSize\22\00", align 1
@__PRETTY_FUNCTION__._ZN5Eigen20CoreThreadPoolDevice15parallelForImplINS_8internal33dense_assignment_loop_with_deviceINS2_31generic_dense_assignment_kernelINS2_9evaluatorINS_5BlockINS_6MatrixIdLin1ELin1ELi0ELin1ELin1EEELin1ELin1ELb0EEEEENS5_INS_12CwiseUnaryOpINS2_15scalar_dummy_opIdLb0EEEKNS6_IKNSB_INS2_14scalar_abs2_opIdEEKS8_EELin1ELin1ELb0EEEEEEENS2_9assign_opIddEELi0EEES0_Li0ELi0EE17AssignmentFunctorELi1EEEvllllRT_RNS_7BarrierEi = private unnamed_addr constant [714 x i8] c"void Eigen::CoreThreadPoolDevice::parallelForImpl(Eigen::Index, Eigen::Index, Eigen::Index, Eigen::Index, BinaryFunctor &, Eigen::Barrier &, int) [BinaryFunctor = Eigen::internal::dense_assignment_loop_with_device<Eigen::internal::generic_dense_assignment_kernel<Eigen::internal::evaluator<Eigen::Block<Eigen::Matrix<double, -1, -1, 0>, -1, -1, false>>, Eigen::internal::evaluator<Eigen::CwiseUnaryOp<Eigen::internal::scalar_dummy_op<double, false>, const Eigen::Block<const Eigen::CwiseUnaryOp<Eigen::internal::scalar_abs2_op<double>, const Eigen::Matrix<double, -1, -1, 0>>, -1, -1, false>>>, Eigen::internal::assign_op<double, double>, 0>, Eigen::CoreThreadPoolDevice, 0, 0>::AssignmentFunctor, PacketSize = 1]\00", align 1
@_ZTSZN5Eigen20CoreThreadPoolDevice15parallelForImplINS_8internal33dense_assignment_loop_with_deviceINS2_31generic_dense_assignment_kernelINS2_9evaluatorINS_5BlockINS_6MatrixIdLin1ELin1ELi0ELin1ELin1EEELin1ELin1ELb0EEEEENS5_INS_12CwiseUnaryOpINS2_15scalar_dummy_opIdLb0EEEKNS6_IKNSB_INS2_14scalar_abs2_opIdEEKS8_EELin1ELin1ELb0EEEEEEENS2_9assign_opIddEELi0EEES0_Li0ELi0EE17AssignmentFunctorELi1EEEvllllRT_RNS_7BarrierEiEUlvE_ = linkonce_odr dso_local constant [421 x i8] c"ZN5Eigen20CoreThreadPoolDevice15parallelForImplINS_8internal33dense_assignment_loop_with_deviceINS2_31generic_dense_assignment_kernelINS2_9evaluatorINS_5BlockINS_6MatrixIdLin1ELin1ELi0ELin1ELin1EEELin1ELin1ELb0EEEEENS5_INS_12CwiseUnaryOpINS2_15scalar_dummy_opIdLb0EEEKNS6_IKNSB_INS2_14scalar_abs2_opIdEEKS8_EELin1ELin1ELb0EEEEEEENS2_9assign_opIddEELi0EEES0_Li0ELi0EE17AssignmentFunctorELi1EEEvllllRT_RNS_7BarrierEiEUlvE_\00", comdat, align 1
@_ZTIZN5Eigen20CoreThreadPoolDevice15parallelForImplINS_8internal33dense_assignment_loop_with_deviceINS2_31generic_dense_assignment_kernelINS2_9evaluatorINS_5BlockINS_6MatrixIdLin1ELin1ELi0ELin1ELin1EEELin1ELin1ELb0EEEEENS5_INS_12CwiseUnaryOpINS2_15scalar_dummy_opIdLb0EEEKNS6_IKNSB_INS2_14scalar_abs2_opIdEEKS8_EELin1ELin1ELb0EEEEEEENS2_9assign_opIddEELi0EEES0_Li0ELi0EE17AssignmentFunctorELi1EEEvllllRT_RNS_7BarrierEiEUlvE_ = linkonce_odr dso_local constant { ptr, ptr } { ptr getelementptr inbounds (ptr, ptr @_ZTVN10__cxxabiv117__class_type_infoE, i64 2), ptr @_ZTSZN5Eigen20CoreThreadPoolDevice15parallelForImplINS_8internal33dense_assignment_loop_with_deviceINS2_31generic_dense_assignment_kernelINS2_9evaluatorINS_5BlockINS_6MatrixIdLin1ELin1ELi0ELin1ELin1EEELin1ELin1ELb0EEEEENS5_INS_12CwiseUnaryOpINS2_15scalar_dummy_opIdLb0EEEKNS6_IKNSB_INS2_14scalar_abs2_opIdEEKS8_EELin1ELin1ELb0EEEEEEENS2_9assign_opIddEELi0EEES0_Li0ELi0EE17AssignmentFunctorELi1EEEvllllRT_RNS_7BarrierEiEUlvE_ }, comdat, align 8
@_ZTSZN5Eigen20CoreThreadPoolDevice15parallelForImplINS_8internal33dense_assignment_loop_with_deviceINS2_31generic_dense_assignment_kernelINS2_9evaluatorINS_5BlockINS_6MatrixIdLin1ELin1ELi0ELin1ELin1EEELin1ELin1ELb0EEEEENS5_INS_12CwiseUnaryOpINS2_15scalar_dummy_opIdLb0EEEKNS6_IKNSB_INS2_14scalar_abs2_opIdEEKS8_EELin1ELin1ELb0EEEEEEENS2_9assign_opIddEELi0EEES0_Li0ELi0EE17AssignmentFunctorELi1EEEvllllRT_RNS_7BarrierEiEUlvE0_ = linkonce_odr dso_local constant [422 x i8] c"ZN5Eigen20CoreThreadPoolDevice15parallelForImplINS_8internal33dense_assignment_loop_with_deviceINS2_31generic_dense_assignment_kernelINS2_9evaluatorINS_5BlockINS_6MatrixIdLin1ELin1ELi0ELin1ELin1EEELin1ELin1ELb0EEEEENS5_INS_12CwiseUnaryOpINS2_15scalar_dummy_opIdLb0EEEKNS6_IKNSB_INS2_14scalar_abs2_opIdEEKS8_EELin1ELin1ELb0EEEEEEENS2_9assign_opIddEELi0EEES0_Li0ELi0EE17AssignmentFunctorELi1EEEvllllRT_RNS_7BarrierEiEUlvE0_\00", comdat, align 1
@_ZTIZN5Eigen20CoreThreadPoolDevice15parallelForImplINS_8internal33dense_assignment_loop_with_deviceINS2_31generic_dense_assignment_kernelINS2_9evaluatorINS_5BlockINS_6MatrixIdLin1ELin1ELi0ELin1ELin1EEELin1ELin1ELb0EEEEENS5_INS_12CwiseUnaryOpINS2_15scalar_dummy_opIdLb0EEEKNS6_IKNSB_INS2_14scalar_abs2_opIdEEKS8_EELin1ELin1ELb0EEEEEEENS2_9assign_opIddEELi0EEES0_Li0ELi0EE17AssignmentFunctorELi1EEEvllllRT_RNS_7BarrierEiEUlvE0_ = linkonce_odr dso_local constant { ptr, ptr } { ptr getelementptr inbounds (ptr, ptr @_ZTVN10__cxxabiv117__class_type_infoE, i64 2), ptr @_ZTSZN5Eigen20CoreThreadPoolDevice15parallelForImplINS_8internal33dense_assignment_loop_with_deviceINS2_31generic_dense_assignment_kernelINS2_9evaluatorINS_5BlockINS_6MatrixIdLin1ELin1ELi0ELin1ELin1EEELin1ELin1ELb0EEEEENS5_INS_12CwiseUnaryOpINS2_15scalar_dummy_opIdLb0EEEKNS6_IKNSB_INS2_14scalar_abs2_opIdEEKS8_EELin1ELin1ELb0EEEEEEENS2_9assign_opIddEELi0EEES0_Li0ELi0EE17AssignmentFunctorELi1EEEvllllRT_RNS_7BarrierEiEUlvE0_ }, comdat, align 8
@__PRETTY_FUNCTION__._ZNK5Eigen15DenseCoeffsBaseINS_5BlockINS_6MatrixIdLin1ELin1ELi0ELin1ELin1EEELin1ELin1ELb0EEELi0EEclEll = private unnamed_addr constant [283 x i8] c"Eigen::DenseCoeffsBase<type-parameter-0-0, 0>::CoeffReturnType Eigen::DenseCoeffsBase<Eigen::Block<Eigen::Matrix<double, -1, -1, 0>, -1, -1, false>, 0>::operator()(Eigen::Index, Eigen::Index) const [Derived = Eigen::Block<Eigen::Matrix<double, -1, -1, 0>, -1, -1, false>, Level = 0]\00", align 1
@__PRETTY_FUNCTION__._ZNK5Eigen15DenseCoeffsBaseINS_5BlockINS_6MatrixIdLin1ELin1ELi0ELin1ELin1EEELin1ELin1ELb0EEELi0EE5coeffEll = private unnamed_addr constant [278 x i8] c"Eigen::DenseCoeffsBase<type-parameter-0-0, 0>::CoeffReturnType Eigen::DenseCoeffsBase<Eigen::Block<Eigen::Matrix<double, -1, -1, 0>, -1, -1, false>, 0>::coeff(Eigen::Index, Eigen::Index) const [Derived = Eigen::Block<Eigen::Matrix<double, -1, -1, 0>, -1, -1, false>, Level = 0]\00", align 1
@__PRETTY_FUNCTION__._ZN5Eigen13CwiseBinaryOpINS_8internal20scalar_difference_opIddEEKNS_5BlockINS_6MatrixIdLin1ELin1ELi0ELin1ELin1EEELin1ELin1ELb0EEES8_EC2ERS8_SA_RKS3_ = private unnamed_addr constant [518 x i8] c"Eigen::CwiseBinaryOp<Eigen::internal::scalar_difference_op<double>, const Eigen::Block<Eigen::Matrix<double, -1, -1, 0>, -1, -1, false>, const Eigen::Block<Eigen::Matrix<double, -1, -1, 0>, -1, -1, false>>::CwiseBinaryOp(const Eigen::CwiseBinaryOp::Lhs &, const Eigen::CwiseBinaryOp::Rhs &, const BinaryOp &) [BinaryOp = Eigen::internal::scalar_difference_op<double>, Lhs = const Eigen::Block<Eigen::Matrix<double, -1, -1, 0>, -1, -1, false>, Rhs = const Eigen::Block<Eigen::Matrix<double, -1, -1, 0>, -1, -1, false>]\00", align 1
@__PRETTY_FUNCTION__._ZNK5Eigen9DenseBaseINS_12CwiseUnaryOpINS_8internal14scalar_abs2_opIdEEKNS_13CwiseBinaryOpINS2_20scalar_difference_opIddEEKNS_5BlockINS_6MatrixIdLin1ELin1ELi0ELin1ELin1EEELin1ELin1ELb0EEESC_EEEEE5reduxINS2_13scalar_sum_opIddEEEEdRKT_ = private unnamed_addr constant [699 x i8] c"typename internal::traits<Derived>::Scalar Eigen::DenseBase<Eigen::CwiseUnaryOp<Eigen::internal::scalar_abs2_op<double>, const Eigen::CwiseBinaryOp<Eigen::internal::scalar_difference_op<double>, const Eigen::Block<Eigen::Matrix<double, -1, -1, 0>, -1, -1, false>, const Eigen::Block<Eigen::Matrix<double, -1, -1, 0>, -1, -1, false>>>>::redux(const Func &) const [Derived = Eigen::CwiseUnaryOp<Eigen::internal::scalar_abs2_op<double>, const Eigen::CwiseBinaryOp<Eigen::internal::scalar_difference_op<double>, const Eigen::Block<Eigen::Matrix<double, -1, -1, 0>, -1, -1, false>, const Eigen::Block<Eigen::Matrix<double, -1, -1, 0>, -1, -1, false>>>, BinaryOp = Eigen::internal::scalar_sum_op<double>]\00", align 1
@.str.141 = private unnamed_addr constant [68 x i8] c"xpr.rows() > 0 && xpr.cols() > 0 && \22you are using an empty matrix\22\00", align 1
@__PRETTY_FUNCTION__._ZN5Eigen8internal10redux_implINS0_13scalar_sum_opIddEENS0_15redux_evaluatorINS_12CwiseUnaryOpINS0_14scalar_abs2_opIdEEKNS_13CwiseBinaryOpINS0_20scalar_difference_opIddEEKNS_5BlockINS_6MatrixIdLin1ELin1ELi0ELin1ELin1EEELin1ELin1ELb0EEESF_EEEEEELi4ELi0EE3runISI_EEdRKSJ_RKS3_RKT_ = private unnamed_addr constant [1219 x i8] c"static Eigen::internal::redux_impl<type-parameter-0-0, type-parameter-0-1, 4, Unrolling>::Scalar Eigen::internal::redux_impl<Eigen::internal::scalar_sum_op<double>, Eigen::internal::redux_evaluator<Eigen::CwiseUnaryOp<Eigen::internal::scalar_abs2_op<double>, const Eigen::CwiseBinaryOp<Eigen::internal::scalar_difference_op<double>, const Eigen::Block<Eigen::Matrix<double, -1, -1, 0>, -1, -1, false>, const Eigen::Block<Eigen::Matrix<double, -1, -1, 0>, -1, -1, false>>>>, 4, 0>::run(const Evaluator &, const Func &, const XprType &) [Func = Eigen::internal::scalar_sum_op<double>, Evaluator = Eigen::internal::redux_evaluator<Eigen::CwiseUnaryOp<Eigen::internal::scalar_abs2_op<double>, const Eigen::CwiseBinaryOp<Eigen::internal::scalar_difference_op<double>, const Eigen::Block<Eigen::Matrix<double, -1, -1, 0>, -1, -1, false>, const Eigen::Block<Eigen::Matrix<double, -1, -1, 0>, -1, -1, false>>>>, Traversal = 4, Unrolling = 0, XprType = Eigen::CwiseUnaryOp<Eigen::internal::scalar_abs2_op<double>, const Eigen::CwiseBinaryOp<Eigen::internal::scalar_difference_op<double>, const Eigen::Block<Eigen::Matrix<double, -1, -1, 0>, -1, -1, false>, const Eigen::Block<Eigen::Matrix<double, -1, -1, 0>, -1, -1, false>>>]\00", align 1
@__PRETTY_FUNCTION__._ZN5Eigen8internal10redux_implINS0_13scalar_sum_opIddEENS0_15redux_evaluatorINS_12CwiseUnaryOpINS0_14scalar_abs2_opIdEEKNS_13CwiseBinaryOpINS0_20scalar_difference_opIddEEKNS_5BlockINS_6MatrixIdLin1ELin1ELi0ELin1ELin1EEELin1ELin1ELb0EEESF_EEEEEELi0ELi0EE3runISI_EEdRKSJ_RKS3_RKT_ = private unnamed_addr constant [1211 x i8] c"static Eigen::internal::redux_impl<type-parameter-0-0, type-parameter-0-1, 0, 0>::Scalar Eigen::internal::redux_impl<Eigen::internal::scalar_sum_op<double>, Eigen::internal::redux_evaluator<Eigen::CwiseUnaryOp<Eigen::internal::scalar_abs2_op<double>, const Eigen::CwiseBinaryOp<Eigen::internal::scalar_difference_op<double>, const Eigen::Block<Eigen::Matrix<double, -1, -1, 0>, -1, -1, false>, const Eigen::Block<Eigen::Matrix<double, -1, -1, 0>, -1, -1, false>>>>, 0, 0>::run(const Evaluator &, const Func &, const XprType &) [Func = Eigen::internal::scalar_sum_op<double>, Evaluator = Eigen::internal::redux_evaluator<Eigen::CwiseUnaryOp<Eigen::internal::scalar_abs2_op<double>, const Eigen::CwiseBinaryOp<Eigen::internal::scalar_difference_op<double>, const Eigen::Block<Eigen::Matrix<double, -1, -1, 0>, -1, -1, false>, const Eigen::Block<Eigen::Matrix<double, -1, -1, 0>, -1, -1, false>>>>, Traversal = 0, Unrolling = 0, XprType = Eigen::CwiseUnaryOp<Eigen::internal::scalar_abs2_op<double>, const Eigen::CwiseBinaryOp<Eigen::internal::scalar_difference_op<double>, const Eigen::Block<Eigen::Matrix<double, -1, -1, 0>, -1, -1, false>, const Eigen::Block<Eigen::Matrix<double, -1, -1, 0>, -1, -1, false>>>]\00", align 1
@__PRETTY_FUNCTION__._ZNK5Eigen9DenseBaseINS_12CwiseUnaryOpINS_8internal14scalar_abs2_opIdEEKNS_5BlockINS_6MatrixIdLin1ELin1ELi0ELin1ELin1EEELin1ELin1ELb0EEEEEE5reduxINS2_13scalar_sum_opIddEEEEdRKT_ = private unnamed_addr constant [411 x i8] c"typename internal::traits<Derived>::Scalar Eigen::DenseBase<Eigen::CwiseUnaryOp<Eigen::internal::scalar_abs2_op<double>, const Eigen::Block<Eigen::Matrix<double, -1, -1, 0>, -1, -1, false>>>::redux(const Func &) const [Derived = Eigen::CwiseUnaryOp<Eigen::internal::scalar_abs2_op<double>, const Eigen::Block<Eigen::Matrix<double, -1, -1, 0>, -1, -1, false>>, BinaryOp = Eigen::internal::scalar_sum_op<double>]\00", align 1
@__PRETTY_FUNCTION__._ZN5Eigen8internal10redux_implINS0_13scalar_sum_opIddEENS0_15redux_evaluatorINS_12CwiseUnaryOpINS0_14scalar_abs2_opIdEEKNS_5BlockINS_6MatrixIdLin1ELin1ELi0ELin1ELin1EEELin1ELin1ELb0EEEEEEELi4ELi0EE3runISD_EEdRKSE_RKS3_RKT_ = private unnamed_addr constant [787 x i8] c"static Eigen::internal::redux_impl<type-parameter-0-0, type-parameter-0-1, 4, Unrolling>::Scalar Eigen::internal::redux_impl<Eigen::internal::scalar_sum_op<double>, Eigen::internal::redux_evaluator<Eigen::CwiseUnaryOp<Eigen::internal::scalar_abs2_op<double>, const Eigen::Block<Eigen::Matrix<double, -1, -1, 0>, -1, -1, false>>>, 4, 0>::run(const Evaluator &, const Func &, const XprType &) [Func = Eigen::internal::scalar_sum_op<double>, Evaluator = Eigen::internal::redux_evaluator<Eigen::CwiseUnaryOp<Eigen::internal::scalar_abs2_op<double>, const Eigen::Block<Eigen::Matrix<double, -1, -1, 0>, -1, -1, false>>>, Traversal = 4, Unrolling = 0, XprType = Eigen::CwiseUnaryOp<Eigen::internal::scalar_abs2_op<double>, const Eigen::Block<Eigen::Matrix<double, -1, -1, 0>, -1, -1, false>>]\00", align 1
@__PRETTY_FUNCTION__._ZN5Eigen8internal10redux_implINS0_13scalar_sum_opIddEENS0_15redux_evaluatorINS_12CwiseUnaryOpINS0_14scalar_abs2_opIdEEKNS_5BlockINS_6MatrixIdLin1ELin1ELi0ELin1ELin1EEELin1ELin1ELb0EEEEEEELi0ELi0EE3runISD_EEdRKSE_RKS3_RKT_ = private unnamed_addr constant [779 x i8] c"static Eigen::internal::redux_impl<type-parameter-0-0, type-parameter-0-1, 0, 0>::Scalar Eigen::internal::redux_impl<Eigen::internal::scalar_sum_op<double>, Eigen::internal::redux_evaluator<Eigen::CwiseUnaryOp<Eigen::internal::scalar_abs2_op<double>, const Eigen::Block<Eigen::Matrix<double, -1, -1, 0>, -1, -1, false>>>, 0, 0>::run(const Evaluator &, const Func &, const XprType &) [Func = Eigen::internal::scalar_sum_op<double>, Evaluator = Eigen::internal::redux_evaluator<Eigen::CwiseUnaryOp<Eigen::internal::scalar_abs2_op<double>, const Eigen::Block<Eigen::Matrix<double, -1, -1, 0>, -1, -1, false>>>, Traversal = 0, Unrolling = 0, XprType = Eigen::CwiseUnaryOp<Eigen::internal::scalar_abs2_op<double>, const Eigen::Block<Eigen::Matrix<double, -1, -1, 0>, -1, -1, false>>]\00", align 1
@.str.142 = private unnamed_addr constant [32 x i8] c"null pointer dereference error!\00", align 1
@.str.143 = private unnamed_addr constant [58 x i8] c"(dst_ptr != nullptr) && \22null pointer dereference error!\22\00", align 1
@.str.144 = private unnamed_addr constant [24 x i8] c"./Eigen/src/Core/Fill.h\00", align 1
@__PRETTY_FUNCTION__._ZN5Eigen8internal15eigen_zero_implINS_6MatrixIdLin1ELin1ELi0ELin1ELin1EEELb1EE3runERS3_ = private unnamed_addr constant [157 x i8] c"static void Eigen::internal::eigen_zero_impl<Eigen::Matrix<double, -1, -1, 0>, true>::run(Xpr &) [Xpr = Eigen::Matrix<double, -1, -1, 0>, use_memset = true]\00", align 1
@__PRETTY_FUNCTION__._ZN5Eigen8internal17resize_if_allowedINS_5BlockINS_6MatrixIdLin1ELin1ELi0ELin1ELin1EEELin1ELin1ELb0EEENS_12CwiseUnaryOpINS0_15scalar_dummy_opIdLb1EEEKNS2_IKNS6_INS0_14scalar_abs2_opIdEEKS4_EELin1ELin1ELb0EEEEEddEEvRT_RKT0_RKNS0_9assign_opIT1_T2_EE = private unnamed_addr constant [439 x i8] c"void Eigen::internal::resize_if_allowed(DstXprType &, const SrcXprType &, const internal::assign_op<T1, T2> &) [DstXprType = Eigen::Block<Eigen::Matrix<double, -1, -1, 0>, -1, -1, false>, SrcXprType = Eigen::CwiseUnaryOp<Eigen::internal::scalar_dummy_op<double, true>, const Eigen::Block<const Eigen::CwiseUnaryOp<Eigen::internal::scalar_abs2_op<double>, const Eigen::Matrix<double, -1, -1, 0>>, -1, -1, false>>, T1 = double, T2 = double]\00", align 1
@__PRETTY_FUNCTION__._ZN5Eigen20CoreThreadPoolDevice15parallelForImplINS_8internal33dense_assignment_loop_with_deviceINS2_31generic_dense_assignment_kernelINS2_9evaluatorINS_5BlockINS_6MatrixIdLin1ELin1ELi0ELin1ELin1EEELin1ELin1ELb0EEEEENS5_INS_12CwiseUnaryOpINS2_15scalar_dummy_opIdLb1EEEKNS6_IKNSB_INS2_14scalar_abs2_opIdEEKS8_EELin1ELin1ELb0EEEEEEENS2_9assign_opIddEELi0EEES0_Li4ELi0EE23PacketAssignmentFunctorELi2EEEvllllRT_RNS_7BarrierEi = private unnamed_addr constant [719 x i8] c"void Eigen::CoreThreadPoolDevice::parallelForImpl(Eigen::Index, Eigen::Index, Eigen::Index, Eigen::Index, BinaryFunctor &, Eigen::Barrier &, int) [BinaryFunctor = Eigen::internal::dense_assignment_loop_with_device<Eigen::internal::generic_dense_assignment_kernel<Eigen::internal::evaluator<Eigen::Block<Eigen::Matrix<double, -1, -1, 0>, -1, -1, false>>, Eigen::internal::evaluator<Eigen::CwiseUnaryOp<Eigen::internal::scalar_dummy_op<double, true>, const Eigen::Block<const Eigen::CwiseUnaryOp<Eigen::internal::scalar_abs2_op<double>, const Eigen::Matrix<double, -1, -1, 0>>, -1, -1, false>>>, Eigen::internal::assign_op<double, double>, 0>, Eigen::CoreThreadPoolDevice, 4, 0>::PacketAssignmentFunctor, PacketSize = 2]\00", align 1
@_ZTSZN5Eigen20CoreThreadPoolDevice15parallelForImplINS_8internal33dense_assignment_loop_with_deviceINS2_31generic_dense_assignment_kernelINS2_9evaluatorINS_5BlockINS_6MatrixIdLin1ELin1ELi0ELin1ELin1EEELin1ELin1ELb0EEEEENS5_INS_12CwiseUnaryOpINS2_15scalar_dummy_opIdLb1EEEKNS6_IKNSB_INS2_14scalar_abs2_opIdEEKS8_EELin1ELin1ELb0EEEEEEENS2_9assign_opIddEELi0EEES0_Li4ELi0EE23PacketAssignmentFunctorELi2EEEvllllRT_RNS_7BarrierEiEUlvE_ = linkonce_odr dso_local constant [427 x i8] c"ZN5Eigen20CoreThreadPoolDevice15parallelForImplINS_8internal33dense_assignment_loop_with_deviceINS2_31generic_dense_assignment_kernelINS2_9evaluatorINS_5BlockINS_6MatrixIdLin1ELin1ELi0ELin1ELin1EEELin1ELin1ELb0EEEEENS5_INS_12CwiseUnaryOpINS2_15scalar_dummy_opIdLb1EEEKNS6_IKNSB_INS2_14scalar_abs2_opIdEEKS8_EELin1ELin1ELb0EEEEEEENS2_9assign_opIddEELi0EEES0_Li4ELi0EE23PacketAssignmentFunctorELi2EEEvllllRT_RNS_7BarrierEiEUlvE_\00", comdat, align 1
@_ZTIZN5Eigen20CoreThreadPoolDevice15parallelForImplINS_8internal33dense_assignment_loop_with_deviceINS2_31generic_dense_assignment_kernelINS2_9evaluatorINS_5BlockINS_6MatrixIdLin1ELin1ELi0ELin1ELin1EEELin1ELin1ELb0EEEEENS5_INS_12CwiseUnaryOpINS2_15scalar_dummy_opIdLb1EEEKNS6_IKNSB_INS2_14scalar_abs2_opIdEEKS8_EELin1ELin1ELb0EEEEEEENS2_9assign_opIddEELi0EEES0_Li4ELi0EE23PacketAssignmentFunctorELi2EEEvllllRT_RNS_7BarrierEiEUlvE_ = linkonce_odr dso_local constant { ptr, ptr } { ptr getelementptr inbounds (ptr, ptr @_ZTVN10__cxxabiv117__class_type_infoE, i64 2), ptr @_ZTSZN5Eigen20CoreThreadPoolDevice15parallelForImplINS_8internal33dense_assignment_loop_with_deviceINS2_31generic_dense_assignment_kernelINS2_9evaluatorINS_5BlockINS_6MatrixIdLin1ELin1ELi0ELin1ELin1EEELin1ELin1ELb0EEEEENS5_INS_12CwiseUnaryOpINS2_15scalar_dummy_opIdLb1EEEKNS6_IKNSB_INS2_14scalar_abs2_opIdEEKS8_EELin1ELin1ELb0EEEEEEENS2_9assign_opIddEELi0EEES0_Li4ELi0EE23PacketAssignmentFunctorELi2EEEvllllRT_RNS_7BarrierEiEUlvE_ }, comdat, align 8
@_ZTSZN5Eigen20CoreThreadPoolDevice15parallelForImplINS_8internal33dense_assignment_loop_with_deviceINS2_31generic_dense_assignment_kernelINS2_9evaluatorINS_5BlockINS_6MatrixIdLin1ELin1ELi0ELin1ELin1EEELin1ELin1ELb0EEEEENS5_INS_12CwiseUnaryOpINS2_15scalar_dummy_opIdLb1EEEKNS6_IKNSB_INS2_14scalar_abs2_opIdEEKS8_EELin1ELin1ELb0EEEEEEENS2_9assign_opIddEELi0EEES0_Li4ELi0EE23PacketAssignmentFunctorELi2EEEvllllRT_RNS_7BarrierEiEUlvE0_ = linkonce_odr dso_local constant [428 x i8] c"ZN5Eigen20CoreThreadPoolDevice15parallelForImplINS_8internal33dense_assignment_loop_with_deviceINS2_31generic_dense_assignment_kernelINS2_9evaluatorINS_5BlockINS_6MatrixIdLin1ELin1ELi0ELin1ELin1EEELin1ELin1ELb0EEEEENS5_INS_12CwiseUnaryOpINS2_15scalar_dummy_opIdLb1EEEKNS6_IKNSB_INS2_14scalar_abs2_opIdEEKS8_EELin1ELin1ELb0EEEEEEENS2_9assign_opIddEELi0EEES0_Li4ELi0EE23PacketAssignmentFunctorELi2EEEvllllRT_RNS_7BarrierEiEUlvE0_\00", comdat, align 1
@_ZTIZN5Eigen20CoreThreadPoolDevice15parallelForImplINS_8internal33dense_assignment_loop_with_deviceINS2_31generic_dense_assignment_kernelINS2_9evaluatorINS_5BlockINS_6MatrixIdLin1ELin1ELi0ELin1ELin1EEELin1ELin1ELb0EEEEENS5_INS_12CwiseUnaryOpINS2_15scalar_dummy_opIdLb1EEEKNS6_IKNSB_INS2_14scalar_abs2_opIdEEKS8_EELin1ELin1ELb0EEEEEEENS2_9assign_opIddEELi0EEES0_Li4ELi0EE23PacketAssignmentFunctorELi2EEEvllllRT_RNS_7BarrierEiEUlvE0_ = linkonce_odr dso_local constant { ptr, ptr } { ptr getelementptr inbounds (ptr, ptr @_ZTVN10__cxxabiv117__class_type_infoE, i64 2), ptr @_ZTSZN5Eigen20CoreThreadPoolDevice15parallelForImplINS_8internal33dense_assignment_loop_with_deviceINS2_31generic_dense_assignment_kernelINS2_9evaluatorINS_5BlockINS_6MatrixIdLin1ELin1ELi0ELin1ELin1EEELin1ELin1ELb0EEEEENS5_INS_12CwiseUnaryOpINS2_15scalar_dummy_opIdLb1EEEKNS6_IKNSB_INS2_14scalar_abs2_opIdEEKS8_EELin1ELin1ELb0EEEEEEENS2_9assign_opIddEELi0EEES0_Li4ELi0EE23PacketAssignmentFunctorELi2EEEvllllRT_RNS_7BarrierEiEUlvE0_ }, comdat, align 8
@__PRETTY_FUNCTION__._ZN5Eigen20CoreThreadPoolDevice15parallelForImplINS_8internal33dense_assignment_loop_with_deviceINS2_31generic_dense_assignment_kernelINS2_9evaluatorINS_5BlockINS_6MatrixIdLin1ELin1ELi0ELin1ELin1EEELin1ELin1ELb0EEEEENS5_INS_12CwiseUnaryOpINS2_15scalar_dummy_opIdLb1EEEKNS6_IKNSB_INS2_14scalar_abs2_opIdEEKS8_EELin1ELin1ELb0EEEEEEENS2_9assign_opIddEELi0EEES0_Li4ELi0EE23ScalarAssignmentFunctorELi1EEEvllRT_RNS_7BarrierEi = private unnamed_addr constant [689 x i8] c"void Eigen::CoreThreadPoolDevice::parallelForImpl(Eigen::Index, Eigen::Index, UnaryFunctor &, Eigen::Barrier &, int) [UnaryFunctor = Eigen::internal::dense_assignment_loop_with_device<Eigen::internal::generic_dense_assignment_kernel<Eigen::internal::evaluator<Eigen::Block<Eigen::Matrix<double, -1, -1, 0>, -1, -1, false>>, Eigen::internal::evaluator<Eigen::CwiseUnaryOp<Eigen::internal::scalar_dummy_op<double, true>, const Eigen::Block<const Eigen::CwiseUnaryOp<Eigen::internal::scalar_abs2_op<double>, const Eigen::Matrix<double, -1, -1, 0>>, -1, -1, false>>>, Eigen::internal::assign_op<double, double>, 0>, Eigen::CoreThreadPoolDevice, 4, 0>::ScalarAssignmentFunctor, PacketSize = 1]\00", align 1
@_ZTSZN5Eigen20CoreThreadPoolDevice15parallelForImplINS_8internal33dense_assignment_loop_with_deviceINS2_31generic_dense_assignment_kernelINS2_9evaluatorINS_5BlockINS_6MatrixIdLin1ELin1ELi0ELin1ELin1EEELin1ELin1ELb0EEEEENS5_INS_12CwiseUnaryOpINS2_15scalar_dummy_opIdLb1EEEKNS6_IKNSB_INS2_14scalar_abs2_opIdEEKS8_EELin1ELin1ELb0EEEEEEENS2_9assign_opIddEELi0EEES0_Li4ELi0EE23ScalarAssignmentFunctorELi1EEEvllRT_RNS_7BarrierEiEUlvE_ = linkonce_odr dso_local constant [425 x i8] c"ZN5Eigen20CoreThreadPoolDevice15parallelForImplINS_8internal33dense_assignment_loop_with_deviceINS2_31generic_dense_assignment_kernelINS2_9evaluatorINS_5BlockINS_6MatrixIdLin1ELin1ELi0ELin1ELin1EEELin1ELin1ELb0EEEEENS5_INS_12CwiseUnaryOpINS2_15scalar_dummy_opIdLb1EEEKNS6_IKNSB_INS2_14scalar_abs2_opIdEEKS8_EELin1ELin1ELb0EEEEEEENS2_9assign_opIddEELi0EEES0_Li4ELi0EE23ScalarAssignmentFunctorELi1EEEvllRT_RNS_7BarrierEiEUlvE_\00", comdat, align 1
@_ZTIZN5Eigen20CoreThreadPoolDevice15parallelForImplINS_8internal33dense_assignment_loop_with_deviceINS2_31generic_dense_assignment_kernelINS2_9evaluatorINS_5BlockINS_6MatrixIdLin1ELin1ELi0ELin1ELin1EEELin1ELin1ELb0EEEEENS5_INS_12CwiseUnaryOpINS2_15scalar_dummy_opIdLb1EEEKNS6_IKNSB_INS2_14scalar_abs2_opIdEEKS8_EELin1ELin1ELb0EEEEEEENS2_9assign_opIddEELi0EEES0_Li4ELi0EE23ScalarAssignmentFunctorELi1EEEvllRT_RNS_7BarrierEiEUlvE_ = linkonce_odr dso_local constant { ptr, ptr } { ptr getelementptr inbounds (ptr, ptr @_ZTVN10__cxxabiv117__class_type_infoE, i64 2), ptr @_ZTSZN5Eigen20CoreThreadPoolDevice15parallelForImplINS_8internal33dense_assignment_loop_with_deviceINS2_31generic_dense_assignment_kernelINS2_9evaluatorINS_5BlockINS_6MatrixIdLin1ELin1ELi0ELin1ELin1EEELin1ELin1ELb0EEEEENS5_INS_12CwiseUnaryOpINS2_15scalar_dummy_opIdLb1EEEKNS6_IKNSB_INS2_14scalar_abs2_opIdEEKS8_EELin1ELin1ELb0EEEEEEENS2_9assign_opIddEELi0EEES0_Li4ELi0EE23ScalarAssignmentFunctorELi1EEEvllRT_RNS_7BarrierEiEUlvE_ }, comdat, align 8
@__PRETTY_FUNCTION__._ZN5Eigen15PlainObjectBaseINS_6MatrixIfLi16ELi16ELi0ELi16ELi16EEEE6resizeEll = private unnamed_addr constant [141 x i8] c"void Eigen::PlainObjectBase<Eigen::Matrix<float, 16, 16, 0>>::resize(Eigen::Index, Eigen::Index) [Derived = Eigen::Matrix<float, 16, 16, 0>]\00", align 1
@__PRETTY_FUNCTION__._ZN5Eigen14CwiseNullaryOpINS_8internal16scalar_random_opIfEENS_6MatrixIfLi16ELi16ELi0ELi16ELi16EEEEC2EllRKS3_ = private unnamed_addr constant [261 x i8] c"Eigen::CwiseNullaryOp<Eigen::internal::scalar_random_op<float>, Eigen::Matrix<float, 16, 16, 0>>::CwiseNullaryOp(Eigen::Index, Eigen::Index, const NullaryOp &) [NullaryOp = Eigen::internal::scalar_random_op<float>, MatrixType = Eigen::Matrix<float, 16, 16, 0>]\00", align 1
@__PRETTY_FUNCTION__._ZN5Eigen8internal19variable_if_dynamicIlLi16EEC2El = private unnamed_addr constant [94 x i8] c"Eigen::internal::variable_if_dynamic<long, 16>::variable_if_dynamic(T) [T = long, Value = 16]\00", align 1
@__PRETTY_FUNCTION__._ZN5Eigen8internal17resize_if_allowedINS_6MatrixIfLi16ELi16ELi0ELi16ELi16EEENS_14CwiseNullaryOpINS0_16scalar_random_opIfEES3_EEffEEvRT_RKT0_RKNS0_9assign_opIT1_T2_EE = private unnamed_addr constant [293 x i8] c"void Eigen::internal::resize_if_allowed(DstXprType &, const SrcXprType &, const internal::assign_op<T1, T2> &) [DstXprType = Eigen::Matrix<float, 16, 16, 0>, SrcXprType = Eigen::CwiseNullaryOp<Eigen::internal::scalar_random_op<float>, Eigen::Matrix<float, 16, 16, 0>>, T1 = float, T2 = float]\00", align 1
@.str.145 = private unnamed_addr constant [27 x i8] c"outerStride == OuterStride\00", align 1
@__PRETTY_FUNCTION__._ZN5Eigen8internal30plainobjectbase_evaluator_dataIfLi16EEC2EPKfl = private unnamed_addr constant [156 x i8] c"Eigen::internal::plainobjectbase_evaluator_data<float, 16>::plainobjectbase_evaluator_data(const Scalar *, Eigen::Index) [Scalar = float, OuterStride = 16]\00", align 1
@__PRETTY_FUNCTION__._ZN5Eigen8internal17random_float_implIfLb1EE3runEi = private unnamed_addr constant [105 x i8] c"static Scalar Eigen::internal::random_float_impl<float, true>::run(int) [Scalar = float, BuiltIn = true]\00", align 1
@__PRETTY_FUNCTION__._ZN5Eigen8internal16random_bits_implIjE3runEi = private unnamed_addr constant [96 x i8] c"static Scalar Eigen::internal::random_bits_impl<unsigned int>::run(int) [Scalar = unsigned int]\00", align 1
@__PRETTY_FUNCTION__._ZN5Eigen8internal17resize_if_allowedINS_6MatrixIfLi16ELi16ELi0ELi16ELi16EEENS_12CwiseUnaryOpINS0_15scalar_dummy_opIfLb0EEEKNS4_INS0_14scalar_abs2_opIfEEKS3_EEEEffEEvRT_RKT0_RKNS0_9assign_opIT1_T2_EE = private unnamed_addr constant [370 x i8] c"void Eigen::internal::resize_if_allowed(DstXprType &, const SrcXprType &, const internal::assign_op<T1, T2> &) [DstXprType = Eigen::Matrix<float, 16, 16, 0>, SrcXprType = Eigen::CwiseUnaryOp<Eigen::internal::scalar_dummy_op<float, false>, const Eigen::CwiseUnaryOp<Eigen::internal::scalar_abs2_op<float>, const Eigen::Matrix<float, 16, 16, 0>>>, T1 = float, T2 = float]\00", align 1
@__PRETTY_FUNCTION__._ZN5Eigen20CoreThreadPoolDevice15parallelForImplINS_8internal33dense_assignment_loop_with_deviceINS2_31generic_dense_assignment_kernelINS2_9evaluatorINS_6MatrixIfLi16ELi16ELi0ELi16ELi16EEEEENS5_INS_12CwiseUnaryOpINS2_15scalar_dummy_opIfLb0EEEKNS9_INS2_14scalar_abs2_opIfEEKS7_EEEEEENS2_9assign_opIffEELi0EEES0_Li1ELi0EE17AssignmentFunctorELi1EEEvllRT_RNS_7BarrierEi = private unnamed_addr constant [614 x i8] c"void Eigen::CoreThreadPoolDevice::parallelForImpl(Eigen::Index, Eigen::Index, UnaryFunctor &, Eigen::Barrier &, int) [UnaryFunctor = Eigen::internal::dense_assignment_loop_with_device<Eigen::internal::generic_dense_assignment_kernel<Eigen::internal::evaluator<Eigen::Matrix<float, 16, 16, 0>>, Eigen::internal::evaluator<Eigen::CwiseUnaryOp<Eigen::internal::scalar_dummy_op<float, false>, const Eigen::CwiseUnaryOp<Eigen::internal::scalar_abs2_op<float>, const Eigen::Matrix<float, 16, 16, 0>>>>, Eigen::internal::assign_op<float, float>, 0>, Eigen::CoreThreadPoolDevice, 1, 0>::AssignmentFunctor, PacketSize = 1]\00", align 1
@_ZTSZN5Eigen20CoreThreadPoolDevice15parallelForImplINS_8internal33dense_assignment_loop_with_deviceINS2_31generic_dense_assignment_kernelINS2_9evaluatorINS_6MatrixIfLi16ELi16ELi0ELi16ELi16EEEEENS5_INS_12CwiseUnaryOpINS2_15scalar_dummy_opIfLb0EEEKNS9_INS2_14scalar_abs2_opIfEEKS7_EEEEEENS2_9assign_opIffEELi0EEES0_Li1ELi0EE17AssignmentFunctorELi1EEEvllRT_RNS_7BarrierEiEUlvE_ = linkonce_odr dso_local constant [371 x i8] c"ZN5Eigen20CoreThreadPoolDevice15parallelForImplINS_8internal33dense_assignment_loop_with_deviceINS2_31generic_dense_assignment_kernelINS2_9evaluatorINS_6MatrixIfLi16ELi16ELi0ELi16ELi16EEEEENS5_INS_12CwiseUnaryOpINS2_15scalar_dummy_opIfLb0EEEKNS9_INS2_14scalar_abs2_opIfEEKS7_EEEEEENS2_9assign_opIffEELi0EEES0_Li1ELi0EE17AssignmentFunctorELi1EEEvllRT_RNS_7BarrierEiEUlvE_\00", comdat, align 1
@_ZTIZN5Eigen20CoreThreadPoolDevice15parallelForImplINS_8internal33dense_assignment_loop_with_deviceINS2_31generic_dense_assignment_kernelINS2_9evaluatorINS_6MatrixIfLi16ELi16ELi0ELi16ELi16EEEEENS5_INS_12CwiseUnaryOpINS2_15scalar_dummy_opIfLb0EEEKNS9_INS2_14scalar_abs2_opIfEEKS7_EEEEEENS2_9assign_opIffEELi0EEES0_Li1ELi0EE17AssignmentFunctorELi1EEEvllRT_RNS_7BarrierEiEUlvE_ = linkonce_odr dso_local constant { ptr, ptr } { ptr getelementptr inbounds (ptr, ptr @_ZTVN10__cxxabiv117__class_type_infoE, i64 2), ptr @_ZTSZN5Eigen20CoreThreadPoolDevice15parallelForImplINS_8internal33dense_assignment_loop_with_deviceINS2_31generic_dense_assignment_kernelINS2_9evaluatorINS_6MatrixIfLi16ELi16ELi0ELi16ELi16EEEEENS5_INS_12CwiseUnaryOpINS2_15scalar_dummy_opIfLb0EEEKNS9_INS2_14scalar_abs2_opIfEEKS7_EEEEEENS2_9assign_opIffEELi0EEES0_Li1ELi0EE17AssignmentFunctorELi1EEEvllRT_RNS_7BarrierEiEUlvE_ }, comdat, align 8
@__PRETTY_FUNCTION__._ZNK5Eigen15DenseCoeffsBaseINS_6MatrixIfLi16ELi16ELi0ELi16ELi16EEELi0EEclEll = private unnamed_addr constant [223 x i8] c"Eigen::DenseCoeffsBase<type-parameter-0-0, 0>::CoeffReturnType Eigen::DenseCoeffsBase<Eigen::Matrix<float, 16, 16, 0>, 0>::operator()(Eigen::Index, Eigen::Index) const [Derived = Eigen::Matrix<float, 16, 16, 0>, Level = 0]\00", align 1
@__PRETTY_FUNCTION__._ZNK5Eigen15DenseCoeffsBaseINS_6MatrixIfLi16ELi16ELi0ELi16ELi16EEELi0EE5coeffEll = private unnamed_addr constant [218 x i8] c"Eigen::DenseCoeffsBase<type-parameter-0-0, 0>::CoeffReturnType Eigen::DenseCoeffsBase<Eigen::Matrix<float, 16, 16, 0>, 0>::coeff(Eigen::Index, Eigen::Index) const [Derived = Eigen::Matrix<float, 16, 16, 0>, Level = 0]\00", align 1
@__PRETTY_FUNCTION__._ZN5Eigen13CwiseBinaryOpINS_8internal20scalar_difference_opIffEEKNS_6MatrixIfLi16ELi16ELi0ELi16ELi16EEES6_EC2ERS6_S8_RKS3_ = private unnamed_addr constant [396 x i8] c"Eigen::CwiseBinaryOp<Eigen::internal::scalar_difference_op<float>, const Eigen::Matrix<float, 16, 16, 0>, const Eigen::Matrix<float, 16, 16, 0>>::CwiseBinaryOp(const Eigen::CwiseBinaryOp::Lhs &, const Eigen::CwiseBinaryOp::Rhs &, const BinaryOp &) [BinaryOp = Eigen::internal::scalar_difference_op<float>, Lhs = const Eigen::Matrix<float, 16, 16, 0>, Rhs = const Eigen::Matrix<float, 16, 16, 0>]\00", align 1
@__PRETTY_FUNCTION__._ZNK5Eigen9DenseBaseINS_12CwiseUnaryOpINS_8internal14scalar_abs2_opIfEEKNS_13CwiseBinaryOpINS2_20scalar_difference_opIffEEKNS_6MatrixIfLi16ELi16ELi0ELi16ELi16EEESA_EEEEE5reduxINS2_13scalar_sum_opIffEEEEfRKT_ = private unnamed_addr constant [574 x i8] c"typename internal::traits<Derived>::Scalar Eigen::DenseBase<Eigen::CwiseUnaryOp<Eigen::internal::scalar_abs2_op<float>, const Eigen::CwiseBinaryOp<Eigen::internal::scalar_difference_op<float>, const Eigen::Matrix<float, 16, 16, 0>, const Eigen::Matrix<float, 16, 16, 0>>>>::redux(const Func &) const [Derived = Eigen::CwiseUnaryOp<Eigen::internal::scalar_abs2_op<float>, const Eigen::CwiseBinaryOp<Eigen::internal::scalar_difference_op<float>, const Eigen::Matrix<float, 16, 16, 0>, const Eigen::Matrix<float, 16, 16, 0>>>, BinaryOp = Eigen::internal::scalar_sum_op<float>]\00", align 1
@__PRETTY_FUNCTION__._ZNK5Eigen9DenseBaseINS_12CwiseUnaryOpINS_8internal14scalar_abs2_opIfEEKNS_6MatrixIfLi16ELi16ELi0ELi16ELi16EEEEEE5reduxINS2_13scalar_sum_opIffEEEEfRKT_ = private unnamed_addr constant [348 x i8] c"typename internal::traits<Derived>::Scalar Eigen::DenseBase<Eigen::CwiseUnaryOp<Eigen::internal::scalar_abs2_op<float>, const Eigen::Matrix<float, 16, 16, 0>>>::redux(const Func &) const [Derived = Eigen::CwiseUnaryOp<Eigen::internal::scalar_abs2_op<float>, const Eigen::Matrix<float, 16, 16, 0>>, BinaryOp = Eigen::internal::scalar_sum_op<float>]\00", align 1
@__PRETTY_FUNCTION__._ZN5Eigen8internal17resize_if_allowedINS_6MatrixIfLi16ELi16ELi0ELi16ELi16EEENS_12CwiseUnaryOpINS0_15scalar_dummy_opIfLb1EEEKNS4_INS0_14scalar_abs2_opIfEEKS3_EEEEffEEvRT_RKT0_RKNS0_9assign_opIT1_T2_EE = private unnamed_addr constant [369 x i8] c"void Eigen::internal::resize_if_allowed(DstXprType &, const SrcXprType &, const internal::assign_op<T1, T2> &) [DstXprType = Eigen::Matrix<float, 16, 16, 0>, SrcXprType = Eigen::CwiseUnaryOp<Eigen::internal::scalar_dummy_op<float, true>, const Eigen::CwiseUnaryOp<Eigen::internal::scalar_abs2_op<float>, const Eigen::Matrix<float, 16, 16, 0>>>, T1 = float, T2 = float]\00", align 1
@__PRETTY_FUNCTION__._ZNK5Eigen20CoreThreadPoolDevice15calculateLevelsILi4EEEilf = private unnamed_addr constant [93 x i8] c"int Eigen::CoreThreadPoolDevice::calculateLevels(Eigen::Index, float) const [PacketSize = 4]\00", align 1
@__PRETTY_FUNCTION__._ZN5Eigen20CoreThreadPoolDevice15parallelForImplINS_8internal33dense_assignment_loop_with_deviceINS2_31generic_dense_assignment_kernelINS2_9evaluatorINS_6MatrixIfLi16ELi16ELi0ELi16ELi16EEEEENS5_INS_12CwiseUnaryOpINS2_15scalar_dummy_opIfLb1EEEKNS9_INS2_14scalar_abs2_opIfEEKS7_EEEEEENS2_9assign_opIffEELi0EEES0_Li2ELi0EE17AssignmentFunctorELi4EEEvllllRT_RNS_7BarrierEi = private unnamed_addr constant [643 x i8] c"void Eigen::CoreThreadPoolDevice::parallelForImpl(Eigen::Index, Eigen::Index, Eigen::Index, Eigen::Index, BinaryFunctor &, Eigen::Barrier &, int) [BinaryFunctor = Eigen::internal::dense_assignment_loop_with_device<Eigen::internal::generic_dense_assignment_kernel<Eigen::internal::evaluator<Eigen::Matrix<float, 16, 16, 0>>, Eigen::internal::evaluator<Eigen::CwiseUnaryOp<Eigen::internal::scalar_dummy_op<float, true>, const Eigen::CwiseUnaryOp<Eigen::internal::scalar_abs2_op<float>, const Eigen::Matrix<float, 16, 16, 0>>>>, Eigen::internal::assign_op<float, float>, 0>, Eigen::CoreThreadPoolDevice, 2, 0>::AssignmentFunctor, PacketSize = 4]\00", align 1
@_ZTSZN5Eigen20CoreThreadPoolDevice15parallelForImplINS_8internal33dense_assignment_loop_with_deviceINS2_31generic_dense_assignment_kernelINS2_9evaluatorINS_6MatrixIfLi16ELi16ELi0ELi16ELi16EEEEENS5_INS_12CwiseUnaryOpINS2_15scalar_dummy_opIfLb1EEEKNS9_INS2_14scalar_abs2_opIfEEKS7_EEEEEENS2_9assign_opIffEELi0EEES0_Li2ELi0EE17AssignmentFunctorELi4EEEvllllRT_RNS_7BarrierEiEUlvE_ = linkonce_odr dso_local constant [373 x i8] c"ZN5Eigen20CoreThreadPoolDevice15parallelForImplINS_8internal33dense_assignment_loop_with_deviceINS2_31generic_dense_assignment_kernelINS2_9evaluatorINS_6MatrixIfLi16ELi16ELi0ELi16ELi16EEEEENS5_INS_12CwiseUnaryOpINS2_15scalar_dummy_opIfLb1EEEKNS9_INS2_14scalar_abs2_opIfEEKS7_EEEEEENS2_9assign_opIffEELi0EEES0_Li2ELi0EE17AssignmentFunctorELi4EEEvllllRT_RNS_7BarrierEiEUlvE_\00", comdat, align 1
@_ZTIZN5Eigen20CoreThreadPoolDevice15parallelForImplINS_8internal33dense_assignment_loop_with_deviceINS2_31generic_dense_assignment_kernelINS2_9evaluatorINS_6MatrixIfLi16ELi16ELi0ELi16ELi16EEEEENS5_INS_12CwiseUnaryOpINS2_15scalar_dummy_opIfLb1EEEKNS9_INS2_14scalar_abs2_opIfEEKS7_EEEEEENS2_9assign_opIffEELi0EEES0_Li2ELi0EE17AssignmentFunctorELi4EEEvllllRT_RNS_7BarrierEiEUlvE_ = linkonce_odr dso_local constant { ptr, ptr } { ptr getelementptr inbounds (ptr, ptr @_ZTVN10__cxxabiv117__class_type_infoE, i64 2), ptr @_ZTSZN5Eigen20CoreThreadPoolDevice15parallelForImplINS_8internal33dense_assignment_loop_with_deviceINS2_31generic_dense_assignment_kernelINS2_9evaluatorINS_6MatrixIfLi16ELi16ELi0ELi16ELi16EEEEENS5_INS_12CwiseUnaryOpINS2_15scalar_dummy_opIfLb1EEEKNS9_INS2_14scalar_abs2_opIfEEKS7_EEEEEENS2_9assign_opIffEELi0EEES0_Li2ELi0EE17AssignmentFunctorELi4EEEvllllRT_RNS_7BarrierEiEUlvE_ }, comdat, align 8
@_ZTSZN5Eigen20CoreThreadPoolDevice15parallelForImplINS_8internal33dense_assignment_loop_with_deviceINS2_31generic_dense_assignment_kernelINS2_9evaluatorINS_6MatrixIfLi16ELi16ELi0ELi16ELi16EEEEENS5_INS_12CwiseUnaryOpINS2_15scalar_dummy_opIfLb1EEEKNS9_INS2_14scalar_abs2_opIfEEKS7_EEEEEENS2_9assign_opIffEELi0EEES0_Li2ELi0EE17AssignmentFunctorELi4EEEvllllRT_RNS_7BarrierEiEUlvE0_ = linkonce_odr dso_local constant [374 x i8] c"ZN5Eigen20CoreThreadPoolDevice15parallelForImplINS_8internal33dense_assignment_loop_with_deviceINS2_31generic_dense_assignment_kernelINS2_9evaluatorINS_6MatrixIfLi16ELi16ELi0ELi16ELi16EEEEENS5_INS_12CwiseUnaryOpINS2_15scalar_dummy_opIfLb1EEEKNS9_INS2_14scalar_abs2_opIfEEKS7_EEEEEENS2_9assign_opIffEELi0EEES0_Li2ELi0EE17AssignmentFunctorELi4EEEvllllRT_RNS_7BarrierEiEUlvE0_\00", comdat, align 1
@_ZTIZN5Eigen20CoreThreadPoolDevice15parallelForImplINS_8internal33dense_assignment_loop_with_deviceINS2_31generic_dense_assignment_kernelINS2_9evaluatorINS_6MatrixIfLi16ELi16ELi0ELi16ELi16EEEEENS5_INS_12CwiseUnaryOpINS2_15scalar_dummy_opIfLb1EEEKNS9_INS2_14scalar_abs2_opIfEEKS7_EEEEEENS2_9assign_opIffEELi0EEES0_Li2ELi0EE17AssignmentFunctorELi4EEEvllllRT_RNS_7BarrierEiEUlvE0_ = linkonce_odr dso_local constant { ptr, ptr } { ptr getelementptr inbounds (ptr, ptr @_ZTVN10__cxxabiv117__class_type_infoE, i64 2), ptr @_ZTSZN5Eigen20CoreThreadPoolDevice15parallelForImplINS_8internal33dense_assignment_loop_with_deviceINS2_31generic_dense_assignment_kernelINS2_9evaluatorINS_6MatrixIfLi16ELi16ELi0ELi16ELi16EEEEENS5_INS_12CwiseUnaryOpINS2_15scalar_dummy_opIfLb1EEEKNS9_INS2_14scalar_abs2_opIfEEKS7_EEEEEENS2_9assign_opIffEELi0EEES0_Li2ELi0EE17AssignmentFunctorELi4EEEvllllRT_RNS_7BarrierEiEUlvE0_ }, comdat, align 8
@__PRETTY_FUNCTION__._ZN5Eigen5BlockIKNS_12CwiseUnaryOpINS_8internal14scalar_abs2_opIfEEKNS_6MatrixIfLi16ELi16ELi0ELi16ELi16EEEEELin1ELin1ELb0EEC2ERS9_llll = private unnamed_addr constant [377 x i8] c"Eigen::Block<const Eigen::CwiseUnaryOp<Eigen::internal::scalar_abs2_op<float>, const Eigen::Matrix<float, 16, 16, 0>>, -1, -1, false>::Block(XprType &, Eigen::Index, Eigen::Index, Eigen::Index, Eigen::Index) [XprType = const Eigen::CwiseUnaryOp<Eigen::internal::scalar_abs2_op<float>, const Eigen::Matrix<float, 16, 16, 0>>, BlockRows = -1, BlockCols = -1, InnerPanel = false]\00", align 1
@__PRETTY_FUNCTION__._ZN5Eigen5BlockINS_6MatrixIfLi16ELi16ELi0ELi16ELi16EEELin1ELin1ELb0EEC2ERS2_llll = private unnamed_addr constant [231 x i8] c"Eigen::Block<Eigen::Matrix<float, 16, 16, 0>, -1, -1, false>::Block(XprType &, Eigen::Index, Eigen::Index, Eigen::Index, Eigen::Index) [XprType = Eigen::Matrix<float, 16, 16, 0>, BlockRows = -1, BlockCols = -1, InnerPanel = false]\00", align 1
@__PRETTY_FUNCTION__._ZN5Eigen7MapBaseINS_5BlockINS_6MatrixIfLi16ELi16ELi0ELi16ELi16EEELin1ELin1ELb0EEELi0EEC2EPfll = private unnamed_addr constant [253 x i8] c"Eigen::MapBase<Eigen::Block<Eigen::Matrix<float, 16, 16, 0>, -1, -1, false>, 0>::MapBase(Eigen::MapBase<type-parameter-0-0, 0>::PointerType, Eigen::Index, Eigen::Index) [Derived = Eigen::Block<Eigen::Matrix<float, 16, 16, 0>, -1, -1, false>, Level = 0]\00", align 1
@__PRETTY_FUNCTION__._ZNK5Eigen7MapBaseINS_5BlockINS_6MatrixIfLi16ELi16ELi0ELi16ELi16EEELin1ELin1ELb0EEELi0EE11checkSanityIS4_EEvNSt9enable_ifIXeqsr8internal6traitsIT_EE9AlignmentLi0EEPvE4typeE = private unnamed_addr constant [317 x i8] c"void Eigen::MapBase<Eigen::Block<Eigen::Matrix<float, 16, 16, 0>, -1, -1, false>, 0>::checkSanity(std::enable_if_t<internal::traits<T>::Alignment == 0, void *>) const [Derived = Eigen::Block<Eigen::Matrix<float, 16, 16, 0>, -1, -1, false>, Level = 0, T = Eigen::Block<Eigen::Matrix<float, 16, 16, 0>, -1, -1, false>]\00", align 1
@__PRETTY_FUNCTION__._ZN5Eigen8internal17resize_if_allowedINS_5BlockINS_6MatrixIfLi16ELi16ELi0ELi16ELi16EEELin1ELin1ELb0EEENS_12CwiseUnaryOpINS0_15scalar_dummy_opIfLb0EEEKNS2_IKNS6_INS0_14scalar_abs2_opIfEEKS4_EELin1ELin1ELb0EEEEEffEEvRT_RKT0_RKNS0_9assign_opIT1_T2_EE = private unnamed_addr constant [434 x i8] c"void Eigen::internal::resize_if_allowed(DstXprType &, const SrcXprType &, const internal::assign_op<T1, T2> &) [DstXprType = Eigen::Block<Eigen::Matrix<float, 16, 16, 0>, -1, -1, false>, SrcXprType = Eigen::CwiseUnaryOp<Eigen::internal::scalar_dummy_op<float, false>, const Eigen::Block<const Eigen::CwiseUnaryOp<Eigen::internal::scalar_abs2_op<float>, const Eigen::Matrix<float, 16, 16, 0>>, -1, -1, false>>, T1 = float, T2 = float]\00", align 1
@__PRETTY_FUNCTION__._ZN5Eigen9DenseBaseINS_5BlockINS_6MatrixIfLi16ELi16ELi0ELi16ELi16EEELin1ELin1ELb0EEEE6resizeEll = private unnamed_addr constant [193 x i8] c"void Eigen::DenseBase<Eigen::Block<Eigen::Matrix<float, 16, 16, 0>, -1, -1, false>>::resize(Eigen::Index, Eigen::Index) [Derived = Eigen::Block<Eigen::Matrix<float, 16, 16, 0>, -1, -1, false>]\00", align 1
@__PRETTY_FUNCTION__._ZN5Eigen8internal15block_evaluatorINS_6MatrixIfLi16ELi16ELi0ELi16ELi16EEELin1ELin1ELb0ELb1EEC2ERKNS_5BlockIS3_Lin1ELin1ELb0EEE = private unnamed_addr constant [335 x i8] c"Eigen::internal::block_evaluator<Eigen::Matrix<float, 16, 16, 0>, -1, -1, false, true>::block_evaluator(const Eigen::internal::block_evaluator<type-parameter-0-0, BlockRows, BlockCols, InnerPanel, true>::XprType &) [ArgType = Eigen::Matrix<float, 16, 16, 0>, BlockRows = -1, BlockCols = -1, InnerPanel = false, HasDirectAccess = true]\00", align 1
@__PRETTY_FUNCTION__._ZN5Eigen20CoreThreadPoolDevice15parallelForImplINS_8internal33dense_assignment_loop_with_deviceINS2_31generic_dense_assignment_kernelINS2_9evaluatorINS_5BlockINS_6MatrixIfLi16ELi16ELi0ELi16ELi16EEELin1ELin1ELb0EEEEENS5_INS_12CwiseUnaryOpINS2_15scalar_dummy_opIfLb0EEEKNS6_IKNSB_INS2_14scalar_abs2_opIfEEKS8_EELin1ELin1ELb0EEEEEEENS2_9assign_opIffEELi0EEES0_Li0ELi0EE17AssignmentFunctorELi1EEEvllllRT_RNS_7BarrierEi = private unnamed_addr constant [708 x i8] c"void Eigen::CoreThreadPoolDevice::parallelForImpl(Eigen::Index, Eigen::Index, Eigen::Index, Eigen::Index, BinaryFunctor &, Eigen::Barrier &, int) [BinaryFunctor = Eigen::internal::dense_assignment_loop_with_device<Eigen::internal::generic_dense_assignment_kernel<Eigen::internal::evaluator<Eigen::Block<Eigen::Matrix<float, 16, 16, 0>, -1, -1, false>>, Eigen::internal::evaluator<Eigen::CwiseUnaryOp<Eigen::internal::scalar_dummy_op<float, false>, const Eigen::Block<const Eigen::CwiseUnaryOp<Eigen::internal::scalar_abs2_op<float>, const Eigen::Matrix<float, 16, 16, 0>>, -1, -1, false>>>, Eigen::internal::assign_op<float, float>, 0>, Eigen::CoreThreadPoolDevice, 0, 0>::AssignmentFunctor, PacketSize = 1]\00", align 1
@_ZTSZN5Eigen20CoreThreadPoolDevice15parallelForImplINS_8internal33dense_assignment_loop_with_deviceINS2_31generic_dense_assignment_kernelINS2_9evaluatorINS_5BlockINS_6MatrixIfLi16ELi16ELi0ELi16ELi16EEELin1ELin1ELb0EEEEENS5_INS_12CwiseUnaryOpINS2_15scalar_dummy_opIfLb0EEEKNS6_IKNSB_INS2_14scalar_abs2_opIfEEKS8_EELin1ELin1ELb0EEEEEEENS2_9assign_opIffEELi0EEES0_Li0ELi0EE17AssignmentFunctorELi1EEEvllllRT_RNS_7BarrierEiEUlvE_ = linkonce_odr dso_local constant [421 x i8] c"ZN5Eigen20CoreThreadPoolDevice15parallelForImplINS_8internal33dense_assignment_loop_with_deviceINS2_31generic_dense_assignment_kernelINS2_9evaluatorINS_5BlockINS_6MatrixIfLi16ELi16ELi0ELi16ELi16EEELin1ELin1ELb0EEEEENS5_INS_12CwiseUnaryOpINS2_15scalar_dummy_opIfLb0EEEKNS6_IKNSB_INS2_14scalar_abs2_opIfEEKS8_EELin1ELin1ELb0EEEEEEENS2_9assign_opIffEELi0EEES0_Li0ELi0EE17AssignmentFunctorELi1EEEvllllRT_RNS_7BarrierEiEUlvE_\00", comdat, align 1
@_ZTIZN5Eigen20CoreThreadPoolDevice15parallelForImplINS_8internal33dense_assignment_loop_with_deviceINS2_31generic_dense_assignment_kernelINS2_9evaluatorINS_5BlockINS_6MatrixIfLi16ELi16ELi0ELi16ELi16EEELin1ELin1ELb0EEEEENS5_INS_12CwiseUnaryOpINS2_15scalar_dummy_opIfLb0EEEKNS6_IKNSB_INS2_14scalar_abs2_opIfEEKS8_EELin1ELin1ELb0EEEEEEENS2_9assign_opIffEELi0EEES0_Li0ELi0EE17AssignmentFunctorELi1EEEvllllRT_RNS_7BarrierEiEUlvE_ = linkonce_odr dso_local constant { ptr, ptr } { ptr getelementptr inbounds (ptr, ptr @_ZTVN10__cxxabiv117__class_type_infoE, i64 2), ptr @_ZTSZN5Eigen20CoreThreadPoolDevice15parallelForImplINS_8internal33dense_assignment_loop_with_deviceINS2_31generic_dense_assignment_kernelINS2_9evaluatorINS_5BlockINS_6MatrixIfLi16ELi16ELi0ELi16ELi16EEELin1ELin1ELb0EEEEENS5_INS_12CwiseUnaryOpINS2_15scalar_dummy_opIfLb0EEEKNS6_IKNSB_INS2_14scalar_abs2_opIfEEKS8_EELin1ELin1ELb0EEEEEEENS2_9assign_opIffEELi0EEES0_Li0ELi0EE17AssignmentFunctorELi1EEEvllllRT_RNS_7BarrierEiEUlvE_ }, comdat, align 8
@_ZTSZN5Eigen20CoreThreadPoolDevice15parallelForImplINS_8internal33dense_assignment_loop_with_deviceINS2_31generic_dense_assignment_kernelINS2_9evaluatorINS_5BlockINS_6MatrixIfLi16ELi16ELi0ELi16ELi16EEELin1ELin1ELb0EEEEENS5_INS_12CwiseUnaryOpINS2_15scalar_dummy_opIfLb0EEEKNS6_IKNSB_INS2_14scalar_abs2_opIfEEKS8_EELin1ELin1ELb0EEEEEEENS2_9assign_opIffEELi0EEES0_Li0ELi0EE17AssignmentFunctorELi1EEEvllllRT_RNS_7BarrierEiEUlvE0_ = linkonce_odr dso_local constant [422 x i8] c"ZN5Eigen20CoreThreadPoolDevice15parallelForImplINS_8internal33dense_assignment_loop_with_deviceINS2_31generic_dense_assignment_kernelINS2_9evaluatorINS_5BlockINS_6MatrixIfLi16ELi16ELi0ELi16ELi16EEELin1ELin1ELb0EEEEENS5_INS_12CwiseUnaryOpINS2_15scalar_dummy_opIfLb0EEEKNS6_IKNSB_INS2_14scalar_abs2_opIfEEKS8_EELin1ELin1ELb0EEEEEEENS2_9assign_opIffEELi0EEES0_Li0ELi0EE17AssignmentFunctorELi1EEEvllllRT_RNS_7BarrierEiEUlvE0_\00", comdat, align 1
@_ZTIZN5Eigen20CoreThreadPoolDevice15parallelForImplINS_8internal33dense_assignment_loop_with_deviceINS2_31generic_dense_assignment_kernelINS2_9evaluatorINS_5BlockINS_6MatrixIfLi16ELi16ELi0ELi16ELi16EEELin1ELin1ELb0EEEEENS5_INS_12CwiseUnaryOpINS2_15scalar_dummy_opIfLb0EEEKNS6_IKNSB_INS2_14scalar_abs2_opIfEEKS8_EELin1ELin1ELb0EEEEEEENS2_9assign_opIffEELi0EEES0_Li0ELi0EE17AssignmentFunctorELi1EEEvllllRT_RNS_7BarrierEiEUlvE0_ = linkonce_odr dso_local constant { ptr, ptr } { ptr getelementptr inbounds (ptr, ptr @_ZTVN10__cxxabiv117__class_type_infoE, i64 2), ptr @_ZTSZN5Eigen20CoreThreadPoolDevice15parallelForImplINS_8internal33dense_assignment_loop_with_deviceINS2_31generic_dense_assignment_kernelINS2_9evaluatorINS_5BlockINS_6MatrixIfLi16ELi16ELi0ELi16ELi16EEELin1ELin1ELb0EEEEENS5_INS_12CwiseUnaryOpINS2_15scalar_dummy_opIfLb0EEEKNS6_IKNSB_INS2_14scalar_abs2_opIfEEKS8_EELin1ELin1ELb0EEEEEEENS2_9assign_opIffEELi0EEES0_Li0ELi0EE17AssignmentFunctorELi1EEEvllllRT_RNS_7BarrierEiEUlvE0_ }, comdat, align 8
@__PRETTY_FUNCTION__._ZNK5Eigen15DenseCoeffsBaseINS_5BlockINS_6MatrixIfLi16ELi16ELi0ELi16ELi16EEELin1ELin1ELb0EEELi0EEclEll = private unnamed_addr constant [281 x i8] c"Eigen::DenseCoeffsBase<type-parameter-0-0, 0>::CoeffReturnType Eigen::DenseCoeffsBase<Eigen::Block<Eigen::Matrix<float, 16, 16, 0>, -1, -1, false>, 0>::operator()(Eigen::Index, Eigen::Index) const [Derived = Eigen::Block<Eigen::Matrix<float, 16, 16, 0>, -1, -1, false>, Level = 0]\00", align 1
@__PRETTY_FUNCTION__._ZNK5Eigen15DenseCoeffsBaseINS_5BlockINS_6MatrixIfLi16ELi16ELi0ELi16ELi16EEELin1ELin1ELb0EEELi0EE5coeffEll = private unnamed_addr constant [276 x i8] c"Eigen::DenseCoeffsBase<type-parameter-0-0, 0>::CoeffReturnType Eigen::DenseCoeffsBase<Eigen::Block<Eigen::Matrix<float, 16, 16, 0>, -1, -1, false>, 0>::coeff(Eigen::Index, Eigen::Index) const [Derived = Eigen::Block<Eigen::Matrix<float, 16, 16, 0>, -1, -1, false>, Level = 0]\00", align 1
@__PRETTY_FUNCTION__._ZN5Eigen13CwiseBinaryOpINS_8internal20scalar_difference_opIffEEKNS_5BlockINS_6MatrixIfLi16ELi16ELi0ELi16ELi16EEELin1ELin1ELb0EEES8_EC2ERS8_SA_RKS3_ = private unnamed_addr constant [512 x i8] c"Eigen::CwiseBinaryOp<Eigen::internal::scalar_difference_op<float>, const Eigen::Block<Eigen::Matrix<float, 16, 16, 0>, -1, -1, false>, const Eigen::Block<Eigen::Matrix<float, 16, 16, 0>, -1, -1, false>>::CwiseBinaryOp(const Eigen::CwiseBinaryOp::Lhs &, const Eigen::CwiseBinaryOp::Rhs &, const BinaryOp &) [BinaryOp = Eigen::internal::scalar_difference_op<float>, Lhs = const Eigen::Block<Eigen::Matrix<float, 16, 16, 0>, -1, -1, false>, Rhs = const Eigen::Block<Eigen::Matrix<float, 16, 16, 0>, -1, -1, false>]\00", align 1
@__PRETTY_FUNCTION__._ZNK5Eigen9DenseBaseINS_12CwiseUnaryOpINS_8internal14scalar_abs2_opIfEEKNS_13CwiseBinaryOpINS2_20scalar_difference_opIffEEKNS_5BlockINS_6MatrixIfLi16ELi16ELi0ELi16ELi16EEELin1ELin1ELb0EEESC_EEEEE5reduxINS2_13scalar_sum_opIffEEEEfRKT_ = private unnamed_addr constant [690 x i8] c"typename internal::traits<Derived>::Scalar Eigen::DenseBase<Eigen::CwiseUnaryOp<Eigen::internal::scalar_abs2_op<float>, const Eigen::CwiseBinaryOp<Eigen::internal::scalar_difference_op<float>, const Eigen::Block<Eigen::Matrix<float, 16, 16, 0>, -1, -1, false>, const Eigen::Block<Eigen::Matrix<float, 16, 16, 0>, -1, -1, false>>>>::redux(const Func &) const [Derived = Eigen::CwiseUnaryOp<Eigen::internal::scalar_abs2_op<float>, const Eigen::CwiseBinaryOp<Eigen::internal::scalar_difference_op<float>, const Eigen::Block<Eigen::Matrix<float, 16, 16, 0>, -1, -1, false>, const Eigen::Block<Eigen::Matrix<float, 16, 16, 0>, -1, -1, false>>>, BinaryOp = Eigen::internal::scalar_sum_op<float>]\00", align 1
@__PRETTY_FUNCTION__._ZN5Eigen8internal10redux_implINS0_13scalar_sum_opIffEENS0_15redux_evaluatorINS_12CwiseUnaryOpINS0_14scalar_abs2_opIfEEKNS_13CwiseBinaryOpINS0_20scalar_difference_opIffEEKNS_5BlockINS_6MatrixIfLi16ELi16ELi0ELi16ELi16EEELin1ELin1ELb0EEESF_EEEEEELi4ELi0EE3runISI_EEfRKSJ_RKS3_RKT_ = private unnamed_addr constant [1205 x i8] c"static Eigen::internal::redux_impl<type-parameter-0-0, type-parameter-0-1, 4, Unrolling>::Scalar Eigen::internal::redux_impl<Eigen::internal::scalar_sum_op<float>, Eigen::internal::redux_evaluator<Eigen::CwiseUnaryOp<Eigen::internal::scalar_abs2_op<float>, const Eigen::CwiseBinaryOp<Eigen::internal::scalar_difference_op<float>, const Eigen::Block<Eigen::Matrix<float, 16, 16, 0>, -1, -1, false>, const Eigen::Block<Eigen::Matrix<float, 16, 16, 0>, -1, -1, false>>>>, 4, 0>::run(const Evaluator &, const Func &, const XprType &) [Func = Eigen::internal::scalar_sum_op<float>, Evaluator = Eigen::internal::redux_evaluator<Eigen::CwiseUnaryOp<Eigen::internal::scalar_abs2_op<float>, const Eigen::CwiseBinaryOp<Eigen::internal::scalar_difference_op<float>, const Eigen::Block<Eigen::Matrix<float, 16, 16, 0>, -1, -1, false>, const Eigen::Block<Eigen::Matrix<float, 16, 16, 0>, -1, -1, false>>>>, Traversal = 4, Unrolling = 0, XprType = Eigen::CwiseUnaryOp<Eigen::internal::scalar_abs2_op<float>, const Eigen::CwiseBinaryOp<Eigen::internal::scalar_difference_op<float>, const Eigen::Block<Eigen::Matrix<float, 16, 16, 0>, -1, -1, false>, const Eigen::Block<Eigen::Matrix<float, 16, 16, 0>, -1, -1, false>>>]\00", align 1
@__PRETTY_FUNCTION__._ZN5Eigen8internal10redux_implINS0_13scalar_sum_opIffEENS0_15redux_evaluatorINS_12CwiseUnaryOpINS0_14scalar_abs2_opIfEEKNS_13CwiseBinaryOpINS0_20scalar_difference_opIffEEKNS_5BlockINS_6MatrixIfLi16ELi16ELi0ELi16ELi16EEELin1ELin1ELb0EEESF_EEEEEELi0ELi0EE3runISI_EEfRKSJ_RKS3_RKT_ = private unnamed_addr constant [1197 x i8] c"static Eigen::internal::redux_impl<type-parameter-0-0, type-parameter-0-1, 0, 0>::Scalar Eigen::internal::redux_impl<Eigen::internal::scalar_sum_op<float>, Eigen::internal::redux_evaluator<Eigen::CwiseUnaryOp<Eigen::internal::scalar_abs2_op<float>, const Eigen::CwiseBinaryOp<Eigen::internal::scalar_difference_op<float>, const Eigen::Block<Eigen::Matrix<float, 16, 16, 0>, -1, -1, false>, const Eigen::Block<Eigen::Matrix<float, 16, 16, 0>, -1, -1, false>>>>, 0, 0>::run(const Evaluator &, const Func &, const XprType &) [Func = Eigen::internal::scalar_sum_op<float>, Evaluator = Eigen::internal::redux_evaluator<Eigen::CwiseUnaryOp<Eigen::internal::scalar_abs2_op<float>, const Eigen::CwiseBinaryOp<Eigen::internal::scalar_difference_op<float>, const Eigen::Block<Eigen::Matrix<float, 16, 16, 0>, -1, -1, false>, const Eigen::Block<Eigen::Matrix<float, 16, 16, 0>, -1, -1, false>>>>, Traversal = 0, Unrolling = 0, XprType = Eigen::CwiseUnaryOp<Eigen::internal::scalar_abs2_op<float>, const Eigen::CwiseBinaryOp<Eigen::internal::scalar_difference_op<float>, const Eigen::Block<Eigen::Matrix<float, 16, 16, 0>, -1, -1, false>, const Eigen::Block<Eigen::Matrix<float, 16, 16, 0>, -1, -1, false>>>]\00", align 1
@__PRETTY_FUNCTION__._ZNK5Eigen9DenseBaseINS_12CwiseUnaryOpINS_8internal14scalar_abs2_opIfEEKNS_5BlockINS_6MatrixIfLi16ELi16ELi0ELi16ELi16EEELin1ELin1ELb0EEEEEE5reduxINS2_13scalar_sum_opIffEEEEfRKT_ = private unnamed_addr constant [406 x i8] c"typename internal::traits<Derived>::Scalar Eigen::DenseBase<Eigen::CwiseUnaryOp<Eigen::internal::scalar_abs2_op<float>, const Eigen::Block<Eigen::Matrix<float, 16, 16, 0>, -1, -1, false>>>::redux(const Func &) const [Derived = Eigen::CwiseUnaryOp<Eigen::internal::scalar_abs2_op<float>, const Eigen::Block<Eigen::Matrix<float, 16, 16, 0>, -1, -1, false>>, BinaryOp = Eigen::internal::scalar_sum_op<float>]\00", align 1
@__PRETTY_FUNCTION__._ZN5Eigen8internal10redux_implINS0_13scalar_sum_opIffEENS0_15redux_evaluatorINS_12CwiseUnaryOpINS0_14scalar_abs2_opIfEEKNS_5BlockINS_6MatrixIfLi16ELi16ELi0ELi16ELi16EEELin1ELin1ELb0EEEEEEELi4ELi0EE3runISD_EEfRKSE_RKS3_RKT_ = private unnamed_addr constant [779 x i8] c"static Eigen::internal::redux_impl<type-parameter-0-0, type-parameter-0-1, 4, Unrolling>::Scalar Eigen::internal::redux_impl<Eigen::internal::scalar_sum_op<float>, Eigen::internal::redux_evaluator<Eigen::CwiseUnaryOp<Eigen::internal::scalar_abs2_op<float>, const Eigen::Block<Eigen::Matrix<float, 16, 16, 0>, -1, -1, false>>>, 4, 0>::run(const Evaluator &, const Func &, const XprType &) [Func = Eigen::internal::scalar_sum_op<float>, Evaluator = Eigen::internal::redux_evaluator<Eigen::CwiseUnaryOp<Eigen::internal::scalar_abs2_op<float>, const Eigen::Block<Eigen::Matrix<float, 16, 16, 0>, -1, -1, false>>>, Traversal = 4, Unrolling = 0, XprType = Eigen::CwiseUnaryOp<Eigen::internal::scalar_abs2_op<float>, const Eigen::Block<Eigen::Matrix<float, 16, 16, 0>, -1, -1, false>>]\00", align 1
