; ModuleID = './test/product_small.cpp'
source_filename = "./test/product_small.cpp"
target datalayout = "e-m:e-p270:32:32-p271:32:32-p272:64:64-i64:64-f80:128-n8:16:32:64-S128"
target triple = "x86_64-pc-linux-gnu"

%"class.std::ios_base::Init" = type { i8 }
%"class.std::vector" = type { %"struct.std::_Vector_base" }
%"struct.std::_Vector_base" = type { %"struct.std::_Vector_base<std::__cxx11::basic_string<char>, std::allocator<std::__cxx11::basic_string<char>>>::_Vector_impl" }
%"struct.std::_Vector_base<std::__cxx11::basic_string<char>, std::allocator<std::__cxx11::basic_string<char>>>::_Vector_impl" = type { %"struct.std::_Vector_base<std::__cxx11::basic_string<char>, std::allocator<std::__cxx11::basic_string<char>>>::_Vector_impl_data" }
%"struct.std::_Vector_base<std::__cxx11::basic_string<char>, std::allocator<std::__cxx11::basic_string<char>>>::_Vector_impl_data" = type { ptr, ptr, ptr }
%"class.std::basic_ostream" = type { ptr, %"class.std::basic_ios" }
%"class.std::basic_ios" = type { %"class.std::ios_base", ptr, i8, i8, ptr, ptr, ptr, ptr }
%"class.std::ios_base" = type { ptr, i64, i64, i32, i32, i32, ptr, %"struct.std::ios_base::_Words", [8 x %"struct.std::ios_base::_Words"], i32, ptr, %"class.std::locale" }
%"struct.std::ios_base::_Words" = type { ptr, i64 }
%"class.std::locale" = type { ptr }
%"class.Eigen::EigenTest" = type { %"class.std::__cxx11::basic_string", ptr }
%"class.std::__cxx11::basic_string" = type { %"struct.std::__cxx11::basic_string<char>::_Alloc_hider", i64, %union.anon }
%"struct.std::__cxx11::basic_string<char>::_Alloc_hider" = type { ptr }
%union.anon = type { i64, [8 x i8] }
%"struct.Eigen::internal::CacheSizes" = type { i64, i64, i64 }
%"class.Eigen::internal::FixedInt" = type { i8 }
%"class.Eigen::internal::FixedInt.195" = type { i8 }
%"class.Eigen::internal::FixedInt.197" = type { i8 }
%"class.Eigen::internal::FixedInt.199" = type { i8 }
%"class.std::allocator.0" = type { i8 }
%"struct.Eigen::half" = type { %"struct.Eigen::half_impl::half_base" }
%"struct.Eigen::half_impl::half_base" = type { %"struct.Eigen::half_impl::__half_raw" }
%"struct.Eigen::half_impl::__half_raw" = type { i16 }
%"struct.Eigen::bfloat16" = type { %"struct.Eigen::bfloat16_impl::bfloat16_base" }
%"struct.Eigen::bfloat16_impl::bfloat16_base" = type { %"struct.Eigen::bfloat16_impl::__bfloat16_raw" }
%"struct.Eigen::bfloat16_impl::__bfloat16_raw" = type { i16 }
%"class.std::complex" = type { { float, float } }
%"class.std::complex.3" = type { { double, double } }
%"class.std::complex.4" = type { { x86_fp80, x86_fp80 } }
%"class.std::complex.5" = type { i32, i32 }
%"class.std::__cxx11::basic_stringstream" = type { %"class.std::basic_iostream.base", %"class.std::__cxx11::basic_stringbuf", %"class.std::basic_ios" }
%"class.std::basic_iostream.base" = type { %"class.std::basic_istream.base", %"class.std::basic_ostream.base" }
%"class.std::basic_istream.base" = type { ptr, i64 }
%"class.std::basic_ostream.base" = type { ptr }
%"class.std::__cxx11::basic_stringbuf" = type { %"class.std::basic_streambuf", i32, %"class.std::__cxx11::basic_string" }
%"class.std::basic_streambuf" = type { ptr, ptr, ptr, ptr, ptr, ptr, ptr, %"class.std::locale" }
%"struct.std::_Vector_base.7" = type { %"struct.std::_Vector_base<Eigen::EigenTest *, std::allocator<Eigen::EigenTest *>>::_Vector_impl" }
%"struct.std::_Vector_base<Eigen::EigenTest *, std::allocator<Eigen::EigenTest *>>::_Vector_impl" = type { %"struct.std::_Vector_base<Eigen::EigenTest *, std::allocator<Eigen::EigenTest *>>::_Vector_impl_data" }
%"struct.std::_Vector_base<Eigen::EigenTest *, std::allocator<Eigen::EigenTest *>>::_Vector_impl_data" = type { ptr, ptr, ptr }
%"class.__gnu_cxx::__normal_iterator.24" = type { ptr }
%"class.Eigen::Matrix" = type { %"class.Eigen::PlainObjectBase" }
%"class.Eigen::PlainObjectBase" = type { %"class.Eigen::DenseStorage" }
%"class.Eigen::DenseStorage" = type { %"class.Eigen::internal::DenseStorage_impl" }
%"class.Eigen::internal::DenseStorage_impl" = type { ptr, i64, i64 }
%"class.Eigen::Product" = type { ptr, ptr }
%"class.Eigen::Transpose" = type { ptr }
%"class.Eigen::CwiseNullaryOp" = type <{ %"class.Eigen::internal::variable_if_dynamic", %"class.Eigen::internal::variable_if_dynamic", %"struct.Eigen::internal::scalar_random_op", [7 x i8] }>
%"class.Eigen::internal::variable_if_dynamic" = type { i64 }
%"struct.Eigen::internal::scalar_random_op" = type { i8 }
%"struct.Eigen::internal::add_assign_op" = type { i8 }
%"struct.Eigen::internal::evaluator" = type { %"struct.Eigen::internal::evaluator.23" }
%"struct.Eigen::internal::evaluator.23" = type { %"class.Eigen::internal::plainobjectbase_evaluator_data" }
%"class.Eigen::internal::plainobjectbase_evaluator_data" = type { ptr, i64 }
%"class.__gnu_cxx::__normal_iterator" = type { ptr }
%"struct.std::integral_constant" = type { i8 }
%"struct.Eigen::internal::assign_op" = type { i8 }
%"struct.Eigen::internal::evaluator.29" = type { %"struct.Eigen::internal::scalar_random_op", %"struct.Eigen::internal::nullary_wrapper" }
%"struct.Eigen::internal::nullary_wrapper" = type { i8 }
%"class.Eigen::internal::generic_dense_assignment_kernel" = type { ptr, ptr, ptr, ptr }
%"struct.Eigen::internal::false_type" = type { i8 }
%"class.Eigen::Block.87" = type { %"class.Eigen::BlockImpl.88" }
%"class.Eigen::BlockImpl.88" = type { %"class.Eigen::internal::BlockImpl_dense.89" }
%"class.Eigen::internal::BlockImpl_dense.89" = type { %"class.Eigen::MapBase.base.99", ptr, %"class.Eigen::internal::variable_if_dynamic", %"class.Eigen::internal::variable_if_dynamic", i64 }
%"class.Eigen::MapBase.base.99" = type { %"class.Eigen::MapBase.base.98" }
%"class.Eigen::MapBase.base.98" = type <{ ptr, %"class.Eigen::internal::variable_if_dynamic", %"class.Eigen::internal::variable_if_dynamic.59" }>
%"class.Eigen::internal::variable_if_dynamic.59" = type { i8 }
%"class.Eigen::Block.60" = type { %"class.Eigen::BlockImpl.61" }
%"class.Eigen::BlockImpl.61" = type { %"class.Eigen::internal::BlockImpl_dense.62" }
%"class.Eigen::internal::BlockImpl_dense.62" = type { %"class.Eigen::MapBase.base", ptr, %"class.Eigen::internal::variable_if_dynamic", %"class.Eigen::internal::variable_if_dynamic", i64 }
%"class.Eigen::MapBase.base" = type <{ ptr, %"class.Eigen::internal::variable_if_dynamic", %"class.Eigen::internal::variable_if_dynamic.59" }>
%"class.Eigen::Block.100" = type { %"class.Eigen::BlockImpl.101" }
%"class.Eigen::BlockImpl.101" = type { %"class.Eigen::internal::BlockImpl_dense.102" }
%"class.Eigen::internal::BlockImpl_dense.102" = type { %"class.Eigen::MapBase.103", ptr, %"class.Eigen::internal::variable_if_dynamic", %"class.Eigen::internal::variable_if_dynamic", i64 }
%"class.Eigen::MapBase.103" = type { %"class.Eigen::MapBase.104" }
%"class.Eigen::MapBase.104" = type { ptr, %"class.Eigen::internal::variable_if_dynamic.59", %"class.Eigen::internal::variable_if_dynamic" }
%"class.Eigen::Block" = type { %"class.Eigen::BlockImpl" }
%"class.Eigen::BlockImpl" = type { %"class.Eigen::internal::BlockImpl_dense" }
%"class.Eigen::internal::BlockImpl_dense" = type { %"class.Eigen::MapBase", ptr, %"class.Eigen::internal::variable_if_dynamic", %"class.Eigen::internal::variable_if_dynamic", i64 }
%"class.Eigen::MapBase" = type { ptr, %"class.Eigen::internal::variable_if_dynamic.59", %"class.Eigen::internal::variable_if_dynamic" }
%"class.Eigen::internal::gemm_blocking_space" = type { %"class.Eigen::internal::level3_blocking", i64, i64 }
%"class.Eigen::internal::level3_blocking" = type { ptr, ptr, i64, i64, i64 }
%"struct.Eigen::internal::gemm_functor" = type { ptr, ptr, ptr, i8, ptr }
%"class.Eigen::Product.32" = type { ptr, ptr }
%"struct.Eigen::internal::evaluator.39" = type { %"struct.Eigen::internal::product_evaluator" }
%"struct.Eigen::internal::product_evaluator" = type { ptr, ptr, %"struct.Eigen::internal::evaluator", %"struct.Eigen::internal::evaluator", i64 }
%"class.Eigen::internal::restricted_packet_dense_assignment_kernel" = type { %"class.Eigen::internal::generic_dense_assignment_kernel.42" }
%"class.Eigen::internal::generic_dense_assignment_kernel.42" = type { ptr, ptr, ptr, ptr }
%"class.Eigen::CwiseBinaryOp" = type <{ %"class.Eigen::Transpose.47", %"class.Eigen::Block.60", %"struct.Eigen::internal::scalar_product_op", [7 x i8] }>
%"class.Eigen::Transpose.47" = type { %"class.Eigen::Block" }
%"struct.Eigen::internal::scalar_product_op" = type { i8 }
%"struct.Eigen::internal::scalar_sum_op" = type { i8 }
%"class.Eigen::MapBase.63" = type <{ ptr, %"class.Eigen::internal::variable_if_dynamic", %"class.Eigen::internal::variable_if_dynamic.59", [7 x i8] }>
%"class.Eigen::internal::redux_evaluator" = type { %"struct.Eigen::internal::evaluator.69" }
%"struct.Eigen::internal::evaluator.69" = type { %"struct.Eigen::internal::binary_evaluator" }
%"struct.Eigen::internal::binary_evaluator" = type { %"struct.Eigen::internal::binary_evaluator<Eigen::CwiseBinaryOp<Eigen::internal::scalar_product_op<bool>, const Eigen::Transpose<const Eigen::Block<const Eigen::Matrix<bool, -1, -1, 0>, 1, -1, false>>, const Eigen::Block<const Eigen::Matrix<bool, -1, -1, 0>, -1, 1, true>>, Eigen::internal::IndexBased, Eigen::internal::IndexBased, bool, bool>::Data" }
%"struct.Eigen::internal::binary_evaluator<Eigen::CwiseBinaryOp<Eigen::internal::scalar_product_op<bool>, const Eigen::Transpose<const Eigen::Block<const Eigen::Matrix<bool, -1, -1, 0>, 1, -1, false>>, const Eigen::Block<const Eigen::Matrix<bool, -1, -1, 0>, -1, 1, true>>, Eigen::internal::IndexBased, Eigen::internal::IndexBased, bool, bool>::Data" = type { %"struct.Eigen::internal::scalar_product_op", [7 x i8], %"struct.Eigen::internal::evaluator.72", %"struct.Eigen::internal::evaluator.81" }
%"struct.Eigen::internal::evaluator.72" = type { %"struct.Eigen::internal::evaluator.73" }
%"struct.Eigen::internal::evaluator.73" = type { %"struct.Eigen::internal::unary_evaluator" }
%"struct.Eigen::internal::unary_evaluator" = type { %"struct.Eigen::internal::evaluator.76" }
%"struct.Eigen::internal::evaluator.76" = type { %"struct.Eigen::internal::evaluator.base", [7 x i8] }
%"struct.Eigen::internal::evaluator.base" = type { %"struct.Eigen::internal::block_evaluator.base" }
%"struct.Eigen::internal::block_evaluator.base" = type { %"struct.Eigen::internal::mapbase_evaluator.base" }
%"struct.Eigen::internal::mapbase_evaluator.base" = type <{ ptr, %"class.Eigen::internal::variable_if_dynamic", %"class.Eigen::internal::variable_if_dynamic.59" }>
%"struct.Eigen::internal::evaluator.81" = type { %"struct.Eigen::internal::evaluator.82" }
%"struct.Eigen::internal::evaluator.82" = type { %"struct.Eigen::internal::block_evaluator.83" }
%"struct.Eigen::internal::block_evaluator.83" = type { %"struct.Eigen::internal::mapbase_evaluator.84" }
%"struct.Eigen::internal::mapbase_evaluator.84" = type { ptr, %"class.Eigen::internal::variable_if_dynamic.59", %"class.Eigen::internal::variable_if_dynamic" }
%"struct.Eigen::internal::mapbase_evaluator" = type <{ ptr, %"class.Eigen::internal::variable_if_dynamic", %"class.Eigen::internal::variable_if_dynamic.59", [7 x i8] }>
%"struct.Eigen::internal::eigen_packet_wrapper" = type { <2 x i64> }
%"class.Eigen::Block.116" = type { %"class.Eigen::BlockImpl.117" }
%"class.Eigen::BlockImpl.117" = type { %"class.Eigen::internal::BlockImpl_dense.118" }
%"class.Eigen::internal::BlockImpl_dense.118" = type { %"class.Eigen::MapBase.base.120", %"class.Eigen::Block.60", %"class.Eigen::internal::variable_if_dynamic", %"class.Eigen::internal::variable_if_dynamic.121", i64 }
%"class.Eigen::MapBase.base.120" = type <{ ptr, %"class.Eigen::internal::variable_if_dynamic", %"class.Eigen::internal::variable_if_dynamic.59" }>
%"class.Eigen::internal::variable_if_dynamic.121" = type { i8 }
%"class.Eigen::Block.131" = type { %"class.Eigen::BlockImpl.132" }
%"class.Eigen::BlockImpl.132" = type { %"class.Eigen::internal::BlockImpl_dense.133" }
%"class.Eigen::internal::BlockImpl_dense.133" = type { %"class.Eigen::MapBase.134", %"class.Eigen::Block", %"class.Eigen::internal::variable_if_dynamic.121", %"class.Eigen::internal::variable_if_dynamic", i64 }
%"class.Eigen::MapBase.134" = type { ptr, %"class.Eigen::internal::variable_if_dynamic.59", %"class.Eigen::internal::variable_if_dynamic" }
%"class.Eigen::MapBase.91" = type <{ ptr, %"class.Eigen::internal::variable_if_dynamic", %"class.Eigen::internal::variable_if_dynamic.59", [7 x i8] }>
%"class.Eigen::internal::const_blas_data_mapper" = type { %"class.Eigen::internal::blas_data_mapper" }
%"class.Eigen::internal::blas_data_mapper" = type { ptr, i64 }
%"class.Eigen::internal::const_blas_data_mapper.128" = type { %"class.Eigen::internal::blas_data_mapper.129" }
%"class.Eigen::internal::blas_data_mapper.129" = type { ptr, i64 }
%"struct.Eigen::internal::inner_product_evaluator" = type { %"struct.Eigen::internal::scalar_inner_product_op", [7 x i8], %"struct.Eigen::internal::evaluator.77", %"struct.Eigen::internal::evaluator.123", %"class.Eigen::internal::variable_if_dynamic" }
%"struct.Eigen::internal::scalar_inner_product_op" = type { i8 }
%"struct.Eigen::internal::evaluator.77" = type { %"struct.Eigen::internal::block_evaluator.base", [7 x i8] }
%"struct.Eigen::internal::evaluator.123" = type { %"struct.Eigen::internal::block_evaluator.124" }
%"struct.Eigen::internal::block_evaluator.124" = type { %"struct.Eigen::internal::mapbase_evaluator.125" }
%"struct.Eigen::internal::mapbase_evaluator.125" = type { ptr, %"class.Eigen::internal::variable_if_dynamic.59", %"class.Eigen::internal::variable_if_dynamic" }
%"class.Eigen::MapBase.119" = type <{ ptr, %"class.Eigen::internal::variable_if_dynamic", %"class.Eigen::internal::variable_if_dynamic.59", [7 x i8] }>
%"struct.Eigen::internal::conj_helper" = type { i8 }
%"struct.Eigen::internal::conj_helper.130" = type { i8 }
%"struct.Eigen::internal::conj_if" = type { i8 }
%"class.Eigen::Transpose.149" = type { %"class.Eigen::Block.100" }
%"class.Eigen::Transpose.157" = type { ptr }
%"struct.Eigen::internal::inner_product_evaluator.140" = type { %"struct.Eigen::internal::scalar_inner_product_op", [7 x i8], %"struct.Eigen::internal::evaluator.141", %"struct.Eigen::internal::evaluator.82", %"class.Eigen::internal::variable_if_dynamic" }
%"struct.Eigen::internal::evaluator.141" = type { %"struct.Eigen::internal::block_evaluator.base.147", [7 x i8] }
%"struct.Eigen::internal::block_evaluator.base.147" = type { %"struct.Eigen::internal::mapbase_evaluator.base.146" }
%"struct.Eigen::internal::mapbase_evaluator.base.146" = type <{ ptr, %"class.Eigen::internal::variable_if_dynamic", %"class.Eigen::internal::variable_if_dynamic.59" }>
%"struct.Eigen::internal::mapbase_evaluator.143" = type <{ ptr, %"class.Eigen::internal::variable_if_dynamic", %"class.Eigen::internal::variable_if_dynamic.59", [7 x i8] }>
%"struct.Eigen::internal::gemv_static_vector_if" = type { i8 }
%"class.Eigen::internal::aligned_stack_memory_handler" = type <{ ptr, i64, i8, [7 x i8] }>
%"class.Eigen::Map" = type { %"class.Eigen::MapBase.base.173", %"class.Eigen::Stride", [5 x i8] }
%"class.Eigen::MapBase.base.173" = type { %"class.Eigen::MapBase.base.172" }
%"class.Eigen::MapBase.base.172" = type <{ ptr, %"class.Eigen::internal::variable_if_dynamic", %"class.Eigen::internal::variable_if_dynamic.59" }>
%"class.Eigen::Stride" = type { %"class.Eigen::internal::variable_if_dynamic.121", %"class.Eigen::internal::variable_if_dynamic.121" }
%"class.Eigen::Block.174" = type { %"class.Eigen::BlockImpl.175" }
%"class.Eigen::BlockImpl.175" = type { %"class.Eigen::internal::BlockImpl_dense.176" }
%"class.Eigen::internal::BlockImpl_dense.176" = type { %"class.Eigen::MapBase.base.186", %"class.Eigen::Transpose.149", %"class.Eigen::internal::variable_if_dynamic", %"class.Eigen::internal::variable_if_dynamic.121", i64 }
%"class.Eigen::MapBase.base.186" = type { %"class.Eigen::MapBase.base.185" }
%"class.Eigen::MapBase.base.185" = type <{ ptr, %"class.Eigen::internal::variable_if_dynamic", %"class.Eigen::internal::variable_if_dynamic.59" }>
%"class.Eigen::MapBase.165" = type <{ ptr, %"class.Eigen::internal::variable_if_dynamic", %"class.Eigen::internal::variable_if_dynamic.59", [7 x i8] }>
%"struct.Eigen::internal::evaluator.187" = type { %"struct.Eigen::internal::mapbase_evaluator.188" }
%"struct.Eigen::internal::mapbase_evaluator.188" = type { ptr, %"class.Eigen::internal::variable_if_dynamic.59", %"class.Eigen::internal::variable_if_dynamic" }
%"class.Eigen::internal::generic_dense_assignment_kernel.191" = type { ptr, ptr, ptr, ptr }
%"struct.Eigen::internal::eigen_packet_wrapper.192" = type { <2 x i64> }
%"class.Eigen::MapBase.178" = type <{ ptr, %"class.Eigen::internal::variable_if_dynamic", %"class.Eigen::internal::variable_if_dynamic.59", [7 x i8] }>
%"class.Eigen::internal::blas_data_mapper.193" = type { ptr, i64 }
%"struct.Eigen::internal::gemm_pack_lhs" = type { i8 }
%"struct.Eigen::internal::gemm_pack_rhs" = type { i8 }
%"struct.Eigen::internal::gebp_kernel" = type { i8 }
%"class.Eigen::internal::BlasLinearMapper" = type { ptr }
%"struct.Eigen::internal::PacketBlock" = type { [4 x %"struct.Eigen::internal::eigen_packet_wrapper"] }
%"class.Eigen::internal::BlasLinearMapper.194" = type { ptr }
%"class.Eigen::internal::gebp_traits" = type { i8 }
%"struct.Eigen::internal::QuadPacket" = type { %"struct.Eigen::internal::eigen_packet_wrapper", %"struct.Eigen::internal::eigen_packet_wrapper", %"struct.Eigen::internal::eigen_packet_wrapper", %"struct.Eigen::internal::eigen_packet_wrapper" }
%"struct.Eigen::internal::lhs_process_one_packet" = type { i8 }
%"class.Eigen::internal::generic_dense_assignment_kernel.201" = type { ptr, ptr, ptr, ptr }
%"struct.Eigen::IOFormat" = type <{ %"class.std::__cxx11::basic_string", %"class.std::__cxx11::basic_string", %"class.std::__cxx11::basic_string", %"class.std::__cxx11::basic_string", %"class.std::__cxx11::basic_string", %"class.std::__cxx11::basic_string", %"class.std::__cxx11::basic_string", i8, [3 x i8], i32, i32, [4 x i8] }>
%"class.Eigen::CwiseBinaryOp.202" = type <{ ptr, ptr, %"struct.Eigen::internal::scalar_cmp_op", [7 x i8] }>
%"struct.Eigen::internal::scalar_cmp_op" = type { i8 }
%"struct.Eigen::internal::all_visitor" = type { i8 }
%"class.Eigen::internal::visitor_evaluator" = type { %"struct.Eigen::internal::evaluator.209", ptr }
%"struct.Eigen::internal::evaluator.209" = type { %"struct.Eigen::internal::binary_evaluator.210" }
%"struct.Eigen::internal::binary_evaluator.210" = type { %"struct.Eigen::internal::binary_evaluator<Eigen::CwiseBinaryOp<Eigen::internal::scalar_cmp_op<bool, bool, Eigen::internal::cmp_EQ, false>, const Eigen::Matrix<bool, -1, -1, 0>, const Eigen::Matrix<bool, -1, -1, 0>>, Eigen::internal::IndexBased, Eigen::internal::IndexBased, bool, bool>::Data" }
%"struct.Eigen::internal::binary_evaluator<Eigen::CwiseBinaryOp<Eigen::internal::scalar_cmp_op<bool, bool, Eigen::internal::cmp_EQ, false>, const Eigen::Matrix<bool, -1, -1, 0>, const Eigen::Matrix<bool, -1, -1, 0>>, Eigen::internal::IndexBased, Eigen::internal::IndexBased, bool, bool>::Data" = type { %"struct.Eigen::internal::scalar_cmp_op", %"struct.Eigen::internal::evaluator.213", %"struct.Eigen::internal::evaluator.213" }
%"struct.Eigen::internal::evaluator.213" = type { %"struct.Eigen::internal::evaluator" }
%"struct.Eigen::internal::evaluator.214" = type { %"struct.Eigen::internal::unary_evaluator.215" }
%"struct.Eigen::internal::unary_evaluator.215" = type { %"struct.Eigen::internal::evaluator" }
%"class.Eigen::internal::generic_dense_assignment_kernel.218" = type { ptr, ptr, ptr, ptr }

$_ZNSt6vectorINSt7__cxx1112basic_stringIcSt11char_traitsIcESaIcEEESaIS5_EEC2Ev = comdat any

$_ZNSt6vectorINSt7__cxx1112basic_stringIcSt11char_traitsIcESaIcEEESaIS5_EED2Ev = comdat any

$_Z22set_repeat_from_stringPKc = comdat any

$_Z20set_seed_from_stringPKc = comdat any

$_ZNSt6vectorINSt7__cxx1112basic_stringIcSt11char_traitsIcESaIcEEESaIS5_EE9push_backEOS5_ = comdat any

$_Z11verify_implbPKcS0_iS0_ = comdat any

$_ZN5Eigen9EigenTest3allEv = comdat any

$_ZNKSt6vectorIPN5Eigen9EigenTestESaIS2_EE4sizeEv = comdat any

$_ZNSt6vectorINSt7__cxx1112basic_stringIcSt11char_traitsIcESaIcEEESaIS5_EE4backEv = comdat any

$_ZNKSt6vectorIPN5Eigen9EigenTestESaIS2_EEixEm = comdat any

$_ZNSt6vectorINSt7__cxx1112basic_stringIcSt11char_traitsIcESaIcEEESaIS5_EE9push_backERKS5_ = comdat any

$_ZNK5Eigen9EigenTest4nameB5cxx11Ev = comdat any

$_ZNK5Eigen9EigenTestclEv = comdat any

$_ZNSt6vectorINSt7__cxx1112basic_stringIcSt11char_traitsIcESaIcEEESaIS5_EE8pop_backEv = comdat any

$_ZN5Eigen8internal6randomIiEENS0_13random_retvalINS0_36global_math_functions_filtering_baseIT_vE4typeEE4typeERKS4_SA_ = comdat any

$_ZN5Eigen6MatrixIbLin1ELin1ELi0ELin1ELin1EEC2IiiEERKT_RKT0_ = comdat any

$_ZN5Eigen9DenseBaseINS_6MatrixIbLin1ELin1ELi0ELin1ELin1EEEE9setRandomEv = comdat any

$_ZN5Eigen6MatrixIbLin1ELin1ELi0ELin1ELin1EEC2ERKS1_ = comdat any

$_ZNK5Eigen15PlainObjectBaseINS_6MatrixIbLin1ELin1ELi0ELin1ELin1EEEE4rowsEv = comdat any

$_ZNK5Eigen15PlainObjectBaseINS_6MatrixIbLin1ELin1ELi0ELin1ELin1EEEE4colsEv = comdat any

$_ZNK5Eigen15PlainObjectBaseINS_6MatrixIbLin1ELin1ELi0ELin1ELin1EEEE5coeffEll = comdat any

$_ZN5Eigen15PlainObjectBaseINS_6MatrixIbLin1ELin1ELi0ELin1ELin1EEEE8coeffRefEll = comdat any

$_ZNK5Eigen10MatrixBaseINS_6MatrixIbLin1ELin1ELi0ELin1ELin1EEEEmlIS2_EEKNS_7ProductIS2_T_Li0EEERKNS0_IS6_EE = comdat any

$_ZN5Eigen10MatrixBaseINS_6MatrixIbLin1ELin1ELi0ELin1ELin1EEEEpLINS_7ProductIS2_S2_Li0EEEEERS2_RKNS0_IT_EE = comdat any

$_ZN5Eigen13test_is_equalINS_6MatrixIbLin1ELin1ELi0ELin1ELin1EEES2_EEbRKT_RKT0_b = comdat any

$_ZN5Eigen9DenseBaseINS_6MatrixIbLin1ELin1ELi0ELin1ELin1EEEE9transposeEv = comdat any

$_ZN5Eigen6MatrixIbLin1ELin1ELi0ELin1ELin1EEC2INS_9TransposeIS1_EEEERKNS_9EigenBaseIT_EE = comdat any

$_ZN5Eigen13test_is_equalIbbEEbRKT_RKT0_b = comdat any

$_ZN5Eigen15DenseCoeffsBaseINS_6MatrixIbLin1ELin1ELi0ELin1ELin1EEELi1EEclEll = comdat any

$_ZN5Eigen6MatrixIbLin1ELin1ELi0ELin1ELin1EED2Ev = comdat any

$_ZN5Eigen9EigenTestC2EPKcPFvvE = comdat any

$_ZN5Eigen9EigenTestD2Ev = comdat any

$_ZNSt12_Vector_baseINSt7__cxx1112basic_stringIcSt11char_traitsIcESaIcEEESaIS5_EEC2Ev = comdat any

$_ZNSt12_Vector_baseINSt7__cxx1112basic_stringIcSt11char_traitsIcESaIcEEESaIS5_EE12_Vector_implC2Ev = comdat any

$_ZNSaINSt7__cxx1112basic_stringIcSt11char_traitsIcESaIcEEEEC2Ev = comdat any

$_ZNSt12_Vector_baseINSt7__cxx1112basic_stringIcSt11char_traitsIcESaIcEEESaIS5_EE17_Vector_impl_dataC2Ev = comdat any

$_ZNSt15__new_allocatorINSt7__cxx1112basic_stringIcSt11char_traitsIcESaIcEEEEC2Ev = comdat any

$_ZNKSt6vectorINSt7__cxx1112basic_stringIcSt11char_traitsIcESaIcEEESaIS5_EE4sizeEv = comdat any

$_ZNSt6vectorINSt7__cxx1112basic_stringIcSt11char_traitsIcESaIcEEESaIS5_EEixEm = comdat any

$_ZN5Eigen9EigenTest20get_registered_testsEv = comdat any

$_ZNSt6vectorIPN5Eigen9EigenTestESaIS2_EEC2Ev = comdat any

$_ZNSt12_Vector_baseIPN5Eigen9EigenTestESaIS2_EEC2Ev = comdat any

$_ZNSt12_Vector_baseIPN5Eigen9EigenTestESaIS2_EE12_Vector_implC2Ev = comdat any

$_ZNSaIPN5Eigen9EigenTestEEC2Ev = comdat any

$_ZNSt12_Vector_baseIPN5Eigen9EigenTestESaIS2_EE17_Vector_impl_dataC2Ev = comdat any

$_ZNSt15__new_allocatorIPN5Eigen9EigenTestEEC2Ev = comdat any

$_ZN5Eigen15PlainObjectBaseINS_6MatrixIbLin1ELin1ELi0ELin1ELin1EEEEC2ERKS3_ = comdat any

$_ZN5Eigen12DenseStorageIbLin1ELin1ELin1ELi0ELb1EEC2ERKS1_ = comdat any

$_ZN5Eigen8internal17DenseStorage_implIbLin1ELin1ELin1ELi0EEC2ERKS2_ = comdat any

$_ZN5Eigen8internal28conditional_aligned_new_autoIbLb1EEEPT_m = comdat any

$_ZNK5Eigen8internal17DenseStorage_implIbLin1ELin1ELin1ELi0EE4sizeEv = comdat any

$_ZN5Eigen8internal10smart_copyIbEEvPKT_S4_PS2_ = comdat any

$_ZN5Eigen8internal26conditional_aligned_mallocILb1EEEPvm = comdat any

$_ZN5Eigen8internal19throw_std_bad_allocEv = comdat any

$_ZNSt9bad_allocC2Ev = comdat any

$_ZNSt9exceptionC2Ev = comdat any

$_ZN5Eigen8internal14aligned_mallocEm = comdat any

$_ZN5Eigen8internal28check_that_malloc_is_allowedEv = comdat any

$_ZN5Eigen22eigen_assert_exceptionC2Ev = comdat any

$_ZN5Eigen22eigen_assert_exceptionD2Ev = comdat any

$_ZN5Eigen8internal17smart_copy_helperIbLb1EE3runEPKbS4_Pb = comdat any

$_ZNK5Eigen8internal17DenseStorage_implIbLin1ELin1ELin1ELi0EE4rowsEv = comdat any

$__clang_call_terminate = comdat any

$_ZNK5Eigen8internal17DenseStorage_implIbLin1ELin1ELin1ELi0EE4colsEv = comdat any

$_ZNK5Eigen8internal17DenseStorage_implIbLin1ELin1ELin1ELi0EE4dataEv = comdat any

$_ZN5Eigen8internal17DenseStorage_implIbLin1ELin1ELin1ELi0EE4dataEv = comdat any

$_ZNK5Eigen9EigenBaseINS_6MatrixIbLin1ELin1ELi0ELin1ELin1EEEE4rowsEv = comdat any

$_ZNK5Eigen9EigenBaseINS_6MatrixIbLin1ELin1ELi0ELin1ELin1EEEE4colsEv = comdat any

$_ZN5Eigen15DenseCoeffsBaseINS_6MatrixIbLin1ELin1ELi0ELin1ELin1EEELi1EE8coeffRefEll = comdat any

$_ZNK5Eigen9EigenBaseINS_6MatrixIbLin1ELin1ELi0ELin1ELin1EEEE7derivedEv = comdat any

$_ZN5Eigen9EigenBaseINS_6MatrixIbLin1ELin1ELi0ELin1ELin1EEEE7derivedEv = comdat any

$_ZN5Eigen8internal9evaluatorINS_6MatrixIbLin1ELin1ELi0ELin1ELin1EEEEC2ERKS3_ = comdat any

$_ZN5Eigen8internal9evaluatorINS_15PlainObjectBaseINS_6MatrixIbLin1ELin1ELi0ELin1ELin1EEEEEE8coeffRefEll = comdat any

$_ZN5Eigen8internal9evaluatorINS_15PlainObjectBaseINS_6MatrixIbLin1ELin1ELi0ELin1ELin1EEEEEEC2ERKS5_ = comdat any

$_ZNK5Eigen15PlainObjectBaseINS_6MatrixIbLin1ELin1ELi0ELin1ELin1EEEE4dataEv = comdat any

$_ZNK5Eigen15DenseCoeffsBaseINS_6MatrixIbLin1ELin1ELi0ELin1ELin1EEELi3EE11outerStrideEv = comdat any

$_ZN5Eigen8internal30plainobjectbase_evaluator_dataIbLin1EEC2EPKbl = comdat any

$_ZNK5Eigen6MatrixIbLin1ELin1ELi0ELin1ELin1EE11outerStrideEv = comdat any

$_ZNK5Eigen9DenseBaseINS_6MatrixIbLin1ELin1ELi0ELin1ELin1EEEE9innerSizeEv = comdat any

$_ZNK5Eigen8internal30plainobjectbase_evaluator_dataIbLin1EE11outerStrideEv = comdat any

$_ZN5Eigen15PlainObjectBaseINS_6MatrixIbLin1ELin1ELi0ELin1ELin1EEEED2Ev = comdat any

$_ZN5Eigen12DenseStorageIbLin1ELin1ELin1ELi0ELb1EED2Ev = comdat any

$_ZN5Eigen8internal17DenseStorage_implIbLin1ELin1ELin1ELi0EED2Ev = comdat any

$_ZN5Eigen8internal31conditional_aligned_delete_autoIbLb1EEEvPT_m = comdat any

$_ZN5Eigen8internal24conditional_aligned_freeILb1EEEvPv = comdat any

$_ZN5Eigen8internal12aligned_freeEPv = comdat any

$_ZNSt6vectorIPN5Eigen9EigenTestESaIS2_EE9push_backEOS2_ = comdat any

$_ZNSt6vectorIPN5Eigen9EigenTestESaIS2_EE12emplace_backIJS2_EEEvDpOT_ = comdat any

$_ZNSt16allocator_traitsISaIPN5Eigen9EigenTestEEE9constructIS2_JS2_EEEvRS3_PT_DpOT0_ = comdat any

$_ZNSt6vectorIPN5Eigen9EigenTestESaIS2_EE17_M_realloc_insertIJS2_EEEvN9__gnu_cxx17__normal_iteratorIPS2_S4_EEDpOT_ = comdat any

$_ZNSt6vectorIPN5Eigen9EigenTestESaIS2_EE3endEv = comdat any

$_ZNSt15__new_allocatorIPN5Eigen9EigenTestEE9constructIS2_JS2_EEEvPT_DpOT0_ = comdat any

$_ZNKSt6vectorIPN5Eigen9EigenTestESaIS2_EE12_M_check_lenEmPKc = comdat any

$_ZN9__gnu_cxxmiIPPN5Eigen9EigenTestESt6vectorIS3_SaIS3_EEEENS_17__normal_iteratorIT_T0_E15difference_typeERKSB_SE_ = comdat any

$_ZNSt6vectorIPN5Eigen9EigenTestESaIS2_EE5beginEv = comdat any

$_ZNSt12_Vector_baseIPN5Eigen9EigenTestESaIS2_EE11_M_allocateEm = comdat any

$_ZNSt6vectorIPN5Eigen9EigenTestESaIS2_EE11_S_relocateEPS2_S5_S5_RS3_ = comdat any

$_ZNK9__gnu_cxx17__normal_iteratorIPPN5Eigen9EigenTestESt6vectorIS3_SaIS3_EEE4baseEv = comdat any

$_ZNSt12_Vector_baseIPN5Eigen9EigenTestESaIS2_EE19_M_get_Tp_allocatorEv = comdat any

$_ZNSt12_Vector_baseIPN5Eigen9EigenTestESaIS2_EE13_M_deallocateEPS2_m = comdat any

$_ZNKSt6vectorIPN5Eigen9EigenTestESaIS2_EE8max_sizeEv = comdat any

$_ZSt3maxImERKT_S2_S2_ = comdat any

$_ZNSt6vectorIPN5Eigen9EigenTestESaIS2_EE11_S_max_sizeERKS3_ = comdat any

$_ZNKSt12_Vector_baseIPN5Eigen9EigenTestESaIS2_EE19_M_get_Tp_allocatorEv = comdat any

$_ZNSt16allocator_traitsISaIPN5Eigen9EigenTestEEE8max_sizeERKS3_ = comdat any

$_ZSt3minImERKT_S2_S2_ = comdat any

$_ZNKSt15__new_allocatorIPN5Eigen9EigenTestEE8max_sizeEv = comdat any

$_ZNKSt15__new_allocatorIPN5Eigen9EigenTestEE11_M_max_sizeEv = comdat any

$_ZN9__gnu_cxx17__normal_iteratorIPPN5Eigen9EigenTestESt6vectorIS3_SaIS3_EEEC2ERKS4_ = comdat any

$_ZNSt16allocator_traitsISaIPN5Eigen9EigenTestEEE8allocateERS3_m = comdat any

$_ZNSt15__new_allocatorIPN5Eigen9EigenTestEE8allocateEmPKv = comdat any

$_ZNSt6vectorIPN5Eigen9EigenTestESaIS2_EE14_S_do_relocateEPS2_S5_S5_RS3_St17integral_constantIbLb1EE = comdat any

$_ZSt12__relocate_aIPPN5Eigen9EigenTestES3_SaIS2_EET0_T_S6_S5_RT1_ = comdat any

$_ZSt14__relocate_a_1IPN5Eigen9EigenTestES2_ENSt9enable_ifIXsr3std24__is_bitwise_relocatableIT_EE5valueEPS4_E4typeES5_S5_S5_RSaIT0_E = comdat any

$_ZSt12__niter_baseIPPN5Eigen9EigenTestEET_S4_ = comdat any

$_ZNSt16allocator_traitsISaIPN5Eigen9EigenTestEEE10deallocateERS3_PS2_m = comdat any

$_ZNSt15__new_allocatorIPN5Eigen9EigenTestEE10deallocateEPS2_m = comdat any

$_ZSt8_DestroyIPNSt7__cxx1112basic_stringIcSt11char_traitsIcESaIcEEES5_EvT_S7_RSaIT0_E = comdat any

$_ZNSt12_Vector_baseINSt7__cxx1112basic_stringIcSt11char_traitsIcESaIcEEESaIS5_EE19_M_get_Tp_allocatorEv = comdat any

$_ZNSt12_Vector_baseINSt7__cxx1112basic_stringIcSt11char_traitsIcESaIcEEESaIS5_EED2Ev = comdat any

$_ZSt8_DestroyIPNSt7__cxx1112basic_stringIcSt11char_traitsIcESaIcEEEEvT_S7_ = comdat any

$_ZNSt12_Destroy_auxILb0EE9__destroyIPNSt7__cxx1112basic_stringIcSt11char_traitsIcESaIcEEEEEvT_S9_ = comdat any

$_ZSt8_DestroyINSt7__cxx1112basic_stringIcSt11char_traitsIcESaIcEEEEvPT_ = comdat any

$_ZNSt12_Vector_baseINSt7__cxx1112basic_stringIcSt11char_traitsIcESaIcEEESaIS5_EE13_M_deallocateEPS5_m = comdat any

$_ZNSt12_Vector_baseINSt7__cxx1112basic_stringIcSt11char_traitsIcESaIcEEESaIS5_EE12_Vector_implD2Ev = comdat any

$_ZNSt16allocator_traitsISaINSt7__cxx1112basic_stringIcSt11char_traitsIcESaIcEEEEE10deallocateERS6_PS5_m = comdat any

$_ZNSt15__new_allocatorINSt7__cxx1112basic_stringIcSt11char_traitsIcESaIcEEEE10deallocateEPS5_m = comdat any

$_ZNSaINSt7__cxx1112basic_stringIcSt11char_traitsIcESaIcEEEED2Ev = comdat any

$_ZNSt15__new_allocatorINSt7__cxx1112basic_stringIcSt11char_traitsIcESaIcEEEED2Ev = comdat any

$_ZNSt6vectorINSt7__cxx1112basic_stringIcSt11char_traitsIcESaIcEEESaIS5_EE12emplace_backIJS5_EEEvDpOT_ = comdat any

$_ZNSt16allocator_traitsISaINSt7__cxx1112basic_stringIcSt11char_traitsIcESaIcEEEEE9constructIS5_JS5_EEEvRS6_PT_DpOT0_ = comdat any

$_ZNSt6vectorINSt7__cxx1112basic_stringIcSt11char_traitsIcESaIcEEESaIS5_EE17_M_realloc_insertIJS5_EEEvN9__gnu_cxx17__normal_iteratorIPS5_S7_EEDpOT_ = comdat any

$_ZNSt6vectorINSt7__cxx1112basic_stringIcSt11char_traitsIcESaIcEEESaIS5_EE3endEv = comdat any

$_ZNSt15__new_allocatorINSt7__cxx1112basic_stringIcSt11char_traitsIcESaIcEEEE9constructIS5_JS5_EEEvPT_DpOT0_ = comdat any

$_ZNKSt6vectorINSt7__cxx1112basic_stringIcSt11char_traitsIcESaIcEEESaIS5_EE12_M_check_lenEmPKc = comdat any

$_ZN9__gnu_cxxmiIPNSt7__cxx1112basic_stringIcSt11char_traitsIcESaIcEEESt6vectorIS6_SaIS6_EEEENS_17__normal_iteratorIT_T0_E15difference_typeERKSE_SH_ = comdat any

$_ZNSt6vectorINSt7__cxx1112basic_stringIcSt11char_traitsIcESaIcEEESaIS5_EE5beginEv = comdat any

$_ZNSt12_Vector_baseINSt7__cxx1112basic_stringIcSt11char_traitsIcESaIcEEESaIS5_EE11_M_allocateEm = comdat any

$_ZNSt6vectorINSt7__cxx1112basic_stringIcSt11char_traitsIcESaIcEEESaIS5_EE11_S_relocateEPS5_S8_S8_RS6_ = comdat any

$_ZNK9__gnu_cxx17__normal_iteratorIPNSt7__cxx1112basic_stringIcSt11char_traitsIcESaIcEEESt6vectorIS6_SaIS6_EEE4baseEv = comdat any

$_ZNKSt6vectorINSt7__cxx1112basic_stringIcSt11char_traitsIcESaIcEEESaIS5_EE8max_sizeEv = comdat any

$_ZNSt6vectorINSt7__cxx1112basic_stringIcSt11char_traitsIcESaIcEEESaIS5_EE11_S_max_sizeERKS6_ = comdat any

$_ZNKSt12_Vector_baseINSt7__cxx1112basic_stringIcSt11char_traitsIcESaIcEEESaIS5_EE19_M_get_Tp_allocatorEv = comdat any

$_ZNSt16allocator_traitsISaINSt7__cxx1112basic_stringIcSt11char_traitsIcESaIcEEEEE8max_sizeERKS6_ = comdat any

$_ZNKSt15__new_allocatorINSt7__cxx1112basic_stringIcSt11char_traitsIcESaIcEEEE8max_sizeEv = comdat any

$_ZNKSt15__new_allocatorINSt7__cxx1112basic_stringIcSt11char_traitsIcESaIcEEEE11_M_max_sizeEv = comdat any

$_ZN9__gnu_cxx17__normal_iteratorIPNSt7__cxx1112basic_stringIcSt11char_traitsIcESaIcEEESt6vectorIS6_SaIS6_EEEC2ERKS7_ = comdat any

$_ZNSt16allocator_traitsISaINSt7__cxx1112basic_stringIcSt11char_traitsIcESaIcEEEEE8allocateERS6_m = comdat any

$_ZNSt15__new_allocatorINSt7__cxx1112basic_stringIcSt11char_traitsIcESaIcEEEE8allocateEmPKv = comdat any

$_ZNSt6vectorINSt7__cxx1112basic_stringIcSt11char_traitsIcESaIcEEESaIS5_EE14_S_do_relocateEPS5_S8_S8_RS6_St17integral_constantIbLb1EE = comdat any

$_ZSt12__relocate_aIPNSt7__cxx1112basic_stringIcSt11char_traitsIcESaIcEEES6_SaIS5_EET0_T_S9_S8_RT1_ = comdat any

$_ZSt14__relocate_a_1IPNSt7__cxx1112basic_stringIcSt11char_traitsIcESaIcEEES6_SaIS5_EET0_T_S9_S8_RT1_ = comdat any

$_ZSt12__niter_baseIPNSt7__cxx1112basic_stringIcSt11char_traitsIcESaIcEEEET_S7_ = comdat any

$_ZSt19__relocate_object_aINSt7__cxx1112basic_stringIcSt11char_traitsIcESaIcEEES5_SaIS5_EEvPT_PT0_RT1_ = comdat any

$_ZNSt16allocator_traitsISaINSt7__cxx1112basic_stringIcSt11char_traitsIcESaIcEEEEE7destroyIS5_EEvRS6_PT_ = comdat any

$_ZNSt15__new_allocatorINSt7__cxx1112basic_stringIcSt11char_traitsIcESaIcEEEE7destroyIS5_EEvPT_ = comdat any

$_ZNK9__gnu_cxx17__normal_iteratorIPNSt7__cxx1112basic_stringIcSt11char_traitsIcESaIcEEESt6vectorIS6_SaIS6_EEEmiEl = comdat any

$_ZNK9__gnu_cxx17__normal_iteratorIPNSt7__cxx1112basic_stringIcSt11char_traitsIcESaIcEEESt6vectorIS6_SaIS6_EEEdeEv = comdat any

$_ZNSt16allocator_traitsISaINSt7__cxx1112basic_stringIcSt11char_traitsIcESaIcEEEEE9constructIS5_JRKS5_EEEvRS6_PT_DpOT0_ = comdat any

$_ZNSt6vectorINSt7__cxx1112basic_stringIcSt11char_traitsIcESaIcEEESaIS5_EE17_M_realloc_insertIJRKS5_EEEvN9__gnu_cxx17__normal_iteratorIPS5_S7_EEDpOT_ = comdat any

$_ZNSt15__new_allocatorINSt7__cxx1112basic_stringIcSt11char_traitsIcESaIcEEEE9constructIS5_JRKS5_EEEvPT_DpOT0_ = comdat any

$_ZN5Eigen8internal15random_int_implIiLb1ELb1EE3runERKiS4_ = comdat any

$_ZN5Eigen8internal15random_int_implIjLb0ELb1EE3runERKjS4_ = comdat any

$_ZN5Eigen16GenericNumTraitsIjE7highestEv = comdat any

$_ZN5Eigen8internal15random_int_implIjLb0ELb1EE3runEv = comdat any

$_ZN5Eigen8internal9log2_ceilIjEEiRKT_ = comdat any

$_ZN5Eigen8internal13getRandomBitsIjEET_i = comdat any

$_ZNSt14numeric_limitsIjE3maxEv = comdat any

$_ZN5Eigen8internal10log_2_implIjE8run_ceilERKj = comdat any

$_ZN5Eigen8internal3clzIjEEiT_ = comdat any

$_ZN5Eigen8internal15count_bits_implIjvE3clzEj = comdat any

$_ZN5Eigen8internal16random_bits_implIjE3runEi = comdat any

$_ZN5Eigen8internal19eigen_random_device3runEv = comdat any

$_ZN5Eigen15PlainObjectBaseINS_6MatrixIbLin1ELin1ELi0ELin1ELin1EEEEC2Ev = comdat any

$_ZN5Eigen15PlainObjectBaseINS_6MatrixIbLin1ELin1ELi0ELin1ELin1EEEE6_init2IiiEEvllPNSt9enable_ifILb1ET_E4typeE = comdat any

$_ZN5Eigen10MatrixBaseINS_6MatrixIbLin1ELin1ELi0ELin1ELin1EEEEC2Ev = comdat any

$_ZN5Eigen12DenseStorageIbLin1ELin1ELin1ELi0ELb1EEC2Ev = comdat any

$_ZN5Eigen9DenseBaseINS_6MatrixIbLin1ELin1ELi0ELin1ELin1EEEEC2Ev = comdat any

$_ZN5Eigen8internal17DenseStorage_implIbLin1ELin1ELin1ELi0EEC2Ev = comdat any

$_ZN5Eigen15PlainObjectBaseINS_6MatrixIbLin1ELin1ELi0ELin1ELin1EEEE6resizeEll = comdat any

$_ZN5Eigen8internal17check_implicationEbb = comdat any

$_ZN5Eigen8internal17DenseStorage_implIbLin1ELin1ELin1ELi0EE6resizeElll = comdat any

$_ZN5Eigen9DenseBaseINS_6MatrixIbLin1ELin1ELi0ELin1ELin1EEEE6RandomEll = comdat any

$_ZN5Eigen9DenseBaseINS_6MatrixIbLin1ELin1ELi0ELin1ELin1EEEEaSINS_14CwiseNullaryOpINS_8internal16scalar_random_opIbEES2_EEEERS2_RKNS0_IT_EE = comdat any

$_ZN5Eigen9DenseBaseINS_6MatrixIbLin1ELin1ELi0ELin1ELin1EEEE11NullaryExprINS_8internal16scalar_random_opIbEEEEKNS_14CwiseNullaryOpIT_S2_EEllRKS9_ = comdat any

$_ZN5Eigen14CwiseNullaryOpINS_8internal16scalar_random_opIbEENS_6MatrixIbLin1ELin1ELi0ELin1ELin1EEEEC2EllRKS3_ = comdat any

$_ZN5Eigen10MatrixBaseINS_14CwiseNullaryOpINS_8internal16scalar_random_opIbEENS_6MatrixIbLin1ELin1ELi0ELin1ELin1EEEEEEC2Ev = comdat any

$_ZN5Eigen8internal19variable_if_dynamicIlLin1EEC2El = comdat any

$_ZN5Eigen9DenseBaseINS_14CwiseNullaryOpINS_8internal16scalar_random_opIbEENS_6MatrixIbLin1ELin1ELi0ELin1ELin1EEEEEEC2Ev = comdat any

$_ZN5Eigen8internal15call_assignmentINS_6MatrixIbLin1ELin1ELi0ELin1ELin1EEENS_14CwiseNullaryOpINS0_16scalar_random_opIbEES3_EEEEvRT_RKT0_ = comdat any

$_ZNK5Eigen9EigenBaseINS_14CwiseNullaryOpINS_8internal16scalar_random_opIbEENS_6MatrixIbLin1ELin1ELi0ELin1ELin1EEEEEE7derivedEv = comdat any

$_ZN5Eigen8internal15call_assignmentINS_6MatrixIbLin1ELin1ELi0ELin1ELin1EEENS_14CwiseNullaryOpINS0_16scalar_random_opIbEES3_EENS0_9assign_opIbbEEEEvRT_RKT0_RKT1_NSt9enable_ifIXntsr25evaluator_assume_aliasingISC_EE5valueEPvE4typeE = comdat any

$_ZN5Eigen8internal24call_assignment_no_aliasINS_6MatrixIbLin1ELin1ELi0ELin1ELin1EEENS_14CwiseNullaryOpINS0_16scalar_random_opIbEES3_EENS0_9assign_opIbbEEEEvRT_RKT0_RKT1_ = comdat any

$_ZN5Eigen8internal10AssignmentINS_6MatrixIbLin1ELin1ELi0ELin1ELin1EEENS_14CwiseNullaryOpINS0_16scalar_random_opIbEES3_EENS0_9assign_opIbbEENS0_11Dense2DenseEvE3runERS3_RKS7_RKS9_ = comdat any

$_ZN5Eigen8internal18check_for_aliasingINS_6MatrixIbLin1ELin1ELi0ELin1ELin1EEENS_14CwiseNullaryOpINS0_16scalar_random_opIbEES3_EEEEvRKT_RKT0_ = comdat any

$_ZN5Eigen8internal26call_dense_assignment_loopINS_6MatrixIbLin1ELin1ELi0ELin1ELin1EEENS_14CwiseNullaryOpINS0_16scalar_random_opIbEES3_EENS0_9assign_opIbbEEEEvRT_RKT0_RKT1_ = comdat any

$_ZN5Eigen8internal27checkTransposeAliasing_implINS_6MatrixIbLin1ELin1ELi0ELin1ELin1EEENS_14CwiseNullaryOpINS0_16scalar_random_opIbEES3_EELb0EE3runERKS3_RKS7_ = comdat any

$_ZN5Eigen8internal9evaluatorINS_14CwiseNullaryOpINS0_16scalar_random_opIbEENS_6MatrixIbLin1ELin1ELi0ELin1ELin1EEEEEEC2ERKS7_ = comdat any

$_ZN5Eigen8internal17resize_if_allowedINS_6MatrixIbLin1ELin1ELi0ELin1ELin1EEENS_14CwiseNullaryOpINS0_16scalar_random_opIbEES3_EEbbEEvRT_RKT0_RKNS0_9assign_opIT1_T2_EE = comdat any

$_ZNK5Eigen9EigenBaseINS_6MatrixIbLin1ELin1ELi0ELin1ELin1EEEE18const_cast_derivedEv = comdat any

$_ZN5Eigen8internal31generic_dense_assignment_kernelINS0_9evaluatorINS_6MatrixIbLin1ELin1ELi0ELin1ELin1EEEEENS2_INS_14CwiseNullaryOpINS0_16scalar_random_opIbEES4_EEEENS0_9assign_opIbbEELi0EEC2ERS5_RKSA_RKSC_RS4_ = comdat any

$_ZN5Eigen8internal21dense_assignment_loopINS0_31generic_dense_assignment_kernelINS0_9evaluatorINS_6MatrixIbLin1ELin1ELi0ELin1ELin1EEEEENS3_INS_14CwiseNullaryOpINS0_16scalar_random_opIbEES5_EEEENS0_9assign_opIbbEELi0EEELi1ELi0EE3runERSE_ = comdat any

$_ZNK5Eigen14CwiseNullaryOpINS_8internal16scalar_random_opIbEENS_6MatrixIbLin1ELin1ELi0ELin1ELin1EEEE7functorEv = comdat any

$_ZNK5Eigen14CwiseNullaryOpINS_8internal16scalar_random_opIbEENS_6MatrixIbLin1ELin1ELi0ELin1ELin1EEEE4rowsEv = comdat any

$_ZNK5Eigen14CwiseNullaryOpINS_8internal16scalar_random_opIbEENS_6MatrixIbLin1ELin1ELi0ELin1ELin1EEEE4colsEv = comdat any

$_ZNK5Eigen8internal19variable_if_dynamicIlLin1EE5valueEv = comdat any

$_ZNK5Eigen8internal31generic_dense_assignment_kernelINS0_9evaluatorINS_6MatrixIbLin1ELin1ELi0ELin1ELin1EEEEENS2_INS_14CwiseNullaryOpINS0_16scalar_random_opIbEES4_EEEENS0_9assign_opIbbEELi0EE4sizeEv = comdat any

$_ZN5Eigen8internal31generic_dense_assignment_kernelINS0_9evaluatorINS_6MatrixIbLin1ELin1ELi0ELin1ELin1EEEEENS2_INS_14CwiseNullaryOpINS0_16scalar_random_opIbEES4_EEEENS0_9assign_opIbbEELi0EE11assignCoeffEl = comdat any

$_ZNK5Eigen9EigenBaseINS_6MatrixIbLin1ELin1ELi0ELin1ELin1EEEE4sizeEv = comdat any

$_ZNK5Eigen8internal9assign_opIbbE11assignCoeffERbRKb = comdat any

$_ZN5Eigen8internal9evaluatorINS_15PlainObjectBaseINS_6MatrixIbLin1ELin1ELi0ELin1ELin1EEEEEE8coeffRefEl = comdat any

$_ZNK5Eigen8internal9evaluatorINS_14CwiseNullaryOpINS0_16scalar_random_opIbEENS_6MatrixIbLin1ELin1ELi0ELin1ELin1EEEEEE5coeffIlEEbT_ = comdat any

$_ZNK5Eigen8internal15nullary_wrapperIbNS0_16scalar_random_opIbEELb1ELb0ELb0EEclIlEEbRKS3_T_S8_ = comdat any

$_ZNK5Eigen8internal16scalar_random_opIbEclEv = comdat any

$_ZN5Eigen8internal6randomIbEENS0_13random_retvalINS0_36global_math_functions_filtering_baseIT_vE4typeEE4typeEv = comdat any

$_ZN5Eigen8internal11random_implIbE3runEv = comdat any

$_ZN5Eigen7ProductINS_6MatrixIbLin1ELin1ELi0ELin1ELin1EEES2_Li0EEC2ERKS2_S5_ = comdat any

$_ZN5Eigen11ProductImplINS_6MatrixIbLin1ELin1ELi0ELin1ELin1EEES2_Li0ENS_5DenseEEC2Ev = comdat any

$_ZN5Eigen8internal18dense_product_baseINS_6MatrixIbLin1ELin1ELi0ELin1ELin1EEES3_Li0ELi8EEC2Ev = comdat any

$_ZN5Eigen10MatrixBaseINS_7ProductINS_6MatrixIbLin1ELin1ELi0ELin1ELin1EEES3_Li0EEEEC2Ev = comdat any

$_ZN5Eigen9DenseBaseINS_7ProductINS_6MatrixIbLin1ELin1ELi0ELin1ELin1EEES3_Li0EEEEC2Ev = comdat any

$_ZN5Eigen8internal15call_assignmentINS_6MatrixIbLin1ELin1ELi0ELin1ELin1EEENS_7ProductIS3_S3_Li0EEENS0_13add_assign_opIbbEEEEvRT_RKT0_RKT1_NSt9enable_ifIXsr25evaluator_assume_aliasingISA_EE5valueEPvE4typeE = comdat any

$_ZNK5Eigen9EigenBaseINS_7ProductINS_6MatrixIbLin1ELin1ELi0ELin1ELin1EEES3_Li0EEEE7derivedEv = comdat any

$_ZN5Eigen6MatrixIbLin1ELin1ELi0ELin1ELin1EEC2INS_7ProductIS1_S1_Li0EEEEERKT_ = comdat any

$_ZN5Eigen8internal24call_assignment_no_aliasINS_6MatrixIbLin1ELin1ELi0ELin1ELin1EEES3_NS0_13add_assign_opIbbEEEEvRT_RKT0_RKT1_ = comdat any

$_ZN5Eigen15PlainObjectBaseINS_6MatrixIbLin1ELin1ELi0ELin1ELin1EEEE6_init1INS_7ProductIS2_S2_Li0EEES6_EEvRKNS_9DenseBaseIT0_EE = comdat any

$_ZN5Eigen15PlainObjectBaseINS_6MatrixIbLin1ELin1ELi0ELin1ELin1EEEE12_set_noaliasINS_7ProductIS2_S2_Li0EEEEERS2_RKNS_9DenseBaseIT_EE = comdat any

$_ZN5Eigen8internal24call_assignment_no_aliasINS_6MatrixIbLin1ELin1ELi0ELin1ELin1EEENS_7ProductIS3_S3_Li0EEENS0_9assign_opIbbEEEEvRT_RKT0_RKT1_ = comdat any

$_ZN5Eigen8internal10AssignmentINS_6MatrixIbLin1ELin1ELi0ELin1ELin1EEENS_7ProductIS3_S3_Li0EEENS0_9assign_opIbbEENS0_11Dense2DenseEvE3runERS3_RKS5_RKS7_ = comdat any

$_ZNK5Eigen7ProductINS_6MatrixIbLin1ELin1ELi0ELin1ELin1EEES2_Li0EE4rowsEv = comdat any

$_ZNK5Eigen7ProductINS_6MatrixIbLin1ELin1ELi0ELin1ELin1EEES2_Li0EE4colsEv = comdat any

$_ZN5Eigen8internal20generic_product_implINS_6MatrixIbLin1ELin1ELi0ELin1ELin1EEES3_NS_10DenseShapeES4_Li8EE6evalToIS3_EEvRT_RKS3_SA_ = comdat any

$_ZNK5Eigen7ProductINS_6MatrixIbLin1ELin1ELi0ELin1ELin1EEES2_Li0EE3lhsEv = comdat any

$_ZNK5Eigen7ProductINS_6MatrixIbLin1ELin1ELi0ELin1ELin1EEES2_Li0EE3rhsEv = comdat any

$_ZN5Eigen8internal20generic_product_implINS_6MatrixIbLin1ELin1ELi0ELin1ELin1EEES3_NS_10DenseShapeES4_Li3EE12eval_dynamicIS3_NS0_9assign_opIbbEEEEvRT_RKS3_SC_RKT0_ = comdat any

$_ZN5Eigen9DenseBaseINS_6MatrixIbLin1ELin1ELi0ELin1ELin1EEEE7setZeroEv = comdat any

$_ZN5Eigen8internal20generic_product_implINS_6MatrixIbLin1ELin1ELi0ELin1ELin1EEES3_NS_10DenseShapeES4_Li8EE13scaleAndAddToIS3_EEvRT_RKS3_SA_RKb = comdat any

$_ZN5Eigen8internal20generic_product_implINS_6MatrixIbLin1ELin1ELi0ELin1ELin1EEES3_NS_10DenseShapeES4_Li3EE17eval_dynamic_implIS3_S3_S3_NS0_9assign_opIbbEEbEEvRT_RKT0_RKT1_RKT2_RKT3_NS0_10false_typeE = comdat any

$_ZN5Eigen8internal11blas_traitsINS_6MatrixIbLin1ELin1ELi0ELin1ELin1EEEE7extractERKS3_ = comdat any

$_ZNK5Eigen9DenseBaseINS_6MatrixIbLin1ELin1ELi0ELin1ELin1EEEE11conjugateIfILb0EEENSt11conditionalIXT_ERKS2_S7_E4typeEv = comdat any

$_ZN5Eigen8internal11blas_traitsINS_6MatrixIbLin1ELin1ELi0ELin1ELin1EEEE19extractScalarFactorERKS3_ = comdat any

$_ZN5Eigen8internal22ignore_unused_variableIbEEvRKT_ = comdat any

$_ZN5Eigen6numext14is_exactly_oneIbEEbRKT_ = comdat any

$_ZN5Eigen8internal42call_restricted_packet_assignment_no_aliasINS_6MatrixIbLin1ELin1ELi0ELin1ELin1EEENS_7ProductIS3_S3_Li1EEENS0_9assign_opIbbEEEEvRT_RKT0_RKT1_ = comdat any

$_ZNK5Eigen10MatrixBaseINS_6MatrixIbLin1ELin1ELi0ELin1ELin1EEEE11lazyProductIS2_EEKNS_7ProductIS2_T_Li1EEERKNS0_IS6_EE = comdat any

$_ZN5Eigen6numext12equal_strictIbbEEbRKT_RKT0_ = comdat any

$_ZN5Eigen6numext17equal_strict_implIbbLb1ELb0ELb1ELb0EE3runERKbS4_ = comdat any

$_ZN5Eigen8internal9evaluatorINS_7ProductINS_6MatrixIbLin1ELin1ELi0ELin1ELin1EEES4_Li1EEEEC2ERKS5_ = comdat any

$_ZN5Eigen8internal17resize_if_allowedINS_6MatrixIbLin1ELin1ELi0ELin1ELin1EEENS_7ProductIS3_S3_Li1EEEbbEEvRT_RKT0_RKNS0_9assign_opIT1_T2_EE = comdat any

$_ZN5Eigen8internal41restricted_packet_dense_assignment_kernelINS0_9evaluatorINS_6MatrixIbLin1ELin1ELi0ELin1ELin1EEEEENS2_INS_7ProductIS4_S4_Li1EEEEENS0_9assign_opIbbEEEC2ERS5_RKS8_RKSA_RS4_ = comdat any

$_ZN5Eigen8internal21dense_assignment_loopINS0_41restricted_packet_dense_assignment_kernelINS0_9evaluatorINS_6MatrixIbLin1ELin1ELi0ELin1ELin1EEEEENS3_INS_7ProductIS5_S5_Li1EEEEENS0_9assign_opIbbEEEELi4ELi0EE3runERSC_ = comdat any

$_ZN5Eigen8internal17product_evaluatorINS_7ProductINS_6MatrixIbLin1ELin1ELi0ELin1ELin1EEES4_Li1EEELi8ENS_10DenseShapeES6_bbEC2ERKS5_ = comdat any

$_ZNK5Eigen7ProductINS_6MatrixIbLin1ELin1ELi0ELin1ELin1EEES2_Li1EE3lhsEv = comdat any

$_ZNK5Eigen7ProductINS_6MatrixIbLin1ELin1ELi0ELin1ELin1EEES2_Li1EE3rhsEv = comdat any

$_ZNK5Eigen7ProductINS_6MatrixIbLin1ELin1ELi0ELin1ELin1EEES2_Li1EE4rowsEv = comdat any

$_ZNK5Eigen7ProductINS_6MatrixIbLin1ELin1ELi0ELin1ELin1EEES2_Li1EE4colsEv = comdat any

$_ZN5Eigen8internal31generic_dense_assignment_kernelINS0_9evaluatorINS_6MatrixIbLin1ELin1ELi0ELin1ELin1EEEEENS2_INS_7ProductIS4_S4_Li1EEEEENS0_9assign_opIbbEELi1EEC2ERS5_RKS8_RKSA_RS4_ = comdat any

$_ZNK5Eigen8internal31generic_dense_assignment_kernelINS0_9evaluatorINS_6MatrixIbLin1ELin1ELi0ELin1ELin1EEEEENS2_INS_7ProductIS4_S4_Li1EEEEENS0_9assign_opIbbEELi1EE10dstDataPtrEv = comdat any

$_ZNK5Eigen8internal31generic_dense_assignment_kernelINS0_9evaluatorINS_6MatrixIbLin1ELin1ELi0ELin1ELin1EEEEENS2_INS_7ProductIS4_S4_Li1EEEEENS0_9assign_opIbbEELi1EE9innerSizeEv = comdat any

$_ZNK5Eigen8internal31generic_dense_assignment_kernelINS0_9evaluatorINS_6MatrixIbLin1ELin1ELi0ELin1ELin1EEEEENS2_INS_7ProductIS4_S4_Li1EEEEENS0_9assign_opIbbEELi1EE9outerSizeEv = comdat any

$_ZNK5Eigen8internal31generic_dense_assignment_kernelINS0_9evaluatorINS_6MatrixIbLin1ELin1ELi0ELin1ELin1EEEEENS2_INS_7ProductIS4_S4_Li1EEEEENS0_9assign_opIbbEELi1EE11outerStrideEv = comdat any

$_ZN5Eigen8internal31generic_dense_assignment_kernelINS0_9evaluatorINS_6MatrixIbLin1ELin1ELi0ELin1ELin1EEEEENS2_INS_7ProductIS4_S4_Li1EEEEENS0_9assign_opIbbEELi1EE23assignCoeffByOuterInnerEll = comdat any

$_ZN5Eigen8internal31generic_dense_assignment_kernelINS0_9evaluatorINS_6MatrixIbLin1ELin1ELi0ELin1ELin1EEEEENS2_INS_7ProductIS4_S4_Li1EEEEENS0_9assign_opIbbEELi1EE24assignPacketByOuterInnerILi16ELi0ENS0_20eigen_packet_wrapperIDv2_xLi1EEEEEvll = comdat any

$_ZN5Eigen15PlainObjectBaseINS_6MatrixIbLin1ELin1ELi0ELin1ELin1EEEE4dataEv = comdat any

$_ZNK5Eigen9DenseBaseINS_6MatrixIbLin1ELin1ELi0ELin1ELin1EEEE9outerSizeEv = comdat any

$_ZN5Eigen8internal31generic_dense_assignment_kernelINS0_9evaluatorINS_6MatrixIbLin1ELin1ELi0ELin1ELin1EEEEENS2_INS_7ProductIS4_S4_Li1EEEEENS0_9assign_opIbbEELi1EE20rowIndexByOuterInnerEll = comdat any

$_ZN5Eigen8internal31generic_dense_assignment_kernelINS0_9evaluatorINS_6MatrixIbLin1ELin1ELi0ELin1ELin1EEEEENS2_INS_7ProductIS4_S4_Li1EEEEENS0_9assign_opIbbEELi1EE20colIndexByOuterInnerEll = comdat any

$_ZN5Eigen8internal31generic_dense_assignment_kernelINS0_9evaluatorINS_6MatrixIbLin1ELin1ELi0ELin1ELin1EEEEENS2_INS_7ProductIS4_S4_Li1EEEEENS0_9assign_opIbbEELi1EE11assignCoeffEll = comdat any

$_ZNK5Eigen8internal17product_evaluatorINS_7ProductINS_6MatrixIbLin1ELin1ELi0ELin1ELin1EEES4_Li1EEELi8ENS_10DenseShapeES6_bbE5coeffEll = comdat any

$_ZNK5Eigen9DenseBaseINS_6MatrixIbLin1ELin1ELi0ELin1ELin1EEEE3rowEl = comdat any

$_ZNK5Eigen9DenseBaseINS_5BlockIKNS_6MatrixIbLin1ELin1ELi0ELin1ELin1EEELi1ELin1ELb0EEEE9transposeEv = comdat any

$_ZNK5Eigen10MatrixBaseINS_9TransposeIKNS_5BlockIKNS_6MatrixIbLin1ELin1ELi0ELin1ELin1EEELi1ELin1ELb0EEEEEE12cwiseProductINS2_IS5_Lin1ELi1ELb1EEEEEKNS_13CwiseBinaryOpINS_8internal17scalar_product_opIbNSD_6traitsIT_E6ScalarEEEKS8_KSG_EERKNS0_ISG_EE = comdat any

$_ZNK5Eigen9DenseBaseINS_6MatrixIbLin1ELin1ELi0ELin1ELin1EEEE3colEl = comdat any

$_ZNK5Eigen9DenseBaseINS_13CwiseBinaryOpINS_8internal17scalar_product_opIbbEEKNS_9TransposeIKNS_5BlockIKNS_6MatrixIbLin1ELin1ELi0ELin1ELin1EEELi1ELin1ELb0EEEEEKNS6_IS9_Lin1ELi1ELb1EEEEEE3sumEv = comdat any

$_ZN5Eigen5BlockIKNS_6MatrixIbLin1ELin1ELi0ELin1ELin1EEELi1ELin1ELb0EEC2ERS3_l = comdat any

$_ZN5Eigen9BlockImplIKNS_6MatrixIbLin1ELin1ELi0ELin1ELin1EEELi1ELin1ELb0ENS_5DenseEEC2ERS3_l = comdat any

$_ZN5Eigen8internal15BlockImpl_denseIKNS_6MatrixIbLin1ELin1ELi0ELin1ELin1EEELi1ELin1ELb0ELb1EEC2ERS4_l = comdat any

$_ZNK5Eigen6MatrixIbLin1ELin1ELi0ELin1ELin1EE11innerStrideEv = comdat any

$_ZN5Eigen7MapBaseINS_5BlockIKNS_6MatrixIbLin1ELin1ELi0ELin1ELin1EEELi1ELin1ELb0EEELi0EEC2EPKbll = comdat any

$_ZN5Eigen8internal15BlockImpl_denseIKNS_6MatrixIbLin1ELin1ELi0ELin1ELin1EEELi1ELin1ELb0ELb1EE4initEv = comdat any

$_ZN5Eigen10MatrixBaseINS_5BlockIKNS_6MatrixIbLin1ELin1ELi0ELin1ELin1EEELi1ELin1ELb0EEEEC2Ev = comdat any

$_ZN5Eigen8internal19variable_if_dynamicIlLi1EEC2El = comdat any

$_ZNK5Eigen7MapBaseINS_5BlockIKNS_6MatrixIbLin1ELin1ELi0ELin1ELin1EEELi1ELin1ELb0EEELi0EE11checkSanityIS5_EEvNSt9enable_ifIXeqsr8internal6traitsIT_EE9AlignmentLi0EEPvE4typeE = comdat any

$_ZN5Eigen9DenseBaseINS_5BlockIKNS_6MatrixIbLin1ELin1ELi0ELin1ELin1EEELi1ELin1ELb0EEEEC2Ev = comdat any

$_ZNK5Eigen9EigenBaseINS_5BlockIKNS_6MatrixIbLin1ELin1ELi0ELin1ELin1EEELi1ELin1ELb0EEEE7derivedEv = comdat any

$_ZN5Eigen9TransposeIKNS_5BlockIKNS_6MatrixIbLin1ELin1ELi0ELin1ELin1EEELi1ELin1ELb0EEEEC2ERS6_ = comdat any

$_ZN5Eigen13TransposeImplIKNS_5BlockIKNS_6MatrixIbLin1ELin1ELi0ELin1ELin1EEELi1ELin1ELb0EEENS_5DenseEEC2Ev = comdat any

$_ZN5Eigen10MatrixBaseINS_9TransposeIKNS_5BlockIKNS_6MatrixIbLin1ELin1ELi0ELin1ELin1EEELi1ELin1ELb0EEEEEEC2Ev = comdat any

$_ZN5Eigen9DenseBaseINS_9TransposeIKNS_5BlockIKNS_6MatrixIbLin1ELin1ELi0ELin1ELin1EEELi1ELin1ELb0EEEEEEC2Ev = comdat any

$_ZNK5Eigen9EigenBaseINS_9TransposeIKNS_5BlockIKNS_6MatrixIbLin1ELin1ELi0ELin1ELin1EEELi1ELin1ELb0EEEEEE7derivedEv = comdat any

$_ZNK5Eigen9EigenBaseINS_5BlockIKNS_6MatrixIbLin1ELin1ELi0ELin1ELin1EEELin1ELi1ELb1EEEE7derivedEv = comdat any

$_ZN5Eigen13CwiseBinaryOpINS_8internal17scalar_product_opIbbEEKNS_9TransposeIKNS_5BlockIKNS_6MatrixIbLin1ELin1ELi0ELin1ELin1EEELi1ELin1ELb0EEEEEKNS5_IS8_Lin1ELi1ELb1EEEEC2ERSC_RSE_RKS3_ = comdat any

$_ZN5Eigen17CwiseBinaryOpImplINS_8internal17scalar_product_opIbbEEKNS_9TransposeIKNS_5BlockIKNS_6MatrixIbLin1ELin1ELi0ELin1ELin1EEELi1ELin1ELb0EEEEEKNS5_IS8_Lin1ELi1ELb1EEENS_5DenseEEC2Ev = comdat any

$_ZNK5Eigen9TransposeIKNS_5BlockIKNS_6MatrixIbLin1ELin1ELi0ELin1ELin1EEELi1ELin1ELb0EEEE4rowsEv = comdat any

$_ZNK5Eigen7MapBaseINS_5BlockIKNS_6MatrixIbLin1ELin1ELi0ELin1ELin1EEELin1ELi1ELb1EEELi0EE4rowsEv = comdat any

$_ZNK5Eigen9TransposeIKNS_5BlockIKNS_6MatrixIbLin1ELin1ELi0ELin1ELin1EEELi1ELin1ELb0EEEE4colsEv = comdat any

$_ZNK5Eigen7MapBaseINS_5BlockIKNS_6MatrixIbLin1ELin1ELi0ELin1ELin1EEELin1ELi1ELb1EEELi0EE4colsEv = comdat any

$_ZN5Eigen10MatrixBaseINS_13CwiseBinaryOpINS_8internal17scalar_product_opIbbEEKNS_9TransposeIKNS_5BlockIKNS_6MatrixIbLin1ELin1ELi0ELin1ELin1EEELi1ELin1ELb0EEEEEKNS6_IS9_Lin1ELi1ELb1EEEEEEC2Ev = comdat any

$_ZN5Eigen9DenseBaseINS_13CwiseBinaryOpINS_8internal17scalar_product_opIbbEEKNS_9TransposeIKNS_5BlockIKNS_6MatrixIbLin1ELin1ELi0ELin1ELin1EEELi1ELin1ELb0EEEEEKNS6_IS9_Lin1ELi1ELb1EEEEEEC2Ev = comdat any

$_ZNK5Eigen7MapBaseINS_5BlockIKNS_6MatrixIbLin1ELin1ELi0ELin1ELin1EEELi1ELin1ELb0EEELi0EE4colsEv = comdat any

$_ZNK5Eigen7MapBaseINS_5BlockIKNS_6MatrixIbLin1ELin1ELi0ELin1ELin1EEELi1ELin1ELb0EEELi0EE4rowsEv = comdat any

$_ZN5Eigen8internal19variable_if_dynamicIlLi1EE5valueEv = comdat any

$_ZN5Eigen5BlockIKNS_6MatrixIbLin1ELin1ELi0ELin1ELin1EEELin1ELi1ELb1EEC2ERS3_l = comdat any

$_ZN5Eigen9BlockImplIKNS_6MatrixIbLin1ELin1ELi0ELin1ELin1EEELin1ELi1ELb1ENS_5DenseEEC2ERS3_l = comdat any

$_ZN5Eigen8internal15BlockImpl_denseIKNS_6MatrixIbLin1ELin1ELi0ELin1ELin1EEELin1ELi1ELb1ELb1EEC2ERS4_l = comdat any

$_ZN5Eigen7MapBaseINS_5BlockIKNS_6MatrixIbLin1ELin1ELi0ELin1ELin1EEELin1ELi1ELb1EEELi0EEC2EPKbll = comdat any

$_ZN5Eigen8internal15BlockImpl_denseIKNS_6MatrixIbLin1ELin1ELi0ELin1ELin1EEELin1ELi1ELb1ELb1EE4initEv = comdat any

$_ZN5Eigen10MatrixBaseINS_5BlockIKNS_6MatrixIbLin1ELin1ELi0ELin1ELin1EEELin1ELi1ELb1EEEEC2Ev = comdat any

$_ZNK5Eigen7MapBaseINS_5BlockIKNS_6MatrixIbLin1ELin1ELi0ELin1ELin1EEELin1ELi1ELb1EEELi0EE11checkSanityIS5_EEvNSt9enable_ifIXeqsr8internal6traitsIT_EE9AlignmentLi0EEPvE4typeE = comdat any

$_ZN5Eigen9DenseBaseINS_5BlockIKNS_6MatrixIbLin1ELin1ELi0ELin1ELin1EEELin1ELi1ELb1EEEEC2Ev = comdat any

$_ZNK5Eigen9EigenBaseINS_13CwiseBinaryOpINS_8internal17scalar_product_opIbbEEKNS_9TransposeIKNS_5BlockIKNS_6MatrixIbLin1ELin1ELi0ELin1ELin1EEELi1ELin1ELb0EEEEEKNS6_IS9_Lin1ELi1ELb1EEEEEE4sizeEv = comdat any

$_ZNK5Eigen9EigenBaseINS_13CwiseBinaryOpINS_8internal17scalar_product_opIbbEEKNS_9TransposeIKNS_5BlockIKNS_6MatrixIbLin1ELin1ELi0ELin1ELin1EEELi1ELin1ELb0EEEEEKNS6_IS9_Lin1ELi1ELb1EEEEEE7derivedEv = comdat any

$_ZNK5Eigen9DenseBaseINS_13CwiseBinaryOpINS_8internal17scalar_product_opIbbEEKNS_9TransposeIKNS_5BlockIKNS_6MatrixIbLin1ELin1ELi0ELin1ELin1EEELi1ELin1ELb0EEEEEKNS6_IS9_Lin1ELi1ELb1EEEEEE5reduxINS2_13scalar_sum_opIbbEEEEbRKT_ = comdat any

$_ZNK5Eigen9EigenBaseINS_13CwiseBinaryOpINS_8internal17scalar_product_opIbbEEKNS_9TransposeIKNS_5BlockIKNS_6MatrixIbLin1ELin1ELi0ELin1ELin1EEELi1ELin1ELb0EEEEEKNS6_IS9_Lin1ELi1ELb1EEEEEE4rowsEv = comdat any

$_ZNK5Eigen9EigenBaseINS_13CwiseBinaryOpINS_8internal17scalar_product_opIbbEEKNS_9TransposeIKNS_5BlockIKNS_6MatrixIbLin1ELin1ELi0ELin1ELin1EEELi1ELin1ELb0EEEEEKNS6_IS9_Lin1ELi1ELb1EEEEEE4colsEv = comdat any

$_ZNK5Eigen13CwiseBinaryOpINS_8internal17scalar_product_opIbbEEKNS_9TransposeIKNS_5BlockIKNS_6MatrixIbLin1ELin1ELi0ELin1ELin1EEELi1ELin1ELb0EEEEEKNS5_IS8_Lin1ELi1ELb1EEEE4rowsEv = comdat any

$_ZNK5Eigen13CwiseBinaryOpINS_8internal17scalar_product_opIbbEEKNS_9TransposeIKNS_5BlockIKNS_6MatrixIbLin1ELin1ELi0ELin1ELin1EEELi1ELin1ELb0EEEEEKNS5_IS8_Lin1ELi1ELb1EEEE4colsEv = comdat any

$_ZN5Eigen8internal15redux_evaluatorINS_13CwiseBinaryOpINS0_17scalar_product_opIbbEEKNS_9TransposeIKNS_5BlockIKNS_6MatrixIbLin1ELin1ELi0ELin1ELin1EEELi1ELin1ELb0EEEEEKNS6_IS9_Lin1ELi1ELb1EEEEEEC2ERKSG_ = comdat any

$_ZN5Eigen8internal10redux_implINS0_13scalar_sum_opIbbEENS0_15redux_evaluatorINS_13CwiseBinaryOpINS0_17scalar_product_opIbbEEKNS_9TransposeIKNS_5BlockIKNS_6MatrixIbLin1ELin1ELi0ELin1ELin1EEELi1ELin1ELb0EEEEEKNS9_ISC_Lin1ELi1ELb1EEEEEEELi1ELi0EE3runISJ_EEbRKSK_RKS3_RKT_ = comdat any

$_ZN5Eigen8internal9evaluatorINS_13CwiseBinaryOpINS0_17scalar_product_opIbbEEKNS_9TransposeIKNS_5BlockIKNS_6MatrixIbLin1ELin1ELi0ELin1ELin1EEELi1ELin1ELb0EEEEEKNS6_IS9_Lin1ELi1ELb1EEEEEEC2ERKSG_ = comdat any

$_ZN5Eigen8internal16binary_evaluatorINS_13CwiseBinaryOpINS0_17scalar_product_opIbbEEKNS_9TransposeIKNS_5BlockIKNS_6MatrixIbLin1ELin1ELi0ELin1ELin1EEELi1ELin1ELb0EEEEEKNS6_IS9_Lin1ELi1ELb1EEEEENS0_10IndexBasedESH_bbEC2ERKSG_ = comdat any

$_ZN5Eigen8internal16binary_evaluatorINS_13CwiseBinaryOpINS0_17scalar_product_opIbbEEKNS_9TransposeIKNS_5BlockIKNS_6MatrixIbLin1ELin1ELi0ELin1ELin1EEELi1ELin1ELb0EEEEEKNS6_IS9_Lin1ELi1ELb1EEEEENS0_10IndexBasedESH_bbE4DataC2ERKSG_ = comdat any

$_ZNK5Eigen13CwiseBinaryOpINS_8internal17scalar_product_opIbbEEKNS_9TransposeIKNS_5BlockIKNS_6MatrixIbLin1ELin1ELi0ELin1ELin1EEELi1ELin1ELb0EEEEEKNS5_IS8_Lin1ELi1ELb1EEEE7functorEv = comdat any

$_ZNK5Eigen13CwiseBinaryOpINS_8internal17scalar_product_opIbbEEKNS_9TransposeIKNS_5BlockIKNS_6MatrixIbLin1ELin1ELi0ELin1ELin1EEELi1ELin1ELb0EEEEEKNS5_IS8_Lin1ELi1ELb1EEEE3lhsEv = comdat any

$_ZN5Eigen8internal9evaluatorIKNS_9TransposeIKNS_5BlockIKNS_6MatrixIbLin1ELin1ELi0ELin1ELin1EEELi1ELin1ELb0EEEEEEC2ERSA_ = comdat any

$_ZNK5Eigen13CwiseBinaryOpINS_8internal17scalar_product_opIbbEEKNS_9TransposeIKNS_5BlockIKNS_6MatrixIbLin1ELin1ELi0ELin1ELin1EEELi1ELin1ELb0EEEEEKNS5_IS8_Lin1ELi1ELb1EEEE3rhsEv = comdat any

$_ZN5Eigen8internal9evaluatorIKNS_5BlockIKNS_6MatrixIbLin1ELin1ELi0ELin1ELin1EEELin1ELi1ELb1EEEEC2ERS7_ = comdat any

$_ZN5Eigen8internal15unary_evaluatorINS_9TransposeIKNS_5BlockIKNS_6MatrixIbLin1ELin1ELi0ELin1ELin1EEELi1ELin1ELb0EEEEENS0_10IndexBasedEbEC2ERKS9_ = comdat any

$_ZNK5Eigen9TransposeIKNS_5BlockIKNS_6MatrixIbLin1ELin1ELi0ELin1ELin1EEELi1ELin1ELb0EEEE16nestedExpressionEv = comdat any

$_ZN5Eigen8internal9evaluatorIKNS_5BlockIKNS_6MatrixIbLin1ELin1ELi0ELin1ELin1EEELi1ELin1ELb0EEEEC2ERS7_ = comdat any

$_ZN5Eigen8internal15block_evaluatorIKNS_6MatrixIbLin1ELin1ELi0ELin1ELin1EEELi1ELin1ELb0ELb1EEC2ERKNS_5BlockIS4_Li1ELin1ELb0EEE = comdat any

$_ZN5Eigen8internal17mapbase_evaluatorINS_5BlockIKNS_6MatrixIbLin1ELin1ELi0ELin1ELin1EEELi1ELin1ELb0EEENS3_IbLi1ELin1ELi1ELi1ELin1EEEEC2ERKS6_ = comdat any

$_ZNK5Eigen7MapBaseINS_5BlockIKNS_6MatrixIbLin1ELin1ELi0ELin1ELin1EEELi1ELin1ELb0EEELi0EE4dataEv = comdat any

$_ZN5Eigen8internal14plain_enum_maxIiNS0_9evaluatorINS_5BlockIKNS_6MatrixIbLin1ELin1ELi0ELin1ELin1EEELi1ELin1ELb0EEEEUt_EEEiT_T0_ = comdat any

$_ZNK5Eigen8internal15BlockImpl_denseIKNS_6MatrixIbLin1ELin1ELi0ELin1ELin1EEELi1ELin1ELb0ELb1EE11innerStrideEv = comdat any

$_ZNK5Eigen8internal15BlockImpl_denseIKNS_6MatrixIbLin1ELin1ELi0ELin1ELin1EEELi1ELin1ELb0ELb1EE11outerStrideEv = comdat any

$_ZN5Eigen8internal18plain_enum_assertsIiNS0_9evaluatorINS_5BlockIKNS_6MatrixIbLin1ELin1ELi0ELin1ELin1EEELi1ELin1ELb0EEEEUt_EEEvT_T0_ = comdat any

$_ZN5Eigen8internal15block_evaluatorIKNS_6MatrixIbLin1ELin1ELi0ELin1ELin1EEELin1ELi1ELb1ELb1EEC2ERKNS_5BlockIS4_Lin1ELi1ELb1EEE = comdat any

$_ZN5Eigen8internal17mapbase_evaluatorINS_5BlockIKNS_6MatrixIbLin1ELin1ELi0ELin1ELin1EEELin1ELi1ELb1EEENS3_IbLin1ELi1ELi0ELin1ELi1EEEEC2ERKS6_ = comdat any

$_ZNK5Eigen7MapBaseINS_5BlockIKNS_6MatrixIbLin1ELin1ELi0ELin1ELin1EEELin1ELi1ELb1EEELi0EE4dataEv = comdat any

$_ZN5Eigen8internal14plain_enum_maxIiNS0_9evaluatorINS_5BlockIKNS_6MatrixIbLin1ELin1ELi0ELin1ELin1EEELin1ELi1ELb1EEEEUt_EEEiT_T0_ = comdat any

$_ZNK5Eigen8internal15BlockImpl_denseIKNS_6MatrixIbLin1ELin1ELi0ELin1ELin1EEELin1ELi1ELb1ELb1EE11innerStrideEv = comdat any

$_ZNK5Eigen8internal15BlockImpl_denseIKNS_6MatrixIbLin1ELin1ELi0ELin1ELin1EEELin1ELi1ELb1ELb1EE11outerStrideEv = comdat any

$_ZN5Eigen8internal18plain_enum_assertsIiNS0_9evaluatorINS_5BlockIKNS_6MatrixIbLin1ELin1ELi0ELin1ELin1EEELin1ELi1ELb1EEEEUt_EEEvT_T0_ = comdat any

$_ZNK5Eigen8internal16binary_evaluatorINS_13CwiseBinaryOpINS0_17scalar_product_opIbbEEKNS_9TransposeIKNS_5BlockIKNS_6MatrixIbLin1ELin1ELi0ELin1ELin1EEELi1ELin1ELb0EEEEEKNS6_IS9_Lin1ELi1ELb1EEEEENS0_10IndexBasedESH_bbE5coeffEl = comdat any

$_ZNK5Eigen8internal13scalar_sum_opIbbEclERKbS4_ = comdat any

$_ZNK5Eigen8internal16binary_evaluatorINS_13CwiseBinaryOpINS0_17scalar_product_opIbbEEKNS_9TransposeIKNS_5BlockIKNS_6MatrixIbLin1ELin1ELi0ELin1ELin1EEELi1ELin1ELb0EEEEEKNS6_IS9_Lin1ELi1ELb1EEEEENS0_10IndexBasedESH_bbE4Data4funcEv = comdat any

$_ZNK5Eigen8internal17scalar_product_opIbbEclERKbS4_ = comdat any

$_ZNK5Eigen8internal15unary_evaluatorINS_9TransposeIKNS_5BlockIKNS_6MatrixIbLin1ELin1ELi0ELin1ELin1EEELi1ELin1ELb0EEEEENS0_10IndexBasedEbE5coeffEl = comdat any

$_ZNK5Eigen8internal17mapbase_evaluatorINS_5BlockIKNS_6MatrixIbLin1ELin1ELi0ELin1ELin1EEELin1ELi1ELb1EEENS3_IbLin1ELi1ELi0ELin1ELi1EEEE5coeffEl = comdat any

$_ZNK5Eigen8internal17mapbase_evaluatorINS_5BlockIKNS_6MatrixIbLin1ELin1ELi0ELin1ELin1EEELi1ELin1ELb0EEENS3_IbLi1ELin1ELi1ELi1ELin1EEEE5coeffEl = comdat any

$_ZN5Eigen8internal31generic_dense_assignment_kernelINS0_9evaluatorINS_6MatrixIbLin1ELin1ELi0ELin1ELin1EEEEENS2_INS_7ProductIS4_S4_Li1EEEEENS0_9assign_opIbbEELi1EE12assignPacketILi16ELi0ENS0_20eigen_packet_wrapperIDv2_xLi1EEEEEvll = comdat any

$_ZNK5Eigen8internal9assign_opIbbE12assignPacketILi16ENS0_20eigen_packet_wrapperIDv2_xLi1EEEEEvPbRKT0_ = comdat any

$_ZNK5Eigen8internal17product_evaluatorINS_7ProductINS_6MatrixIbLin1ELin1ELi0ELin1ELin1EEES4_Li1EEELi8ENS_10DenseShapeES6_bbE6packetILi0ENS0_20eigen_packet_wrapperIDv2_xLi1EEEEEKT0_ll = comdat any

$_ZN5Eigen8internal6pstoreIbNS0_20eigen_packet_wrapperIDv2_xLi1EEEEEvPT_RKT0_ = comdat any

$_ZN5Eigen8internal24etor_product_packet_implILi0ELin1ENS0_9evaluatorINS_6MatrixIbLin1ELin1ELi0ELin1ELin1EEEEES5_NS0_20eigen_packet_wrapperIDv2_xLi1EEELi0EE3runEllRKS5_SB_lRS8_ = comdat any

$_ZN5Eigen8internal5pset1INS0_20eigen_packet_wrapperIDv2_xLi1EEEEET_RKNS0_15unpacket_traitsIS5_E4typeE = comdat any

$_ZN5Eigen8internal5pmaddINS0_20eigen_packet_wrapperIDv2_xLi1EEEEET_RKS5_S7_S7_ = comdat any

$_ZNK5Eigen8internal9evaluatorINS_15PlainObjectBaseINS_6MatrixIbLin1ELin1ELi0ELin1ELin1EEEEEE6packetILi0ENS0_20eigen_packet_wrapperIDv2_xLi1EEEEET0_ll = comdat any

$_ZNK5Eigen8internal9evaluatorINS_15PlainObjectBaseINS_6MatrixIbLin1ELin1ELi0ELin1ELin1EEEEEE5coeffEll = comdat any

$_ZN5Eigen8internal4paddINS0_20eigen_packet_wrapperIDv2_xLi1EEEEET_RKS5_S7_ = comdat any

$_ZN5Eigen8internal4pmulINS0_20eigen_packet_wrapperIDv2_xLi1EEEEET_RKS5_S7_ = comdat any

$_ZN5Eigen8internal6ploaduINS0_20eigen_packet_wrapperIDv2_xLi1EEEEET_PKNS0_15unpacket_traitsIS5_E4typeE = comdat any

$_ZSt3minIlERKT_S2_S2_ = comdat any

$_ZN5Eigen7ProductINS_6MatrixIbLin1ELin1ELi0ELin1ELin1EEES2_Li1EEC2ERKS2_S5_ = comdat any

$_ZN5Eigen11ProductImplINS_6MatrixIbLin1ELin1ELi0ELin1ELin1EEES2_Li1ENS_5DenseEEC2Ev = comdat any

$_ZN5Eigen8internal18dense_product_baseINS_6MatrixIbLin1ELin1ELi0ELin1ELin1EEES3_Li1ELi8EEC2Ev = comdat any

$_ZN5Eigen10MatrixBaseINS_7ProductINS_6MatrixIbLin1ELin1ELi0ELin1ELin1EEES3_Li1EEEEC2Ev = comdat any

$_ZN5Eigen9DenseBaseINS_7ProductINS_6MatrixIbLin1ELin1ELi0ELin1ELin1EEES3_Li1EEEEC2Ev = comdat any

$_ZN5Eigen8internal15eigen_zero_implINS_6MatrixIbLin1ELin1ELi0ELin1ELin1EEELb1EE3runERS3_ = comdat any

$_ZN5Eigen9DenseBaseINS_6MatrixIbLin1ELin1ELi0ELin1ELin1EEEE3colEl = comdat any

$_ZN5Eigen8internal20generic_product_implINS_6MatrixIbLin1ELin1ELi0ELin1ELin1EEEKNS_5BlockIKS3_Lin1ELi1ELb1EEENS_10DenseShapeES8_Li7EE13scaleAndAddToINS4_IS3_Lin1ELi1ELb1EEEEEvRT_RS5_RS7_RKb = comdat any

$_ZN5Eigen9DenseBaseINS_6MatrixIbLin1ELin1ELi0ELin1ELin1EEEE3rowEl = comdat any

$_ZN5Eigen8internal20generic_product_implIKNS_5BlockIKNS_6MatrixIbLin1ELin1ELi0ELin1ELin1EEELi1ELin1ELb0EEES4_NS_10DenseShapeES8_Li7EE13scaleAndAddToINS2_IS4_Li1ELin1ELb0EEEEEvRT_RS7_RS5_RKb = comdat any

$_ZN5Eigen8internal19gemm_blocking_spaceILi0EbbLin1ELin1ELin1ELi1ELb0EEC2Ellllb = comdat any

$_ZN5Eigen8internal16parallelize_gemmILb1ENS0_12gemm_functorIblNS0_29general_matrix_matrix_productIlbLi0ELb0EbLi0ELb0ELi0ELi1EEENS_6MatrixIbLin1ELin1ELi0ELin1ELin1EEES6_S6_NS0_19gemm_blocking_spaceILi0EbbLin1ELin1ELin1ELi1ELb0EEEEElEEvRKT0_T1_SD_SD_b = comdat any

$_ZN5Eigen8internal12gemm_functorIblNS0_29general_matrix_matrix_productIlbLi0ELb0EbLi0ELb0ELi0ELi1EEENS_6MatrixIbLin1ELin1ELi0ELin1ELin1EEES5_S5_NS0_19gemm_blocking_spaceILi0EbbLin1ELin1ELin1ELi1ELb0EEEEC2ERKS5_SA_RS5_RKbRS7_ = comdat any

$_ZN5Eigen8internal19gemm_blocking_spaceILi0EbbLin1ELin1ELin1ELi1ELb0EED2Ev = comdat any

$_ZN5Eigen5BlockINS_6MatrixIbLin1ELin1ELi0ELin1ELin1EEELin1ELi1ELb1EEC2ERS2_l = comdat any

$_ZN5Eigen9BlockImplINS_6MatrixIbLin1ELin1ELi0ELin1ELin1EEELin1ELi1ELb1ENS_5DenseEEC2ERS2_l = comdat any

$_ZN5Eigen8internal15BlockImpl_denseINS_6MatrixIbLin1ELin1ELi0ELin1ELin1EEELin1ELi1ELb1ELb1EEC2ERS3_l = comdat any

$_ZN5Eigen7MapBaseINS_5BlockINS_6MatrixIbLin1ELin1ELi0ELin1ELin1EEELin1ELi1ELb1EEELi1EEC2EPbll = comdat any

$_ZN5Eigen8internal15BlockImpl_denseINS_6MatrixIbLin1ELin1ELi0ELin1ELin1EEELin1ELi1ELb1ELb1EE4initEv = comdat any

$_ZN5Eigen7MapBaseINS_5BlockINS_6MatrixIbLin1ELin1ELi0ELin1ELin1EEELin1ELi1ELb1EEELi0EEC2EPbll = comdat any

$_ZN5Eigen10MatrixBaseINS_5BlockINS_6MatrixIbLin1ELin1ELi0ELin1ELin1EEELin1ELi1ELb1EEEEC2Ev = comdat any

$_ZNK5Eigen7MapBaseINS_5BlockINS_6MatrixIbLin1ELin1ELi0ELin1ELin1EEELin1ELi1ELb1EEELi0EE11checkSanityIS4_EEvNSt9enable_ifIXeqsr8internal6traitsIT_EE9AlignmentLi0EEPvE4typeE = comdat any

$_ZN5Eigen9DenseBaseINS_5BlockINS_6MatrixIbLin1ELin1ELi0ELin1ELin1EEELin1ELi1ELb1EEEEC2Ev = comdat any

$_ZNK5Eigen9DenseBaseINS_5BlockIKNS_6MatrixIbLin1ELin1ELi0ELin1ELin1EEELi1ELin1ELb0EEEE9conjugateEv = comdat any

$_ZNK5Eigen10MatrixBaseINS_5BlockIKNS_6MatrixIbLin1ELin1ELi0ELin1ELin1EEELi1ELin1ELb0EEEE3dotINS1_IKNS1_IS4_Lin1ELi1ELb1EEELin1ELi1ELb1EEEEENS_20ScalarBinaryOpTraitsIbNS_8internal6traitsIT_E6ScalarENSC_17scalar_product_opIbSG_EEE10ReturnTypeERKNS0_ISE_EE = comdat any

$_ZNK5Eigen9DenseBaseINS_5BlockIKNS_6MatrixIbLin1ELin1ELi0ELin1ELin1EEELin1ELi1ELb1EEEE3colEl = comdat any

$_ZN5Eigen7MapBaseINS_5BlockINS_6MatrixIbLin1ELin1ELi0ELin1ELin1EEELin1ELi1ELb1EEELi1EE8coeffRefEll = comdat any

$_ZN5Eigen8internal19gemv_dense_selectorILi2ELi0ELb1EE3runINS_6MatrixIbLin1ELin1ELi0ELin1ELin1EEENS_5BlockIKS5_Lin1ELi1ELb1EEENS6_IS5_Lin1ELi1ELb1EEEEEvRKT_RKT0_RT1_RKNSG_6ScalarE = comdat any

$_ZN5Eigen8internal26default_inner_product_implINS_5BlockIKNS_6MatrixIbLin1ELin1ELi0ELin1ELin1EEELi1ELin1ELb0EEENS2_IKNS2_IS5_Lin1ELi1ELb1EEELin1ELi1ELb1EEELb1EE3runERKNS_10MatrixBaseIS6_EERKNSB_IS9_EE = comdat any

$_ZNK5Eigen9EigenBaseINS_5BlockIKNS1_IKNS_6MatrixIbLin1ELin1ELi0ELin1ELin1EEELin1ELi1ELb1EEELin1ELi1ELb1EEEE7derivedEv = comdat any

$_ZN5Eigen8internal23inner_product_evaluatorINS0_23scalar_inner_product_opIbbLb1EEENS_5BlockIKNS_6MatrixIbLin1ELin1ELi0ELin1ELin1EEELi1ELin1ELb0EEENS4_IKNS4_IS7_Lin1ELi1ELb1EEELin1ELi1ELb1EEEEC2ERKS8_RKSB_S3_ = comdat any

$_ZN5Eigen8internal18inner_product_implINS0_23inner_product_evaluatorINS0_23scalar_inner_product_opIbbLb1EEENS_5BlockIKNS_6MatrixIbLin1ELin1ELi0ELin1ELin1EEELi1ELin1ELb0EEENS5_IKNS5_IS8_Lin1ELi1ELb1EEELin1ELi1ELb1EEEEELb0EE3runERKSD_ = comdat any

$_ZN5Eigen8internal9evaluatorINS_5BlockIKNS_6MatrixIbLin1ELin1ELi0ELin1ELin1EEELi1ELin1ELb0EEEEC2ERKS6_ = comdat any

$_ZN5Eigen8internal9evaluatorINS_5BlockIKNS2_IKNS_6MatrixIbLin1ELin1ELi0ELin1ELin1EEELin1ELi1ELb1EEELin1ELi1ELb1EEEEC2ERKS8_ = comdat any

$_ZNK5Eigen9EigenBaseINS_5BlockIKNS_6MatrixIbLin1ELin1ELi0ELin1ELin1EEELi1ELin1ELb0EEEE4sizeEv = comdat any

$_ZN5Eigen8internal20inner_product_assertINS_5BlockIKNS_6MatrixIbLin1ELin1ELi0ELin1ELin1EEELi1ELin1ELb0EEENS2_IKNS2_IS5_Lin1ELi1ELb1EEELin1ELi1ELb1EEEE3runERKS6_RKS9_ = comdat any

$_ZN5Eigen8internal15block_evaluatorIKNS_5BlockIKNS_6MatrixIbLin1ELin1ELi0ELin1ELin1EEELin1ELi1ELb1EEELin1ELi1ELb1ELb1EEC2ERKNS2_IS7_Lin1ELi1ELb1EEE = comdat any

$_ZN5Eigen8internal17mapbase_evaluatorINS_5BlockIKNS2_IKNS_6MatrixIbLin1ELin1ELi0ELin1ELin1EEELin1ELi1ELb1EEELin1ELi1ELb1EEENS3_IbLin1ELi1ELi0ELin1ELi1EEEEC2ERKS8_ = comdat any

$_ZNK5Eigen7MapBaseINS_5BlockIKNS1_IKNS_6MatrixIbLin1ELin1ELi0ELin1ELin1EEELin1ELi1ELb1EEELin1ELi1ELb1EEELi0EE4dataEv = comdat any

$_ZN5Eigen8internal14plain_enum_maxIiNS0_9evaluatorINS_5BlockIKNS3_IKNS_6MatrixIbLin1ELin1ELi0ELin1ELin1EEELin1ELi1ELb1EEELin1ELi1ELb1EEEEUt_EEEiT_T0_ = comdat any

$_ZNK5Eigen8internal15BlockImpl_denseIKNS_5BlockIKNS_6MatrixIbLin1ELin1ELi0ELin1ELin1EEELin1ELi1ELb1EEELin1ELi1ELb1ELb1EE11innerStrideEv = comdat any

$_ZNK5Eigen8internal15BlockImpl_denseIKNS_5BlockIKNS_6MatrixIbLin1ELin1ELi0ELin1ELin1EEELin1ELi1ELb1EEELin1ELi1ELb1ELb1EE11outerStrideEv = comdat any

$_ZN5Eigen8internal18plain_enum_assertsIiNS0_9evaluatorINS_5BlockIKNS3_IKNS_6MatrixIbLin1ELin1ELi0ELin1ELin1EEELin1ELi1ELb1EEELin1ELi1ELb1EEEEUt_EEEvT_T0_ = comdat any

$_ZNK5Eigen9EigenBaseINS_5BlockIKNS_6MatrixIbLin1ELin1ELi0ELin1ELin1EEELi1ELin1ELb0EEEE4rowsEv = comdat any

$_ZNK5Eigen9EigenBaseINS_5BlockIKNS_6MatrixIbLin1ELin1ELi0ELin1ELin1EEELi1ELin1ELb0EEEE4colsEv = comdat any

$_ZNK5Eigen9EigenBaseINS_5BlockIKNS1_IKNS_6MatrixIbLin1ELin1ELi0ELin1ELin1EEELin1ELi1ELb1EEELin1ELi1ELb1EEEE4sizeEv = comdat any

$_ZNK5Eigen9EigenBaseINS_5BlockIKNS1_IKNS_6MatrixIbLin1ELin1ELi0ELin1ELin1EEELin1ELi1ELb1EEELin1ELi1ELb1EEEE4rowsEv = comdat any

$_ZNK5Eigen9EigenBaseINS_5BlockIKNS1_IKNS_6MatrixIbLin1ELin1ELi0ELin1ELin1EEELin1ELi1ELb1EEELin1ELi1ELb1EEEE4colsEv = comdat any

$_ZNK5Eigen7MapBaseINS_5BlockIKNS1_IKNS_6MatrixIbLin1ELin1ELi0ELin1ELin1EEELin1ELi1ELb1EEELin1ELi1ELb1EEELi0EE4rowsEv = comdat any

$_ZNK5Eigen7MapBaseINS_5BlockIKNS1_IKNS_6MatrixIbLin1ELin1ELi0ELin1ELin1EEELin1ELi1ELb1EEELin1ELi1ELb1EEELi0EE4colsEv = comdat any

$_ZNK5Eigen8internal23inner_product_evaluatorINS0_23scalar_inner_product_opIbbLb1EEENS_5BlockIKNS_6MatrixIbLin1ELin1ELi0ELin1ELin1EEELi1ELin1ELb0EEENS4_IKNS4_IS7_Lin1ELi1ELb1EEELin1ELi1ELb1EEEE4sizeEv = comdat any

$_ZNK5Eigen8internal23inner_product_evaluatorINS0_23scalar_inner_product_opIbbLb1EEENS_5BlockIKNS_6MatrixIbLin1ELin1ELi0ELin1ELin1EEELi1ELin1ELb0EEENS4_IKNS4_IS7_Lin1ELi1ELb1EEELin1ELi1ELb1EEEE5coeffEl = comdat any

$_ZNK5Eigen8internal23inner_product_evaluatorINS0_23scalar_inner_product_opIbbLb1EEENS_5BlockIKNS_6MatrixIbLin1ELin1ELi0ELin1ELin1EEELi1ELin1ELb0EEENS4_IKNS4_IS7_Lin1ELi1ELb1EEELin1ELi1ELb1EEEE5coeffERKbl = comdat any

$_ZNK5Eigen8internal23scalar_inner_product_opIbbLb1EE5coeffERKbS4_ = comdat any

$_ZNK5Eigen8internal17mapbase_evaluatorINS_5BlockIKNS2_IKNS_6MatrixIbLin1ELin1ELi0ELin1ELin1EEELin1ELi1ELb1EEELin1ELi1ELb1EEENS3_IbLin1ELi1ELi0ELin1ELi1EEEE5coeffEl = comdat any

$_ZN5Eigen8internal4pmulIbEET_RKS2_S4_ = comdat any

$_ZN5Eigen8internal16conditional_conjIbLb1EE5coeffERKb = comdat any

$_ZN5Eigen6numext4conjIbEENS_8internal11conj_retvalINS2_36global_math_functions_filtering_baseIT_vE4typeEE4typeERKS5_ = comdat any

$_ZN5Eigen8internal17conj_default_implIbLb0EE3runERKb = comdat any

$_ZNK5Eigen8internal23scalar_inner_product_opIbbLb1EE5coeffERKbS4_S4_ = comdat any

$_ZN5Eigen8internal5pmaddIbEET_RKS2_S4_S4_ = comdat any

$_ZN5Eigen8internal4paddIbEET_RKS2_S4_ = comdat any

$_ZN5Eigen5BlockIKNS0_IKNS_6MatrixIbLin1ELin1ELi0ELin1ELin1EEELin1ELi1ELb1EEELin1ELi1ELb1EEC2ERS5_l = comdat any

$_ZN5Eigen9BlockImplIKNS_5BlockIKNS_6MatrixIbLin1ELin1ELi0ELin1ELin1EEELin1ELi1ELb1EEELin1ELi1ELb1ENS_5DenseEEC2ERS6_l = comdat any

$_ZN5Eigen8internal15BlockImpl_denseIKNS_5BlockIKNS_6MatrixIbLin1ELin1ELi0ELin1ELin1EEELin1ELi1ELb1EEELin1ELi1ELb1ELb1EEC2ERS7_l = comdat any

$_ZN5Eigen7MapBaseINS_5BlockIKNS1_IKNS_6MatrixIbLin1ELin1ELi0ELin1ELin1EEELin1ELi1ELb1EEELin1ELi1ELb1EEELi0EEC2EPKbll = comdat any

$_ZN5Eigen8internal19variable_if_dynamicIlLi0EEC2El = comdat any

$_ZN5Eigen8internal15BlockImpl_denseIKNS_5BlockIKNS_6MatrixIbLin1ELin1ELi0ELin1ELin1EEELin1ELi1ELb1EEELin1ELi1ELb1ELb1EE4initEv = comdat any

$_ZN5Eigen10MatrixBaseINS_5BlockIKNS1_IKNS_6MatrixIbLin1ELin1ELi0ELin1ELin1EEELin1ELi1ELb1EEELin1ELi1ELb1EEEEC2Ev = comdat any

$_ZNK5Eigen7MapBaseINS_5BlockIKNS1_IKNS_6MatrixIbLin1ELin1ELi0ELin1ELin1EEELin1ELi1ELb1EEELin1ELi1ELb1EEELi0EE11checkSanityIS7_EEvNSt9enable_ifIXeqsr8internal6traitsIT_EE9AlignmentLi0EEPvE4typeE = comdat any

$_ZN5Eigen9DenseBaseINS_5BlockIKNS1_IKNS_6MatrixIbLin1ELin1ELi0ELin1ELin1EEELin1ELi1ELb1EEELin1ELi1ELb1EEEEC2Ev = comdat any

$_ZNK5Eigen15DenseCoeffsBaseINS_5BlockINS_6MatrixIbLin1ELin1ELi0ELin1ELin1EEELin1ELi1ELb1EEELi3EE9colStrideEv = comdat any

$_ZNK5Eigen15DenseCoeffsBaseINS_5BlockINS_6MatrixIbLin1ELin1ELi0ELin1ELin1EEELin1ELi1ELb1EEELi3EE9rowStrideEv = comdat any

$_ZNK5Eigen15DenseCoeffsBaseINS_5BlockINS_6MatrixIbLin1ELin1ELi0ELin1ELin1EEELin1ELi1ELb1EEELi3EE11outerStrideEv = comdat any

$_ZNK5Eigen9EigenBaseINS_5BlockINS_6MatrixIbLin1ELin1ELi0ELin1ELin1EEELin1ELi1ELb1EEEE7derivedEv = comdat any

$_ZNK5Eigen8internal15BlockImpl_denseINS_6MatrixIbLin1ELin1ELi0ELin1ELin1EEELin1ELi1ELb1ELb1EE11outerStrideEv = comdat any

$_ZNK5Eigen15DenseCoeffsBaseINS_5BlockINS_6MatrixIbLin1ELin1ELi0ELin1ELin1EEELin1ELi1ELb1EEELi3EE11innerStrideEv = comdat any

$_ZNK5Eigen8internal15BlockImpl_denseINS_6MatrixIbLin1ELin1ELi0ELin1ELin1EEELin1ELi1ELb1ELb1EE11innerStrideEv = comdat any

$_ZN5Eigen8internal11blas_traitsINS_5BlockIKNS_6MatrixIbLin1ELin1ELi0ELin1ELin1EEELin1ELi1ELb1EEEE7extractERKS6_ = comdat any

$_ZN5Eigen8internal10get_factorIbbE3runERKb = comdat any

$_ZN5Eigen8internal29general_matrix_vector_productIlbNS0_22const_blas_data_mapperIblLi0EEELi0ELb0EbNS2_IblLi1EEELb0ELi0EE3runEllRKS3_RKS4_Pblb = comdat any

$_ZN5Eigen7MapBaseINS_5BlockINS_6MatrixIbLin1ELin1ELi0ELin1ELin1EEELin1ELi1ELb1EEELi1EE4dataEv = comdat any

$_ZN5Eigen8internal11blas_traitsINS_5BlockIKNS_6MatrixIbLin1ELin1ELi0ELin1ELin1EEELin1ELi1ELb1EEEE19extractScalarFactorERKS6_ = comdat any

$_ZN5Eigen6numext4realIbEENS_8internal11real_retvalINS2_36global_math_functions_filtering_baseIT_vE4typeEE4typeERKS5_ = comdat any

$_ZN5Eigen8internal17real_default_implIbLb0EE3runERKb = comdat any

$_ZN5Eigen8internal22ignore_unused_variableIlEEvRKT_ = comdat any

$_ZNK5Eigen8internal16blas_data_mapperIKblLi0ELi0ELi1EE6strideEv = comdat any

$_ZNK5Eigen8internal11conj_helperINS0_20eigen_packet_wrapperIDv2_xLi1EEES4_Lb0ELb0EE5pmaddERKS4_S7_S7_ = comdat any

$_ZN5Eigen8internal7pstoreuIbNS0_20eigen_packet_wrapperIDv2_xLi1EEEEEvPT_RKT0_ = comdat any

$_ZNK5Eigen8internal11conj_helperIbbLb0ELb0EE4pmulERKbS4_ = comdat any

$_ZNK5Eigen8internal7conj_ifILb0EE5pconjINS0_20eigen_packet_wrapperIDv2_xLi1EEEEERKT_S9_ = comdat any

$_ZNK5Eigen8internal7conj_ifILb0EE5pconjIbEERKT_S6_ = comdat any

$_ZN5Eigen5BlockINS_6MatrixIbLin1ELin1ELi0ELin1ELin1EEELi1ELin1ELb0EEC2ERS2_l = comdat any

$_ZN5Eigen9BlockImplINS_6MatrixIbLin1ELin1ELi0ELin1ELin1EEELi1ELin1ELb0ENS_5DenseEEC2ERS2_l = comdat any

$_ZN5Eigen8internal15BlockImpl_denseINS_6MatrixIbLin1ELin1ELi0ELin1ELin1EEELi1ELin1ELb0ELb1EEC2ERS3_l = comdat any

$_ZN5Eigen7MapBaseINS_5BlockINS_6MatrixIbLin1ELin1ELi0ELin1ELin1EEELi1ELin1ELb0EEELi1EEC2EPbll = comdat any

$_ZN5Eigen8internal15BlockImpl_denseINS_6MatrixIbLin1ELin1ELi0ELin1ELin1EEELi1ELin1ELb0ELb1EE4initEv = comdat any

$_ZN5Eigen7MapBaseINS_5BlockINS_6MatrixIbLin1ELin1ELi0ELin1ELin1EEELi1ELin1ELb0EEELi0EEC2EPbll = comdat any

$_ZN5Eigen10MatrixBaseINS_5BlockINS_6MatrixIbLin1ELin1ELi0ELin1ELin1EEELi1ELin1ELb0EEEEC2Ev = comdat any

$_ZNK5Eigen7MapBaseINS_5BlockINS_6MatrixIbLin1ELin1ELi0ELin1ELin1EEELi1ELin1ELb0EEELi0EE11checkSanityIS4_EEvNSt9enable_ifIXeqsr8internal6traitsIT_EE9AlignmentLi0EEPvE4typeE = comdat any

$_ZN5Eigen9DenseBaseINS_5BlockINS_6MatrixIbLin1ELin1ELi0ELin1ELin1EEELi1ELin1ELb0EEEEC2Ev = comdat any

$_ZNK5Eigen9DenseBaseINS_5BlockIKNS_6MatrixIbLin1ELin1ELi0ELin1ELin1EEELi1ELin1ELb0EEEE3rowEl = comdat any

$_ZNK5Eigen9DenseBaseINS_5BlockIKNS1_IKNS_6MatrixIbLin1ELin1ELi0ELin1ELin1EEELi1ELin1ELb0EEELi1ELin1ELb1EEEE9conjugateEv = comdat any

$_ZNK5Eigen10MatrixBaseINS_5BlockIKNS1_IKNS_6MatrixIbLin1ELin1ELi0ELin1ELin1EEELi1ELin1ELb0EEELi1ELin1ELb1EEEE3dotINS1_IS4_Lin1ELi1ELb1EEEEENS_20ScalarBinaryOpTraitsIbNS_8internal6traitsIT_E6ScalarENSC_17scalar_product_opIbSG_EEE10ReturnTypeERKNS0_ISE_EE = comdat any

$_ZN5Eigen7MapBaseINS_5BlockINS_6MatrixIbLin1ELin1ELi0ELin1ELin1EEELi1ELin1ELb0EEELi1EE8coeffRefEll = comdat any

$_ZN5Eigen8internal19gemv_dense_selectorILi1ELi0ELb1EE3runINS_5BlockIKNS_6MatrixIbLin1ELin1ELi0ELin1ELin1EEELi1ELin1ELb0EEES6_NS4_IS6_Li1ELin1ELb0EEEEEvRKT_RKT0_RT1_RKNSG_6ScalarE = comdat any

$_ZN5Eigen5BlockIKNS0_IKNS_6MatrixIbLin1ELin1ELi0ELin1ELin1EEELi1ELin1ELb0EEELi1ELin1ELb1EEC2ERS5_l = comdat any

$_ZN5Eigen9BlockImplIKNS_5BlockIKNS_6MatrixIbLin1ELin1ELi0ELin1ELin1EEELi1ELin1ELb0EEELi1ELin1ELb1ENS_5DenseEEC2ERS6_l = comdat any

$_ZN5Eigen8internal15BlockImpl_denseIKNS_5BlockIKNS_6MatrixIbLin1ELin1ELi0ELin1ELin1EEELi1ELin1ELb0EEELi1ELin1ELb1ELb1EEC2ERS7_l = comdat any

$_ZN5Eigen7MapBaseINS_5BlockIKNS1_IKNS_6MatrixIbLin1ELin1ELi0ELin1ELin1EEELi1ELin1ELb0EEELi1ELin1ELb1EEELi0EEC2EPKbll = comdat any

$_ZN5Eigen8internal15BlockImpl_denseIKNS_5BlockIKNS_6MatrixIbLin1ELin1ELi0ELin1ELin1EEELi1ELin1ELb0EEELi1ELin1ELb1ELb1EE4initEv = comdat any

$_ZN5Eigen10MatrixBaseINS_5BlockIKNS1_IKNS_6MatrixIbLin1ELin1ELi0ELin1ELin1EEELi1ELin1ELb0EEELi1ELin1ELb1EEEEC2Ev = comdat any

$_ZNK5Eigen7MapBaseINS_5BlockIKNS1_IKNS_6MatrixIbLin1ELin1ELi0ELin1ELin1EEELi1ELin1ELb0EEELi1ELin1ELb1EEELi0EE11checkSanityIS7_EEvNSt9enable_ifIXeqsr8internal6traitsIT_EE9AlignmentLi0EEPvE4typeE = comdat any

$_ZN5Eigen9DenseBaseINS_5BlockIKNS1_IKNS_6MatrixIbLin1ELin1ELi0ELin1ELin1EEELi1ELin1ELb0EEELi1ELin1ELb1EEEEC2Ev = comdat any

$_ZNK5Eigen9EigenBaseINS_5BlockIKNS1_IKNS_6MatrixIbLin1ELin1ELi0ELin1ELin1EEELi1ELin1ELb0EEELi1ELin1ELb1EEEE7derivedEv = comdat any

$_ZN5Eigen8internal26default_inner_product_implINS_5BlockIKNS2_IKNS_6MatrixIbLin1ELin1ELi0ELin1ELin1EEELi1ELin1ELb0EEELi1ELin1ELb1EEENS2_IS5_Lin1ELi1ELb1EEELb1EE3runERKNS_10MatrixBaseIS8_EERKNSB_IS9_EE = comdat any

$_ZN5Eigen8internal23inner_product_evaluatorINS0_23scalar_inner_product_opIbbLb1EEENS_5BlockIKNS4_IKNS_6MatrixIbLin1ELin1ELi0ELin1ELin1EEELi1ELin1ELb0EEELi1ELin1ELb1EEENS4_IS7_Lin1ELi1ELb1EEEEC2ERKSA_RKSB_S3_ = comdat any

$_ZN5Eigen8internal18inner_product_implINS0_23inner_product_evaluatorINS0_23scalar_inner_product_opIbbLb1EEENS_5BlockIKNS5_IKNS_6MatrixIbLin1ELin1ELi0ELin1ELin1EEELi1ELin1ELb0EEELi1ELin1ELb1EEENS5_IS8_Lin1ELi1ELb1EEEEELb0EE3runERKSD_ = comdat any

$_ZN5Eigen8internal9evaluatorINS_5BlockIKNS2_IKNS_6MatrixIbLin1ELin1ELi0ELin1ELin1EEELi1ELin1ELb0EEELi1ELin1ELb1EEEEC2ERKS8_ = comdat any

$_ZN5Eigen8internal9evaluatorINS_5BlockIKNS_6MatrixIbLin1ELin1ELi0ELin1ELin1EEELin1ELi1ELb1EEEEC2ERKS6_ = comdat any

$_ZNK5Eigen9EigenBaseINS_5BlockIKNS1_IKNS_6MatrixIbLin1ELin1ELi0ELin1ELin1EEELi1ELin1ELb0EEELi1ELin1ELb1EEEE4sizeEv = comdat any

$_ZN5Eigen8internal20inner_product_assertINS_5BlockIKNS2_IKNS_6MatrixIbLin1ELin1ELi0ELin1ELin1EEELi1ELin1ELb0EEELi1ELin1ELb1EEENS2_IS5_Lin1ELi1ELb1EEEE3runERKS8_RKS9_ = comdat any

$_ZN5Eigen8internal15block_evaluatorIKNS_5BlockIKNS_6MatrixIbLin1ELin1ELi0ELin1ELin1EEELi1ELin1ELb0EEELi1ELin1ELb1ELb1EEC2ERKNS2_IS7_Li1ELin1ELb1EEE = comdat any

$_ZN5Eigen8internal17mapbase_evaluatorINS_5BlockIKNS2_IKNS_6MatrixIbLin1ELin1ELi0ELin1ELin1EEELi1ELin1ELb0EEELi1ELin1ELb1EEENS3_IbLi1ELin1ELi1ELi1ELin1EEEEC2ERKS8_ = comdat any

$_ZNK5Eigen7MapBaseINS_5BlockIKNS1_IKNS_6MatrixIbLin1ELin1ELi0ELin1ELin1EEELi1ELin1ELb0EEELi1ELin1ELb1EEELi0EE4dataEv = comdat any

$_ZN5Eigen8internal14plain_enum_maxIiNS0_9evaluatorINS_5BlockIKNS3_IKNS_6MatrixIbLin1ELin1ELi0ELin1ELin1EEELi1ELin1ELb0EEELi1ELin1ELb1EEEEUt_EEEiT_T0_ = comdat any

$_ZNK5Eigen8internal15BlockImpl_denseIKNS_5BlockIKNS_6MatrixIbLin1ELin1ELi0ELin1ELin1EEELi1ELin1ELb0EEELi1ELin1ELb1ELb1EE11innerStrideEv = comdat any

$_ZNK5Eigen8internal15BlockImpl_denseIKNS_5BlockIKNS_6MatrixIbLin1ELin1ELi0ELin1ELin1EEELi1ELin1ELb0EEELi1ELin1ELb1ELb1EE11outerStrideEv = comdat any

$_ZN5Eigen8internal18plain_enum_assertsIiNS0_9evaluatorINS_5BlockIKNS3_IKNS_6MatrixIbLin1ELin1ELi0ELin1ELin1EEELi1ELin1ELb0EEELi1ELin1ELb1EEEEUt_EEEvT_T0_ = comdat any

$_ZNK5Eigen9EigenBaseINS_5BlockIKNS1_IKNS_6MatrixIbLin1ELin1ELi0ELin1ELin1EEELi1ELin1ELb0EEELi1ELin1ELb1EEEE4rowsEv = comdat any

$_ZNK5Eigen9EigenBaseINS_5BlockIKNS1_IKNS_6MatrixIbLin1ELin1ELi0ELin1ELin1EEELi1ELin1ELb0EEELi1ELin1ELb1EEEE4colsEv = comdat any

$_ZNK5Eigen7MapBaseINS_5BlockIKNS1_IKNS_6MatrixIbLin1ELin1ELi0ELin1ELin1EEELi1ELin1ELb0EEELi1ELin1ELb1EEELi0EE4rowsEv = comdat any

$_ZNK5Eigen7MapBaseINS_5BlockIKNS1_IKNS_6MatrixIbLin1ELin1ELi0ELin1ELin1EEELi1ELin1ELb0EEELi1ELin1ELb1EEELi0EE4colsEv = comdat any

$_ZNK5Eigen9EigenBaseINS_5BlockIKNS_6MatrixIbLin1ELin1ELi0ELin1ELin1EEELin1ELi1ELb1EEEE4sizeEv = comdat any

$_ZNK5Eigen9EigenBaseINS_5BlockIKNS_6MatrixIbLin1ELin1ELi0ELin1ELin1EEELin1ELi1ELb1EEEE4rowsEv = comdat any

$_ZNK5Eigen9EigenBaseINS_5BlockIKNS_6MatrixIbLin1ELin1ELi0ELin1ELin1EEELin1ELi1ELb1EEEE4colsEv = comdat any

$_ZNK5Eigen8internal23inner_product_evaluatorINS0_23scalar_inner_product_opIbbLb1EEENS_5BlockIKNS4_IKNS_6MatrixIbLin1ELin1ELi0ELin1ELin1EEELi1ELin1ELb0EEELi1ELin1ELb1EEENS4_IS7_Lin1ELi1ELb1EEEE4sizeEv = comdat any

$_ZNK5Eigen8internal23inner_product_evaluatorINS0_23scalar_inner_product_opIbbLb1EEENS_5BlockIKNS4_IKNS_6MatrixIbLin1ELin1ELi0ELin1ELin1EEELi1ELin1ELb0EEELi1ELin1ELb1EEENS4_IS7_Lin1ELi1ELb1EEEE5coeffEl = comdat any

$_ZNK5Eigen8internal23inner_product_evaluatorINS0_23scalar_inner_product_opIbbLb1EEENS_5BlockIKNS4_IKNS_6MatrixIbLin1ELin1ELi0ELin1ELin1EEELi1ELin1ELb0EEELi1ELin1ELb1EEENS4_IS7_Lin1ELi1ELb1EEEE5coeffERKbl = comdat any

$_ZNK5Eigen8internal17mapbase_evaluatorINS_5BlockIKNS2_IKNS_6MatrixIbLin1ELin1ELi0ELin1ELin1EEELi1ELin1ELb0EEELi1ELin1ELb1EEENS3_IbLi1ELin1ELi1ELi1ELin1EEEE5coeffEl = comdat any

$_ZNK5Eigen15DenseCoeffsBaseINS_5BlockINS_6MatrixIbLin1ELin1ELi0ELin1ELin1EEELi1ELin1ELb0EEELi3EE9colStrideEv = comdat any

$_ZNK5Eigen15DenseCoeffsBaseINS_5BlockINS_6MatrixIbLin1ELin1ELi0ELin1ELin1EEELi1ELin1ELb0EEELi3EE9rowStrideEv = comdat any

$_ZNK5Eigen15DenseCoeffsBaseINS_5BlockINS_6MatrixIbLin1ELin1ELi0ELin1ELin1EEELi1ELin1ELb0EEELi3EE11innerStrideEv = comdat any

$_ZNK5Eigen9EigenBaseINS_5BlockINS_6MatrixIbLin1ELin1ELi0ELin1ELin1EEELi1ELin1ELb0EEEE7derivedEv = comdat any

$_ZNK5Eigen8internal15BlockImpl_denseINS_6MatrixIbLin1ELin1ELi0ELin1ELin1EEELi1ELin1ELb0ELb1EE11innerStrideEv = comdat any

$_ZNK5Eigen15DenseCoeffsBaseINS_5BlockINS_6MatrixIbLin1ELin1ELi0ELin1ELin1EEELi1ELin1ELb0EEELi3EE11outerStrideEv = comdat any

$_ZNK5Eigen8internal15BlockImpl_denseINS_6MatrixIbLin1ELin1ELi0ELin1ELin1EEELi1ELin1ELb0ELb1EE11outerStrideEv = comdat any

$_ZN5Eigen9TransposeINS_5BlockINS_6MatrixIbLin1ELin1ELi0ELin1ELin1EEELi1ELin1ELb0EEEEC2ERS4_ = comdat any

$_ZN5Eigen8internal19gemv_dense_selectorILi2ELi1ELb1EE3runINS_9TransposeIKNS_6MatrixIbLin1ELin1ELi0ELin1ELin1EEEEENS4_IKNS_5BlockIS7_Li1ELin1ELb0EEEEENS4_INS9_IS6_Li1ELin1ELb0EEEEEEEvRKT_RKT0_RT1_RKNSL_6ScalarE = comdat any

$_ZNK5Eigen9DenseBaseINS_6MatrixIbLin1ELin1ELi0ELin1ELin1EEEE9transposeEv = comdat any

$_ZN5Eigen13TransposeImplINS_5BlockINS_6MatrixIbLin1ELin1ELi0ELin1ELin1EEELi1ELin1ELb0EEENS_5DenseEEC2Ev = comdat any

$_ZN5Eigen10MatrixBaseINS_9TransposeINS_5BlockINS_6MatrixIbLin1ELin1ELi0ELin1ELin1EEELi1ELin1ELb0EEEEEEC2Ev = comdat any

$_ZN5Eigen9DenseBaseINS_9TransposeINS_5BlockINS_6MatrixIbLin1ELin1ELi0ELin1ELin1EEELi1ELin1ELb0EEEEEEC2Ev = comdat any

$_ZN5Eigen8internal11blas_traitsINS_9TransposeIKNS_6MatrixIbLin1ELin1ELi0ELin1ELin1EEEEEE7extractERKS6_ = comdat any

$_ZN5Eigen8internal11blas_traitsINS_9TransposeIKNS_5BlockIKNS_6MatrixIbLin1ELin1ELi0ELin1ELin1EEELi1ELin1ELb0EEEEEE7extractERKS9_ = comdat any

$_ZNK5Eigen9EigenBaseINS_9TransposeIKNS_5BlockIKNS_6MatrixIbLin1ELin1ELi0ELin1ELin1EEELi1ELin1ELb0EEEEEE4sizeEv = comdat any

$_ZN5Eigen8internal28aligned_stack_memory_handlerIbEC2EPbmb = comdat any

$_ZN5Eigen6StrideILi0ELi0EEC2Ev = comdat any

$_ZN5Eigen3MapINS_6MatrixIbLin1ELi1ELi0ELin1ELi1EEELi0ENS_6StrideILi0ELi0EEEEC2EPblRKS4_ = comdat any

$_ZN5Eigen3MapINS_6MatrixIbLin1ELi1ELi0ELin1ELi1EEELi0ENS_6StrideILi0ELi0EEEEaSINS_9TransposeIKNS_5BlockIKNS1_IbLin1ELin1ELi0ELin1ELin1EEELi1ELin1ELb0EEEEEEERS5_RKNS_9DenseBaseIT_EE = comdat any

$_ZN5Eigen8internal29general_matrix_vector_productIlbNS0_22const_blas_data_mapperIblLi1EEELi1ELb0EbNS2_IblLi0EEELb0ELi0EE3runEllRKS3_RKS4_Pblb = comdat any

$_ZNK5Eigen9TransposeIKNS_6MatrixIbLin1ELin1ELi0ELin1ELin1EEEE4rowsEv = comdat any

$_ZNK5Eigen9TransposeIKNS_6MatrixIbLin1ELin1ELi0ELin1ELin1EEEE4colsEv = comdat any

$_ZNK5Eigen13TransposeImplIKNS_6MatrixIbLin1ELin1ELi0ELin1ELin1EEENS_5DenseEE4dataEv = comdat any

$_ZNK5Eigen13TransposeImplIKNS_6MatrixIbLin1ELin1ELi0ELin1ELin1EEENS_5DenseEE11outerStrideEv = comdat any

$_ZN5Eigen13TransposeImplINS_5BlockINS_6MatrixIbLin1ELin1ELi0ELin1ELin1EEELi1ELin1ELb0EEENS_5DenseEE4dataEv = comdat any

$_ZN5Eigen9DenseBaseINS_9TransposeINS_5BlockINS_6MatrixIbLin1ELin1ELi0ELin1ELin1EEELi1ELin1ELb0EEEEEE3colEl = comdat any

$_ZNK5Eigen8internal15BlockImpl_denseINS_9TransposeINS_5BlockINS_6MatrixIbLin1ELin1ELi0ELin1ELin1EEELi1ELin1ELb0EEEEELin1ELi1ELb1ELb1EE11innerStrideEv = comdat any

$_ZN5Eigen8internal28aligned_stack_memory_handlerIbED2Ev = comdat any

$_ZNK5Eigen9TransposeIKNS_6MatrixIbLin1ELin1ELi0ELin1ELin1EEEE16nestedExpressionEv = comdat any

$_ZN5Eigen9TransposeIKNS_6MatrixIbLin1ELin1ELi0ELin1ELin1EEEEC2ERS3_ = comdat any

$_ZN5Eigen13TransposeImplIKNS_6MatrixIbLin1ELin1ELi0ELin1ELin1EEENS_5DenseEEC2Ev = comdat any

$_ZN5Eigen10MatrixBaseINS_9TransposeIKNS_6MatrixIbLin1ELin1ELi0ELin1ELin1EEEEEEC2Ev = comdat any

$_ZN5Eigen9DenseBaseINS_9TransposeIKNS_6MatrixIbLin1ELin1ELi0ELin1ELin1EEEEEEC2Ev = comdat any

$_ZN5Eigen8internal11blas_traitsINS_5BlockIKNS_6MatrixIbLin1ELin1ELi0ELin1ELin1EEELi1ELin1ELb0EEEE7extractERKS6_ = comdat any

$_ZN5Eigen8internal11blas_traitsINS_9TransposeIKNS_6MatrixIbLin1ELin1ELi0ELin1ELin1EEEEEE19extractScalarFactorERKS6_ = comdat any

$_ZN5Eigen8internal11blas_traitsINS_9TransposeIKNS_5BlockIKNS_6MatrixIbLin1ELin1ELi0ELin1ELin1EEELi1ELin1ELb0EEEEEE19extractScalarFactorERKS9_ = comdat any

$_ZN5Eigen8internal11blas_traitsINS_5BlockIKNS_6MatrixIbLin1ELin1ELi0ELin1ELin1EEELi1ELin1ELb0EEEE19extractScalarFactorERKS6_ = comdat any

$_ZNK5Eigen9EigenBaseINS_9TransposeIKNS_5BlockIKNS_6MatrixIbLin1ELin1ELi0ELin1ELin1EEELi1ELin1ELb0EEEEEE4rowsEv = comdat any

$_ZNK5Eigen9EigenBaseINS_9TransposeIKNS_5BlockIKNS_6MatrixIbLin1ELin1ELi0ELin1ELin1EEELi1ELin1ELb0EEEEEE4colsEv = comdat any

$_ZN5Eigen8internal11noncopyableC2Ev = comdat any

$_ZN5Eigen3MapINS_6MatrixIbLin1ELi1ELi0ELin1ELi1EEELi0ENS_6StrideILi0ELi0EEEE20cast_to_pointer_typeEPb = comdat any

$_ZN5Eigen7MapBaseINS_3MapINS_6MatrixIbLin1ELi1ELi0ELin1ELi1EEELi0ENS_6StrideILi0ELi0EEEEELi1EEC2EPbl = comdat any

$_ZN5Eigen6StrideILi0ELi0EEC2ERKS1_ = comdat any

$_ZN5Eigen7MapBaseINS_3MapINS_6MatrixIbLin1ELi1ELi0ELin1ELi1EEELi0ENS_6StrideILi0ELi0EEEEELi0EEC2EPbl = comdat any

$_ZN5Eigen10MatrixBaseINS_3MapINS_6MatrixIbLin1ELi1ELi0ELin1ELi1EEELi0ENS_6StrideILi0ELi0EEEEEEC2Ev = comdat any

$_ZNK5Eigen7MapBaseINS_3MapINS_6MatrixIbLin1ELi1ELi0ELin1ELi1EEELi0ENS_6StrideILi0ELi0EEEEELi0EE11checkSanityIS6_EEvNSt9enable_ifIXeqsr8internal6traitsIT_EE9AlignmentLi0EEPvE4typeE = comdat any

$_ZN5Eigen9DenseBaseINS_3MapINS_6MatrixIbLin1ELi1ELi0ELin1ELi1EEELi0ENS_6StrideILi0ELi0EEEEEEC2Ev = comdat any

$_ZNK5Eigen6StrideILi0ELi0EE5outerEv = comdat any

$_ZNK5Eigen6StrideILi0ELi0EE5innerEv = comdat any

$_ZN5Eigen8internal19variable_if_dynamicIlLi0EE5valueEv = comdat any

$_ZN5Eigen10MatrixBaseINS_3MapINS_6MatrixIbLin1ELi1ELi0ELin1ELi1EEELi0ENS_6StrideILi0ELi0EEEEEEaSINS_9TransposeIKNS_5BlockIKNS2_IbLin1ELin1ELi0ELin1ELin1EEELi1ELin1ELb0EEEEEEERS6_RKNS_9DenseBaseIT_EE = comdat any

$_ZN5Eigen8internal15call_assignmentINS_3MapINS_6MatrixIbLin1ELi1ELi0ELin1ELi1EEELi0ENS_6StrideILi0ELi0EEEEENS_9TransposeIKNS_5BlockIKNS3_IbLin1ELin1ELi0ELin1ELin1EEELi1ELin1ELb0EEEEEEEvRT_RKT0_ = comdat any

$_ZN5Eigen9EigenBaseINS_3MapINS_6MatrixIbLin1ELi1ELi0ELin1ELi1EEELi0ENS_6StrideILi0ELi0EEEEEE7derivedEv = comdat any

$_ZN5Eigen8internal15call_assignmentINS_3MapINS_6MatrixIbLin1ELi1ELi0ELin1ELi1EEELi0ENS_6StrideILi0ELi0EEEEENS_9TransposeIKNS_5BlockIKNS3_IbLin1ELin1ELi0ELin1ELin1EEELi1ELin1ELb0EEEEENS0_9assign_opIbbEEEEvRT_RKT0_RKT1_NSt9enable_ifIXntsr25evaluator_assume_aliasingISJ_EE5valueEPvE4typeE = comdat any

$_ZN5Eigen8internal24call_assignment_no_aliasINS_3MapINS_6MatrixIbLin1ELi1ELi0ELin1ELi1EEELi0ENS_6StrideILi0ELi0EEEEENS_9TransposeIKNS_5BlockIKNS3_IbLin1ELin1ELi0ELin1ELin1EEELi1ELin1ELb0EEEEENS0_9assign_opIbbEEEEvRT_RKT0_RKT1_ = comdat any

$_ZN5Eigen8internal10AssignmentINS_3MapINS_6MatrixIbLin1ELi1ELi0ELin1ELi1EEELi0ENS_6StrideILi0ELi0EEEEENS_9TransposeIKNS_5BlockIKNS3_IbLin1ELin1ELi0ELin1ELin1EEELi1ELin1ELb0EEEEENS0_9assign_opIbbEENS0_11Dense2DenseEvE3runERS7_RKSE_RKSG_ = comdat any

$_ZN5Eigen8internal18check_for_aliasingINS_3MapINS_6MatrixIbLin1ELi1ELi0ELin1ELi1EEELi0ENS_6StrideILi0ELi0EEEEENS_9TransposeIKNS_5BlockIKNS3_IbLin1ELin1ELi0ELin1ELin1EEELi1ELin1ELb0EEEEEEEvRKT_RKT0_ = comdat any

$_ZN5Eigen8internal26call_dense_assignment_loopINS_3MapINS_6MatrixIbLin1ELi1ELi0ELin1ELi1EEELi0ENS_6StrideILi0ELi0EEEEENS_9TransposeIKNS_5BlockIKNS3_IbLin1ELin1ELi0ELin1ELin1EEELi1ELin1ELb0EEEEENS0_9assign_opIbbEEEEvRT_RKT0_RKT1_ = comdat any

$_ZN5Eigen8internal9evaluatorINS_9TransposeIKNS_5BlockIKNS_6MatrixIbLin1ELin1ELi0ELin1ELin1EEELi1ELin1ELb0EEEEEEC2ERKS9_ = comdat any

$_ZN5Eigen8internal17resize_if_allowedINS_3MapINS_6MatrixIbLin1ELi1ELi0ELin1ELi1EEELi0ENS_6StrideILi0ELi0EEEEENS_9TransposeIKNS_5BlockIKNS3_IbLin1ELin1ELi0ELin1ELin1EEELi1ELin1ELb0EEEEEbbEEvRT_RKT0_RKNS0_9assign_opIT1_T2_EE = comdat any

$_ZN5Eigen8internal9evaluatorINS_3MapINS_6MatrixIbLin1ELi1ELi0ELin1ELi1EEELi0ENS_6StrideILi0ELi0EEEEEEC2ERKS7_ = comdat any

$_ZNK5Eigen9EigenBaseINS_3MapINS_6MatrixIbLin1ELi1ELi0ELin1ELi1EEELi0ENS_6StrideILi0ELi0EEEEEE18const_cast_derivedEv = comdat any

$_ZN5Eigen8internal31generic_dense_assignment_kernelINS0_9evaluatorINS_3MapINS_6MatrixIbLin1ELi1ELi0ELin1ELi1EEELi0ENS_6StrideILi0ELi0EEEEEEENS2_INS_9TransposeIKNS_5BlockIKNS4_IbLin1ELin1ELi0ELin1ELin1EEELi1ELin1ELb0EEEEEEENS0_9assign_opIbbEELi0EEC2ERS9_RKSH_RKSJ_RS8_ = comdat any

$_ZN5Eigen8internal21dense_assignment_loopINS0_31generic_dense_assignment_kernelINS0_9evaluatorINS_3MapINS_6MatrixIbLin1ELi1ELi0ELin1ELi1EEELi0ENS_6StrideILi0ELi0EEEEEEENS3_INS_9TransposeIKNS_5BlockIKNS5_IbLin1ELin1ELi0ELin1ELin1EEELi1ELin1ELb0EEEEEEENS0_9assign_opIbbEELi0EEELi1ELi0EE3runERSL_ = comdat any

$_ZNK5Eigen7MapBaseINS_3MapINS_6MatrixIbLin1ELi1ELi0ELin1ELi1EEELi0ENS_6StrideILi0ELi0EEEEELi0EE4rowsEv = comdat any

$_ZNK5Eigen7MapBaseINS_3MapINS_6MatrixIbLin1ELi1ELi0ELin1ELi1EEELi0ENS_6StrideILi0ELi0EEEEELi0EE4colsEv = comdat any

$_ZN5Eigen9DenseBaseINS_3MapINS_6MatrixIbLin1ELi1ELi0ELin1ELi1EEELi0ENS_6StrideILi0ELi0EEEEEE6resizeEll = comdat any

$_ZNK5Eigen9EigenBaseINS_3MapINS_6MatrixIbLin1ELi1ELi0ELin1ELi1EEELi0ENS_6StrideILi0ELi0EEEEEE4rowsEv = comdat any

$_ZNK5Eigen9EigenBaseINS_3MapINS_6MatrixIbLin1ELi1ELi0ELin1ELi1EEELi0ENS_6StrideILi0ELi0EEEEEE4colsEv = comdat any

$_ZNK5Eigen9EigenBaseINS_3MapINS_6MatrixIbLin1ELi1ELi0ELin1ELi1EEELi0ENS_6StrideILi0ELi0EEEEEE7derivedEv = comdat any

$_ZN5Eigen8internal17mapbase_evaluatorINS_3MapINS_6MatrixIbLin1ELi1ELi0ELin1ELi1EEELi0ENS_6StrideILi0ELi0EEEEES4_EC2ERKS7_ = comdat any

$_ZNK5Eigen7MapBaseINS_3MapINS_6MatrixIbLin1ELi1ELi0ELin1ELi1EEELi0ENS_6StrideILi0ELi0EEEEELi1EE4dataEv = comdat any

$_ZNK5Eigen3MapINS_6MatrixIbLin1ELi1ELi0ELin1ELi1EEELi0ENS_6StrideILi0ELi0EEEE11innerStrideEv = comdat any

$_ZNK5Eigen3MapINS_6MatrixIbLin1ELi1ELi0ELin1ELi1EEELi0ENS_6StrideILi0ELi0EEEE11outerStrideEv = comdat any

$_ZNK5Eigen9EigenBaseINS_3MapINS_6MatrixIbLin1ELi1ELi0ELin1ELi1EEELi0ENS_6StrideILi0ELi0EEEEEE4sizeEv = comdat any

$_ZNK5Eigen8internal31generic_dense_assignment_kernelINS0_9evaluatorINS_3MapINS_6MatrixIbLin1ELi1ELi0ELin1ELi1EEELi0ENS_6StrideILi0ELi0EEEEEEENS2_INS_9TransposeIKNS_5BlockIKNS4_IbLin1ELin1ELi0ELin1ELin1EEELi1ELin1ELb0EEEEEEENS0_9assign_opIbbEELi0EE4sizeEv = comdat any

$_ZN5Eigen8internal31generic_dense_assignment_kernelINS0_9evaluatorINS_3MapINS_6MatrixIbLin1ELi1ELi0ELin1ELi1EEELi0ENS_6StrideILi0ELi0EEEEEEENS2_INS_9TransposeIKNS_5BlockIKNS4_IbLin1ELin1ELi0ELin1ELin1EEELi1ELin1ELb0EEEEEEENS0_9assign_opIbbEELi0EE11assignCoeffEl = comdat any

$_ZN5Eigen8internal17mapbase_evaluatorINS_3MapINS_6MatrixIbLin1ELi1ELi0ELin1ELi1EEELi0ENS_6StrideILi0ELi0EEEEES4_E8coeffRefEl = comdat any

$_ZNK5Eigen8internal16blas_data_mapperIKblLi1ELi0ELi1EE6strideEv = comdat any

$_ZN5Eigen8internal6preduxINS0_20eigen_packet_wrapperIDv2_xLi1EEEEENS0_15unpacket_traitsIT_E4typeERKS6_ = comdat any

$_ZN5Eigen8internal6pfirstINS0_20eigen_packet_wrapperIDv2_xLi0EEEEENS0_15unpacket_traitsIT_E4typeERKS6_ = comdat any

$_ZNK5Eigen9EigenBaseINS_9TransposeIKNS_6MatrixIbLin1ELin1ELi0ELin1ELin1EEEEEE7derivedEv = comdat any

$_ZN5Eigen9EigenBaseINS_9TransposeINS_5BlockINS_6MatrixIbLin1ELin1ELi0ELin1ELin1EEELi1ELin1ELb0EEEEEE7derivedEv = comdat any

$_ZN5Eigen9TransposeINS_5BlockINS_6MatrixIbLin1ELin1ELi0ELin1ELin1EEELi1ELin1ELb0EEEE16nestedExpressionEv = comdat any

$_ZN5Eigen7MapBaseINS_5BlockINS_6MatrixIbLin1ELin1ELi0ELin1ELin1EEELi1ELin1ELb0EEELi1EE4dataEv = comdat any

$_ZN5Eigen5BlockINS_9TransposeINS0_INS_6MatrixIbLin1ELin1ELi0ELin1ELin1EEELi1ELin1ELb0EEEEELin1ELi1ELb1EEC2ERS5_l = comdat any

$_ZN5Eigen9BlockImplINS_9TransposeINS_5BlockINS_6MatrixIbLin1ELin1ELi0ELin1ELin1EEELi1ELin1ELb0EEEEELin1ELi1ELb1ENS_5DenseEEC2ERS6_l = comdat any

$_ZNK5Eigen9TransposeINS_5BlockINS_6MatrixIbLin1ELin1ELi0ELin1ELin1EEELi1ELin1ELb0EEEE4colsEv = comdat any

$_ZN5Eigen8internal15BlockImpl_denseINS_9TransposeINS_5BlockINS_6MatrixIbLin1ELin1ELi0ELin1ELin1EEELi1ELin1ELb0EEEEELin1ELi1ELb1ELb1EEC2ERS7_l = comdat any

$_ZNK5Eigen13TransposeImplINS_5BlockINS_6MatrixIbLin1ELin1ELi0ELin1ELin1EEELi1ELin1ELb0EEENS_5DenseEE11outerStrideEv = comdat any

$_ZNK5Eigen9TransposeINS_5BlockINS_6MatrixIbLin1ELin1ELi0ELin1ELin1EEELi1ELin1ELb0EEEE4rowsEv = comdat any

$_ZN5Eigen7MapBaseINS_5BlockINS_9TransposeINS1_INS_6MatrixIbLin1ELin1ELi0ELin1ELin1EEELi1ELin1ELb0EEEEELin1ELi1ELb1EEELi1EEC2EPbll = comdat any

$_ZN5Eigen8internal15BlockImpl_denseINS_9TransposeINS_5BlockINS_6MatrixIbLin1ELin1ELi0ELin1ELin1EEELi1ELin1ELb0EEEEELin1ELi1ELb1ELb1EE4initEv = comdat any

$_ZNK5Eigen9EigenBaseINS_9TransposeINS_5BlockINS_6MatrixIbLin1ELin1ELi0ELin1ELin1EEELi1ELin1ELb0EEEEEE7derivedEv = comdat any

$_ZNK5Eigen9TransposeINS_5BlockINS_6MatrixIbLin1ELin1ELi0ELin1ELin1EEELi1ELin1ELb0EEEE16nestedExpressionEv = comdat any

$_ZNK5Eigen7MapBaseINS_5BlockINS_6MatrixIbLin1ELin1ELi0ELin1ELin1EEELi1ELin1ELb0EEELi0EE4colsEv = comdat any

$_ZN5Eigen7MapBaseINS_5BlockINS_9TransposeINS1_INS_6MatrixIbLin1ELin1ELi0ELin1ELin1EEELi1ELin1ELb0EEEEELin1ELi1ELb1EEELi0EEC2EPbll = comdat any

$_ZN5Eigen10MatrixBaseINS_5BlockINS_9TransposeINS1_INS_6MatrixIbLin1ELin1ELi0ELin1ELin1EEELi1ELin1ELb0EEEEELin1ELi1ELb1EEEEC2Ev = comdat any

$_ZNK5Eigen7MapBaseINS_5BlockINS_9TransposeINS1_INS_6MatrixIbLin1ELin1ELi0ELin1ELin1EEELi1ELin1ELb0EEEEELin1ELi1ELb1EEELi0EE11checkSanityIS7_EEvNSt9enable_ifIXeqsr8internal6traitsIT_EE9AlignmentLi0EEPvE4typeE = comdat any

$_ZN5Eigen9DenseBaseINS_5BlockINS_9TransposeINS1_INS_6MatrixIbLin1ELin1ELi0ELin1ELin1EEELi1ELin1ELb0EEEEELin1ELi1ELb1EEEEC2Ev = comdat any

$_ZNK5Eigen7MapBaseINS_5BlockINS_6MatrixIbLin1ELin1ELi0ELin1ELin1EEELi1ELin1ELb0EEELi0EE4rowsEv = comdat any

$_ZNK5Eigen13TransposeImplINS_5BlockINS_6MatrixIbLin1ELin1ELi0ELin1ELin1EEELi1ELin1ELb0EEENS_5DenseEE11innerStrideEv = comdat any

$_ZN5Eigen8internal11noncopyableD2Ev = comdat any

$_ZN5Eigen8internal15level3_blockingIbbEC2Ev = comdat any

$_ZN5Eigen8internal27computeProductBlockingSizesIbbLi1ElEEvRT2_S3_S3_S2_ = comdat any

$_ZN5Eigen8internal24useSpecificBlockingSizesIlEEbRT_S3_S3_ = comdat any

$_ZN5Eigen8internal37evaluateProductBlockingSizesHeuristicIbbLi1ElEEvRT2_S3_S3_S2_ = comdat any

$_ZN5Eigen8internal20manage_caching_sizesENS_6ActionEPlS2_S2_ = comdat any

$_ZN5Eigen8internal10CacheSizesC2Ev = comdat any

$_ZN5Eigen8internal15queryCacheSizesERiS1_S1_ = comdat any

$_ZN5Eigen8internal27manage_caching_sizes_helperEll = comdat any

$_ZN5Eigen8internal15cpuid_is_vendorEPiPKi = comdat any

$_ZN5Eigen8internal21queryCacheSizes_intelERiS1_S1_i = comdat any

$_ZN5Eigen8internal19queryCacheSizes_amdERiS1_S1_ = comdat any

$_ZN5Eigen8internal28queryCacheSizes_intel_directERiS1_S1_ = comdat any

$_ZN5Eigen8internal27queryCacheSizes_intel_codesERiS1_S1_ = comdat any

$_ZSt3maxIlERKT_S2_S2_ = comdat any

$_ZNK5Eigen8internal12gemm_functorIblNS0_29general_matrix_matrix_productIlbLi0ELb0EbLi0ELb0ELi0ELi1EEENS_6MatrixIbLin1ELin1ELi0ELin1ELin1EEES5_S5_NS0_19gemm_blocking_spaceILi0EbbLin1ELin1ELin1ELi1ELb0EEEEclEllllPNS0_16GemmParallelInfoIlEE = comdat any

$_ZN5Eigen8internal29general_matrix_matrix_productIlbLi0ELb0EbLi0ELb0ELi0ELi1EE3runElllPKblS4_lPbllbRNS0_15level3_blockingIbbEEPNS0_16GemmParallelInfoIlEE = comdat any

$_ZNK5Eigen15PlainObjectBaseINS_6MatrixIbLin1ELin1ELi0ELin1ELin1EEEE8coeffRefEll = comdat any

$_ZNK5Eigen8internal15level3_blockingIbbE2kcEv = comdat any

$_ZNK5Eigen8internal15level3_blockingIbbE2mcEv = comdat any

$_ZNK5Eigen8internal15level3_blockingIbbE2ncEv = comdat any

$_ZN5Eigen8internal22ignore_unused_variableIPNS0_16GemmParallelInfoIlEEEEvRKT_ = comdat any

$_ZN5Eigen8internal15level3_blockingIbbE6blockAEv = comdat any

$_ZN5Eigen8internal15level3_blockingIbbE6blockBEv = comdat any

$_ZN5Eigen8internal13gemm_pack_lhsIblNS0_22const_blas_data_mapperIblLi0EEELi32ELi16ENS0_20eigen_packet_wrapperIDv2_xLi1EEELi0ELb0ELb0EEclEPbRKS3_llll = comdat any

$_ZN5Eigen8internal13gemm_pack_rhsIblNS0_22const_blas_data_mapperIblLi0EEELi4ELi0ELb0ELb0EEclEPbRKS3_llll = comdat any

$_ZN5Eigen8internal11gebp_kernelIbblNS0_16blas_data_mapperIblLi0ELi0ELi1EEELi32ELi4ELb0ELb0EEclERKS3_PKbS8_lllbllll = comdat any

$_ZNK5Eigen8internal7conj_ifILb0EEclIbEERKT_S6_ = comdat any

$_ZN5Eigen8internal10ptransposeERNS0_11PacketBlockINS0_20eigen_packet_wrapperIDv2_xLi1EEELi4EEE = comdat any

$_ZN5Eigen8internal8prefetchIbEEvPKT_ = comdat any

$_ZN5Eigen8internal11gebp_traitsIbbLb0ELb0ELi1ELi0EE7initAccERNS0_20eigen_packet_wrapperIDv2_xLi1EEE = comdat any

$_ZNK5Eigen8internal11gebp_traitsIbbLb0ELb0ELi1ELi0EE7loadLhsINS0_20eigen_packet_wrapperIDv2_xLi1EEEEEvPKbRT_ = comdat any

$_ZNK5Eigen8internal11gebp_traitsIbbLb0ELb0ELi1ELi0EE7loadRhsEPKbRNS0_10QuadPacketINS0_20eigen_packet_wrapperIDv2_xLi1EEEEE = comdat any

$_ZNK5Eigen8internal11gebp_traitsIbbLb0ELb0ELi1ELi0EE4maddINS0_20eigen_packet_wrapperIDv2_xLi1EEES6_NS0_8FixedIntILi0EEEEEvRKT_RKNS0_10QuadPacketIS6_EERT0_RS6_RKT1_ = comdat any

$_ZNK5Eigen8internal11gebp_traitsIbbLb0ELb0ELi1ELi0EE4maddINS0_20eigen_packet_wrapperIDv2_xLi1EEES6_NS0_8FixedIntILi1EEEEEvRKT_RKNS0_10QuadPacketIS6_EERT0_RS6_RKT1_ = comdat any

$_ZNK5Eigen8internal11gebp_traitsIbbLb0ELb0ELi1ELi0EE4maddINS0_20eigen_packet_wrapperIDv2_xLi1EEES6_NS0_8FixedIntILi2EEEEEvRKT_RKNS0_10QuadPacketIS6_EERT0_RS6_RKT1_ = comdat any

$_ZNK5Eigen8internal11gebp_traitsIbbLb0ELb0ELi1ELi0EE4maddINS0_20eigen_packet_wrapperIDv2_xLi1EEES6_NS0_8FixedIntILi3EEEEEvRKT_RKNS0_10QuadPacketIS6_EERT0_RS6_RKT1_ = comdat any

$_ZNK5Eigen8internal11gebp_traitsIbbLb0ELb0ELi1ELi0EE3accERKNS0_20eigen_packet_wrapperIDv2_xLi1EEES7_RS5_ = comdat any

$_ZNK5Eigen8internal11gebp_traitsIbbLb0ELb0ELi1ELi0EE7loadRhsINS0_20eigen_packet_wrapperIDv2_xLi1EEEEEvPKbRT_ = comdat any

$_ZNK5Eigen8internal11gebp_traitsIbbLb0ELb0ELi1ELi0EE4maddINS0_20eigen_packet_wrapperIDv2_xLi1EEES6_S6_NS0_8FixedIntILi0EEEEEvRKT_RKT0_RT1_RSC_RKT2_ = comdat any

$_ZN5Eigen8internal22lhs_process_one_packetILi4ELl16ELl1EbbbNS0_20eigen_packet_wrapperIDv2_xLi1EEES4_S4_S4_NS0_11gebp_traitsIbbLb0ELb0ELi1ELi0EEENS0_16BlasLinearMapperIblLi0ELi1EEENS0_16blas_data_mapperIblLi0ELi0ELi1EEEEclERKSA_PKbSF_bllllllilllll = comdat any

$_ZNK5Eigen8internal11conj_helperIbbLb0ELb0EE5pmaddERKbS4_S4_ = comdat any

$_ZN5Eigen8internal5ploadINS0_20eigen_packet_wrapperIDv2_xLi1EEEEET_PKNS0_15unpacket_traitsIS5_E4typeE = comdat any

$_ZN5Eigen8internal11pbroadcast4INS0_20eigen_packet_wrapperIDv2_xLi1EEEEEvPKNS0_15unpacket_traitsIT_E4typeERS6_SB_SB_SB_ = comdat any

$_ZN5Eigen8internal6pload1INS0_20eigen_packet_wrapperIDv2_xLi1EEEEET_PKNS0_15unpacket_traitsIS5_E4typeE = comdat any

$_ZNK5Eigen8internal10QuadPacketINS0_20eigen_packet_wrapperIDv2_xLi1EEEE3getERKNS0_8FixedIntILi0EEE = comdat any

$_ZNK5Eigen8internal11gebp_traitsIbbLb0ELb0ELi1ELi0EE4maddINS0_20eigen_packet_wrapperIDv2_xLi1EEES6_S6_NS0_8FixedIntILi1EEEEEvRKT_RKT0_RT1_RSC_RKT2_ = comdat any

$_ZNK5Eigen8internal10QuadPacketINS0_20eigen_packet_wrapperIDv2_xLi1EEEE3getERKNS0_8FixedIntILi1EEE = comdat any

$_ZNK5Eigen8internal11conj_helperINS0_20eigen_packet_wrapperIDv2_xLi1EEES4_Lb0ELb0EE4pmulERKS4_S7_ = comdat any

$_ZNK5Eigen8internal11gebp_traitsIbbLb0ELb0ELi1ELi0EE4maddINS0_20eigen_packet_wrapperIDv2_xLi1EEES6_S6_NS0_8FixedIntILi2EEEEEvRKT_RKT0_RT1_RSC_RKT2_ = comdat any

$_ZNK5Eigen8internal10QuadPacketINS0_20eigen_packet_wrapperIDv2_xLi1EEEE3getERKNS0_8FixedIntILi2EEE = comdat any

$_ZNK5Eigen8internal11gebp_traitsIbbLb0ELb0ELi1ELi0EE4maddINS0_20eigen_packet_wrapperIDv2_xLi1EEES6_S6_NS0_8FixedIntILi3EEEEEvRKT_RKT0_RT1_RSC_RKT2_ = comdat any

$_ZNK5Eigen8internal10QuadPacketINS0_20eigen_packet_wrapperIDv2_xLi1EEEE3getERKNS0_8FixedIntILi3EEE = comdat any

$_ZN5Eigen8internal22lhs_process_one_packetILi4ELl16ELl1EbbbNS0_20eigen_packet_wrapperIDv2_xLi1EEES4_S4_S4_NS0_11gebp_traitsIbbLb0ELb0ELi1ELi0EEENS0_16BlasLinearMapperIblLi0ELi1EEENS0_16blas_data_mapperIblLi0ELi0ELi1EEEE17peeled_kc_onestepElPKbSD_S6_PS4_PNS0_10QuadPacketIS4_EESE_SE_SE_SE_SE_ = comdat any

$_ZNK5Eigen8internal11gebp_traitsIbbLb0ELb0ELi1ELi0EE16loadLhsUnalignedINS0_20eigen_packet_wrapperIDv2_xLi1EEEEEvPKbRT_ = comdat any

$_ZN5Eigen8internal14aligned_deleteIbEEvPT_m = comdat any

$_ZN5Eigen8internal26destruct_elements_of_arrayIbEEvPT_m = comdat any

$_ZN5Eigen8internal10AssignmentINS_6MatrixIbLin1ELin1ELi0ELin1ELin1EEES3_NS0_13add_assign_opIbbEENS0_11Dense2DenseEvE3runERS3_RKS3_RKS5_ = comdat any

$_ZN5Eigen8internal18check_for_aliasingINS_6MatrixIbLin1ELin1ELi0ELin1ELin1EEES3_EEvRKT_RKT0_ = comdat any

$_ZN5Eigen8internal26call_dense_assignment_loopINS_6MatrixIbLin1ELin1ELi0ELin1ELin1EEES3_NS0_13add_assign_opIbbEEEEvRT_RKT0_RKT1_ = comdat any

$_ZN5Eigen8internal27checkTransposeAliasing_implINS_6MatrixIbLin1ELin1ELi0ELin1ELin1EEES3_Lb0EE3runERKS3_S6_ = comdat any

$_ZN5Eigen8internal17resize_if_allowedINS_6MatrixIbLin1ELin1ELi0ELin1ELin1EEES3_NS0_13add_assign_opIbbEEEEvRT_RKT0_RKT1_ = comdat any

$_ZN5Eigen8internal31generic_dense_assignment_kernelINS0_9evaluatorINS_6MatrixIbLin1ELin1ELi0ELin1ELin1EEEEES5_NS0_13add_assign_opIbbEELi0EEC2ERS5_RKS5_RKS7_RS4_ = comdat any

$_ZN5Eigen8internal21dense_assignment_loopINS0_31generic_dense_assignment_kernelINS0_9evaluatorINS_6MatrixIbLin1ELin1ELi0ELin1ELin1EEEEES6_NS0_13add_assign_opIbbEELi0EEELi3ELi0EE3runERS9_ = comdat any

$_ZNK5Eigen8internal31generic_dense_assignment_kernelINS0_9evaluatorINS_6MatrixIbLin1ELin1ELi0ELin1ELin1EEEEES5_NS0_13add_assign_opIbbEELi0EE4sizeEv = comdat any

$_ZN5Eigen8internal31unaligned_dense_assignment_loopILb1EE3runINS0_31generic_dense_assignment_kernelINS0_9evaluatorINS_6MatrixIbLin1ELin1ELi0ELin1ELin1EEEEES8_NS0_13add_assign_opIbbEELi0EEEEEvRT_ll = comdat any

$_ZN5Eigen8internal31generic_dense_assignment_kernelINS0_9evaluatorINS_6MatrixIbLin1ELin1ELi0ELin1ELin1EEEEES5_NS0_13add_assign_opIbbEELi0EE12assignPacketILi16ELi16ENS0_20eigen_packet_wrapperIDv2_xLi1EEEEEvl = comdat any

$_ZN5Eigen8internal31unaligned_dense_assignment_loopILb0EE3runINS0_31generic_dense_assignment_kernelINS0_9evaluatorINS_6MatrixIbLin1ELin1ELi0ELin1ELin1EEEEES8_NS0_13add_assign_opIbbEELi0EEEEEvRT_ll = comdat any

$_ZNK5Eigen8internal13add_assign_opIbbE12assignPacketILi16ENS0_20eigen_packet_wrapperIDv2_xLi1EEEEEvPbRKT0_ = comdat any

$_ZNK5Eigen8internal9evaluatorINS_15PlainObjectBaseINS_6MatrixIbLin1ELin1ELi0ELin1ELin1EEEEEE6packetILi16ENS0_20eigen_packet_wrapperIDv2_xLi1EEEEET0_l = comdat any

$_ZN5Eigen8internal31generic_dense_assignment_kernelINS0_9evaluatorINS_6MatrixIbLin1ELin1ELi0ELin1ELin1EEEEES5_NS0_13add_assign_opIbbEELi0EE11assignCoeffEl = comdat any

$_ZNK5Eigen8internal13add_assign_opIbbE11assignCoeffERbRKb = comdat any

$_ZNK5Eigen8internal9evaluatorINS_15PlainObjectBaseINS_6MatrixIbLin1ELin1ELi0ELin1ELin1EEEEEE5coeffEl = comdat any

$_ZN5Eigen6numext12equal_strictINS_6MatrixIbLin1ELin1ELi0ELin1ELin1EEES3_EEbRKT_RKT0_ = comdat any

$_ZN5EigenlsINS_6MatrixIbLin1ELin1ELi0ELin1ELin1EEEEERSoS3_RKNS_9DenseBaseIT_EE = comdat any

$_ZN5Eigen6numext17equal_strict_implINS_6MatrixIbLin1ELin1ELi0ELin1ELin1EEES3_Lb0ELb0ELb0ELb0EE3runERKS3_S6_ = comdat any

$_ZNK5Eigen10MatrixBaseINS_6MatrixIbLin1ELin1ELi0ELin1ELin1EEEEeqIS2_EEbRKNS0_IT_EE = comdat any

$_ZNK5Eigen10MatrixBaseINS_6MatrixIbLin1ELin1ELi0ELin1ELin1EEEE10cwiseEqualIS2_EEKNS_13CwiseBinaryOpINS_8internal13scalar_cmp_opIbbLNS6_14ComparisonNameE0ELb0EEEKS2_KT_EERKNS0_ISB_EE = comdat any

$_ZNK5Eigen9DenseBaseINS_13CwiseBinaryOpINS_8internal13scalar_cmp_opIbbLNS2_14ComparisonNameE0ELb0EEEKNS_6MatrixIbLin1ELin1ELi0ELin1ELin1EEES8_EEE3allEv = comdat any

$_ZN5Eigen13CwiseBinaryOpINS_8internal13scalar_cmp_opIbbLNS1_14ComparisonNameE0ELb0EEEKNS_6MatrixIbLin1ELin1ELi0ELin1ELin1EEES7_EC2ERS7_S9_RKS4_ = comdat any

$_ZN5Eigen17CwiseBinaryOpImplINS_8internal13scalar_cmp_opIbbLNS1_14ComparisonNameE0ELb0EEEKNS_6MatrixIbLin1ELin1ELi0ELin1ELin1EEES7_NS_5DenseEEC2Ev = comdat any

$_ZN5Eigen10MatrixBaseINS_13CwiseBinaryOpINS_8internal13scalar_cmp_opIbbLNS2_14ComparisonNameE0ELb0EEEKNS_6MatrixIbLin1ELin1ELi0ELin1ELin1EEES8_EEEC2Ev = comdat any

$_ZN5Eigen9DenseBaseINS_13CwiseBinaryOpINS_8internal13scalar_cmp_opIbbLNS2_14ComparisonNameE0ELb0EEEKNS_6MatrixIbLin1ELin1ELi0ELin1ELin1EEES8_EEEC2Ev = comdat any

$_ZN5Eigen8internal11all_visitorIbEC2Ev = comdat any

$_ZN5Eigen8internal10visit_implINS_13CwiseBinaryOpINS0_13scalar_cmp_opIbbLNS0_14ComparisonNameE0ELb0EEEKNS_6MatrixIbLin1ELin1ELi0ELin1ELin1EEES8_EENS0_11all_visitorIbEELb1EE3runERKNS_9DenseBaseIS9_EERSB_ = comdat any

$_ZNK5Eigen9EigenBaseINS_13CwiseBinaryOpINS_8internal13scalar_cmp_opIbbLNS2_14ComparisonNameE0ELb0EEEKNS_6MatrixIbLin1ELin1ELi0ELin1ELin1EEES8_EEE7derivedEv = comdat any

$_ZN5Eigen8internal17visitor_evaluatorINS_13CwiseBinaryOpINS0_13scalar_cmp_opIbbLNS0_14ComparisonNameE0ELb0EEEKNS_6MatrixIbLin1ELin1ELi0ELin1ELin1EEES8_EEEC2ERKS9_ = comdat any

$_ZN5Eigen8internal12visitor_implINS0_11all_visitorIbEENS0_17visitor_evaluatorINS_13CwiseBinaryOpINS0_13scalar_cmp_opIbbLNS0_14ComparisonNameE0ELb0EEEKNS_6MatrixIbLin1ELin1ELi0ELin1ELin1EEESB_EEEELin1ELb1ELb1ELb1EE3runERKSD_RS3_ = comdat any

$_ZN5Eigen8internal9evaluatorINS_13CwiseBinaryOpINS0_13scalar_cmp_opIbbLNS0_14ComparisonNameE0ELb0EEEKNS_6MatrixIbLin1ELin1ELi0ELin1ELin1EEES8_EEEC2ERKS9_ = comdat any

$_ZN5Eigen8internal16binary_evaluatorINS_13CwiseBinaryOpINS0_13scalar_cmp_opIbbLNS0_14ComparisonNameE0ELb0EEEKNS_6MatrixIbLin1ELin1ELi0ELin1ELin1EEES8_EENS0_10IndexBasedESA_bbEC2ERKS9_ = comdat any

$_ZN5Eigen8internal16binary_evaluatorINS_13CwiseBinaryOpINS0_13scalar_cmp_opIbbLNS0_14ComparisonNameE0ELb0EEEKNS_6MatrixIbLin1ELin1ELi0ELin1ELin1EEES8_EENS0_10IndexBasedESA_bbE4DataC2ERKS9_ = comdat any

$_ZNK5Eigen13CwiseBinaryOpINS_8internal13scalar_cmp_opIbbLNS1_14ComparisonNameE0ELb0EEEKNS_6MatrixIbLin1ELin1ELi0ELin1ELin1EEES7_E7functorEv = comdat any

$_ZNK5Eigen13CwiseBinaryOpINS_8internal13scalar_cmp_opIbbLNS1_14ComparisonNameE0ELb0EEEKNS_6MatrixIbLin1ELin1ELi0ELin1ELin1EEES7_E3lhsEv = comdat any

$_ZN5Eigen8internal9evaluatorIKNS_6MatrixIbLin1ELin1ELi0ELin1ELin1EEEEC2ERS4_ = comdat any

$_ZNK5Eigen13CwiseBinaryOpINS_8internal13scalar_cmp_opIbbLNS1_14ComparisonNameE0ELb0EEEKNS_6MatrixIbLin1ELin1ELi0ELin1ELin1EEES7_E3rhsEv = comdat any

$_ZNK5Eigen8internal17visitor_evaluatorINS_13CwiseBinaryOpINS0_13scalar_cmp_opIbbLNS0_14ComparisonNameE0ELb0EEEKNS_6MatrixIbLin1ELin1ELi0ELin1ELin1EEES8_EEE4sizeEv = comdat any

$_ZN5Eigen8internal11all_visitorIbE4initERKbl = comdat any

$_ZNK5Eigen8internal17visitor_evaluatorINS_13CwiseBinaryOpINS0_13scalar_cmp_opIbbLNS0_14ComparisonNameE0ELb0EEEKNS_6MatrixIbLin1ELin1ELi0ELin1ELin1EEES8_EEE5coeffEl = comdat any

$_ZNK5Eigen8internal17visitor_evaluatorINS_13CwiseBinaryOpINS0_13scalar_cmp_opIbbLNS0_14ComparisonNameE0ELb0EEEKNS_6MatrixIbLin1ELin1ELi0ELin1ELin1EEES8_EEE6packetINS0_20eigen_packet_wrapperIDv2_xLi1EEELi16EEET_l = comdat any

$_ZN5Eigen8internal11all_visitorIbE10initpacketERKNS0_20eigen_packet_wrapperIDv2_xLi1EEEl = comdat any

$_ZN5Eigen8internal23short_circuit_eval_implINS0_11all_visitorIbEELb1EE3runERKS3_ = comdat any

$_ZN5Eigen8internal11all_visitorIbE6packetERKNS0_20eigen_packet_wrapperIDv2_xLi1EEEl = comdat any

$_ZN5Eigen8internal11all_visitorIbEclERKbl = comdat any

$_ZNK5Eigen9EigenBaseINS_13CwiseBinaryOpINS_8internal13scalar_cmp_opIbbLNS2_14ComparisonNameE0ELb0EEEKNS_6MatrixIbLin1ELin1ELi0ELin1ELin1EEES8_EEE4sizeEv = comdat any

$_ZNK5Eigen9EigenBaseINS_13CwiseBinaryOpINS_8internal13scalar_cmp_opIbbLNS2_14ComparisonNameE0ELb0EEEKNS_6MatrixIbLin1ELin1ELi0ELin1ELin1EEES8_EEE4rowsEv = comdat any

$_ZNK5Eigen9EigenBaseINS_13CwiseBinaryOpINS_8internal13scalar_cmp_opIbbLNS2_14ComparisonNameE0ELb0EEEKNS_6MatrixIbLin1ELin1ELi0ELin1ELin1EEES8_EEE4colsEv = comdat any

$_ZNK5Eigen13CwiseBinaryOpINS_8internal13scalar_cmp_opIbbLNS1_14ComparisonNameE0ELb0EEEKNS_6MatrixIbLin1ELin1ELi0ELin1ELin1EEES7_E4rowsEv = comdat any

$_ZNK5Eigen13CwiseBinaryOpINS_8internal13scalar_cmp_opIbbLNS1_14ComparisonNameE0ELb0EEEKNS_6MatrixIbLin1ELin1ELi0ELin1ELin1EEES7_E4colsEv = comdat any

$_ZNK5Eigen8internal16binary_evaluatorINS_13CwiseBinaryOpINS0_13scalar_cmp_opIbbLNS0_14ComparisonNameE0ELb0EEEKNS_6MatrixIbLin1ELin1ELi0ELin1ELin1EEES8_EENS0_10IndexBasedESA_bbE5coeffEl = comdat any

$_ZNK5Eigen8internal16binary_evaluatorINS_13CwiseBinaryOpINS0_13scalar_cmp_opIbbLNS0_14ComparisonNameE0ELb0EEEKNS_6MatrixIbLin1ELin1ELi0ELin1ELin1EEES8_EENS0_10IndexBasedESA_bbE4Data4funcEv = comdat any

$_ZNK5Eigen8internal13scalar_cmp_opIbbLNS0_14ComparisonNameE0ELb0EEclERKbS5_ = comdat any

$_ZNK5Eigen8internal16binary_evaluatorINS_13CwiseBinaryOpINS0_13scalar_cmp_opIbbLNS0_14ComparisonNameE0ELb0EEEKNS_6MatrixIbLin1ELin1ELi0ELin1ELin1EEES8_EENS0_10IndexBasedESA_bbE6packetILi16ENS0_20eigen_packet_wrapperIDv2_xLi1EEEEET0_l = comdat any

$_ZNK5Eigen8internal13scalar_cmp_opIbbLNS0_14ComparisonNameE0ELb0EE8packetOpINS0_20eigen_packet_wrapperIDv2_xLi1EEEEET_RKS8_SA_ = comdat any

$_ZN5Eigen8internal4pandINS0_20eigen_packet_wrapperIDv2_xLi1EEEEET_RKS5_S7_ = comdat any

$_ZN5Eigen8internal7pcmp_eqINS0_20eigen_packet_wrapperIDv2_xLi1EEEEET_RKS5_S7_ = comdat any

$_ZNK5Eigen8internal11all_visitorIbE10all_preduxERKNS0_20eigen_packet_wrapperIDv2_xLi1EEE = comdat any

$_ZN5Eigen8internal10predux_anyINS0_20eigen_packet_wrapperIDv2_xLi1EEEEEbRKT_ = comdat any

$_ZN5Eigen8internal5pzeroINS0_20eigen_packet_wrapperIDv2_xLi1EEEEET_RKS5_ = comdat any

$_ZN5Eigen6numext16not_equal_strictIbbEEbRKT_RKT0_ = comdat any

$_ZN5Eigen8internal10pzero_implINS0_20eigen_packet_wrapperIDv2_xLi1EEEvE3runERKS4_ = comdat any

$_ZNK5Eigen8internal11all_visitorIbE4doneEv = comdat any

$_ZN5Eigen8internal12print_matrixINS_6MatrixIbLin1ELin1ELi0ELin1ELin1EEEEERSoS4_RKT_RKNS_8IOFormatE = comdat any

$_ZNK5Eigen9DenseBaseINS_6MatrixIbLin1ELin1ELi0ELin1ELin1EEEE4evalEv = comdat any

$_ZN5Eigen8IOFormatC2EiiRKNSt7__cxx1112basic_stringIcSt11char_traitsIcESaIcEEES8_S8_S8_S8_S8_c = comdat any

$_ZN5Eigen8IOFormatD2Ev = comdat any

$_ZNSt8ios_base9precisionEl = comdat any

$_ZNKSt8ios_base5widthEv = comdat any

$_ZNSt8ios_base5widthEl = comdat any

$_ZN5Eigen9TransposeINS_6MatrixIbLin1ELin1ELi0ELin1ELin1EEEEC2ERS2_ = comdat any

$_ZN5Eigen13TransposeImplINS_6MatrixIbLin1ELin1ELi0ELin1ELin1EEENS_5DenseEEC2Ev = comdat any

$_ZN5Eigen10MatrixBaseINS_9TransposeINS_6MatrixIbLin1ELin1ELi0ELin1ELin1EEEEEEC2Ev = comdat any

$_ZN5Eigen9DenseBaseINS_9TransposeINS_6MatrixIbLin1ELin1ELi0ELin1ELin1EEEEEEC2Ev = comdat any

$_ZNK5Eigen9EigenBaseINS_9TransposeINS_6MatrixIbLin1ELin1ELi0ELin1ELin1EEEEEE7derivedEv = comdat any

$_ZN5Eigen15PlainObjectBaseINS_6MatrixIbLin1ELin1ELi0ELin1ELin1EEEEC2INS_9TransposeIS2_EEEERKNS_9DenseBaseIT_EE = comdat any

$_ZN5Eigen15PlainObjectBaseINS_6MatrixIbLin1ELin1ELi0ELin1ELin1EEEE10resizeLikeINS_9TransposeIS2_EEEEvRKNS_9EigenBaseIT_EE = comdat any

$_ZN5Eigen15PlainObjectBaseINS_6MatrixIbLin1ELin1ELi0ELin1ELin1EEEE12_set_noaliasINS_9TransposeIS2_EEEERS2_RKNS_9DenseBaseIT_EE = comdat any

$_ZNK5Eigen9TransposeINS_6MatrixIbLin1ELin1ELi0ELin1ELin1EEEE4rowsEv = comdat any

$_ZNK5Eigen9TransposeINS_6MatrixIbLin1ELin1ELi0ELin1ELin1EEEE4colsEv = comdat any

$_ZN5Eigen8internal24call_assignment_no_aliasINS_6MatrixIbLin1ELin1ELi0ELin1ELin1EEENS_9TransposeIS3_EENS0_9assign_opIbbEEEEvRT_RKT0_RKT1_ = comdat any

$_ZN5Eigen8internal10AssignmentINS_6MatrixIbLin1ELin1ELi0ELin1ELin1EEENS_9TransposeIS3_EENS0_9assign_opIbbEENS0_11Dense2DenseEvE3runERS3_RKS5_RKS7_ = comdat any

$_ZN5Eigen8internal18check_for_aliasingINS_6MatrixIbLin1ELin1ELi0ELin1ELin1EEENS_9TransposeIS3_EEEEvRKT_RKT0_ = comdat any

$_ZN5Eigen8internal26call_dense_assignment_loopINS_6MatrixIbLin1ELin1ELi0ELin1ELin1EEENS_9TransposeIS3_EENS0_9assign_opIbbEEEEvRT_RKT0_RKT1_ = comdat any

$_ZN5Eigen8internal27checkTransposeAliasing_implINS_6MatrixIbLin1ELin1ELi0ELin1ELin1EEENS_9TransposeIS3_EELb1EE3runERKS3_RKS5_ = comdat any

$_ZN5Eigen8internal42check_transpose_aliasing_run_time_selectorIbLb0ENS_9TransposeINS_6MatrixIbLin1ELin1ELi0ELin1ELin1EEEEEE3runEPKbRKS5_ = comdat any

$_ZN5Eigen8internal11blas_traitsINS_9TransposeINS_6MatrixIbLin1ELin1ELi0ELin1ELin1EEEEEE7extractERKS5_ = comdat any

$_ZN5Eigen13TransposeImplIKNS_6MatrixIbLin1ELin1ELi0ELin1ELin1EEENS_5DenseEE4dataEv = comdat any

$_ZNK5Eigen9TransposeINS_6MatrixIbLin1ELin1ELi0ELin1ELin1EEEE16nestedExpressionEv = comdat any

$_ZN5Eigen9EigenBaseINS_9TransposeIKNS_6MatrixIbLin1ELin1ELi0ELin1ELin1EEEEEE7derivedEv = comdat any

$_ZN5Eigen9TransposeIKNS_6MatrixIbLin1ELin1ELi0ELin1ELin1EEEE16nestedExpressionEv = comdat any

$_ZN5Eigen8internal9evaluatorINS_9TransposeINS_6MatrixIbLin1ELin1ELi0ELin1ELin1EEEEEEC2ERKS5_ = comdat any

$_ZN5Eigen8internal17resize_if_allowedINS_6MatrixIbLin1ELin1ELi0ELin1ELin1EEENS_9TransposeIS3_EEbbEEvRT_RKT0_RKNS0_9assign_opIT1_T2_EE = comdat any

$_ZN5Eigen8internal31generic_dense_assignment_kernelINS0_9evaluatorINS_6MatrixIbLin1ELin1ELi0ELin1ELin1EEEEENS2_INS_9TransposeIS4_EEEENS0_9assign_opIbbEELi0EEC2ERS5_RKS8_RKSA_RS4_ = comdat any

$_ZN5Eigen8internal21dense_assignment_loopINS0_31generic_dense_assignment_kernelINS0_9evaluatorINS_6MatrixIbLin1ELin1ELi0ELin1ELin1EEEEENS3_INS_9TransposeIS5_EEEENS0_9assign_opIbbEELi0EEELi0ELi0EE3runERSC_ = comdat any

$_ZN5Eigen8internal15unary_evaluatorINS_9TransposeINS_6MatrixIbLin1ELin1ELi0ELin1ELin1EEEEENS0_10IndexBasedEbEC2ERKS5_ = comdat any

$_ZNK5Eigen8internal31generic_dense_assignment_kernelINS0_9evaluatorINS_6MatrixIbLin1ELin1ELi0ELin1ELin1EEEEENS2_INS_9TransposeIS4_EEEENS0_9assign_opIbbEELi0EE9outerSizeEv = comdat any

$_ZNK5Eigen8internal31generic_dense_assignment_kernelINS0_9evaluatorINS_6MatrixIbLin1ELin1ELi0ELin1ELin1EEEEENS2_INS_9TransposeIS4_EEEENS0_9assign_opIbbEELi0EE9innerSizeEv = comdat any

$_ZN5Eigen8internal31generic_dense_assignment_kernelINS0_9evaluatorINS_6MatrixIbLin1ELin1ELi0ELin1ELin1EEEEENS2_INS_9TransposeIS4_EEEENS0_9assign_opIbbEELi0EE23assignCoeffByOuterInnerEll = comdat any

$_ZN5Eigen8internal31generic_dense_assignment_kernelINS0_9evaluatorINS_6MatrixIbLin1ELin1ELi0ELin1ELin1EEEEENS2_INS_9TransposeIS4_EEEENS0_9assign_opIbbEELi0EE20rowIndexByOuterInnerEll = comdat any

$_ZN5Eigen8internal31generic_dense_assignment_kernelINS0_9evaluatorINS_6MatrixIbLin1ELin1ELi0ELin1ELin1EEEEENS2_INS_9TransposeIS4_EEEENS0_9assign_opIbbEELi0EE20colIndexByOuterInnerEll = comdat any

$_ZN5Eigen8internal31generic_dense_assignment_kernelINS0_9evaluatorINS_6MatrixIbLin1ELin1ELi0ELin1ELin1EEEEENS2_INS_9TransposeIS4_EEEENS0_9assign_opIbbEELi0EE11assignCoeffEll = comdat any

$_ZNK5Eigen8internal15unary_evaluatorINS_9TransposeINS_6MatrixIbLin1ELin1ELi0ELin1ELin1EEEEENS0_10IndexBasedEbE5coeffEll = comdat any

$_ZZN5Eigen9EigenTest20get_registered_testsEvE19ms_registered_tests = comdat any

$_ZGVZN5Eigen9EigenTest20get_registered_testsEvE19ms_registered_tests = comdat any

$_ZTSN5Eigen22eigen_assert_exceptionE = comdat any

$_ZTIN5Eigen22eigen_assert_exceptionE = comdat any

$_ZZN5Eigen8internal15count_bits_implIjvE3clzEjE18kLeadingBitsOffset = comdat any

$_ZZN5Eigen8internal20manage_caching_sizesENS_6ActionEPlS2_S2_E12m_cacheSizes = comdat any

$_ZGVZN5Eigen8internal20manage_caching_sizesENS_6ActionEPlS2_S2_E12m_cacheSizes = comdat any

$_ZN5Eigen3fixILi0EEE = comdat any

$_ZN5Eigen3fixILi1EEE = comdat any

$_ZN5Eigen3fixILi2EEE = comdat any

$_ZN5Eigen3fixILi3EEE = comdat any

@_ZStL8__ioinit = internal global %"class.std::ios_base::Init" zeroinitializer, align 1
@__dso_handle = external hidden global i8
@_ZN5EigenL12g_test_stackB5cxx11E = internal global %"class.std::vector" zeroinitializer, align 8
@.str = private unnamed_addr constant [6 x i8] c"float\00", align 1
@.str.2 = private unnamed_addr constant [7 x i8] c"double\00", align 1
@.str.3 = private unnamed_addr constant [12 x i8] c"long double\00", align 1
@.str.4 = private unnamed_addr constant [5 x i8] c"half\00", align 1
@.str.5 = private unnamed_addr constant [9 x i8] c"bfloat16\00", align 1
@.str.6 = private unnamed_addr constant [7 x i8] c"int8_t\00", align 1
@.str.7 = private unnamed_addr constant [8 x i8] c"int16_t\00", align 1
@.str.8 = private unnamed_addr constant [8 x i8] c"int32_t\00", align 1
@.str.9 = private unnamed_addr constant [8 x i8] c"int64_t\00", align 1
@.str.10 = private unnamed_addr constant [8 x i8] c"uint8_t\00", align 1
@.str.11 = private unnamed_addr constant [9 x i8] c"uint16_t\00", align 1
@.str.12 = private unnamed_addr constant [9 x i8] c"uint32_t\00", align 1
@.str.13 = private unnamed_addr constant [9 x i8] c"uint64_t\00", align 1
@.str.14 = private unnamed_addr constant [15 x i8] c"complex<float>\00", align 1
@.str.15 = private unnamed_addr constant [16 x i8] c"complex<double>\00", align 1
@.str.16 = private unnamed_addr constant [21 x i8] c"complex<long double>\00", align 1
@.str.17 = private unnamed_addr constant [13 x i8] c"complex<int>\00", align 1
@_ZN5EigenL16g_has_set_repeatE = internal global i8 0, align 1
@_ZN5EigenL14g_has_set_seedE = internal global i8 0, align 1
@_ZSt4cout = external global %"class.std::basic_ostream", align 8
@.str.18 = private unnamed_addr constant [10 x i8] c"Argument \00", align 1
@.str.19 = private unnamed_addr constant [36 x i8] c" conflicting with a former argument\00", align 1
@.str.20 = private unnamed_addr constant [62 x i8] c"This test application takes the following optional arguments:\00", align 1
@.str.21 = private unnamed_addr constant [45 x i8] c"  rN     Repeat each test N times (default: \00", align 1
@.str.22 = private unnamed_addr constant [2 x i8] c")\00", align 1
@.str.23 = private unnamed_addr constant [75 x i8] c"  sN     Use N as seed for random numbers (default: based on current time)\00", align 1
@.str.24 = private unnamed_addr constant [66 x i8] c"If defined, the environment variables EIGEN_REPEAT and EIGEN_SEED\00", align 1
@.str.25 = private unnamed_addr constant [53 x i8] c"will be used as default values for these parameters.\00", align 1
@.str.26 = private unnamed_addr constant [13 x i8] c"EIGEN_REPEAT\00", align 1
@.str.27 = private unnamed_addr constant [11 x i8] c"EIGEN_SEED\00", align 1
@_ZN5EigenL6g_seedE = internal global i32 0, align 4
@_ZN5EigenL8g_repeatE = internal global i32 1, align 4
@.str.28 = private unnamed_addr constant [48 x i8] c"Initializing random number generator with seed \00", align 1
@.str.29 = private unnamed_addr constant [7 x i8] c"Seed: \00", align 1
@.str.30 = private unnamed_addr constant [21 x i8] c"Repeating each test \00", align 1
@.str.31 = private unnamed_addr constant [7 x i8] c" times\00", align 1
@.str.32 = private unnamed_addr constant [14 x i8] c"./test/main.h\00", align 1
@.str.33 = private unnamed_addr constant [28 x i8] c"EigenTest::all().size() > 0\00", align 1
@.str.34 = private unnamed_addr constant [25 x i8] c"./test/product_small.cpp\00", align 1
@.str.35 = private unnamed_addr constant [26 x i8] c"test_is_equal(C, D, true)\00", align 1
@.str.36 = private unnamed_addr constant [38 x i8] c"test_is_equal(B(i, j), E(j, i), true)\00", align 1
@_ZL26test_handler_product_small = internal global %"class.Eigen::EigenTest" zeroinitializer, align 8
@.str.38 = private unnamed_addr constant [14 x i8] c"product_small\00", align 1
@.str.39 = private unnamed_addr constant [22 x i8] c"Invalid repeat value \00", align 1
@.str.40 = private unnamed_addr constant [20 x i8] c"Invalid seed value \00", align 1
@_ZN5EigenL12g_test_levelE = internal global i32 0, align 4
@_ZSt4cerr = external global %"class.std::basic_ostream", align 8
@.str.41 = private unnamed_addr constant [10 x i8] c"WARNING: \00", align 1
@.str.42 = private unnamed_addr constant [6 x i8] c"Test \00", align 1
@.str.43 = private unnamed_addr constant [12 x i8] c" failed in \00", align 1
@.str.44 = private unnamed_addr constant [3 x i8] c" (\00", align 1
@.str.45 = private unnamed_addr constant [5 x i8] c"    \00", align 1
@.str.46 = private unnamed_addr constant [8 x i8] c"Stack:\0A\00", align 1
@.str.47 = private unnamed_addr constant [5 x i8] c"  - \00", align 1
@.str.48 = private unnamed_addr constant [2 x i8] c"\0A\00", align 1
@_ZZN5Eigen9EigenTest20get_registered_testsEvE19ms_registered_tests = linkonce_odr dso_local global ptr null, comdat, align 8
@_ZGVZN5Eigen9EigenTest20get_registered_testsEvE19ms_registered_tests = linkonce_odr dso_local global i64 0, comdat, align 8
@_ZTISt9bad_alloc = external constant ptr
@_ZTVSt9bad_alloc = external unnamed_addr constant { [5 x ptr] }, align 8
@_ZTVSt9exception = external unnamed_addr constant { [5 x ptr] }, align 8
@_ZN5EigenL14no_more_assertE = internal global i8 0, align 1
@_ZN5EigenL32report_on_cerr_on_assert_failureE = internal global i8 1, align 1
@.str.49 = private unnamed_addr constant [141 x i8] c"System's malloc returned an unaligned pointer. Compile with EIGEN_MALLOC_ALREADY_ALIGNED=0 to fallback to handmade aligned memory allocator.\00", align 1
@.str.50 = private unnamed_addr constant [196 x i8] c"(size < 16 || (std::size_t(result) % 16) == 0) && \22System's malloc returned an unaligned pointer. Compile with EIGEN_MALLOC_ALREADY_ALIGNED=0 to fallback \22 \22to handmade aligned memory allocator.\22\00", align 1
@.str.51 = private unnamed_addr constant [31 x i8] c"./Eigen/src/Core/util/Memory.h\00", align 1
@__PRETTY_FUNCTION__._ZN5Eigen8internal14aligned_mallocEm = private unnamed_addr constant [51 x i8] c"void *Eigen::internal::aligned_malloc(std::size_t)\00", align 1
@_ZTVN10__cxxabiv117__class_type_infoE = external global ptr
@_ZTSN5Eigen22eigen_assert_exceptionE = linkonce_odr dso_local constant [33 x i8] c"N5Eigen22eigen_assert_exceptionE\00", comdat, align 1
@_ZTIN5Eigen22eigen_assert_exceptionE = linkonce_odr dso_local constant { ptr, ptr } { ptr getelementptr inbounds (ptr, ptr @_ZTVN10__cxxabiv117__class_type_infoE, i64 2), ptr @_ZTSN5Eigen22eigen_assert_exceptionE }, comdat, align 8
@.str.52 = private unnamed_addr constant [38 x i8] c"start != 0 && end != 0 && target != 0\00", align 1
@__PRETTY_FUNCTION__._ZN5Eigen8internal17smart_copy_helperIbLb1EE3runEPKbS4_Pb = private unnamed_addr constant [120 x i8] c"static void Eigen::internal::smart_copy_helper<bool, true>::run(const T *, const T *, T *) [T = bool, UseMemcpy = true]\00", align 1
@.str.53 = private unnamed_addr constant [53 x i8] c"row >= 0 && row < rows() && col >= 0 && col < cols()\00", align 1
@.str.54 = private unnamed_addr constant [35 x i8] c"./Eigen/src/Core/DenseCoeffsBase.h\00", align 1
@__PRETTY_FUNCTION__._ZN5Eigen15DenseCoeffsBaseINS_6MatrixIbLin1ELin1ELi0ELin1ELin1EEELi1EEclEll = private unnamed_addr constant [207 x i8] c"Eigen::DenseCoeffsBase<type-parameter-0-0, 1>::Scalar &Eigen::DenseCoeffsBase<Eigen::Matrix<bool, -1, -1, 0>, 1>::operator()(Eigen::Index, Eigen::Index) [Derived = Eigen::Matrix<bool, -1, -1, 0>, Level = 1]\00", align 1
@__PRETTY_FUNCTION__._ZN5Eigen15DenseCoeffsBaseINS_6MatrixIbLin1ELin1ELi0ELin1ELin1EEELi1EE8coeffRefEll = private unnamed_addr constant [205 x i8] c"Eigen::DenseCoeffsBase<type-parameter-0-0, 1>::Scalar &Eigen::DenseCoeffsBase<Eigen::Matrix<bool, -1, -1, 0>, 1>::coeffRef(Eigen::Index, Eigen::Index) [Derived = Eigen::Matrix<bool, -1, -1, 0>, Level = 1]\00", align 1
@.str.55 = private unnamed_addr constant [26 x i8] c"vector::_M_realloc_insert\00", align 1
@_ZZN5Eigen8internal15count_bits_implIjvE3clzEjE18kLeadingBitsOffset = linkonce_odr dso_local constant i32 0, comdat, align 4
@.str.56 = private unnamed_addr constant [54 x i8] c"(numRandomBits >= 0) && (numRandomBits <= kTotalBits)\00", align 1
@.str.57 = private unnamed_addr constant [30 x i8] c"./Eigen/src/Core/RandomImpl.h\00", align 1
@__PRETTY_FUNCTION__._ZN5Eigen8internal16random_bits_implIjE3runEi = private unnamed_addr constant [96 x i8] c"static Scalar Eigen::internal::random_bits_impl<unsigned int>::run(int) [Scalar = unsigned int]\00", align 1
@.str.58 = private unnamed_addr constant [47 x i8] c"Invalid sizes when resizing a matrix or array.\00", align 1
@.str.59 = private unnamed_addr constant [503 x i8] c"internal::check_implication(RowsAtCompileTime != Dynamic, rows == RowsAtCompileTime) && internal::check_implication(ColsAtCompileTime != Dynamic, cols == ColsAtCompileTime) && internal::check_implication(RowsAtCompileTime == Dynamic && MaxRowsAtCompileTime != Dynamic, rows <= MaxRowsAtCompileTime) && internal::check_implication(ColsAtCompileTime == Dynamic && MaxColsAtCompileTime != Dynamic, cols <= MaxColsAtCompileTime) && rows >= 0 && cols >= 0 && \22Invalid sizes when resizing a matrix or array.\22\00", align 1
@.str.60 = private unnamed_addr constant [35 x i8] c"./Eigen/src/Core/PlainObjectBase.h\00", align 1
@__PRETTY_FUNCTION__._ZN5Eigen15PlainObjectBaseINS_6MatrixIbLin1ELin1ELi0ELin1ELin1EEEE6resizeEll = private unnamed_addr constant [139 x i8] c"void Eigen::PlainObjectBase<Eigen::Matrix<bool, -1, -1, 0>>::resize(Eigen::Index, Eigen::Index) [Derived = Eigen::Matrix<bool, -1, -1, 0>]\00", align 1
@.str.61 = private unnamed_addr constant [149 x i8] c"rows >= 0 && (RowsAtCompileTime == Dynamic || RowsAtCompileTime == rows) && cols >= 0 && (ColsAtCompileTime == Dynamic || ColsAtCompileTime == cols)\00", align 1
@.str.62 = private unnamed_addr constant [34 x i8] c"./Eigen/src/Core/CwiseNullaryOp.h\00", align 1
@__PRETTY_FUNCTION__._ZN5Eigen14CwiseNullaryOpINS_8internal16scalar_random_opIbEENS_6MatrixIbLin1ELin1ELi0ELin1ELin1EEEEC2EllRKS3_ = private unnamed_addr constant [257 x i8] c"Eigen::CwiseNullaryOp<Eigen::internal::scalar_random_op<bool>, Eigen::Matrix<bool, -1, -1, 0>>::CwiseNullaryOp(Eigen::Index, Eigen::Index, const NullaryOp &) [NullaryOp = Eigen::internal::scalar_random_op<bool>, MatrixType = Eigen::Matrix<bool, -1, -1, 0>]\00", align 1
@.str.63 = private unnamed_addr constant [47 x i8] c"dst.rows() == dstRows && dst.cols() == dstCols\00", align 1
@.str.64 = private unnamed_addr constant [35 x i8] c"./Eigen/src/Core/AssignEvaluator.h\00", align 1
@__PRETTY_FUNCTION__._ZN5Eigen8internal17resize_if_allowedINS_6MatrixIbLin1ELin1ELi0ELin1ELin1EEENS_14CwiseNullaryOpINS0_16scalar_random_opIbEES3_EEbbEEvRT_RKT0_RKNS0_9assign_opIT1_T2_EE = private unnamed_addr constant [288 x i8] c"void Eigen::internal::resize_if_allowed(DstXprType &, const SrcXprType &, const internal::assign_op<T1, T2> &) [DstXprType = Eigen::Matrix<bool, -1, -1, 0>, SrcXprType = Eigen::CwiseNullaryOp<Eigen::internal::scalar_random_op<bool>, Eigen::Matrix<bool, -1, -1, 0>>, T1 = bool, T2 = bool]\00", align 1
@.str.65 = private unnamed_addr constant [82 x i8] c"if you wanted a coeff-wise or a dot product use the respective explicit functions\00", align 1
@.str.66 = private unnamed_addr constant [140 x i8] c"lhs.cols() == rhs.rows() && \22invalid matrix product\22 && \22if you wanted a coeff-wise or a dot product use the respective explicit functions\22\00", align 1
@.str.67 = private unnamed_addr constant [27 x i8] c"./Eigen/src/Core/Product.h\00", align 1
@__PRETTY_FUNCTION__._ZN5Eigen7ProductINS_6MatrixIbLin1ELin1ELi0ELin1ELin1EEES2_Li0EEC2ERKS2_S5_ = private unnamed_addr constant [238 x i8] c"Eigen::Product<Eigen::Matrix<bool, -1, -1, 0>, Eigen::Matrix<bool, -1, -1, 0>, 0>::Product(const Eigen::Product::Lhs &, const Eigen::Product::Rhs &) [Lhs = Eigen::Matrix<bool, -1, -1, 0>, Rhs = Eigen::Matrix<bool, -1, -1, 0>, Option = 0]\00", align 1
@.str.68 = private unnamed_addr constant [26 x i8] c"numext::is_exactly_one(s)\00", align 1
@.str.69 = private unnamed_addr constant [37 x i8] c"./Eigen/src/Core/ProductEvaluators.h\00", align 1
@__PRETTY_FUNCTION__._ZN5Eigen8internal20generic_product_implINS_6MatrixIbLin1ELin1ELi0ELin1ELin1EEES3_NS_10DenseShapeES4_Li3EE17eval_dynamic_implIS3_S3_S3_NS0_9assign_opIbbEEbEEvRT_RKT0_RKT1_RKT2_RKT3_NS0_10false_typeE = private unnamed_addr constant [600 x i8] c"static void Eigen::internal::generic_product_impl<Eigen::Matrix<bool, -1, -1, 0>, Eigen::Matrix<bool, -1, -1, 0>, Eigen::DenseShape, Eigen::DenseShape, 3>::eval_dynamic_impl(Dst &, const LhsT &, const RhsT &, const Func &, const Scalar &, Eigen::internal::false_type) [Lhs = Eigen::Matrix<bool, -1, -1, 0>, Rhs = Eigen::Matrix<bool, -1, -1, 0>, LhsShape = Eigen::DenseShape, RhsShape = Eigen::DenseShape, ProductType = 3, Dst = Eigen::Matrix<bool, -1, -1, 0>, LhsT = Eigen::Matrix<bool, -1, -1, 0>, RhsT = Eigen::Matrix<bool, -1, -1, 0>, Func = Eigen::internal::assign_op<bool, bool>, Scalar = bool]\00", align 1
@__PRETTY_FUNCTION__._ZN5Eigen8internal17resize_if_allowedINS_6MatrixIbLin1ELin1ELi0ELin1ELin1EEENS_7ProductIS3_S3_Li1EEEbbEEvRT_RKT0_RKNS0_9assign_opIT1_T2_EE = private unnamed_addr constant [275 x i8] c"void Eigen::internal::resize_if_allowed(DstXprType &, const SrcXprType &, const internal::assign_op<T1, T2> &) [DstXprType = Eigen::Matrix<bool, -1, -1, 0>, SrcXprType = Eigen::Product<Eigen::Matrix<bool, -1, -1, 0>, Eigen::Matrix<bool, -1, -1, 0>, 1>, T1 = bool, T2 = bool]\00", align 1
@.str.70 = private unnamed_addr constant [181 x i8] c"(i >= 0) && (((BlockRows == 1) && (BlockCols == XprType::ColsAtCompileTime) && i < xpr.rows()) || ((BlockRows == XprType::RowsAtCompileTime) && (BlockCols == 1) && i < xpr.cols()))\00", align 1
@.str.71 = private unnamed_addr constant [25 x i8] c"./Eigen/src/Core/Block.h\00", align 1
@__PRETTY_FUNCTION__._ZN5Eigen5BlockIKNS_6MatrixIbLin1ELin1ELi0ELin1ELin1EEELi1ELin1ELb0EEC2ERS3_l = private unnamed_addr constant [197 x i8] c"Eigen::Block<const Eigen::Matrix<bool, -1, -1, 0>, 1, -1, false>::Block(XprType &, Eigen::Index) [XprType = const Eigen::Matrix<bool, -1, -1, 0>, BlockRows = 1, BlockCols = -1, InnerPanel = false]\00", align 1
@.str.72 = private unnamed_addr constant [169 x i8] c"(dataPtr == 0) || (rows >= 0 && (RowsAtCompileTime == Dynamic || RowsAtCompileTime == rows) && cols >= 0 && (ColsAtCompileTime == Dynamic || ColsAtCompileTime == cols))\00", align 1
@.str.73 = private unnamed_addr constant [27 x i8] c"./Eigen/src/Core/MapBase.h\00", align 1
@__PRETTY_FUNCTION__._ZN5Eigen7MapBaseINS_5BlockIKNS_6MatrixIbLin1ELin1ELi0ELin1ELin1EEELi1ELin1ELb0EEELi0EEC2EPKbll = private unnamed_addr constant [261 x i8] c"Eigen::MapBase<Eigen::Block<const Eigen::Matrix<bool, -1, -1, 0>, 1, -1, false>, 0>::MapBase(Eigen::MapBase<type-parameter-0-0, 0>::PointerType, Eigen::Index, Eigen::Index) [Derived = Eigen::Block<const Eigen::Matrix<bool, -1, -1, 0>, 1, -1, false>, Level = 0]\00", align 1
@.str.74 = private unnamed_addr constant [14 x i8] c"v == T(Value)\00", align 1
@.str.75 = private unnamed_addr constant [34 x i8] c"./Eigen/src/Core/util/XprHelper.h\00", align 1
@__PRETTY_FUNCTION__._ZN5Eigen8internal19variable_if_dynamicIlLi1EEC2El = private unnamed_addr constant [92 x i8] c"Eigen::internal::variable_if_dynamic<long, 1>::variable_if_dynamic(T) [T = long, Value = 1]\00", align 1
@.str.76 = private unnamed_addr constant [27 x i8] c"data is not scalar-aligned\00", align 1
@.str.77 = private unnamed_addr constant [80 x i8] c"(std::uintptr_t(m_data) % alignof(Scalar) == 0) && \22data is not scalar-aligned\22\00", align 1
@__PRETTY_FUNCTION__._ZNK5Eigen7MapBaseINS_5BlockIKNS_6MatrixIbLin1ELin1ELi0ELin1ELin1EEELi1ELin1ELb0EEELi0EE11checkSanityIS5_EEvNSt9enable_ifIXeqsr8internal6traitsIT_EE9AlignmentLi0EEPvE4typeE = private unnamed_addr constant [329 x i8] c"void Eigen::MapBase<Eigen::Block<const Eigen::Matrix<bool, -1, -1, 0>, 1, -1, false>, 0>::checkSanity(std::enable_if_t<internal::traits<T>::Alignment == 0, void *>) const [Derived = Eigen::Block<const Eigen::Matrix<bool, -1, -1, 0>, 1, -1, false>, Level = 0, T = Eigen::Block<const Eigen::Matrix<bool, -1, -1, 0>, 1, -1, false>]\00", align 1
@.str.78 = private unnamed_addr constant [57 x i8] c"aLhs.rows() == aRhs.rows() && aLhs.cols() == aRhs.cols()\00", align 1
@.str.79 = private unnamed_addr constant [33 x i8] c"./Eigen/src/Core/CwiseBinaryOp.h\00", align 1
@__PRETTY_FUNCTION__._ZN5Eigen13CwiseBinaryOpINS_8internal17scalar_product_opIbbEEKNS_9TransposeIKNS_5BlockIKNS_6MatrixIbLin1ELin1ELi0ELin1ELin1EEELi1ELin1ELb0EEEEEKNS5_IS8_Lin1ELi1ELb1EEEEC2ERSC_RSE_RKS3_ = private unnamed_addr constant [566 x i8] c"Eigen::CwiseBinaryOp<Eigen::internal::scalar_product_op<bool>, const Eigen::Transpose<const Eigen::Block<const Eigen::Matrix<bool, -1, -1, 0>, 1, -1, false>>, const Eigen::Block<const Eigen::Matrix<bool, -1, -1, 0>, -1, 1, true>>::CwiseBinaryOp(const Eigen::CwiseBinaryOp::Lhs &, const Eigen::CwiseBinaryOp::Rhs &, const BinaryOp &) [BinaryOp = Eigen::internal::scalar_product_op<bool>, Lhs = const Eigen::Transpose<const Eigen::Block<const Eigen::Matrix<bool, -1, -1, 0>, 1, -1, false>>, Rhs = const Eigen::Block<const Eigen::Matrix<bool, -1, -1, 0>, -1, 1, true>]\00", align 1
@__PRETTY_FUNCTION__._ZN5Eigen5BlockIKNS_6MatrixIbLin1ELin1ELi0ELin1ELin1EEELin1ELi1ELb1EEC2ERS3_l = private unnamed_addr constant [195 x i8] c"Eigen::Block<const Eigen::Matrix<bool, -1, -1, 0>, -1, 1, true>::Block(XprType &, Eigen::Index) [XprType = const Eigen::Matrix<bool, -1, -1, 0>, BlockRows = -1, BlockCols = 1, InnerPanel = true]\00", align 1
@__PRETTY_FUNCTION__._ZN5Eigen7MapBaseINS_5BlockIKNS_6MatrixIbLin1ELin1ELi0ELin1ELin1EEELin1ELi1ELb1EEELi0EEC2EPKbll = private unnamed_addr constant [259 x i8] c"Eigen::MapBase<Eigen::Block<const Eigen::Matrix<bool, -1, -1, 0>, -1, 1, true>, 0>::MapBase(Eigen::MapBase<type-parameter-0-0, 0>::PointerType, Eigen::Index, Eigen::Index) [Derived = Eigen::Block<const Eigen::Matrix<bool, -1, -1, 0>, -1, 1, true>, Level = 0]\00", align 1
@__PRETTY_FUNCTION__._ZNK5Eigen7MapBaseINS_5BlockIKNS_6MatrixIbLin1ELin1ELi0ELin1ELin1EEELin1ELi1ELb1EEELi0EE11checkSanityIS5_EEvNSt9enable_ifIXeqsr8internal6traitsIT_EE9AlignmentLi0EEPvE4typeE = private unnamed_addr constant [326 x i8] c"void Eigen::MapBase<Eigen::Block<const Eigen::Matrix<bool, -1, -1, 0>, -1, 1, true>, 0>::checkSanity(std::enable_if_t<internal::traits<T>::Alignment == 0, void *>) const [Derived = Eigen::Block<const Eigen::Matrix<bool, -1, -1, 0>, -1, 1, true>, Level = 0, T = Eigen::Block<const Eigen::Matrix<bool, -1, -1, 0>, -1, 1, true>]\00", align 1
@.str.80 = private unnamed_addr constant [30 x i8] c"you are using an empty matrix\00", align 1
@.str.81 = private unnamed_addr constant [72 x i8] c"this->rows() > 0 && this->cols() > 0 && \22you are using an empty matrix\22\00", align 1
@.str.82 = private unnamed_addr constant [25 x i8] c"./Eigen/src/Core/Redux.h\00", align 1
@__PRETTY_FUNCTION__._ZNK5Eigen9DenseBaseINS_13CwiseBinaryOpINS_8internal17scalar_product_opIbbEEKNS_9TransposeIKNS_5BlockIKNS_6MatrixIbLin1ELin1ELi0ELin1ELin1EEELi1ELin1ELb0EEEEEKNS6_IS9_Lin1ELi1ELb1EEEEEE5reduxINS2_13scalar_sum_opIbbEEEEbRKT_ = private unnamed_addr constant [609 x i8] c"typename internal::traits<Derived>::Scalar Eigen::DenseBase<Eigen::CwiseBinaryOp<Eigen::internal::scalar_product_op<bool>, const Eigen::Transpose<const Eigen::Block<const Eigen::Matrix<bool, -1, -1, 0>, 1, -1, false>>, const Eigen::Block<const Eigen::Matrix<bool, -1, -1, 0>, -1, 1, true>>>::redux(const Func &) const [Derived = Eigen::CwiseBinaryOp<Eigen::internal::scalar_product_op<bool>, const Eigen::Transpose<const Eigen::Block<const Eigen::Matrix<bool, -1, -1, 0>, 1, -1, false>>, const Eigen::Block<const Eigen::Matrix<bool, -1, -1, 0>, -1, 1, true>>, BinaryOp = Eigen::internal::scalar_sum_op<bool>]\00", align 1
@.str.83 = private unnamed_addr constant [20 x i8] c"data is not aligned\00", align 1
@.str.84 = private unnamed_addr constant [151 x i8] c"(internal::is_constant_evaluated() || (std::uintptr_t(block.data()) % plain_enum_max(1, evaluator<XprType>::Alignment)) == 0) && \22data is not aligned\22\00", align 1
@.str.85 = private unnamed_addr constant [34 x i8] c"./Eigen/src/Core/CoreEvaluators.h\00", align 1
@__PRETTY_FUNCTION__._ZN5Eigen8internal15block_evaluatorIKNS_6MatrixIbLin1ELin1ELi0ELin1ELin1EEELi1ELin1ELb0ELb1EEC2ERKNS_5BlockIS4_Li1ELin1ELb0EEE = private unnamed_addr constant [343 x i8] c"Eigen::internal::block_evaluator<const Eigen::Matrix<bool, -1, -1, 0>, 1, -1, false, true>::block_evaluator(const Eigen::internal::block_evaluator<type-parameter-0-0, BlockRows, BlockCols, InnerPanel, true>::XprType &) [ArgType = const Eigen::Matrix<bool, -1, -1, 0>, BlockRows = 1, BlockCols = -1, InnerPanel = false, HasDirectAccess = true]\00", align 1
@__PRETTY_FUNCTION__._ZN5Eigen8internal15block_evaluatorIKNS_6MatrixIbLin1ELin1ELi0ELin1ELin1EEELin1ELi1ELb1ELb1EEC2ERKNS_5BlockIS4_Lin1ELi1ELb1EEE = private unnamed_addr constant [341 x i8] c"Eigen::internal::block_evaluator<const Eigen::Matrix<bool, -1, -1, 0>, -1, 1, true, true>::block_evaluator(const Eigen::internal::block_evaluator<type-parameter-0-0, BlockRows, BlockCols, InnerPanel, true>::XprType &) [ArgType = const Eigen::Matrix<bool, -1, -1, 0>, BlockRows = -1, BlockCols = 1, InnerPanel = true, HasDirectAccess = true]\00", align 1
@.str.86 = private unnamed_addr constant [50 x i8] c"xpr.size() > 0 && \22you are using an empty matrix\22\00", align 1
@__PRETTY_FUNCTION__._ZN5Eigen8internal10redux_implINS0_13scalar_sum_opIbbEENS0_15redux_evaluatorINS_13CwiseBinaryOpINS0_17scalar_product_opIbbEEKNS_9TransposeIKNS_5BlockIKNS_6MatrixIbLin1ELin1ELi0ELin1ELin1EEELi1ELin1ELb0EEEEEKNS9_ISC_Lin1ELi1ELb1EEEEEEELi1ELi0EE3runISJ_EEbRKSK_RKS3_RKT_ = private unnamed_addr constant [1075 x i8] c"static Eigen::internal::redux_impl<type-parameter-0-0, type-parameter-0-1, 1, 0>::Scalar Eigen::internal::redux_impl<Eigen::internal::scalar_sum_op<bool>, Eigen::internal::redux_evaluator<Eigen::CwiseBinaryOp<Eigen::internal::scalar_product_op<bool>, const Eigen::Transpose<const Eigen::Block<const Eigen::Matrix<bool, -1, -1, 0>, 1, -1, false>>, const Eigen::Block<const Eigen::Matrix<bool, -1, -1, 0>, -1, 1, true>>>, 1, 0>::run(const Evaluator &, const Func &, const XprType &) [Func = Eigen::internal::scalar_sum_op<bool>, Evaluator = Eigen::internal::redux_evaluator<Eigen::CwiseBinaryOp<Eigen::internal::scalar_product_op<bool>, const Eigen::Transpose<const Eigen::Block<const Eigen::Matrix<bool, -1, -1, 0>, 1, -1, false>>, const Eigen::Block<const Eigen::Matrix<bool, -1, -1, 0>, -1, 1, true>>>, Traversal = 1, Unrolling = 0, XprType = Eigen::CwiseBinaryOp<Eigen::internal::scalar_product_op<bool>, const Eigen::Transpose<const Eigen::Block<const Eigen::Matrix<bool, -1, -1, 0>, 1, -1, false>>, const Eigen::Block<const Eigen::Matrix<bool, -1, -1, 0>, -1, 1, true>>]\00", align 1
@__PRETTY_FUNCTION__._ZN5Eigen7ProductINS_6MatrixIbLin1ELin1ELi0ELin1ELin1EEES2_Li1EEC2ERKS2_S5_ = private unnamed_addr constant [238 x i8] c"Eigen::Product<Eigen::Matrix<bool, -1, -1, 0>, Eigen::Matrix<bool, -1, -1, 0>, 1>::Product(const Eigen::Product::Lhs &, const Eigen::Product::Rhs &) [Lhs = Eigen::Matrix<bool, -1, -1, 0>, Rhs = Eigen::Matrix<bool, -1, -1, 0>, Option = 1]\00", align 1
@.str.87 = private unnamed_addr constant [32 x i8] c"null pointer dereference error!\00", align 1
@.str.88 = private unnamed_addr constant [58 x i8] c"(dst_ptr != nullptr) && \22null pointer dereference error!\22\00", align 1
@.str.89 = private unnamed_addr constant [24 x i8] c"./Eigen/src/Core/Fill.h\00", align 1
@__PRETTY_FUNCTION__._ZN5Eigen8internal15eigen_zero_implINS_6MatrixIbLin1ELin1ELi0ELin1ELin1EEELb1EE3runERS3_ = private unnamed_addr constant [153 x i8] c"static void Eigen::internal::eigen_zero_impl<Eigen::Matrix<bool, -1, -1, 0>, true>::run(Xpr &) [Xpr = Eigen::Matrix<bool, -1, -1, 0>, use_memset = true]\00", align 1
@.str.90 = private unnamed_addr constant [57 x i8] c"dst.rows() == a_lhs.rows() && dst.cols() == a_rhs.cols()\00", align 1
@.str.91 = private unnamed_addr constant [48 x i8] c"./Eigen/src/Core/products/GeneralMatrixMatrix.h\00", align 1
@__PRETTY_FUNCTION__._ZN5Eigen8internal20generic_product_implINS_6MatrixIbLin1ELin1ELi0ELin1ELin1EEES3_NS_10DenseShapeES4_Li8EE13scaleAndAddToIS3_EEvRT_RKS3_SA_RKb = private unnamed_addr constant [533 x i8] c"static void Eigen::internal::generic_product_impl<Eigen::Matrix<bool, -1, -1, 0>, Eigen::Matrix<bool, -1, -1, 0>, Eigen::DenseShape, Eigen::DenseShape, 8>::scaleAndAddTo(Dest &, const Lhs &, const Rhs &, const Eigen::internal::generic_product_impl<type-parameter-0-0, type-parameter-0-1, Eigen::DenseShape, Eigen::DenseShape, 8>::Scalar &) [Lhs = Eigen::Matrix<bool, -1, -1, 0>, Rhs = Eigen::Matrix<bool, -1, -1, 0>, LhsShape = Eigen::DenseShape, RhsShape = Eigen::DenseShape, ProductType = 8, Dest = Eigen::Matrix<bool, -1, -1, 0>]\00", align 1
@__PRETTY_FUNCTION__._ZN5Eigen5BlockINS_6MatrixIbLin1ELin1ELi0ELin1ELin1EEELin1ELi1ELb1EEC2ERS2_l = private unnamed_addr constant [183 x i8] c"Eigen::Block<Eigen::Matrix<bool, -1, -1, 0>, -1, 1, true>::Block(XprType &, Eigen::Index) [XprType = Eigen::Matrix<bool, -1, -1, 0>, BlockRows = -1, BlockCols = 1, InnerPanel = true]\00", align 1
@__PRETTY_FUNCTION__._ZN5Eigen7MapBaseINS_5BlockINS_6MatrixIbLin1ELin1ELi0ELin1ELin1EEELin1ELi1ELb1EEELi0EEC2EPbll = private unnamed_addr constant [247 x i8] c"Eigen::MapBase<Eigen::Block<Eigen::Matrix<bool, -1, -1, 0>, -1, 1, true>, 0>::MapBase(Eigen::MapBase<type-parameter-0-0, 0>::PointerType, Eigen::Index, Eigen::Index) [Derived = Eigen::Block<Eigen::Matrix<bool, -1, -1, 0>, -1, 1, true>, Level = 0]\00", align 1
@__PRETTY_FUNCTION__._ZNK5Eigen7MapBaseINS_5BlockINS_6MatrixIbLin1ELin1ELi0ELin1ELin1EEELin1ELi1ELb1EEELi0EE11checkSanityIS4_EEvNSt9enable_ifIXeqsr8internal6traitsIT_EE9AlignmentLi0EEPvE4typeE = private unnamed_addr constant [308 x i8] c"void Eigen::MapBase<Eigen::Block<Eigen::Matrix<bool, -1, -1, 0>, -1, 1, true>, 0>::checkSanity(std::enable_if_t<internal::traits<T>::Alignment == 0, void *>) const [Derived = Eigen::Block<Eigen::Matrix<bool, -1, -1, 0>, -1, 1, true>, Level = 0, T = Eigen::Block<Eigen::Matrix<bool, -1, -1, 0>, -1, 1, true>]\00", align 1
@__PRETTY_FUNCTION__._ZN5Eigen8internal15block_evaluatorIKNS_5BlockIKNS_6MatrixIbLin1ELin1ELi0ELin1ELin1EEELin1ELi1ELb1EEELin1ELi1ELb1ELb1EEC2ERKNS2_IS7_Lin1ELi1ELb1EEE = private unnamed_addr constant [407 x i8] c"Eigen::internal::block_evaluator<const Eigen::Block<const Eigen::Matrix<bool, -1, -1, 0>, -1, 1, true>, -1, 1, true, true>::block_evaluator(const Eigen::internal::block_evaluator<type-parameter-0-0, BlockRows, BlockCols, InnerPanel, true>::XprType &) [ArgType = const Eigen::Block<const Eigen::Matrix<bool, -1, -1, 0>, -1, 1, true>, BlockRows = -1, BlockCols = 1, InnerPanel = true, HasDirectAccess = true]\00", align 1
@.str.92 = private unnamed_addr constant [55 x i8] c"Inner product: lhs and rhs vectors must have same size\00", align 1
@.str.93 = private unnamed_addr constant [87 x i8] c"(lhs.size() == rhs.size()) && \22Inner product: lhs and rhs vectors must have same size\22\00", align 1
@.str.94 = private unnamed_addr constant [32 x i8] c"./Eigen/src/Core/InnerProduct.h\00", align 1
@__PRETTY_FUNCTION__._ZN5Eigen8internal20inner_product_assertINS_5BlockIKNS_6MatrixIbLin1ELin1ELi0ELin1ELin1EEELi1ELin1ELb0EEENS2_IKNS2_IS5_Lin1ELi1ELb1EEELin1ELi1ELb1EEEE3runERKS6_RKS9_ = private unnamed_addr constant [422 x i8] c"static void Eigen::internal::inner_product_assert<Eigen::Block<const Eigen::Matrix<bool, -1, -1, 0>, 1, -1, false>, Eigen::Block<const Eigen::Block<const Eigen::Matrix<bool, -1, -1, 0>, -1, 1, true>, -1, 1, true>>::run(const Lhs &, const Rhs &) [Lhs = Eigen::Block<const Eigen::Matrix<bool, -1, -1, 0>, 1, -1, false>, Rhs = Eigen::Block<const Eigen::Block<const Eigen::Matrix<bool, -1, -1, 0>, -1, 1, true>, -1, 1, true>]\00", align 1
@__PRETTY_FUNCTION__._ZN5Eigen5BlockIKNS0_IKNS_6MatrixIbLin1ELin1ELi0ELin1ELin1EEELin1ELi1ELb1EEELin1ELi1ELb1EEC2ERS5_l = private unnamed_addr constant [261 x i8] c"Eigen::Block<const Eigen::Block<const Eigen::Matrix<bool, -1, -1, 0>, -1, 1, true>, -1, 1, true>::Block(XprType &, Eigen::Index) [XprType = const Eigen::Block<const Eigen::Matrix<bool, -1, -1, 0>, -1, 1, true>, BlockRows = -1, BlockCols = 1, InnerPanel = true]\00", align 1
@__PRETTY_FUNCTION__._ZN5Eigen7MapBaseINS_5BlockIKNS1_IKNS_6MatrixIbLin1ELin1ELi0ELin1ELin1EEELin1ELi1ELb1EEELin1ELi1ELb1EEELi0EEC2EPKbll = private unnamed_addr constant [325 x i8] c"Eigen::MapBase<Eigen::Block<const Eigen::Block<const Eigen::Matrix<bool, -1, -1, 0>, -1, 1, true>, -1, 1, true>, 0>::MapBase(Eigen::MapBase<type-parameter-0-0, 0>::PointerType, Eigen::Index, Eigen::Index) [Derived = Eigen::Block<const Eigen::Block<const Eigen::Matrix<bool, -1, -1, 0>, -1, 1, true>, -1, 1, true>, Level = 0]\00", align 1
@__PRETTY_FUNCTION__._ZNK5Eigen7MapBaseINS_5BlockIKNS1_IKNS_6MatrixIbLin1ELin1ELi0ELin1ELin1EEELin1ELi1ELb1EEELin1ELi1ELb1EEELi0EE11checkSanityIS7_EEvNSt9enable_ifIXeqsr8internal6traitsIT_EE9AlignmentLi0EEPvE4typeE = private unnamed_addr constant [425 x i8] c"void Eigen::MapBase<Eigen::Block<const Eigen::Block<const Eigen::Matrix<bool, -1, -1, 0>, -1, 1, true>, -1, 1, true>, 0>::checkSanity(std::enable_if_t<internal::traits<T>::Alignment == 0, void *>) const [Derived = Eigen::Block<const Eigen::Block<const Eigen::Matrix<bool, -1, -1, 0>, -1, 1, true>, -1, 1, true>, Level = 0, T = Eigen::Block<const Eigen::Block<const Eigen::Matrix<bool, -1, -1, 0>, -1, 1, true>, -1, 1, true>]\00", align 1
@__PRETTY_FUNCTION__._ZN5Eigen8internal19variable_if_dynamicIlLi0EEC2El = private unnamed_addr constant [92 x i8] c"Eigen::internal::variable_if_dynamic<long, 0>::variable_if_dynamic(T) [T = long, Value = 0]\00", align 1
@.str.95 = private unnamed_addr constant [13 x i8] c"resIncr == 1\00", align 1
@.str.96 = private unnamed_addr constant [48 x i8] c"./Eigen/src/Core/products/GeneralMatrixVector.h\00", align 1
@__PRETTY_FUNCTION__._ZN5Eigen8internal29general_matrix_vector_productIlbNS0_22const_blas_data_mapperIblLi0EEELi0ELb0EbNS2_IblLi1EEELb0ELi0EE3runEllRKS3_RKS4_Pblb = private unnamed_addr constant [750 x i8] c"static void Eigen::internal::general_matrix_vector_product<long, bool, Eigen::internal::const_blas_data_mapper<bool, long, 0>, 0, false, bool, Eigen::internal::const_blas_data_mapper<bool, long, 1>, false, 0>::run(Index, Index, const LhsMapper &, const RhsMapper &, Eigen::internal::general_matrix_vector_product<type-parameter-0-0, type-parameter-0-1, type-parameter-0-2, 0, ConjugateLhs, type-parameter-0-4, type-parameter-0-5, ConjugateRhs, Version>::ResScalar *, Index, RhsScalar) [Index = long, LhsScalar = bool, LhsMapper = Eigen::internal::const_blas_data_mapper<bool, long, 0>, LhsStorageOrder = 0, ConjugateLhs = false, RhsScalar = bool, RhsMapper = Eigen::internal::const_blas_data_mapper<bool, long, 1>, ConjugateRhs = false, Version = 0]\00", align 1
@.str.97 = private unnamed_addr constant [10 x i8] c"incr == 1\00", align 1
@.str.98 = private unnamed_addr constant [33 x i8] c"./Eigen/src/Core/util/BlasUtil.h\00", align 1
@__PRETTY_FUNCTION__._ZN5Eigen8internal16blas_data_mapperIKblLi0ELi0ELi1EEC2EPS2_ll = private unnamed_addr constant [186 x i8] c"Eigen::internal::blas_data_mapper<const bool, long, 0, 0, 1>::blas_data_mapper(Scalar *, Index, Index) [Scalar = const bool, Index = long, StorageOrder = 0, AlignmentType = 0, Incr = 1]\00", align 1
@__PRETTY_FUNCTION__._ZN5Eigen8internal16blas_data_mapperIKblLi1ELi0ELi1EEC2EPS2_ll = private unnamed_addr constant [186 x i8] c"Eigen::internal::blas_data_mapper<const bool, long, 1, 0, 1>::blas_data_mapper(Scalar *, Index, Index) [Scalar = const bool, Index = long, StorageOrder = 1, AlignmentType = 0, Incr = 1]\00", align 1
@__PRETTY_FUNCTION__._ZN5Eigen5BlockINS_6MatrixIbLin1ELin1ELi0ELin1ELin1EEELi1ELin1ELb0EEC2ERS2_l = private unnamed_addr constant [185 x i8] c"Eigen::Block<Eigen::Matrix<bool, -1, -1, 0>, 1, -1, false>::Block(XprType &, Eigen::Index) [XprType = Eigen::Matrix<bool, -1, -1, 0>, BlockRows = 1, BlockCols = -1, InnerPanel = false]\00", align 1
@__PRETTY_FUNCTION__._ZN5Eigen7MapBaseINS_5BlockINS_6MatrixIbLin1ELin1ELi0ELin1ELin1EEELi1ELin1ELb0EEELi0EEC2EPbll = private unnamed_addr constant [249 x i8] c"Eigen::MapBase<Eigen::Block<Eigen::Matrix<bool, -1, -1, 0>, 1, -1, false>, 0>::MapBase(Eigen::MapBase<type-parameter-0-0, 0>::PointerType, Eigen::Index, Eigen::Index) [Derived = Eigen::Block<Eigen::Matrix<bool, -1, -1, 0>, 1, -1, false>, Level = 0]\00", align 1
@__PRETTY_FUNCTION__._ZNK5Eigen7MapBaseINS_5BlockINS_6MatrixIbLin1ELin1ELi0ELin1ELin1EEELi1ELin1ELb0EEELi0EE11checkSanityIS4_EEvNSt9enable_ifIXeqsr8internal6traitsIT_EE9AlignmentLi0EEPvE4typeE = private unnamed_addr constant [311 x i8] c"void Eigen::MapBase<Eigen::Block<Eigen::Matrix<bool, -1, -1, 0>, 1, -1, false>, 0>::checkSanity(std::enable_if_t<internal::traits<T>::Alignment == 0, void *>) const [Derived = Eigen::Block<Eigen::Matrix<bool, -1, -1, 0>, 1, -1, false>, Level = 0, T = Eigen::Block<Eigen::Matrix<bool, -1, -1, 0>, 1, -1, false>]\00", align 1
@__PRETTY_FUNCTION__._ZN5Eigen5BlockIKNS0_IKNS_6MatrixIbLin1ELin1ELi0ELin1ELin1EEELi1ELin1ELb0EEELi1ELin1ELb1EEC2ERS5_l = private unnamed_addr constant [263 x i8] c"Eigen::Block<const Eigen::Block<const Eigen::Matrix<bool, -1, -1, 0>, 1, -1, false>, 1, -1, true>::Block(XprType &, Eigen::Index) [XprType = const Eigen::Block<const Eigen::Matrix<bool, -1, -1, 0>, 1, -1, false>, BlockRows = 1, BlockCols = -1, InnerPanel = true]\00", align 1
@__PRETTY_FUNCTION__._ZN5Eigen7MapBaseINS_5BlockIKNS1_IKNS_6MatrixIbLin1ELin1ELi0ELin1ELin1EEELi1ELin1ELb0EEELi1ELin1ELb1EEELi0EEC2EPKbll = private unnamed_addr constant [327 x i8] c"Eigen::MapBase<Eigen::Block<const Eigen::Block<const Eigen::Matrix<bool, -1, -1, 0>, 1, -1, false>, 1, -1, true>, 0>::MapBase(Eigen::MapBase<type-parameter-0-0, 0>::PointerType, Eigen::Index, Eigen::Index) [Derived = Eigen::Block<const Eigen::Block<const Eigen::Matrix<bool, -1, -1, 0>, 1, -1, false>, 1, -1, true>, Level = 0]\00", align 1
@__PRETTY_FUNCTION__._ZNK5Eigen7MapBaseINS_5BlockIKNS1_IKNS_6MatrixIbLin1ELin1ELi0ELin1ELin1EEELi1ELin1ELb0EEELi1ELin1ELb1EEELi0EE11checkSanityIS7_EEvNSt9enable_ifIXeqsr8internal6traitsIT_EE9AlignmentLi0EEPvE4typeE = private unnamed_addr constant [428 x i8] c"void Eigen::MapBase<Eigen::Block<const Eigen::Block<const Eigen::Matrix<bool, -1, -1, 0>, 1, -1, false>, 1, -1, true>, 0>::checkSanity(std::enable_if_t<internal::traits<T>::Alignment == 0, void *>) const [Derived = Eigen::Block<const Eigen::Block<const Eigen::Matrix<bool, -1, -1, 0>, 1, -1, false>, 1, -1, true>, Level = 0, T = Eigen::Block<const Eigen::Block<const Eigen::Matrix<bool, -1, -1, 0>, 1, -1, false>, 1, -1, true>]\00", align 1
@__PRETTY_FUNCTION__._ZN5Eigen8internal15block_evaluatorIKNS_5BlockIKNS_6MatrixIbLin1ELin1ELi0ELin1ELin1EEELi1ELin1ELb0EEELi1ELin1ELb1ELb1EEC2ERKNS2_IS7_Li1ELin1ELb1EEE = private unnamed_addr constant [409 x i8] c"Eigen::internal::block_evaluator<const Eigen::Block<const Eigen::Matrix<bool, -1, -1, 0>, 1, -1, false>, 1, -1, true, true>::block_evaluator(const Eigen::internal::block_evaluator<type-parameter-0-0, BlockRows, BlockCols, InnerPanel, true>::XprType &) [ArgType = const Eigen::Block<const Eigen::Matrix<bool, -1, -1, 0>, 1, -1, false>, BlockRows = 1, BlockCols = -1, InnerPanel = true, HasDirectAccess = true]\00", align 1
@__PRETTY_FUNCTION__._ZN5Eigen8internal20inner_product_assertINS_5BlockIKNS2_IKNS_6MatrixIbLin1ELin1ELi0ELin1ELin1EEELi1ELin1ELb0EEELi1ELin1ELb1EEENS2_IS5_Lin1ELi1ELb1EEEE3runERKS8_RKS9_ = private unnamed_addr constant [422 x i8] c"static void Eigen::internal::inner_product_assert<Eigen::Block<const Eigen::Block<const Eigen::Matrix<bool, -1, -1, 0>, 1, -1, false>, 1, -1, true>, Eigen::Block<const Eigen::Matrix<bool, -1, -1, 0>, -1, 1, true>>::run(const Lhs &, const Rhs &) [Lhs = Eigen::Block<const Eigen::Block<const Eigen::Matrix<bool, -1, -1, 0>, 1, -1, false>, 1, -1, true>, Rhs = Eigen::Block<const Eigen::Matrix<bool, -1, -1, 0>, -1, 1, true>]\00", align 1
@.str.99 = private unnamed_addr constant [13 x i8] c"vecSize >= 0\00", align 1
@__PRETTY_FUNCTION__._ZN5Eigen7MapBaseINS_3MapINS_6MatrixIbLin1ELi1ELi0ELin1ELi1EEELi0ENS_6StrideILi0ELi0EEEEELi0EEC2EPbl = private unnamed_addr constant [207 x i8] c"Eigen::MapBase<Eigen::Map<Eigen::Matrix<bool, -1, 1, 0>, 0>, 0>::MapBase(Eigen::MapBase<type-parameter-0-0, 0>::PointerType, Eigen::Index) [Derived = Eigen::Map<Eigen::Matrix<bool, -1, 1, 0>, 0>, Level = 0]\00", align 1
@.str.100 = private unnamed_addr constant [77 x i8] c"dataPtr == 0 || SizeAtCompileTime == Dynamic || SizeAtCompileTime == vecSize\00", align 1
@__PRETTY_FUNCTION__._ZNK5Eigen7MapBaseINS_3MapINS_6MatrixIbLin1ELi1ELi0ELin1ELi1EEELi0ENS_6StrideILi0ELi0EEEEELi0EE11checkSanityIS6_EEvNSt9enable_ifIXeqsr8internal6traitsIT_EE9AlignmentLi0EEPvE4typeE = private unnamed_addr constant [269 x i8] c"void Eigen::MapBase<Eigen::Map<Eigen::Matrix<bool, -1, 1, 0>, 0>, 0>::checkSanity(std::enable_if_t<internal::traits<T>::Alignment == 0, void *>) const [Derived = Eigen::Map<Eigen::Matrix<bool, -1, 1, 0>, 0>, Level = 0, T = Eigen::Map<Eigen::Matrix<bool, -1, 1, 0>, 0>]\00", align 1
@__PRETTY_FUNCTION__._ZN5Eigen8internal17resize_if_allowedINS_3MapINS_6MatrixIbLin1ELi1ELi0ELin1ELi1EEELi0ENS_6StrideILi0ELi0EEEEENS_9TransposeIKNS_5BlockIKNS3_IbLin1ELin1ELi0ELin1ELin1EEELi1ELin1ELb0EEEEEbbEEvRT_RKT0_RKNS0_9assign_opIT1_T2_EE = private unnamed_addr constant [296 x i8] c"void Eigen::internal::resize_if_allowed(DstXprType &, const SrcXprType &, const internal::assign_op<T1, T2> &) [DstXprType = Eigen::Map<Eigen::Matrix<bool, -1, 1, 0>, 0>, SrcXprType = Eigen::Transpose<const Eigen::Block<const Eigen::Matrix<bool, -1, -1, 0>, 1, -1, false>>, T1 = bool, T2 = bool]\00", align 1
@.str.101 = private unnamed_addr constant [55 x i8] c"DenseBase::resize() does not actually allow to resize.\00", align 1
@.str.102 = private unnamed_addr constant [105 x i8] c"rows == this->rows() && cols == this->cols() && \22DenseBase::resize() does not actually allow to resize.\22\00", align 1
@.str.103 = private unnamed_addr constant [29 x i8] c"./Eigen/src/Core/DenseBase.h\00", align 1
@__PRETTY_FUNCTION__._ZN5Eigen9DenseBaseINS_3MapINS_6MatrixIbLin1ELi1ELi0ELin1ELi1EEELi0ENS_6StrideILi0ELi0EEEEEE6resizeEll = private unnamed_addr constant [161 x i8] c"void Eigen::DenseBase<Eigen::Map<Eigen::Matrix<bool, -1, 1, 0>, 0>>::resize(Eigen::Index, Eigen::Index) [Derived = Eigen::Map<Eigen::Matrix<bool, -1, 1, 0>, 0>]\00", align 1
@.str.104 = private unnamed_addr constant [18 x i8] c"rhs.stride() == 1\00", align 1
@__PRETTY_FUNCTION__._ZN5Eigen8internal29general_matrix_vector_productIlbNS0_22const_blas_data_mapperIblLi1EEELi1ELb0EbNS2_IblLi0EEELb0ELi0EE3runEllRKS3_RKS4_Pblb = private unnamed_addr constant [938 x i8] c"static void Eigen::internal::general_matrix_vector_product<long, bool, Eigen::internal::const_blas_data_mapper<bool, long, 1>, 1, false, bool, Eigen::internal::const_blas_data_mapper<bool, long, 0>, false, 0>::run(Index, Index, const LhsMapper &, const RhsMapper &, Eigen::internal::general_matrix_vector_product<type-parameter-0-0, type-parameter-0-1, type-parameter-0-2, 1, ConjugateLhs, type-parameter-0-4, type-parameter-0-5, ConjugateRhs, Version>::ResScalar *, Index, Eigen::internal::general_matrix_vector_product<type-parameter-0-0, type-parameter-0-1, type-parameter-0-2, 1, ConjugateLhs, type-parameter-0-4, type-parameter-0-5, ConjugateRhs, Version>::ResScalar) [Index = long, LhsScalar = bool, LhsMapper = Eigen::internal::const_blas_data_mapper<bool, long, 1>, LhsStorageOrder = 1, ConjugateLhs = false, RhsScalar = bool, RhsMapper = Eigen::internal::const_blas_data_mapper<bool, long, 0>, ConjugateRhs = false, Version = 0]\00", align 1
@__PRETTY_FUNCTION__._ZN5Eigen5BlockINS_9TransposeINS0_INS_6MatrixIbLin1ELin1ELi0ELin1ELin1EEELi1ELin1ELb0EEEEELin1ELi1ELb1EEC2ERS5_l = private unnamed_addr constant [275 x i8] c"Eigen::Block<Eigen::Transpose<Eigen::Block<Eigen::Matrix<bool, -1, -1, 0>, 1, -1, false>>, -1, 1, true>::Block(XprType &, Eigen::Index) [XprType = Eigen::Transpose<Eigen::Block<Eigen::Matrix<bool, -1, -1, 0>, 1, -1, false>>, BlockRows = -1, BlockCols = 1, InnerPanel = true]\00", align 1
@__PRETTY_FUNCTION__._ZN5Eigen7MapBaseINS_5BlockINS_9TransposeINS1_INS_6MatrixIbLin1ELin1ELi0ELin1ELin1EEELi1ELin1ELb0EEEEELin1ELi1ELb1EEELi0EEC2EPbll = private unnamed_addr constant [339 x i8] c"Eigen::MapBase<Eigen::Block<Eigen::Transpose<Eigen::Block<Eigen::Matrix<bool, -1, -1, 0>, 1, -1, false>>, -1, 1, true>, 0>::MapBase(Eigen::MapBase<type-parameter-0-0, 0>::PointerType, Eigen::Index, Eigen::Index) [Derived = Eigen::Block<Eigen::Transpose<Eigen::Block<Eigen::Matrix<bool, -1, -1, 0>, 1, -1, false>>, -1, 1, true>, Level = 0]\00", align 1
@__PRETTY_FUNCTION__._ZNK5Eigen7MapBaseINS_5BlockINS_9TransposeINS1_INS_6MatrixIbLin1ELin1ELi0ELin1ELin1EEELi1ELin1ELb0EEEEELin1ELi1ELb1EEELi0EE11checkSanityIS7_EEvNSt9enable_ifIXeqsr8internal6traitsIT_EE9AlignmentLi0EEPvE4typeE = private unnamed_addr constant [446 x i8] c"void Eigen::MapBase<Eigen::Block<Eigen::Transpose<Eigen::Block<Eigen::Matrix<bool, -1, -1, 0>, 1, -1, false>>, -1, 1, true>, 0>::checkSanity(std::enable_if_t<internal::traits<T>::Alignment == 0, void *>) const [Derived = Eigen::Block<Eigen::Transpose<Eigen::Block<Eigen::Matrix<bool, -1, -1, 0>, 1, -1, false>>, -1, 1, true>, Level = 0, T = Eigen::Block<Eigen::Transpose<Eigen::Block<Eigen::Matrix<bool, -1, -1, 0>, 1, -1, false>>, -1, 1, true>]\00", align 1
@.str.105 = private unnamed_addr constant [6 x i8] c"k > 0\00", align 1
@.str.106 = private unnamed_addr constant [52 x i8] c"./Eigen/src/Core/products/GeneralBlockPanelKernel.h\00", align 1
@__PRETTY_FUNCTION__._ZN5Eigen8internal37evaluateProductBlockingSizesHeuristicIbbLi1ElEEvRT2_S3_S3_S2_ = private unnamed_addr constant [159 x i8] c"void Eigen::internal::evaluateProductBlockingSizesHeuristic(Index &, Index &, Index &, Index) [LhsScalar = bool, RhsScalar = bool, KcFactor = 1, Index = long]\00", align 1
@.str.107 = private unnamed_addr constant [34 x i8] c"n_cache >= static_cast<Index>(nr)\00", align 1
@.str.108 = private unnamed_addr constant [6 x i8] c"n > 0\00", align 1
@.str.109 = private unnamed_addr constant [6 x i8] c"m > 0\00", align 1
@.str.110 = private unnamed_addr constant [44 x i8] c"the number of sweeps has to remain the same\00", align 1
@.str.111 = private unnamed_addr constant [83 x i8] c"((old_k / k) == (old_k / max_kc)) && \22the number of sweeps has to remain the same\22\00", align 1
@_ZZN5Eigen8internal20manage_caching_sizesENS_6ActionEPlS2_S2_E12m_cacheSizes = linkonce_odr dso_local global %"struct.Eigen::internal::CacheSizes" zeroinitializer, comdat, align 8
@_ZGVZN5Eigen8internal20manage_caching_sizesENS_6ActionEPlS2_S2_E12m_cacheSizes = linkonce_odr dso_local global i64 0, comdat, align 8
@.str.112 = private unnamed_addr constant [19 x i8] c"l1 != 0 && l2 != 0\00", align 1
@__PRETTY_FUNCTION__._ZN5Eigen8internal20manage_caching_sizesENS_6ActionEPlS2_S2_ = private unnamed_addr constant [112 x i8] c"void Eigen::internal::manage_caching_sizes(Eigen::Action, std::ptrdiff_t *, std::ptrdiff_t *, std::ptrdiff_t *)\00", align 1
@.str.113 = private unnamed_addr constant [6 x i8] c"false\00", align 1
@__const._ZN5Eigen8internal15queryCacheSizesERiS1_S1_.GenuineIntel = private unnamed_addr constant [3 x i32] [i32 1970169159, i32 1231384169, i32 1818588270], align 4
@__const._ZN5Eigen8internal15queryCacheSizesERiS1_S1_.AuthenticAMD = private unnamed_addr constant [3 x i32] [i32 1752462657, i32 1769238117, i32 1145913699], align 4
@__const._ZN5Eigen8internal15queryCacheSizesERiS1_S1_.AMDisbetter_ = private unnamed_addr constant [3 x i32] [i32 1766083905, i32 1952801395, i32 561145204], align 4
@.str.114 = private unnamed_addr constant [7 x i8] c"a >= 0\00", align 1
@.str.115 = private unnamed_addr constant [33 x i8] c"./Eigen/src/Core/MathFunctions.h\00", align 1
@__PRETTY_FUNCTION__._ZN5Eigen6numext8div_ceilIlEET_S2_S2_ = private unnamed_addr constant [43 x i8] c"T Eigen::numext::div_ceil(T, T) [T = long]\00", align 1
@.str.116 = private unnamed_addr constant [6 x i8] c"b > 0\00", align 1
@__PRETTY_FUNCTION__._ZN5Eigen8internal16blas_data_mapperIblLi0ELi0ELi1EEC2EPbll = private unnamed_addr constant [174 x i8] c"Eigen::internal::blas_data_mapper<bool, long, 0, 0, 1>::blas_data_mapper(Scalar *, Index, Index) [Scalar = bool, Index = long, StorageOrder = 0, AlignmentType = 0, Incr = 1]\00", align 1
@.str.117 = private unnamed_addr constant [99 x i8] c"((!PanelMode) && stride == 0 && offset == 0) || (PanelMode && stride >= depth && offset <= stride)\00", align 1
@__PRETTY_FUNCTION__._ZN5Eigen8internal13gemm_pack_lhsIblNS0_22const_blas_data_mapperIblLi0EEELi32ELi16ENS0_20eigen_packet_wrapperIDv2_xLi1EEELi0ELb0ELb0EEclEPbRKS3_llll = private unnamed_addr constant [605 x i8] c"void Eigen::internal::gemm_pack_lhs<bool, long, Eigen::internal::const_blas_data_mapper<bool, long, 0>, 32, 16, Eigen::internal::eigen_packet_wrapper<__attribute__((__vector_size__(2 * sizeof(long long)))) long long, 1>, 0, false, false>::operator()(Scalar *, const DataMapper &, Index, Index, Index, Index) [Scalar = bool, Index = long, DataMapper = Eigen::internal::const_blas_data_mapper<bool, long, 0>, Pack1 = 32, Pack2 = 16, Packet = Eigen::internal::eigen_packet_wrapper<__attribute__((__vector_size__(2 * sizeof(long long)))) long long, 1>, StorageOrder = 0, Conjugate = false, PanelMode = false]\00", align 1
@__PRETTY_FUNCTION__._ZN5Eigen8internal13gemm_pack_rhsIblNS0_22const_blas_data_mapperIblLi0EEELi4ELi0ELb0ELb0EEclEPbRKS3_llll = private unnamed_addr constant [357 x i8] c"void Eigen::internal::gemm_pack_rhs<bool, long, Eigen::internal::const_blas_data_mapper<bool, long, 0>, 4, 0, false, false>::operator()(Scalar *, const DataMapper &, Index, Index, Index, Index) [Scalar = bool, Index = long, DataMapper = Eigen::internal::const_blas_data_mapper<bool, long, 0>, nr = 4, StorageOrder = 0, Conjugate = false, PanelMode = false]\00", align 1
@__PRETTY_FUNCTION__._ZN5Eigen8internal16BlasLinearMapperIKblLi0ELi1EEC2EPS2_l = private unnamed_addr constant [158 x i8] c"Eigen::internal::BlasLinearMapper<const bool, long, 0, 1>::BlasLinearMapper(Scalar *, Index) [Scalar = const bool, Index = long, AlignmentType = 0, Incr = 1]\00", align 1
@_ZN5Eigen3fixILi0EEE = linkonce_odr dso_local constant %"class.Eigen::internal::FixedInt" zeroinitializer, comdat, align 1
@_ZN5Eigen3fixILi1EEE = linkonce_odr dso_local constant %"class.Eigen::internal::FixedInt.195" zeroinitializer, comdat, align 1
@_ZN5Eigen3fixILi2EEE = linkonce_odr dso_local constant %"class.Eigen::internal::FixedInt.197" zeroinitializer, comdat, align 1
@_ZN5Eigen3fixILi3EEE = linkonce_odr dso_local constant %"class.Eigen::internal::FixedInt.199" zeroinitializer, comdat, align 1
@__PRETTY_FUNCTION__._ZN5Eigen8internal16BlasLinearMapperIblLi0ELi1EEC2EPbl = private unnamed_addr constant [146 x i8] c"Eigen::internal::BlasLinearMapper<bool, long, 0, 1>::BlasLinearMapper(Scalar *, Index) [Scalar = bool, Index = long, AlignmentType = 0, Incr = 1]\00", align 1
@.str.118 = private unnamed_addr constant [53 x i8] c"dst.rows() == src.rows() && dst.cols() == src.cols()\00", align 1
@__PRETTY_FUNCTION__._ZN5Eigen8internal17resize_if_allowedINS_6MatrixIbLin1ELin1ELi0ELin1ELin1EEES3_NS0_13add_assign_opIbbEEEEvRT_RKT0_RKT1_ = private unnamed_addr constant [236 x i8] c"void Eigen::internal::resize_if_allowed(DstXprType &, const SrcXprType &, const Functor &) [DstXprType = Eigen::Matrix<bool, -1, -1, 0>, SrcXprType = Eigen::Matrix<bool, -1, -1, 0>, Functor = Eigen::internal::add_assign_op<bool, bool>]\00", align 1
@.str.119 = private unnamed_addr constant [17 x i8] c"\0A    actual   = \00", align 1
@.str.120 = private unnamed_addr constant [15 x i8] c"\0A    expected \00", align 1
@.str.121 = private unnamed_addr constant [3 x i8] c"= \00", align 1
@.str.122 = private unnamed_addr constant [3 x i8] c"!=\00", align 1
@.str.123 = private unnamed_addr constant [3 x i8] c"\0A\0A\00", align 1
@__PRETTY_FUNCTION__._ZN5Eigen13CwiseBinaryOpINS_8internal13scalar_cmp_opIbbLNS1_14ComparisonNameE0ELb0EEEKNS_6MatrixIbLin1ELin1ELi0ELin1ELin1EEES7_EC2ERS7_S9_RKS4_ = private unnamed_addr constant [452 x i8] c"Eigen::CwiseBinaryOp<Eigen::internal::scalar_cmp_op<bool, bool, Eigen::internal::cmp_EQ, false>, const Eigen::Matrix<bool, -1, -1, 0>, const Eigen::Matrix<bool, -1, -1, 0>>::CwiseBinaryOp(const Eigen::CwiseBinaryOp::Lhs &, const Eigen::CwiseBinaryOp::Rhs &, const BinaryOp &) [BinaryOp = Eigen::internal::scalar_cmp_op<bool, bool, Eigen::internal::cmp_EQ, false>, Lhs = const Eigen::Matrix<bool, -1, -1, 0>, Rhs = const Eigen::Matrix<bool, -1, -1, 0>]\00", align 1
@.str.124 = private unnamed_addr constant [3 x i8] c"  \00", align 1
@.str.125 = private unnamed_addr constant [1 x i8] zeroinitializer, align 1
@.str.126 = private unnamed_addr constant [114 x i8] c"aliasing detected during transposition, use transposeInPlace() or evaluate the rhs into a temporary using .eval()\00", align 1
@.str.127 = private unnamed_addr constant [275 x i8] c"(!check_transpose_aliasing_run_time_selector<typename Derived::Scalar, blas_traits<Derived>::IsTransposed, OtherDerived>::run(extract_data(dst), other)) && \22aliasing detected during transposition, use transposeInPlace() \22 \22or evaluate the rhs into a temporary using .eval()\22\00", align 1
@.str.128 = private unnamed_addr constant [29 x i8] c"./Eigen/src/Core/Transpose.h\00", align 1
@__PRETTY_FUNCTION__._ZN5Eigen8internal27checkTransposeAliasing_implINS_6MatrixIbLin1ELin1ELi0ELin1ELin1EEENS_9TransposeIS3_EELb1EE3runERKS3_RKS5_ = private unnamed_addr constant [332 x i8] c"static void Eigen::internal::checkTransposeAliasing_impl<Eigen::Matrix<bool, -1, -1, 0>, Eigen::Transpose<Eigen::Matrix<bool, -1, -1, 0>>, true>::run(const Derived &, const OtherDerived &) [Derived = Eigen::Matrix<bool, -1, -1, 0>, OtherDerived = Eigen::Transpose<Eigen::Matrix<bool, -1, -1, 0>>, MightHaveTransposeAliasing = true]\00", align 1
@__PRETTY_FUNCTION__._ZN5Eigen8internal17resize_if_allowedINS_6MatrixIbLin1ELin1ELi0ELin1ELin1EEENS_9TransposeIS3_EEbbEEvRT_RKT0_RKNS0_9assign_opIT1_T2_EE = private unnamed_addr constant [242 x i8] c"void Eigen::internal::resize_if_allowed(DstXprType &, const SrcXprType &, const internal::assign_op<T1, T2> &) [DstXprType = Eigen::Matrix<bool, -1, -1, 0>, SrcXprType = Eigen::Transpose<Eigen::Matrix<bool, -1, -1, 0>>, T1 = bool, T2 = bool]\00", align 1
@llvm.global_ctors = appending global [1 x { i32, ptr, ptr }] [{ i32, ptr, ptr } { i32 65535, ptr @_GLOBAL__sub_I_product_small.cpp, ptr null }]

; Function Attrs: noinline uwtable
define internal void @__cxx_global_var_init() #0 section ".text.startup" {
  call void @_ZNSt8ios_base4InitC1Ev(ptr noundef nonnull align 1 dereferenceable(1) @_ZStL8__ioinit)
  %1 = call i32 @__cxa_atexit(ptr @_ZNSt8ios_base4InitD1Ev, ptr @_ZStL8__ioinit, ptr @__dso_handle) #3
  ret void
}

declare void @_ZNSt8ios_base4InitC1Ev(ptr noundef nonnull align 1 dereferenceable(1)) unnamed_addr #1

; Function Attrs: nounwind
declare void @_ZNSt8ios_base4InitD1Ev(ptr noundef nonnull align 1 dereferenceable(1)) unnamed_addr #2

; Function Attrs: nounwind
declare i32 @__cxa_atexit(ptr, ptr, ptr) #3

; Function Attrs: noinline uwtable
define internal void @__cxx_global_var_init.1() #0 section ".text.startup" {
  call void @_ZNSt6vectorINSt7__cxx1112basic_stringIcSt11char_traitsIcESaIcEEESaIS5_EEC2Ev(ptr noundef nonnull align 8 dereferenceable(24) @_ZN5EigenL12g_test_stackB5cxx11E) #3
  %1 = call i32 @__cxa_atexit(ptr @_ZNSt6vectorINSt7__cxx1112basic_stringIcSt11char_traitsIcESaIcEEESaIS5_EED2Ev, ptr @_ZN5EigenL12g_test_stackB5cxx11E, ptr @__dso_handle) #3
  ret void
}

; Function Attrs: noinline nounwind optnone uwtable
define linkonce_odr dso_local void @_ZNSt6vectorINSt7__cxx1112basic_stringIcSt11char_traitsIcESaIcEEESaIS5_EEC2Ev(ptr noundef nonnull align 8 dereferenceable(24) %0) unnamed_addr #4 comdat align 2 {
  %2 = alloca ptr, align 8
  store ptr %0, ptr %2, align 8
  %3 = load ptr, ptr %2, align 8
  call void @_ZNSt12_Vector_baseINSt7__cxx1112basic_stringIcSt11char_traitsIcESaIcEEESaIS5_EEC2Ev(ptr noundef nonnull align 8 dereferenceable(24) %3) #3
  ret void
}

; Function Attrs: noinline nounwind optnone uwtable
define linkonce_odr dso_local void @_ZNSt6vectorINSt7__cxx1112basic_stringIcSt11char_traitsIcESaIcEEESaIS5_EED2Ev(ptr noundef nonnull align 8 dereferenceable(24) %0) unnamed_addr #4 comdat align 2 personality ptr @__gxx_personality_v0 {
  %2 = alloca ptr, align 8
  store ptr %0, ptr %2, align 8
  %3 = load ptr, ptr %2, align 8
  %4 = getelementptr inbounds %"struct.std::_Vector_base", ptr %3, i32 0, i32 0
  %5 = getelementptr inbounds %"struct.std::_Vector_base<std::__cxx11::basic_string<char>, std::allocator<std::__cxx11::basic_string<char>>>::_Vector_impl_data", ptr %4, i32 0, i32 0
  %6 = load ptr, ptr %5, align 8
  %7 = getelementptr inbounds %"struct.std::_Vector_base", ptr %3, i32 0, i32 0
  %8 = getelementptr inbounds %"struct.std::_Vector_base<std::__cxx11::basic_string<char>, std::allocator<std::__cxx11::basic_string<char>>>::_Vector_impl_data", ptr %7, i32 0, i32 1
  %9 = load ptr, ptr %8, align 8
  %10 = call noundef nonnull align 1 dereferenceable(1) ptr @_ZNSt12_Vector_baseINSt7__cxx1112basic_stringIcSt11char_traitsIcESaIcEEESaIS5_EE19_M_get_Tp_allocatorEv(ptr noundef nonnull align 8 dereferenceable(24) %3) #3
  invoke void @_ZSt8_DestroyIPNSt7__cxx1112basic_stringIcSt11char_traitsIcESaIcEEES5_EvT_S7_RSaIT0_E(ptr noundef %6, ptr noundef %9, ptr noundef nonnull align 1 dereferenceable(1) %10)
          to label %11 unwind label %12

11:                                               ; preds = %1
  call void @_ZNSt12_Vector_baseINSt7__cxx1112basic_stringIcSt11char_traitsIcESaIcEEESaIS5_EED2Ev(ptr noundef nonnull align 8 dereferenceable(24) %3) #3
  ret void

12:                                               ; preds = %1
  %13 = landingpad { ptr, i32 }
          catch ptr null
  %14 = extractvalue { ptr, i32 } %13, 0
  call void @__clang_call_terminate(ptr %14) #24
  unreachable
}

; Function Attrs: mustprogress noinline optnone uwtable
define dso_local void @_Z9type_nameIfENSt7__cxx1112basic_stringIcSt11char_traitsIcESaIcEEET_(ptr noalias sret(%"class.std::__cxx11::basic_string") align 8 %0, float noundef %1) #5 personality ptr @__gxx_personality_v0 {
  %3 = alloca ptr, align 8
  %4 = alloca float, align 4
  %5 = alloca %"class.std::allocator.0", align 1
  %6 = alloca ptr, align 8
  %7 = alloca i32, align 4
  store ptr %0, ptr %3, align 8
  store float %1, ptr %4, align 4
  call void @_ZNSaIcEC1Ev(ptr noundef nonnull align 1 dereferenceable(1) %5) #3
  invoke void @_ZNSt7__cxx1112basic_stringIcSt11char_traitsIcESaIcEEC1EPKcRKS3_(ptr noundef nonnull align 8 dereferenceable(32) %0, ptr noundef @.str, ptr noundef nonnull align 1 dereferenceable(1) %5)
          to label %8 unwind label %9

8:                                                ; preds = %2
  call void @_ZNSaIcED1Ev(ptr noundef nonnull align 1 dereferenceable(1) %5) #3
  ret void

9:                                                ; preds = %2
  %10 = landingpad { ptr, i32 }
          cleanup
  %11 = extractvalue { ptr, i32 } %10, 0
  store ptr %11, ptr %6, align 8
  %12 = extractvalue { ptr, i32 } %10, 1
  store i32 %12, ptr %7, align 4
  call void @_ZNSaIcED1Ev(ptr noundef nonnull align 1 dereferenceable(1) %5) #3
  br label %13

13:                                               ; preds = %9
  %14 = load ptr, ptr %6, align 8
  %15 = load i32, ptr %7, align 4
  %16 = insertvalue { ptr, i32 } undef, ptr %14, 0
  %17 = insertvalue { ptr, i32 } %16, i32 %15, 1
  resume { ptr, i32 } %17
}

; Function Attrs: nounwind
declare void @_ZNSaIcEC1Ev(ptr noundef nonnull align 1 dereferenceable(1)) unnamed_addr #2

declare void @_ZNSt7__cxx1112basic_stringIcSt11char_traitsIcESaIcEEC1EPKcRKS3_(ptr noundef nonnull align 8 dereferenceable(32), ptr noundef, ptr noundef nonnull align 1 dereferenceable(1)) unnamed_addr #1

declare i32 @__gxx_personality_v0(...)

; Function Attrs: nounwind
declare void @_ZNSaIcED1Ev(ptr noundef nonnull align 1 dereferenceable(1)) unnamed_addr #2

; Function Attrs: mustprogress noinline optnone uwtable
define dso_local void @_Z9type_nameIdENSt7__cxx1112basic_stringIcSt11char_traitsIcESaIcEEET_(ptr noalias sret(%"class.std::__cxx11::basic_string") align 8 %0, double noundef %1) #5 personality ptr @__gxx_personality_v0 {
  %3 = alloca ptr, align 8
  %4 = alloca double, align 8
  %5 = alloca %"class.std::allocator.0", align 1
  %6 = alloca ptr, align 8
  %7 = alloca i32, align 4
  store ptr %0, ptr %3, align 8
  store double %1, ptr %4, align 8
  call void @_ZNSaIcEC1Ev(ptr noundef nonnull align 1 dereferenceable(1) %5) #3
  invoke void @_ZNSt7__cxx1112basic_stringIcSt11char_traitsIcESaIcEEC1EPKcRKS3_(ptr noundef nonnull align 8 dereferenceable(32) %0, ptr noundef @.str.2, ptr noundef nonnull align 1 dereferenceable(1) %5)
          to label %8 unwind label %9

8:                                                ; preds = %2
  call void @_ZNSaIcED1Ev(ptr noundef nonnull align 1 dereferenceable(1) %5) #3
  ret void

9:                                                ; preds = %2
  %10 = landingpad { ptr, i32 }
          cleanup
  %11 = extractvalue { ptr, i32 } %10, 0
  store ptr %11, ptr %6, align 8
  %12 = extractvalue { ptr, i32 } %10, 1
  store i32 %12, ptr %7, align 4
  call void @_ZNSaIcED1Ev(ptr noundef nonnull align 1 dereferenceable(1) %5) #3
  br label %13

13:                                               ; preds = %9
  %14 = load ptr, ptr %6, align 8
  %15 = load i32, ptr %7, align 4
  %16 = insertvalue { ptr, i32 } undef, ptr %14, 0
  %17 = insertvalue { ptr, i32 } %16, i32 %15, 1
  resume { ptr, i32 } %17
}

; Function Attrs: mustprogress noinline optnone uwtable
define dso_local void @_Z9type_nameIeENSt7__cxx1112basic_stringIcSt11char_traitsIcESaIcEEET_(ptr noalias sret(%"class.std::__cxx11::basic_string") align 8 %0, x86_fp80 noundef %1) #5 personality ptr @__gxx_personality_v0 {
  %3 = alloca ptr, align 8
  %4 = alloca x86_fp80, align 16
  %5 = alloca %"class.std::allocator.0", align 1
  %6 = alloca ptr, align 8
  %7 = alloca i32, align 4
  store ptr %0, ptr %3, align 8
  store x86_fp80 %1, ptr %4, align 16
  call void @_ZNSaIcEC1Ev(ptr noundef nonnull align 1 dereferenceable(1) %5) #3
  invoke void @_ZNSt7__cxx1112basic_stringIcSt11char_traitsIcESaIcEEC1EPKcRKS3_(ptr noundef nonnull align 8 dereferenceable(32) %0, ptr noundef @.str.3, ptr noundef nonnull align 1 dereferenceable(1) %5)
          to label %8 unwind label %9

8:                                                ; preds = %2
  call void @_ZNSaIcED1Ev(ptr noundef nonnull align 1 dereferenceable(1) %5) #3
  ret void

9:                                                ; preds = %2
  %10 = landingpad { ptr, i32 }
          cleanup
  %11 = extractvalue { ptr, i32 } %10, 0
  store ptr %11, ptr %6, align 8
  %12 = extractvalue { ptr, i32 } %10, 1
  store i32 %12, ptr %7, align 4
  call void @_ZNSaIcED1Ev(ptr noundef nonnull align 1 dereferenceable(1) %5) #3
  br label %13

13:                                               ; preds = %9
  %14 = load ptr, ptr %6, align 8
  %15 = load i32, ptr %7, align 4
  %16 = insertvalue { ptr, i32 } undef, ptr %14, 0
  %17 = insertvalue { ptr, i32 } %16, i32 %15, 1
  resume { ptr, i32 } %17
}

; Function Attrs: mustprogress noinline optnone uwtable
define dso_local void @_Z9type_nameIN5Eigen4halfEENSt7__cxx1112basic_stringIcSt11char_traitsIcESaIcEEET_(ptr noalias sret(%"class.std::__cxx11::basic_string") align 8 %0, i16 %1) #5 personality ptr @__gxx_personality_v0 {
  %3 = alloca ptr, align 8
  %4 = alloca %"struct.Eigen::half", align 2
  %5 = alloca %"class.std::allocator.0", align 1
  %6 = alloca ptr, align 8
  %7 = alloca i32, align 4
  store ptr %0, ptr %3, align 8
  %8 = getelementptr inbounds %"struct.Eigen::half", ptr %4, i32 0, i32 0
  %9 = getelementptr inbounds %"struct.Eigen::half_impl::half_base", ptr %8, i32 0, i32 0
  %10 = getelementptr inbounds %"struct.Eigen::half_impl::__half_raw", ptr %9, i32 0, i32 0
  store i16 %1, ptr %10, align 2
  call void @_ZNSaIcEC1Ev(ptr noundef nonnull align 1 dereferenceable(1) %5) #3
  invoke void @_ZNSt7__cxx1112basic_stringIcSt11char_traitsIcESaIcEEC1EPKcRKS3_(ptr noundef nonnull align 8 dereferenceable(32) %0, ptr noundef @.str.4, ptr noundef nonnull align 1 dereferenceable(1) %5)
          to label %11 unwind label %12

11:                                               ; preds = %2
  call void @_ZNSaIcED1Ev(ptr noundef nonnull align 1 dereferenceable(1) %5) #3
  ret void

12:                                               ; preds = %2
  %13 = landingpad { ptr, i32 }
          cleanup
  %14 = extractvalue { ptr, i32 } %13, 0
  store ptr %14, ptr %6, align 8
  %15 = extractvalue { ptr, i32 } %13, 1
  store i32 %15, ptr %7, align 4
  call void @_ZNSaIcED1Ev(ptr noundef nonnull align 1 dereferenceable(1) %5) #3
  br label %16

16:                                               ; preds = %12
  %17 = load ptr, ptr %6, align 8
  %18 = load i32, ptr %7, align 4
  %19 = insertvalue { ptr, i32 } undef, ptr %17, 0
  %20 = insertvalue { ptr, i32 } %19, i32 %18, 1
  resume { ptr, i32 } %20
}

; Function Attrs: mustprogress noinline optnone uwtable
define dso_local void @_Z9type_nameIN5Eigen8bfloat16EENSt7__cxx1112basic_stringIcSt11char_traitsIcESaIcEEET_(ptr noalias sret(%"class.std::__cxx11::basic_string") align 8 %0, i16 %1) #5 personality ptr @__gxx_personality_v0 {
  %3 = alloca ptr, align 8
  %4 = alloca %"struct.Eigen::bfloat16", align 2
  %5 = alloca %"class.std::allocator.0", align 1
  %6 = alloca ptr, align 8
  %7 = alloca i32, align 4
  store ptr %0, ptr %3, align 8
  %8 = getelementptr inbounds %"struct.Eigen::bfloat16", ptr %4, i32 0, i32 0
  %9 = getelementptr inbounds %"struct.Eigen::bfloat16_impl::bfloat16_base", ptr %8, i32 0, i32 0
  %10 = getelementptr inbounds %"struct.Eigen::bfloat16_impl::__bfloat16_raw", ptr %9, i32 0, i32 0
  store i16 %1, ptr %10, align 2
  call void @_ZNSaIcEC1Ev(ptr noundef nonnull align 1 dereferenceable(1) %5) #3
  invoke void @_ZNSt7__cxx1112basic_stringIcSt11char_traitsIcESaIcEEC1EPKcRKS3_(ptr noundef nonnull align 8 dereferenceable(32) %0, ptr noundef @.str.5, ptr noundef nonnull align 1 dereferenceable(1) %5)
          to label %11 unwind label %12

11:                                               ; preds = %2
  call void @_ZNSaIcED1Ev(ptr noundef nonnull align 1 dereferenceable(1) %5) #3
  ret void

12:                                               ; preds = %2
  %13 = landingpad { ptr, i32 }
          cleanup
  %14 = extractvalue { ptr, i32 } %13, 0
  store ptr %14, ptr %6, align 8
  %15 = extractvalue { ptr, i32 } %13, 1
  store i32 %15, ptr %7, align 4
  call void @_ZNSaIcED1Ev(ptr noundef nonnull align 1 dereferenceable(1) %5) #3
  br label %16

16:                                               ; preds = %12
  %17 = load ptr, ptr %6, align 8
  %18 = load i32, ptr %7, align 4
  %19 = insertvalue { ptr, i32 } undef, ptr %17, 0
  %20 = insertvalue { ptr, i32 } %19, i32 %18, 1
  resume { ptr, i32 } %20
}

; Function Attrs: mustprogress noinline optnone uwtable
define dso_local void @_Z9type_nameIaENSt7__cxx1112basic_stringIcSt11char_traitsIcESaIcEEET_(ptr noalias sret(%"class.std::__cxx11::basic_string") align 8 %0, i8 noundef signext %1) #5 personality ptr @__gxx_personality_v0 {
  %3 = alloca ptr, align 8
  %4 = alloca i8, align 1
  %5 = alloca %"class.std::allocator.0", align 1
  %6 = alloca ptr, align 8
  %7 = alloca i32, align 4
  store ptr %0, ptr %3, align 8
  store i8 %1, ptr %4, align 1
  call void @_ZNSaIcEC1Ev(ptr noundef nonnull align 1 dereferenceable(1) %5) #3
  invoke void @_ZNSt7__cxx1112basic_stringIcSt11char_traitsIcESaIcEEC1EPKcRKS3_(ptr noundef nonnull align 8 dereferenceable(32) %0, ptr noundef @.str.6, ptr noundef nonnull align 1 dereferenceable(1) %5)
          to label %8 unwind label %9

8:                                                ; preds = %2
  call void @_ZNSaIcED1Ev(ptr noundef nonnull align 1 dereferenceable(1) %5) #3
  ret void

9:                                                ; preds = %2
  %10 = landingpad { ptr, i32 }
          cleanup
  %11 = extractvalue { ptr, i32 } %10, 0
  store ptr %11, ptr %6, align 8
  %12 = extractvalue { ptr, i32 } %10, 1
  store i32 %12, ptr %7, align 4
  call void @_ZNSaIcED1Ev(ptr noundef nonnull align 1 dereferenceable(1) %5) #3
  br label %13

13:                                               ; preds = %9
  %14 = load ptr, ptr %6, align 8
  %15 = load i32, ptr %7, align 4
  %16 = insertvalue { ptr, i32 } undef, ptr %14, 0
  %17 = insertvalue { ptr, i32 } %16, i32 %15, 1
  resume { ptr, i32 } %17
}

; Function Attrs: mustprogress noinline optnone uwtable
define dso_local void @_Z9type_nameIsENSt7__cxx1112basic_stringIcSt11char_traitsIcESaIcEEET_(ptr noalias sret(%"class.std::__cxx11::basic_string") align 8 %0, i16 noundef signext %1) #5 personality ptr @__gxx_personality_v0 {
  %3 = alloca ptr, align 8
  %4 = alloca i16, align 2
  %5 = alloca %"class.std::allocator.0", align 1
  %6 = alloca ptr, align 8
  %7 = alloca i32, align 4
  store ptr %0, ptr %3, align 8
  store i16 %1, ptr %4, align 2
  call void @_ZNSaIcEC1Ev(ptr noundef nonnull align 1 dereferenceable(1) %5) #3
  invoke void @_ZNSt7__cxx1112basic_stringIcSt11char_traitsIcESaIcEEC1EPKcRKS3_(ptr noundef nonnull align 8 dereferenceable(32) %0, ptr noundef @.str.7, ptr noundef nonnull align 1 dereferenceable(1) %5)
          to label %8 unwind label %9

8:                                                ; preds = %2
  call void @_ZNSaIcED1Ev(ptr noundef nonnull align 1 dereferenceable(1) %5) #3
  ret void

9:                                                ; preds = %2
  %10 = landingpad { ptr, i32 }
          cleanup
  %11 = extractvalue { ptr, i32 } %10, 0
  store ptr %11, ptr %6, align 8
  %12 = extractvalue { ptr, i32 } %10, 1
  store i32 %12, ptr %7, align 4
  call void @_ZNSaIcED1Ev(ptr noundef nonnull align 1 dereferenceable(1) %5) #3
  br label %13

13:                                               ; preds = %9
  %14 = load ptr, ptr %6, align 8
  %15 = load i32, ptr %7, align 4
  %16 = insertvalue { ptr, i32 } undef, ptr %14, 0
  %17 = insertvalue { ptr, i32 } %16, i32 %15, 1
  resume { ptr, i32 } %17
}

; Function Attrs: mustprogress noinline optnone uwtable
define dso_local void @_Z9type_nameIiENSt7__cxx1112basic_stringIcSt11char_traitsIcESaIcEEET_(ptr noalias sret(%"class.std::__cxx11::basic_string") align 8 %0, i32 noundef %1) #5 personality ptr @__gxx_personality_v0 {
  %3 = alloca ptr, align 8
  %4 = alloca i32, align 4
  %5 = alloca %"class.std::allocator.0", align 1
  %6 = alloca ptr, align 8
  %7 = alloca i32, align 4
  store ptr %0, ptr %3, align 8
  store i32 %1, ptr %4, align 4
  call void @_ZNSaIcEC1Ev(ptr noundef nonnull align 1 dereferenceable(1) %5) #3
  invoke void @_ZNSt7__cxx1112basic_stringIcSt11char_traitsIcESaIcEEC1EPKcRKS3_(ptr noundef nonnull align 8 dereferenceable(32) %0, ptr noundef @.str.8, ptr noundef nonnull align 1 dereferenceable(1) %5)
          to label %8 unwind label %9

8:                                                ; preds = %2
  call void @_ZNSaIcED1Ev(ptr noundef nonnull align 1 dereferenceable(1) %5) #3
  ret void

9:                                                ; preds = %2
  %10 = landingpad { ptr, i32 }
          cleanup
  %11 = extractvalue { ptr, i32 } %10, 0
  store ptr %11, ptr %6, align 8
  %12 = extractvalue { ptr, i32 } %10, 1
  store i32 %12, ptr %7, align 4
  call void @_ZNSaIcED1Ev(ptr noundef nonnull align 1 dereferenceable(1) %5) #3
  br label %13

13:                                               ; preds = %9
  %14 = load ptr, ptr %6, align 8
  %15 = load i32, ptr %7, align 4
  %16 = insertvalue { ptr, i32 } undef, ptr %14, 0
  %17 = insertvalue { ptr, i32 } %16, i32 %15, 1
  resume { ptr, i32 } %17
}

; Function Attrs: mustprogress noinline optnone uwtable
define dso_local void @_Z9type_nameIlENSt7__cxx1112basic_stringIcSt11char_traitsIcESaIcEEET_(ptr noalias sret(%"class.std::__cxx11::basic_string") align 8 %0, i64 noundef %1) #5 personality ptr @__gxx_personality_v0 {
  %3 = alloca ptr, align 8
  %4 = alloca i64, align 8
  %5 = alloca %"class.std::allocator.0", align 1
  %6 = alloca ptr, align 8
  %7 = alloca i32, align 4
  store ptr %0, ptr %3, align 8
  store i64 %1, ptr %4, align 8
  call void @_ZNSaIcEC1Ev(ptr noundef nonnull align 1 dereferenceable(1) %5) #3
  invoke void @_ZNSt7__cxx1112basic_stringIcSt11char_traitsIcESaIcEEC1EPKcRKS3_(ptr noundef nonnull align 8 dereferenceable(32) %0, ptr noundef @.str.9, ptr noundef nonnull align 1 dereferenceable(1) %5)
          to label %8 unwind label %9

8:                                                ; preds = %2
  call void @_ZNSaIcED1Ev(ptr noundef nonnull align 1 dereferenceable(1) %5) #3
  ret void

9:                                                ; preds = %2
  %10 = landingpad { ptr, i32 }
          cleanup
  %11 = extractvalue { ptr, i32 } %10, 0
  store ptr %11, ptr %6, align 8
  %12 = extractvalue { ptr, i32 } %10, 1
  store i32 %12, ptr %7, align 4
  call void @_ZNSaIcED1Ev(ptr noundef nonnull align 1 dereferenceable(1) %5) #3
  br label %13

13:                                               ; preds = %9
  %14 = load ptr, ptr %6, align 8
  %15 = load i32, ptr %7, align 4
  %16 = insertvalue { ptr, i32 } undef, ptr %14, 0
  %17 = insertvalue { ptr, i32 } %16, i32 %15, 1
  resume { ptr, i32 } %17
}

; Function Attrs: mustprogress noinline optnone uwtable
define dso_local void @_Z9type_nameIhENSt7__cxx1112basic_stringIcSt11char_traitsIcESaIcEEET_(ptr noalias sret(%"class.std::__cxx11::basic_string") align 8 %0, i8 noundef zeroext %1) #5 personality ptr @__gxx_personality_v0 {
  %3 = alloca ptr, align 8
  %4 = alloca i8, align 1
  %5 = alloca %"class.std::allocator.0", align 1
  %6 = alloca ptr, align 8
  %7 = alloca i32, align 4
  store ptr %0, ptr %3, align 8
  store i8 %1, ptr %4, align 1
  call void @_ZNSaIcEC1Ev(ptr noundef nonnull align 1 dereferenceable(1) %5) #3
  invoke void @_ZNSt7__cxx1112basic_stringIcSt11char_traitsIcESaIcEEC1EPKcRKS3_(ptr noundef nonnull align 8 dereferenceable(32) %0, ptr noundef @.str.10, ptr noundef nonnull align 1 dereferenceable(1) %5)
          to label %8 unwind label %9

8:                                                ; preds = %2
  call void @_ZNSaIcED1Ev(ptr noundef nonnull align 1 dereferenceable(1) %5) #3
  ret void

9:                                                ; preds = %2
  %10 = landingpad { ptr, i32 }
          cleanup
  %11 = extractvalue { ptr, i32 } %10, 0
  store ptr %11, ptr %6, align 8
  %12 = extractvalue { ptr, i32 } %10, 1
  store i32 %12, ptr %7, align 4
  call void @_ZNSaIcED1Ev(ptr noundef nonnull align 1 dereferenceable(1) %5) #3
  br label %13

13:                                               ; preds = %9
  %14 = load ptr, ptr %6, align 8
  %15 = load i32, ptr %7, align 4
  %16 = insertvalue { ptr, i32 } undef, ptr %14, 0
  %17 = insertvalue { ptr, i32 } %16, i32 %15, 1
  resume { ptr, i32 } %17
}

; Function Attrs: mustprogress noinline optnone uwtable
define dso_local void @_Z9type_nameItENSt7__cxx1112basic_stringIcSt11char_traitsIcESaIcEEET_(ptr noalias sret(%"class.std::__cxx11::basic_string") align 8 %0, i16 noundef zeroext %1) #5 personality ptr @__gxx_personality_v0 {
  %3 = alloca ptr, align 8
  %4 = alloca i16, align 2
  %5 = alloca %"class.std::allocator.0", align 1
  %6 = alloca ptr, align 8
  %7 = alloca i32, align 4
  store ptr %0, ptr %3, align 8
  store i16 %1, ptr %4, align 2
  call void @_ZNSaIcEC1Ev(ptr noundef nonnull align 1 dereferenceable(1) %5) #3
  invoke void @_ZNSt7__cxx1112basic_stringIcSt11char_traitsIcESaIcEEC1EPKcRKS3_(ptr noundef nonnull align 8 dereferenceable(32) %0, ptr noundef @.str.11, ptr noundef nonnull align 1 dereferenceable(1) %5)
          to label %8 unwind label %9

8:                                                ; preds = %2
  call void @_ZNSaIcED1Ev(ptr noundef nonnull align 1 dereferenceable(1) %5) #3
  ret void

9:                                                ; preds = %2
  %10 = landingpad { ptr, i32 }
          cleanup
  %11 = extractvalue { ptr, i32 } %10, 0
  store ptr %11, ptr %6, align 8
  %12 = extractvalue { ptr, i32 } %10, 1
  store i32 %12, ptr %7, align 4
  call void @_ZNSaIcED1Ev(ptr noundef nonnull align 1 dereferenceable(1) %5) #3
  br label %13

13:                                               ; preds = %9
  %14 = load ptr, ptr %6, align 8
  %15 = load i32, ptr %7, align 4
  %16 = insertvalue { ptr, i32 } undef, ptr %14, 0
  %17 = insertvalue { ptr, i32 } %16, i32 %15, 1
  resume { ptr, i32 } %17
}

; Function Attrs: mustprogress noinline optnone uwtable
define dso_local void @_Z9type_nameIjENSt7__cxx1112basic_stringIcSt11char_traitsIcESaIcEEET_(ptr noalias sret(%"class.std::__cxx11::basic_string") align 8 %0, i32 noundef %1) #5 personality ptr @__gxx_personality_v0 {
  %3 = alloca ptr, align 8
  %4 = alloca i32, align 4
  %5 = alloca %"class.std::allocator.0", align 1
  %6 = alloca ptr, align 8
  %7 = alloca i32, align 4
  store ptr %0, ptr %3, align 8
  store i32 %1, ptr %4, align 4
  call void @_ZNSaIcEC1Ev(ptr noundef nonnull align 1 dereferenceable(1) %5) #3
  invoke void @_ZNSt7__cxx1112basic_stringIcSt11char_traitsIcESaIcEEC1EPKcRKS3_(ptr noundef nonnull align 8 dereferenceable(32) %0, ptr noundef @.str.12, ptr noundef nonnull align 1 dereferenceable(1) %5)
          to label %8 unwind label %9

8:                                                ; preds = %2
  call void @_ZNSaIcED1Ev(ptr noundef nonnull align 1 dereferenceable(1) %5) #3
  ret void

9:                                                ; preds = %2
  %10 = landingpad { ptr, i32 }
          cleanup
  %11 = extractvalue { ptr, i32 } %10, 0
  store ptr %11, ptr %6, align 8
  %12 = extractvalue { ptr, i32 } %10, 1
  store i32 %12, ptr %7, align 4
  call void @_ZNSaIcED1Ev(ptr noundef nonnull align 1 dereferenceable(1) %5) #3
  br label %13

13:                                               ; preds = %9
  %14 = load ptr, ptr %6, align 8
  %15 = load i32, ptr %7, align 4
  %16 = insertvalue { ptr, i32 } undef, ptr %14, 0
  %17 = insertvalue { ptr, i32 } %16, i32 %15, 1
  resume { ptr, i32 } %17
}

; Function Attrs: mustprogress noinline optnone uwtable
define dso_local void @_Z9type_nameImENSt7__cxx1112basic_stringIcSt11char_traitsIcESaIcEEET_(ptr noalias sret(%"class.std::__cxx11::basic_string") align 8 %0, i64 noundef %1) #5 personality ptr @__gxx_personality_v0 {
  %3 = alloca ptr, align 8
  %4 = alloca i64, align 8
  %5 = alloca %"class.std::allocator.0", align 1
  %6 = alloca ptr, align 8
  %7 = alloca i32, align 4
  store ptr %0, ptr %3, align 8
  store i64 %1, ptr %4, align 8
  call void @_ZNSaIcEC1Ev(ptr noundef nonnull align 1 dereferenceable(1) %5) #3
  invoke void @_ZNSt7__cxx1112basic_stringIcSt11char_traitsIcESaIcEEC1EPKcRKS3_(ptr noundef nonnull align 8 dereferenceable(32) %0, ptr noundef @.str.13, ptr noundef nonnull align 1 dereferenceable(1) %5)
          to label %8 unwind label %9

8:                                                ; preds = %2
  call void @_ZNSaIcED1Ev(ptr noundef nonnull align 1 dereferenceable(1) %5) #3
  ret void

9:                                                ; preds = %2
  %10 = landingpad { ptr, i32 }
          cleanup
  %11 = extractvalue { ptr, i32 } %10, 0
  store ptr %11, ptr %6, align 8
  %12 = extractvalue { ptr, i32 } %10, 1
  store i32 %12, ptr %7, align 4
  call void @_ZNSaIcED1Ev(ptr noundef nonnull align 1 dereferenceable(1) %5) #3
  br label %13

13:                                               ; preds = %9
  %14 = load ptr, ptr %6, align 8
  %15 = load i32, ptr %7, align 4
  %16 = insertvalue { ptr, i32 } undef, ptr %14, 0
  %17 = insertvalue { ptr, i32 } %16, i32 %15, 1
  resume { ptr, i32 } %17
}

; Function Attrs: mustprogress noinline optnone uwtable
define dso_local void @_Z9type_nameISt7complexIfEENSt7__cxx1112basic_stringIcSt11char_traitsIcESaIcEEET_(ptr noalias sret(%"class.std::__cxx11::basic_string") align 8 %0, <2 x float> %1) #6 personality ptr @__gxx_personality_v0 {
  %3 = alloca ptr, align 8
  %4 = alloca %"class.std::complex", align 4
  %5 = alloca %"class.std::allocator.0", align 1
  %6 = alloca ptr, align 8
  %7 = alloca i32, align 4
  store ptr %0, ptr %3, align 8
  %8 = getelementptr inbounds %"class.std::complex", ptr %4, i32 0, i32 0
  store <2 x float> %1, ptr %8, align 4
  call void @_ZNSaIcEC1Ev(ptr noundef nonnull align 1 dereferenceable(1) %5) #3
  invoke void @_ZNSt7__cxx1112basic_stringIcSt11char_traitsIcESaIcEEC1EPKcRKS3_(ptr noundef nonnull align 8 dereferenceable(32) %0, ptr noundef @.str.14, ptr noundef nonnull align 1 dereferenceable(1) %5)
          to label %9 unwind label %10

9:                                                ; preds = %2
  call void @_ZNSaIcED1Ev(ptr noundef nonnull align 1 dereferenceable(1) %5) #3
  ret void

10:                                               ; preds = %2
  %11 = landingpad { ptr, i32 }
          cleanup
  %12 = extractvalue { ptr, i32 } %11, 0
  store ptr %12, ptr %6, align 8
  %13 = extractvalue { ptr, i32 } %11, 1
  store i32 %13, ptr %7, align 4
  call void @_ZNSaIcED1Ev(ptr noundef nonnull align 1 dereferenceable(1) %5) #3
  br label %14

14:                                               ; preds = %10
  %15 = load ptr, ptr %6, align 8
  %16 = load i32, ptr %7, align 4
  %17 = insertvalue { ptr, i32 } undef, ptr %15, 0
  %18 = insertvalue { ptr, i32 } %17, i32 %16, 1
  resume { ptr, i32 } %18
}

; Function Attrs: mustprogress noinline optnone uwtable
define dso_local void @_Z9type_nameISt7complexIdEENSt7__cxx1112basic_stringIcSt11char_traitsIcESaIcEEET_(ptr noalias sret(%"class.std::__cxx11::basic_string") align 8 %0, double %1, double %2) #5 personality ptr @__gxx_personality_v0 {
  %4 = alloca ptr, align 8
  %5 = alloca %"class.std::complex.3", align 8
  %6 = alloca %"class.std::allocator.0", align 1
  %7 = alloca ptr, align 8
  %8 = alloca i32, align 4
  store ptr %0, ptr %4, align 8
  %9 = getelementptr inbounds { double, double }, ptr %5, i32 0, i32 0
  store double %1, ptr %9, align 8
  %10 = getelementptr inbounds { double, double }, ptr %5, i32 0, i32 1
  store double %2, ptr %10, align 8
  call void @_ZNSaIcEC1Ev(ptr noundef nonnull align 1 dereferenceable(1) %6) #3
  invoke void @_ZNSt7__cxx1112basic_stringIcSt11char_traitsIcESaIcEEC1EPKcRKS3_(ptr noundef nonnull align 8 dereferenceable(32) %0, ptr noundef @.str.15, ptr noundef nonnull align 1 dereferenceable(1) %6)
          to label %11 unwind label %12

11:                                               ; preds = %3
  call void @_ZNSaIcED1Ev(ptr noundef nonnull align 1 dereferenceable(1) %6) #3
  ret void

12:                                               ; preds = %3
  %13 = landingpad { ptr, i32 }
          cleanup
  %14 = extractvalue { ptr, i32 } %13, 0
  store ptr %14, ptr %7, align 8
  %15 = extractvalue { ptr, i32 } %13, 1
  store i32 %15, ptr %8, align 4
  call void @_ZNSaIcED1Ev(ptr noundef nonnull align 1 dereferenceable(1) %6) #3
  br label %16

16:                                               ; preds = %12
  %17 = load ptr, ptr %7, align 8
  %18 = load i32, ptr %8, align 4
  %19 = insertvalue { ptr, i32 } undef, ptr %17, 0
  %20 = insertvalue { ptr, i32 } %19, i32 %18, 1
  resume { ptr, i32 } %20
}

; Function Attrs: mustprogress noinline optnone uwtable
define dso_local void @_Z9type_nameISt7complexIeEENSt7__cxx1112basic_stringIcSt11char_traitsIcESaIcEEET_(ptr noalias sret(%"class.std::__cxx11::basic_string") align 8 %0, ptr noundef byval(%"class.std::complex.4") align 16 %1) #5 personality ptr @__gxx_personality_v0 {
  %3 = alloca ptr, align 8
  %4 = alloca %"class.std::allocator.0", align 1
  %5 = alloca ptr, align 8
  %6 = alloca i32, align 4
  store ptr %0, ptr %3, align 8
  call void @_ZNSaIcEC1Ev(ptr noundef nonnull align 1 dereferenceable(1) %4) #3
  invoke void @_ZNSt7__cxx1112basic_stringIcSt11char_traitsIcESaIcEEC1EPKcRKS3_(ptr noundef nonnull align 8 dereferenceable(32) %0, ptr noundef @.str.16, ptr noundef nonnull align 1 dereferenceable(1) %4)
          to label %7 unwind label %8

7:                                                ; preds = %2
  call void @_ZNSaIcED1Ev(ptr noundef nonnull align 1 dereferenceable(1) %4) #3
  ret void

8:                                                ; preds = %2
  %9 = landingpad { ptr, i32 }
          cleanup
  %10 = extractvalue { ptr, i32 } %9, 0
  store ptr %10, ptr %5, align 8
  %11 = extractvalue { ptr, i32 } %9, 1
  store i32 %11, ptr %6, align 4
  call void @_ZNSaIcED1Ev(ptr noundef nonnull align 1 dereferenceable(1) %4) #3
  br label %12

12:                                               ; preds = %8
  %13 = load ptr, ptr %5, align 8
  %14 = load i32, ptr %6, align 4
  %15 = insertvalue { ptr, i32 } undef, ptr %13, 0
  %16 = insertvalue { ptr, i32 } %15, i32 %14, 1
  resume { ptr, i32 } %16
}

; Function Attrs: mustprogress noinline optnone uwtable
define dso_local void @_Z9type_nameISt7complexIiEENSt7__cxx1112basic_stringIcSt11char_traitsIcESaIcEEET_(ptr noalias sret(%"class.std::__cxx11::basic_string") align 8 %0, i64 %1) #5 personality ptr @__gxx_personality_v0 {
  %3 = alloca ptr, align 8
  %4 = alloca %"class.std::complex.5", align 4
  %5 = alloca %"class.std::allocator.0", align 1
  %6 = alloca ptr, align 8
  %7 = alloca i32, align 4
  store ptr %0, ptr %3, align 8
  store i64 %1, ptr %4, align 4
  call void @_ZNSaIcEC1Ev(ptr noundef nonnull align 1 dereferenceable(1) %5) #3
  invoke void @_ZNSt7__cxx1112basic_stringIcSt11char_traitsIcESaIcEEC1EPKcRKS3_(ptr noundef nonnull align 8 dereferenceable(32) %0, ptr noundef @.str.17, ptr noundef nonnull align 1 dereferenceable(1) %5)
          to label %8 unwind label %9

8:                                                ; preds = %2
  call void @_ZNSaIcED1Ev(ptr noundef nonnull align 1 dereferenceable(1) %5) #3
  ret void

9:                                                ; preds = %2
  %10 = landingpad { ptr, i32 }
          cleanup
  %11 = extractvalue { ptr, i32 } %10, 0
  store ptr %11, ptr %6, align 8
  %12 = extractvalue { ptr, i32 } %10, 1
  store i32 %12, ptr %7, align 4
  call void @_ZNSaIcED1Ev(ptr noundef nonnull align 1 dereferenceable(1) %5) #3
  br label %13

13:                                               ; preds = %9
  %14 = load ptr, ptr %6, align 8
  %15 = load i32, ptr %7, align 4
  %16 = insertvalue { ptr, i32 } undef, ptr %14, 0
  %17 = insertvalue { ptr, i32 } %16, i32 %15, 1
  resume { ptr, i32 } %17
}

; Function Attrs: mustprogress noinline norecurse optnone uwtable
define dso_local noundef i32 @main(i32 noundef %0, ptr noundef %1) #7 personality ptr @__gxx_personality_v0 {
  %3 = alloca i32, align 4
  %4 = alloca i32, align 4
  %5 = alloca ptr, align 8
  %6 = alloca i8, align 1
  %7 = alloca i32, align 4
  %8 = alloca ptr, align 8
  %9 = alloca ptr, align 8
  %10 = alloca %"class.std::__cxx11::basic_stringstream", align 8
  %11 = alloca ptr, align 8
  %12 = alloca i32, align 4
  %13 = alloca %"class.std::__cxx11::basic_string", align 8
  %14 = alloca i64, align 8
  %15 = alloca ptr, align 8
  store i32 0, ptr %3, align 4
  store i32 %0, ptr %4, align 4
  store ptr %1, ptr %5, align 8
  store i8 0, ptr @_ZN5EigenL16g_has_set_repeatE, align 1
  store i8 0, ptr @_ZN5EigenL14g_has_set_seedE, align 1
  store i8 0, ptr %6, align 1
  store i32 1, ptr %7, align 4
  br label %16

16:                                               ; preds = %83, %2
  %17 = load i32, ptr %7, align 4
  %18 = load i32, ptr %4, align 4
  %19 = icmp slt i32 %17, %18
  br i1 %19, label %20, label %86

20:                                               ; preds = %16
  %21 = load ptr, ptr %5, align 8
  %22 = load i32, ptr %7, align 4
  %23 = sext i32 %22 to i64
  %24 = getelementptr inbounds ptr, ptr %21, i64 %23
  %25 = load ptr, ptr %24, align 8
  %26 = getelementptr inbounds i8, ptr %25, i64 0
  %27 = load i8, ptr %26, align 1
  %28 = sext i8 %27 to i32
  %29 = icmp eq i32 %28, 114
  br i1 %29, label %30, label %50

30:                                               ; preds = %20
  %31 = load i8, ptr @_ZN5EigenL16g_has_set_repeatE, align 1
  %32 = trunc i8 %31 to i1
  br i1 %32, label %33, label %43

33:                                               ; preds = %30
  %34 = call noundef nonnull align 8 dereferenceable(8) ptr @_ZStlsISt11char_traitsIcEERSt13basic_ostreamIcT_ES5_PKc(ptr noundef nonnull align 8 dereferenceable(8) @_ZSt4cout, ptr noundef @.str.18)
  %35 = load ptr, ptr %5, align 8
  %36 = load i32, ptr %7, align 4
  %37 = sext i32 %36 to i64
  %38 = getelementptr inbounds ptr, ptr %35, i64 %37
  %39 = load ptr, ptr %38, align 8
  %40 = call noundef nonnull align 8 dereferenceable(8) ptr @_ZStlsISt11char_traitsIcEERSt13basic_ostreamIcT_ES5_PKc(ptr noundef nonnull align 8 dereferenceable(8) %34, ptr noundef %39)
  %41 = call noundef nonnull align 8 dereferenceable(8) ptr @_ZStlsISt11char_traitsIcEERSt13basic_ostreamIcT_ES5_PKc(ptr noundef nonnull align 8 dereferenceable(8) %40, ptr noundef @.str.19)
  %42 = call noundef nonnull align 8 dereferenceable(8) ptr @_ZNSolsEPFRSoS_E(ptr noundef nonnull align 8 dereferenceable(8) %41, ptr noundef @_ZSt4endlIcSt11char_traitsIcEERSt13basic_ostreamIT_T0_ES6_)
  store i32 1, ptr %3, align 4
  br label %192

43:                                               ; preds = %30
  %44 = load ptr, ptr %5, align 8
  %45 = load i32, ptr %7, align 4
  %46 = sext i32 %45 to i64
  %47 = getelementptr inbounds ptr, ptr %44, i64 %46
  %48 = load ptr, ptr %47, align 8
  %49 = getelementptr inbounds i8, ptr %48, i64 1
  call void @_Z22set_repeat_from_stringPKc(ptr noundef %49)
  br label %82

50:                                               ; preds = %20
  %51 = load ptr, ptr %5, align 8
  %52 = load i32, ptr %7, align 4
  %53 = sext i32 %52 to i64
  %54 = getelementptr inbounds ptr, ptr %51, i64 %53
  %55 = load ptr, ptr %54, align 8
  %56 = getelementptr inbounds i8, ptr %55, i64 0
  %57 = load i8, ptr %56, align 1
  %58 = sext i8 %57 to i32
  %59 = icmp eq i32 %58, 115
  br i1 %59, label %60, label %80

60:                                               ; preds = %50
  %61 = load i8, ptr @_ZN5EigenL14g_has_set_seedE, align 1
  %62 = trunc i8 %61 to i1
  br i1 %62, label %63, label %73

63:                                               ; preds = %60
  %64 = call noundef nonnull align 8 dereferenceable(8) ptr @_ZStlsISt11char_traitsIcEERSt13basic_ostreamIcT_ES5_PKc(ptr noundef nonnull align 8 dereferenceable(8) @_ZSt4cout, ptr noundef @.str.18)
  %65 = load ptr, ptr %5, align 8
  %66 = load i32, ptr %7, align 4
  %67 = sext i32 %66 to i64
  %68 = getelementptr inbounds ptr, ptr %65, i64 %67
  %69 = load ptr, ptr %68, align 8
  %70 = call noundef nonnull align 8 dereferenceable(8) ptr @_ZStlsISt11char_traitsIcEERSt13basic_ostreamIcT_ES5_PKc(ptr noundef nonnull align 8 dereferenceable(8) %64, ptr noundef %69)
  %71 = call noundef nonnull align 8 dereferenceable(8) ptr @_ZStlsISt11char_traitsIcEERSt13basic_ostreamIcT_ES5_PKc(ptr noundef nonnull align 8 dereferenceable(8) %70, ptr noundef @.str.19)
  %72 = call noundef nonnull align 8 dereferenceable(8) ptr @_ZNSolsEPFRSoS_E(ptr noundef nonnull align 8 dereferenceable(8) %71, ptr noundef @_ZSt4endlIcSt11char_traitsIcEERSt13basic_ostreamIT_T0_ES6_)
  store i32 1, ptr %3, align 4
  br label %192

73:                                               ; preds = %60
  %74 = load ptr, ptr %5, align 8
  %75 = load i32, ptr %7, align 4
  %76 = sext i32 %75 to i64
  %77 = getelementptr inbounds ptr, ptr %74, i64 %76
  %78 = load ptr, ptr %77, align 8
  %79 = getelementptr inbounds i8, ptr %78, i64 1
  call void @_Z20set_seed_from_stringPKc(ptr noundef %79)
  br label %81

80:                                               ; preds = %50
  store i8 1, ptr %6, align 1
  br label %81

81:                                               ; preds = %80, %73
  br label %82

82:                                               ; preds = %81, %43
  br label %83

83:                                               ; preds = %82
  %84 = load i32, ptr %7, align 4
  %85 = add nsw i32 %84, 1
  store i32 %85, ptr %7, align 4
  br label %16, !llvm.loop !6

86:                                               ; preds = %16
  %87 = load i8, ptr %6, align 1
  %88 = trunc i8 %87 to i1
  br i1 %88, label %89, label %103

89:                                               ; preds = %86
  %90 = call noundef nonnull align 8 dereferenceable(8) ptr @_ZStlsISt11char_traitsIcEERSt13basic_ostreamIcT_ES5_PKc(ptr noundef nonnull align 8 dereferenceable(8) @_ZSt4cout, ptr noundef @.str.20)
  %91 = call noundef nonnull align 8 dereferenceable(8) ptr @_ZNSolsEPFRSoS_E(ptr noundef nonnull align 8 dereferenceable(8) %90, ptr noundef @_ZSt4endlIcSt11char_traitsIcEERSt13basic_ostreamIT_T0_ES6_)
  %92 = call noundef nonnull align 8 dereferenceable(8) ptr @_ZStlsISt11char_traitsIcEERSt13basic_ostreamIcT_ES5_PKc(ptr noundef nonnull align 8 dereferenceable(8) @_ZSt4cout, ptr noundef @.str.21)
  %93 = call noundef nonnull align 8 dereferenceable(8) ptr @_ZNSolsEi(ptr noundef nonnull align 8 dereferenceable(8) %92, i32 noundef 10)
  %94 = call noundef nonnull align 8 dereferenceable(8) ptr @_ZStlsISt11char_traitsIcEERSt13basic_ostreamIcT_ES5_PKc(ptr noundef nonnull align 8 dereferenceable(8) %93, ptr noundef @.str.22)
  %95 = call noundef nonnull align 8 dereferenceable(8) ptr @_ZNSolsEPFRSoS_E(ptr noundef nonnull align 8 dereferenceable(8) %94, ptr noundef @_ZSt4endlIcSt11char_traitsIcEERSt13basic_ostreamIT_T0_ES6_)
  %96 = call noundef nonnull align 8 dereferenceable(8) ptr @_ZStlsISt11char_traitsIcEERSt13basic_ostreamIcT_ES5_PKc(ptr noundef nonnull align 8 dereferenceable(8) @_ZSt4cout, ptr noundef @.str.23)
  %97 = call noundef nonnull align 8 dereferenceable(8) ptr @_ZNSolsEPFRSoS_E(ptr noundef nonnull align 8 dereferenceable(8) %96, ptr noundef @_ZSt4endlIcSt11char_traitsIcEERSt13basic_ostreamIT_T0_ES6_)
  %98 = call noundef nonnull align 8 dereferenceable(8) ptr @_ZNSolsEPFRSoS_E(ptr noundef nonnull align 8 dereferenceable(8) @_ZSt4cout, ptr noundef @_ZSt4endlIcSt11char_traitsIcEERSt13basic_ostreamIT_T0_ES6_)
  %99 = call noundef nonnull align 8 dereferenceable(8) ptr @_ZStlsISt11char_traitsIcEERSt13basic_ostreamIcT_ES5_PKc(ptr noundef nonnull align 8 dereferenceable(8) @_ZSt4cout, ptr noundef @.str.24)
  %100 = call noundef nonnull align 8 dereferenceable(8) ptr @_ZNSolsEPFRSoS_E(ptr noundef nonnull align 8 dereferenceable(8) %99, ptr noundef @_ZSt4endlIcSt11char_traitsIcEERSt13basic_ostreamIT_T0_ES6_)
  %101 = call noundef nonnull align 8 dereferenceable(8) ptr @_ZStlsISt11char_traitsIcEERSt13basic_ostreamIcT_ES5_PKc(ptr noundef nonnull align 8 dereferenceable(8) @_ZSt4cout, ptr noundef @.str.25)
  %102 = call noundef nonnull align 8 dereferenceable(8) ptr @_ZNSolsEPFRSoS_E(ptr noundef nonnull align 8 dereferenceable(8) %101, ptr noundef @_ZSt4endlIcSt11char_traitsIcEERSt13basic_ostreamIT_T0_ES6_)
  store i32 1, ptr %3, align 4
  br label %192

103:                                              ; preds = %86
  %104 = call ptr @getenv(ptr noundef @.str.26) #3
  store ptr %104, ptr %8, align 8
  %105 = load i8, ptr @_ZN5EigenL16g_has_set_repeatE, align 1
  %106 = trunc i8 %105 to i1
  br i1 %106, label %112, label %107

107:                                              ; preds = %103
  %108 = load ptr, ptr %8, align 8
  %109 = icmp ne ptr %108, null
  br i1 %109, label %110, label %112

110:                                              ; preds = %107
  %111 = load ptr, ptr %8, align 8
  call void @_Z22set_repeat_from_stringPKc(ptr noundef %111)
  br label %112

112:                                              ; preds = %110, %107, %103
  %113 = call ptr @getenv(ptr noundef @.str.27) #3
  store ptr %113, ptr %9, align 8
  %114 = load i8, ptr @_ZN5EigenL14g_has_set_seedE, align 1
  %115 = trunc i8 %114 to i1
  br i1 %115, label %121, label %116

116:                                              ; preds = %112
  %117 = load ptr, ptr %9, align 8
  %118 = icmp ne ptr %117, null
  br i1 %118, label %119, label %121

119:                                              ; preds = %116
  %120 = load ptr, ptr %9, align 8
  call void @_Z20set_seed_from_stringPKc(ptr noundef %120)
  br label %121

121:                                              ; preds = %119, %116, %112
  %122 = load i8, ptr @_ZN5EigenL14g_has_set_seedE, align 1
  %123 = trunc i8 %122 to i1
  br i1 %123, label %127, label %124

124:                                              ; preds = %121
  %125 = call i64 @time(ptr noundef null) #3
  %126 = trunc i64 %125 to i32
  store i32 %126, ptr @_ZN5EigenL6g_seedE, align 4
  br label %127

127:                                              ; preds = %124, %121
  %128 = load i8, ptr @_ZN5EigenL16g_has_set_repeatE, align 1
  %129 = trunc i8 %128 to i1
  br i1 %129, label %131, label %130

130:                                              ; preds = %127
  store i32 10, ptr @_ZN5EigenL8g_repeatE, align 4
  br label %131

131:                                              ; preds = %130, %127
  %132 = call noundef nonnull align 8 dereferenceable(8) ptr @_ZStlsISt11char_traitsIcEERSt13basic_ostreamIcT_ES5_PKc(ptr noundef nonnull align 8 dereferenceable(8) @_ZSt4cout, ptr noundef @.str.28)
  %133 = load i32, ptr @_ZN5EigenL6g_seedE, align 4
  %134 = call noundef nonnull align 8 dereferenceable(8) ptr @_ZNSolsEj(ptr noundef nonnull align 8 dereferenceable(8) %132, i32 noundef %133)
  %135 = call noundef nonnull align 8 dereferenceable(8) ptr @_ZNSolsEPFRSoS_E(ptr noundef nonnull align 8 dereferenceable(8) %134, ptr noundef @_ZSt4endlIcSt11char_traitsIcEERSt13basic_ostreamIT_T0_ES6_)
  call void @_ZNSt7__cxx1118basic_stringstreamIcSt11char_traitsIcESaIcEEC1Ev(ptr noundef nonnull align 8 dereferenceable(128) %10)
  %136 = getelementptr inbounds i8, ptr %10, i64 16
  %137 = invoke noundef nonnull align 8 dereferenceable(8) ptr @_ZStlsISt11char_traitsIcEERSt13basic_ostreamIcT_ES5_PKc(ptr noundef nonnull align 8 dereferenceable(8) %136, ptr noundef @.str.29)
          to label %138 unwind label %182

138:                                              ; preds = %131
  %139 = load i32, ptr @_ZN5EigenL6g_seedE, align 4
  %140 = invoke noundef nonnull align 8 dereferenceable(8) ptr @_ZNSolsEj(ptr noundef nonnull align 8 dereferenceable(8) %137, i32 noundef %139)
          to label %141 unwind label %182

141:                                              ; preds = %138
  invoke void @_ZNKSt7__cxx1118basic_stringstreamIcSt11char_traitsIcESaIcEE3strEv(ptr sret(%"class.std::__cxx11::basic_string") align 8 %13, ptr noundef nonnull align 8 dereferenceable(128) %10)
          to label %142 unwind label %182

142:                                              ; preds = %141
  invoke void @_ZNSt6vectorINSt7__cxx1112basic_stringIcSt11char_traitsIcESaIcEEESaIS5_EE9push_backEOS5_(ptr noundef nonnull align 8 dereferenceable(24) @_ZN5EigenL12g_test_stackB5cxx11E, ptr noundef nonnull align 8 dereferenceable(32) %13)
          to label %143 unwind label %186

143:                                              ; preds = %142
  call void @_ZNSt7__cxx1112basic_stringIcSt11char_traitsIcESaIcEED1Ev(ptr noundef nonnull align 8 dereferenceable(32) %13) #3
  %144 = load i32, ptr @_ZN5EigenL6g_seedE, align 4
  call void @srand(i32 noundef %144) #3
  %145 = invoke noundef nonnull align 8 dereferenceable(8) ptr @_ZStlsISt11char_traitsIcEERSt13basic_ostreamIcT_ES5_PKc(ptr noundef nonnull align 8 dereferenceable(8) @_ZSt4cout, ptr noundef @.str.30)
          to label %146 unwind label %182

146:                                              ; preds = %143
  %147 = load i32, ptr @_ZN5EigenL8g_repeatE, align 4
  %148 = invoke noundef nonnull align 8 dereferenceable(8) ptr @_ZNSolsEi(ptr noundef nonnull align 8 dereferenceable(8) %145, i32 noundef %147)
          to label %149 unwind label %182

149:                                              ; preds = %146
  %150 = invoke noundef nonnull align 8 dereferenceable(8) ptr @_ZStlsISt11char_traitsIcEERSt13basic_ostreamIcT_ES5_PKc(ptr noundef nonnull align 8 dereferenceable(8) %148, ptr noundef @.str.31)
          to label %151 unwind label %182

151:                                              ; preds = %149
  %152 = invoke noundef nonnull align 8 dereferenceable(8) ptr @_ZNSolsEPFRSoS_E(ptr noundef nonnull align 8 dereferenceable(8) %150, ptr noundef @_ZSt4endlIcSt11char_traitsIcEERSt13basic_ostreamIT_T0_ES6_)
          to label %153 unwind label %182

153:                                              ; preds = %151
  %154 = invoke noundef nonnull align 8 dereferenceable(24) ptr @_ZN5Eigen9EigenTest3allEv()
          to label %155 unwind label %182

155:                                              ; preds = %153
  %156 = call noundef i64 @_ZNKSt6vectorIPN5Eigen9EigenTestESaIS2_EE4sizeEv(ptr noundef nonnull align 8 dereferenceable(24) %154) #3
  %157 = icmp ugt i64 %156, 0
  %158 = call noundef nonnull align 8 dereferenceable(32) ptr @_ZNSt6vectorINSt7__cxx1112basic_stringIcSt11char_traitsIcESaIcEEESaIS5_EE4backEv(ptr noundef nonnull align 8 dereferenceable(24) @_ZN5EigenL12g_test_stackB5cxx11E) #3
  %159 = call noundef ptr @_ZNKSt7__cxx1112basic_stringIcSt11char_traitsIcESaIcEE5c_strEv(ptr noundef nonnull align 8 dereferenceable(32) %158) #3
  invoke void @_Z11verify_implbPKcS0_iS0_(i1 noundef zeroext %157, ptr noundef %159, ptr noundef @.str.32, i32 noundef 908, ptr noundef @.str.33)
          to label %160 unwind label %182

160:                                              ; preds = %155
  store i64 0, ptr %14, align 8
  br label %161

161:                                              ; preds = %179, %160
  %162 = load i64, ptr %14, align 8
  %163 = invoke noundef nonnull align 8 dereferenceable(24) ptr @_ZN5Eigen9EigenTest3allEv()
          to label %164 unwind label %182

164:                                              ; preds = %161
  %165 = call noundef i64 @_ZNKSt6vectorIPN5Eigen9EigenTestESaIS2_EE4sizeEv(ptr noundef nonnull align 8 dereferenceable(24) %163) #3
  %166 = icmp ult i64 %162, %165
  br i1 %166, label %167, label %190

167:                                              ; preds = %164
  %168 = invoke noundef nonnull align 8 dereferenceable(24) ptr @_ZN5Eigen9EigenTest3allEv()
          to label %169 unwind label %182

169:                                              ; preds = %167
  %170 = load i64, ptr %14, align 8
  %171 = call noundef nonnull align 8 dereferenceable(8) ptr @_ZNKSt6vectorIPN5Eigen9EigenTestESaIS2_EEixEm(ptr noundef nonnull align 8 dereferenceable(24) %168, i64 noundef %170) #3
  %172 = load ptr, ptr %171, align 8
  store ptr %172, ptr %15, align 8
  %173 = load ptr, ptr %15, align 8
  %174 = invoke noundef nonnull align 8 dereferenceable(32) ptr @_ZNK5Eigen9EigenTest4nameB5cxx11Ev(ptr noundef nonnull align 8 dereferenceable(40) %173)
          to label %175 unwind label %182

175:                                              ; preds = %169
  invoke void @_ZNSt6vectorINSt7__cxx1112basic_stringIcSt11char_traitsIcESaIcEEESaIS5_EE9push_backERKS5_(ptr noundef nonnull align 8 dereferenceable(24) @_ZN5EigenL12g_test_stackB5cxx11E, ptr noundef nonnull align 8 dereferenceable(32) %174)
          to label %176 unwind label %182

176:                                              ; preds = %175
  %177 = load ptr, ptr %15, align 8
  invoke void @_ZNK5Eigen9EigenTestclEv(ptr noundef nonnull align 8 dereferenceable(40) %177)
          to label %178 unwind label %182

178:                                              ; preds = %176
  call void @_ZNSt6vectorINSt7__cxx1112basic_stringIcSt11char_traitsIcESaIcEEESaIS5_EE8pop_backEv(ptr noundef nonnull align 8 dereferenceable(24) @_ZN5EigenL12g_test_stackB5cxx11E) #3
  br label %179

179:                                              ; preds = %178
  %180 = load i64, ptr %14, align 8
  %181 = add i64 %180, 1
  store i64 %181, ptr %14, align 8
  br label %161, !llvm.loop !8

182:                                              ; preds = %176, %175, %169, %167, %161, %155, %153, %151, %149, %146, %143, %141, %138, %131
  %183 = landingpad { ptr, i32 }
          cleanup
  %184 = extractvalue { ptr, i32 } %183, 0
  store ptr %184, ptr %11, align 8
  %185 = extractvalue { ptr, i32 } %183, 1
  store i32 %185, ptr %12, align 4
  br label %191

186:                                              ; preds = %142
  %187 = landingpad { ptr, i32 }
          cleanup
  %188 = extractvalue { ptr, i32 } %187, 0
  store ptr %188, ptr %11, align 8
  %189 = extractvalue { ptr, i32 } %187, 1
  store i32 %189, ptr %12, align 4
  call void @_ZNSt7__cxx1112basic_stringIcSt11char_traitsIcESaIcEED1Ev(ptr noundef nonnull align 8 dereferenceable(32) %13) #3
  br label %191

190:                                              ; preds = %164
  store i32 0, ptr %3, align 4
  call void @_ZNSt7__cxx1118basic_stringstreamIcSt11char_traitsIcESaIcEED1Ev(ptr noundef nonnull align 8 dereferenceable(128) %10) #3
  br label %192

191:                                              ; preds = %186, %182
  call void @_ZNSt7__cxx1118basic_stringstreamIcSt11char_traitsIcESaIcEED1Ev(ptr noundef nonnull align 8 dereferenceable(128) %10) #3
  br label %194

192:                                              ; preds = %190, %89, %63, %33
  %193 = load i32, ptr %3, align 4
  ret i32 %193

194:                                              ; preds = %191
  %195 = load ptr, ptr %11, align 8
  %196 = load i32, ptr %12, align 4
  %197 = insertvalue { ptr, i32 } undef, ptr %195, 0
  %198 = insertvalue { ptr, i32 } %197, i32 %196, 1
  resume { ptr, i32 } %198
}

declare noundef nonnull align 8 dereferenceable(8) ptr @_ZStlsISt11char_traitsIcEERSt13basic_ostreamIcT_ES5_PKc(ptr noundef nonnull align 8 dereferenceable(8), ptr noundef) #1

declare noundef nonnull align 8 dereferenceable(8) ptr @_ZNSolsEPFRSoS_E(ptr noundef nonnull align 8 dereferenceable(8), ptr noundef) #1

declare noundef nonnull align 8 dereferenceable(8) ptr @_ZSt4endlIcSt11char_traitsIcEERSt13basic_ostreamIT_T0_ES6_(ptr noundef nonnull align 8 dereferenceable(8)) #1

; Function Attrs: mustprogress noinline optnone uwtable
define linkonce_odr dso_local void @_Z22set_repeat_from_stringPKc(ptr noundef %0) #5 comdat {
  %2 = alloca ptr, align 8
  store ptr %0, ptr %2, align 8
  %3 = call ptr @__errno_location() #25
  store i32 0, ptr %3, align 4
  %4 = load ptr, ptr %2, align 8
  %5 = call i64 @strtoul(ptr noundef %4, ptr noundef null, i32 noundef 10) #3
  %6 = trunc i64 %5 to i32
  store i32 %6, ptr @_ZN5EigenL8g_repeatE, align 4
  %7 = call ptr @__errno_location() #25
  %8 = load i32, ptr %7, align 4
  %9 = icmp ne i32 %8, 0
  br i1 %9, label %13, label %10

10:                                               ; preds = %1
  %11 = load i32, ptr @_ZN5EigenL8g_repeatE, align 4
  %12 = icmp sle i32 %11, 0
  br i1 %12, label %13, label %18

13:                                               ; preds = %10, %1
  %14 = call noundef nonnull align 8 dereferenceable(8) ptr @_ZStlsISt11char_traitsIcEERSt13basic_ostreamIcT_ES5_PKc(ptr noundef nonnull align 8 dereferenceable(8) @_ZSt4cout, ptr noundef @.str.39)
  %15 = load ptr, ptr %2, align 8
  %16 = call noundef nonnull align 8 dereferenceable(8) ptr @_ZStlsISt11char_traitsIcEERSt13basic_ostreamIcT_ES5_PKc(ptr noundef nonnull align 8 dereferenceable(8) %14, ptr noundef %15)
  %17 = call noundef nonnull align 8 dereferenceable(8) ptr @_ZNSolsEPFRSoS_E(ptr noundef nonnull align 8 dereferenceable(8) %16, ptr noundef @_ZSt4endlIcSt11char_traitsIcEERSt13basic_ostreamIT_T0_ES6_)
  call void @exit(i32 noundef 1) #24
  unreachable

18:                                               ; preds = %10
  store i8 1, ptr @_ZN5EigenL16g_has_set_repeatE, align 1
  ret void
}

; Function Attrs: mustprogress noinline optnone uwtable
define linkonce_odr dso_local void @_Z20set_seed_from_stringPKc(ptr noundef %0) #5 comdat {
  %2 = alloca ptr, align 8
  store ptr %0, ptr %2, align 8
  %3 = call ptr @__errno_location() #25
  store i32 0, ptr %3, align 4
  %4 = load ptr, ptr %2, align 8
  %5 = call i64 @strtoul(ptr noundef %4, ptr noundef null, i32 noundef 10) #3
  %6 = trunc i64 %5 to i32
  store i32 %6, ptr @_ZN5EigenL6g_seedE, align 4
  %7 = call ptr @__errno_location() #25
  %8 = load i32, ptr %7, align 4
  %9 = icmp ne i32 %8, 0
  br i1 %9, label %13, label %10

10:                                               ; preds = %1
  %11 = load i32, ptr @_ZN5EigenL6g_seedE, align 4
  %12 = icmp eq i32 %11, 0
  br i1 %12, label %13, label %18

13:                                               ; preds = %10, %1
  %14 = call noundef nonnull align 8 dereferenceable(8) ptr @_ZStlsISt11char_traitsIcEERSt13basic_ostreamIcT_ES5_PKc(ptr noundef nonnull align 8 dereferenceable(8) @_ZSt4cout, ptr noundef @.str.40)
  %15 = load ptr, ptr %2, align 8
  %16 = call noundef nonnull align 8 dereferenceable(8) ptr @_ZStlsISt11char_traitsIcEERSt13basic_ostreamIcT_ES5_PKc(ptr noundef nonnull align 8 dereferenceable(8) %14, ptr noundef %15)
  %17 = call noundef nonnull align 8 dereferenceable(8) ptr @_ZNSolsEPFRSoS_E(ptr noundef nonnull align 8 dereferenceable(8) %16, ptr noundef @_ZSt4endlIcSt11char_traitsIcEERSt13basic_ostreamIT_T0_ES6_)
  call void @exit(i32 noundef 1) #24
  unreachable

18:                                               ; preds = %10
  store i8 1, ptr @_ZN5EigenL14g_has_set_seedE, align 1
  ret void
}

declare noundef nonnull align 8 dereferenceable(8) ptr @_ZNSolsEi(ptr noundef nonnull align 8 dereferenceable(8), i32 noundef) #1

; Function Attrs: nounwind
declare ptr @getenv(ptr noundef) #2

; Function Attrs: nounwind
declare i64 @time(ptr noundef) #2

declare noundef nonnull align 8 dereferenceable(8) ptr @_ZNSolsEj(ptr noundef nonnull align 8 dereferenceable(8), i32 noundef) #1

declare void @_ZNSt7__cxx1118basic_stringstreamIcSt11char_traitsIcESaIcEEC1Ev(ptr noundef nonnull align 8 dereferenceable(128)) unnamed_addr #1

; Function Attrs: mustprogress noinline optnone uwtable
define linkonce_odr dso_local void @_ZNSt6vectorINSt7__cxx1112basic_stringIcSt11char_traitsIcESaIcEEESaIS5_EE9push_backEOS5_(ptr noundef nonnull align 8 dereferenceable(24) %0, ptr noundef nonnull align 8 dereferenceable(32) %1) #5 comdat align 2 {
  %3 = alloca ptr, align 8
  %4 = alloca ptr, align 8
  store ptr %0, ptr %3, align 8
  store ptr %1, ptr %4, align 8
  %5 = load ptr, ptr %3, align 8
  %6 = load ptr, ptr %4, align 8
  call void @_ZNSt6vectorINSt7__cxx1112basic_stringIcSt11char_traitsIcESaIcEEESaIS5_EE12emplace_backIJS5_EEEvDpOT_(ptr noundef nonnull align 8 dereferenceable(24) %5, ptr noundef nonnull align 8 dereferenceable(32) %6)
  ret void
}

declare void @_ZNKSt7__cxx1118basic_stringstreamIcSt11char_traitsIcESaIcEE3strEv(ptr sret(%"class.std::__cxx11::basic_string") align 8, ptr noundef nonnull align 8 dereferenceable(128)) #1

; Function Attrs: nounwind
declare void @_ZNSt7__cxx1112basic_stringIcSt11char_traitsIcESaIcEED1Ev(ptr noundef nonnull align 8 dereferenceable(32)) unnamed_addr #2

; Function Attrs: nounwind
declare void @srand(i32 noundef) #2

; Function Attrs: mustprogress noinline optnone uwtable
define linkonce_odr dso_local void @_Z11verify_implbPKcS0_iS0_(i1 noundef zeroext %0, ptr noundef %1, ptr noundef %2, i32 noundef %3, ptr noundef %4) #5 comdat {
  %6 = alloca i8, align 1
  %7 = alloca ptr, align 8
  %8 = alloca ptr, align 8
  %9 = alloca i32, align 4
  %10 = alloca ptr, align 8
  %11 = alloca i32, align 4
  %12 = alloca i32, align 4
  %13 = zext i1 %0 to i8
  store i8 %13, ptr %6, align 1
  store ptr %1, ptr %7, align 8
  store ptr %2, ptr %8, align 8
  store i32 %3, ptr %9, align 4
  store ptr %4, ptr %10, align 8
  %14 = load i8, ptr %6, align 1
  %15 = trunc i8 %14 to i1
  br i1 %15, label %61, label %16

16:                                               ; preds = %5
  %17 = load i32, ptr @_ZN5EigenL12g_test_levelE, align 4
  %18 = icmp sgt i32 %17, 0
  br i1 %18, label %19, label %21

19:                                               ; preds = %16
  %20 = call noundef nonnull align 8 dereferenceable(8) ptr @_ZStlsISt11char_traitsIcEERSt13basic_ostreamIcT_ES5_PKc(ptr noundef nonnull align 8 dereferenceable(8) @_ZSt4cerr, ptr noundef @.str.41)
  br label %21

21:                                               ; preds = %19, %16
  %22 = call noundef nonnull align 8 dereferenceable(8) ptr @_ZStlsISt11char_traitsIcEERSt13basic_ostreamIcT_ES5_PKc(ptr noundef nonnull align 8 dereferenceable(8) @_ZSt4cerr, ptr noundef @.str.42)
  %23 = load ptr, ptr %7, align 8
  %24 = call noundef nonnull align 8 dereferenceable(8) ptr @_ZStlsISt11char_traitsIcEERSt13basic_ostreamIcT_ES5_PKc(ptr noundef nonnull align 8 dereferenceable(8) %22, ptr noundef %23)
  %25 = call noundef nonnull align 8 dereferenceable(8) ptr @_ZStlsISt11char_traitsIcEERSt13basic_ostreamIcT_ES5_PKc(ptr noundef nonnull align 8 dereferenceable(8) %24, ptr noundef @.str.43)
  %26 = load ptr, ptr %8, align 8
  %27 = call noundef nonnull align 8 dereferenceable(8) ptr @_ZStlsISt11char_traitsIcEERSt13basic_ostreamIcT_ES5_PKc(ptr noundef nonnull align 8 dereferenceable(8) %25, ptr noundef %26)
  %28 = call noundef nonnull align 8 dereferenceable(8) ptr @_ZStlsISt11char_traitsIcEERSt13basic_ostreamIcT_ES5_PKc(ptr noundef nonnull align 8 dereferenceable(8) %27, ptr noundef @.str.44)
  %29 = load i32, ptr %9, align 4
  %30 = call noundef nonnull align 8 dereferenceable(8) ptr @_ZNSolsEi(ptr noundef nonnull align 8 dereferenceable(8) %28, i32 noundef %29)
  %31 = call noundef nonnull align 8 dereferenceable(8) ptr @_ZStlsISt11char_traitsIcEERSt13basic_ostreamIcT_ES5_PKc(ptr noundef nonnull align 8 dereferenceable(8) %30, ptr noundef @.str.22)
  %32 = call noundef nonnull align 8 dereferenceable(8) ptr @_ZNSolsEPFRSoS_E(ptr noundef nonnull align 8 dereferenceable(8) %31, ptr noundef @_ZSt4endlIcSt11char_traitsIcEERSt13basic_ostreamIT_T0_ES6_)
  %33 = call noundef nonnull align 8 dereferenceable(8) ptr @_ZStlsISt11char_traitsIcEERSt13basic_ostreamIcT_ES5_PKc(ptr noundef nonnull align 8 dereferenceable(8) %32, ptr noundef @.str.45)
  %34 = load ptr, ptr %10, align 8
  %35 = call noundef nonnull align 8 dereferenceable(8) ptr @_ZStlsISt11char_traitsIcEERSt13basic_ostreamIcT_ES5_PKc(ptr noundef nonnull align 8 dereferenceable(8) %33, ptr noundef %34)
  %36 = call noundef nonnull align 8 dereferenceable(8) ptr @_ZNSolsEPFRSoS_E(ptr noundef nonnull align 8 dereferenceable(8) %35, ptr noundef @_ZSt4endlIcSt11char_traitsIcEERSt13basic_ostreamIT_T0_ES6_)
  %37 = call noundef nonnull align 8 dereferenceable(8) ptr @_ZStlsISt11char_traitsIcEERSt13basic_ostreamIcT_ES5_PKc(ptr noundef nonnull align 8 dereferenceable(8) @_ZSt4cerr, ptr noundef @.str.46)
  %38 = call noundef i64 @_ZNKSt6vectorINSt7__cxx1112basic_stringIcSt11char_traitsIcESaIcEEESaIS5_EE4sizeEv(ptr noundef nonnull align 8 dereferenceable(24) @_ZN5EigenL12g_test_stackB5cxx11E) #3
  %39 = trunc i64 %38 to i32
  store i32 %39, ptr %11, align 4
  %40 = load i32, ptr %11, align 4
  %41 = sub nsw i32 %40, 1
  store i32 %41, ptr %12, align 4
  br label %42

42:                                               ; preds = %52, %21
  %43 = load i32, ptr %12, align 4
  %44 = icmp sge i32 %43, 0
  br i1 %44, label %45, label %55

45:                                               ; preds = %42
  %46 = call noundef nonnull align 8 dereferenceable(8) ptr @_ZStlsISt11char_traitsIcEERSt13basic_ostreamIcT_ES5_PKc(ptr noundef nonnull align 8 dereferenceable(8) @_ZSt4cerr, ptr noundef @.str.47)
  %47 = load i32, ptr %12, align 4
  %48 = sext i32 %47 to i64
  %49 = call noundef nonnull align 8 dereferenceable(32) ptr @_ZNSt6vectorINSt7__cxx1112basic_stringIcSt11char_traitsIcESaIcEEESaIS5_EEixEm(ptr noundef nonnull align 8 dereferenceable(24) @_ZN5EigenL12g_test_stackB5cxx11E, i64 noundef %48) #3
  %50 = call noundef nonnull align 8 dereferenceable(8) ptr @_ZStlsIcSt11char_traitsIcESaIcEERSt13basic_ostreamIT_T0_ES7_RKNSt7__cxx1112basic_stringIS4_S5_T1_EE(ptr noundef nonnull align 8 dereferenceable(8) %46, ptr noundef nonnull align 8 dereferenceable(32) %49)
  %51 = call noundef nonnull align 8 dereferenceable(8) ptr @_ZStlsISt11char_traitsIcEERSt13basic_ostreamIcT_ES5_PKc(ptr noundef nonnull align 8 dereferenceable(8) %50, ptr noundef @.str.48)
  br label %52

52:                                               ; preds = %45
  %53 = load i32, ptr %12, align 4
  %54 = add nsw i32 %53, -1
  store i32 %54, ptr %12, align 4
  br label %42, !llvm.loop !9

55:                                               ; preds = %42
  %56 = call noundef nonnull align 8 dereferenceable(8) ptr @_ZStlsISt11char_traitsIcEERSt13basic_ostreamIcT_ES5_PKc(ptr noundef nonnull align 8 dereferenceable(8) @_ZSt4cerr, ptr noundef @.str.48)
  %57 = load i32, ptr @_ZN5EigenL12g_test_levelE, align 4
  %58 = icmp eq i32 %57, 0
  br i1 %58, label %59, label %60

59:                                               ; preds = %55
  call void @abort() #24
  unreachable

60:                                               ; preds = %55
  br label %61

61:                                               ; preds = %60, %5
  ret void
}

; Function Attrs: mustprogress noinline optnone uwtable
define linkonce_odr dso_local noundef nonnull align 8 dereferenceable(24) ptr @_ZN5Eigen9EigenTest3allEv() #5 comdat align 2 {
  %1 = call noundef nonnull align 8 dereferenceable(24) ptr @_ZN5Eigen9EigenTest20get_registered_testsEv()
  ret ptr %1
}

; Function Attrs: mustprogress noinline nounwind optnone uwtable
define linkonce_odr dso_local noundef i64 @_ZNKSt6vectorIPN5Eigen9EigenTestESaIS2_EE4sizeEv(ptr noundef nonnull align 8 dereferenceable(24) %0) #8 comdat align 2 {
  %2 = alloca ptr, align 8
  store ptr %0, ptr %2, align 8
  %3 = load ptr, ptr %2, align 8
  %4 = getelementptr inbounds %"struct.std::_Vector_base.7", ptr %3, i32 0, i32 0
  %5 = getelementptr inbounds %"struct.std::_Vector_base<Eigen::EigenTest *, std::allocator<Eigen::EigenTest *>>::_Vector_impl_data", ptr %4, i32 0, i32 1
  %6 = load ptr, ptr %5, align 8
  %7 = getelementptr inbounds %"struct.std::_Vector_base.7", ptr %3, i32 0, i32 0
  %8 = getelementptr inbounds %"struct.std::_Vector_base<Eigen::EigenTest *, std::allocator<Eigen::EigenTest *>>::_Vector_impl_data", ptr %7, i32 0, i32 0
  %9 = load ptr, ptr %8, align 8
  %10 = ptrtoint ptr %6 to i64
  %11 = ptrtoint ptr %9 to i64
  %12 = sub i64 %10, %11
  %13 = sdiv exact i64 %12, 8
  ret i64 %13
}

; Function Attrs: mustprogress noinline nounwind optnone uwtable
define linkonce_odr dso_local noundef nonnull align 8 dereferenceable(32) ptr @_ZNSt6vectorINSt7__cxx1112basic_stringIcSt11char_traitsIcESaIcEEESaIS5_EE4backEv(ptr noundef nonnull align 8 dereferenceable(24) %0) #8 comdat align 2 {
  %2 = alloca ptr, align 8
  %3 = alloca %"class.__gnu_cxx::__normal_iterator.24", align 8
  %4 = alloca %"class.__gnu_cxx::__normal_iterator.24", align 8
  store ptr %0, ptr %2, align 8
  %5 = load ptr, ptr %2, align 8
  %6 = call ptr @_ZNSt6vectorINSt7__cxx1112basic_stringIcSt11char_traitsIcESaIcEEESaIS5_EE3endEv(ptr noundef nonnull align 8 dereferenceable(24) %5) #3
  %7 = getelementptr inbounds %"class.__gnu_cxx::__normal_iterator.24", ptr %4, i32 0, i32 0
  store ptr %6, ptr %7, align 8
  %8 = call ptr @_ZNK9__gnu_cxx17__normal_iteratorIPNSt7__cxx1112basic_stringIcSt11char_traitsIcESaIcEEESt6vectorIS6_SaIS6_EEEmiEl(ptr noundef nonnull align 8 dereferenceable(8) %4, i64 noundef 1) #3
  %9 = getelementptr inbounds %"class.__gnu_cxx::__normal_iterator.24", ptr %3, i32 0, i32 0
  store ptr %8, ptr %9, align 8
  %10 = call noundef nonnull align 8 dereferenceable(32) ptr @_ZNK9__gnu_cxx17__normal_iteratorIPNSt7__cxx1112basic_stringIcSt11char_traitsIcESaIcEEESt6vectorIS6_SaIS6_EEEdeEv(ptr noundef nonnull align 8 dereferenceable(8) %3) #3
  ret ptr %10
}

; Function Attrs: nounwind
declare noundef ptr @_ZNKSt7__cxx1112basic_stringIcSt11char_traitsIcESaIcEE5c_strEv(ptr noundef nonnull align 8 dereferenceable(32)) #2

; Function Attrs: mustprogress noinline nounwind optnone uwtable
define linkonce_odr dso_local noundef nonnull align 8 dereferenceable(8) ptr @_ZNKSt6vectorIPN5Eigen9EigenTestESaIS2_EEixEm(ptr noundef nonnull align 8 dereferenceable(24) %0, i64 noundef %1) #8 comdat align 2 {
  %3 = alloca ptr, align 8
  %4 = alloca i64, align 8
  store ptr %0, ptr %3, align 8
  store i64 %1, ptr %4, align 8
  %5 = load ptr, ptr %3, align 8
  %6 = getelementptr inbounds %"struct.std::_Vector_base.7", ptr %5, i32 0, i32 0
  %7 = getelementptr inbounds %"struct.std::_Vector_base<Eigen::EigenTest *, std::allocator<Eigen::EigenTest *>>::_Vector_impl_data", ptr %6, i32 0, i32 0
  %8 = load ptr, ptr %7, align 8
  %9 = load i64, ptr %4, align 8
  %10 = getelementptr inbounds ptr, ptr %8, i64 %9
  ret ptr %10
}

; Function Attrs: mustprogress noinline optnone uwtable
define linkonce_odr dso_local void @_ZNSt6vectorINSt7__cxx1112basic_stringIcSt11char_traitsIcESaIcEEESaIS5_EE9push_backERKS5_(ptr noundef nonnull align 8 dereferenceable(24) %0, ptr noundef nonnull align 8 dereferenceable(32) %1) #5 comdat align 2 {
  %3 = alloca ptr, align 8
  %4 = alloca ptr, align 8
  %5 = alloca %"class.__gnu_cxx::__normal_iterator.24", align 8
  store ptr %0, ptr %3, align 8
  store ptr %1, ptr %4, align 8
  %6 = load ptr, ptr %3, align 8
  %7 = getelementptr inbounds %"struct.std::_Vector_base", ptr %6, i32 0, i32 0
  %8 = getelementptr inbounds %"struct.std::_Vector_base<std::__cxx11::basic_string<char>, std::allocator<std::__cxx11::basic_string<char>>>::_Vector_impl_data", ptr %7, i32 0, i32 1
  %9 = load ptr, ptr %8, align 8
  %10 = getelementptr inbounds %"struct.std::_Vector_base", ptr %6, i32 0, i32 0
  %11 = getelementptr inbounds %"struct.std::_Vector_base<std::__cxx11::basic_string<char>, std::allocator<std::__cxx11::basic_string<char>>>::_Vector_impl_data", ptr %10, i32 0, i32 2
  %12 = load ptr, ptr %11, align 8
  %13 = icmp ne ptr %9, %12
  br i1 %13, label %14, label %24

14:                                               ; preds = %2
  %15 = getelementptr inbounds %"struct.std::_Vector_base", ptr %6, i32 0, i32 0
  %16 = getelementptr inbounds %"struct.std::_Vector_base", ptr %6, i32 0, i32 0
  %17 = getelementptr inbounds %"struct.std::_Vector_base<std::__cxx11::basic_string<char>, std::allocator<std::__cxx11::basic_string<char>>>::_Vector_impl_data", ptr %16, i32 0, i32 1
  %18 = load ptr, ptr %17, align 8
  %19 = load ptr, ptr %4, align 8
  call void @_ZNSt16allocator_traitsISaINSt7__cxx1112basic_stringIcSt11char_traitsIcESaIcEEEEE9constructIS5_JRKS5_EEEvRS6_PT_DpOT0_(ptr noundef nonnull align 1 dereferenceable(1) %15, ptr noundef %18, ptr noundef nonnull align 8 dereferenceable(32) %19)
  %20 = getelementptr inbounds %"struct.std::_Vector_base", ptr %6, i32 0, i32 0
  %21 = getelementptr inbounds %"struct.std::_Vector_base<std::__cxx11::basic_string<char>, std::allocator<std::__cxx11::basic_string<char>>>::_Vector_impl_data", ptr %20, i32 0, i32 1
  %22 = load ptr, ptr %21, align 8
  %23 = getelementptr inbounds %"class.std::__cxx11::basic_string", ptr %22, i32 1
  store ptr %23, ptr %21, align 8
  br label %30

24:                                               ; preds = %2
  %25 = call ptr @_ZNSt6vectorINSt7__cxx1112basic_stringIcSt11char_traitsIcESaIcEEESaIS5_EE3endEv(ptr noundef nonnull align 8 dereferenceable(24) %6) #3
  %26 = getelementptr inbounds %"class.__gnu_cxx::__normal_iterator.24", ptr %5, i32 0, i32 0
  store ptr %25, ptr %26, align 8
  %27 = load ptr, ptr %4, align 8
  %28 = getelementptr inbounds %"class.__gnu_cxx::__normal_iterator.24", ptr %5, i32 0, i32 0
  %29 = load ptr, ptr %28, align 8
  call void @_ZNSt6vectorINSt7__cxx1112basic_stringIcSt11char_traitsIcESaIcEEESaIS5_EE17_M_realloc_insertIJRKS5_EEEvN9__gnu_cxx17__normal_iteratorIPS5_S7_EEDpOT_(ptr noundef nonnull align 8 dereferenceable(24) %6, ptr %29, ptr noundef nonnull align 8 dereferenceable(32) %27)
  br label %30

30:                                               ; preds = %24, %14
  ret void
}

; Function Attrs: mustprogress noinline nounwind optnone uwtable
define linkonce_odr dso_local noundef nonnull align 8 dereferenceable(32) ptr @_ZNK5Eigen9EigenTest4nameB5cxx11Ev(ptr noundef nonnull align 8 dereferenceable(40) %0) #8 comdat align 2 {
  %2 = alloca ptr, align 8
  store ptr %0, ptr %2, align 8
  %3 = load ptr, ptr %2, align 8
  %4 = getelementptr inbounds %"class.Eigen::EigenTest", ptr %3, i32 0, i32 0
  ret ptr %4
}

; Function Attrs: mustprogress noinline optnone uwtable
define linkonce_odr dso_local void @_ZNK5Eigen9EigenTestclEv(ptr noundef nonnull align 8 dereferenceable(40) %0) #5 comdat align 2 {
  %2 = alloca ptr, align 8
  store ptr %0, ptr %2, align 8
  %3 = load ptr, ptr %2, align 8
  %4 = getelementptr inbounds %"class.Eigen::EigenTest", ptr %3, i32 0, i32 1
  %5 = load ptr, ptr %4, align 8
  call void %5()
  ret void
}

; Function Attrs: mustprogress noinline nounwind optnone uwtable
define linkonce_odr dso_local void @_ZNSt6vectorINSt7__cxx1112basic_stringIcSt11char_traitsIcESaIcEEESaIS5_EE8pop_backEv(ptr noundef nonnull align 8 dereferenceable(24) %0) #8 comdat align 2 {
  %2 = alloca ptr, align 8
  store ptr %0, ptr %2, align 8
  %3 = load ptr, ptr %2, align 8
  %4 = getelementptr inbounds %"struct.std::_Vector_base", ptr %3, i32 0, i32 0
  %5 = getelementptr inbounds %"struct.std::_Vector_base<std::__cxx11::basic_string<char>, std::allocator<std::__cxx11::basic_string<char>>>::_Vector_impl_data", ptr %4, i32 0, i32 1
  %6 = load ptr, ptr %5, align 8
  %7 = getelementptr inbounds %"class.std::__cxx11::basic_string", ptr %6, i32 -1
  store ptr %7, ptr %5, align 8
  %8 = getelementptr inbounds %"struct.std::_Vector_base", ptr %3, i32 0, i32 0
  %9 = getelementptr inbounds %"struct.std::_Vector_base", ptr %3, i32 0, i32 0
  %10 = getelementptr inbounds %"struct.std::_Vector_base<std::__cxx11::basic_string<char>, std::allocator<std::__cxx11::basic_string<char>>>::_Vector_impl_data", ptr %9, i32 0, i32 1
  %11 = load ptr, ptr %10, align 8
  call void @_ZNSt16allocator_traitsISaINSt7__cxx1112basic_stringIcSt11char_traitsIcESaIcEEEEE7destroyIS5_EEvRS6_PT_(ptr noundef nonnull align 1 dereferenceable(1) %8, ptr noundef %11) #3
  ret void
}

; Function Attrs: nounwind
declare void @_ZNSt7__cxx1118basic_stringstreamIcSt11char_traitsIcESaIcEED1Ev(ptr noundef nonnull align 8 dereferenceable(128)) unnamed_addr #2

; Function Attrs: mustprogress noinline optnone uwtable
define dso_local void @_Z17test_dynamic_boolv() #5 personality ptr @__gxx_personality_v0 {
  %1 = alloca i32, align 4
  %2 = alloca i32, align 4
  %3 = alloca i32, align 4
  %4 = alloca i32, align 4
  %5 = alloca i32, align 4
  %6 = alloca i32, align 4
  %7 = alloca i32, align 4
  %8 = alloca i32, align 4
  %9 = alloca i32, align 4
  %10 = alloca %"class.Eigen::Matrix", align 8
  %11 = alloca ptr, align 8
  %12 = alloca i32, align 4
  %13 = alloca %"class.Eigen::Matrix", align 8
  %14 = alloca %"class.Eigen::Matrix", align 8
  %15 = alloca %"class.Eigen::Matrix", align 8
  %16 = alloca i64, align 8
  %17 = alloca i64, align 8
  %18 = alloca i64, align 8
  %19 = alloca %"class.Eigen::Product", align 8
  %20 = alloca %"class.Eigen::Matrix", align 8
  %21 = alloca %"class.Eigen::Transpose", align 8
  %22 = alloca i64, align 8
  %23 = alloca i64, align 8
  store i32 1, ptr %2, align 4
  store i32 64, ptr %3, align 4
  %24 = call noundef i32 @_ZN5Eigen8internal6randomIiEENS0_13random_retvalINS0_36global_math_functions_filtering_baseIT_vE4typeEE4typeERKS4_SA_(ptr noundef nonnull align 4 dereferenceable(4) %2, ptr noundef nonnull align 4 dereferenceable(4) %3)
  store i32 %24, ptr %1, align 4
  store i32 1, ptr %5, align 4
  store i32 64, ptr %6, align 4
  %25 = call noundef i32 @_ZN5Eigen8internal6randomIiEENS0_13random_retvalINS0_36global_math_functions_filtering_baseIT_vE4typeEE4typeERKS4_SA_(ptr noundef nonnull align 4 dereferenceable(4) %5, ptr noundef nonnull align 4 dereferenceable(4) %6)
  store i32 %25, ptr %4, align 4
  store i32 1, ptr %8, align 4
  store i32 65, ptr %9, align 4
  %26 = call noundef i32 @_ZN5Eigen8internal6randomIiEENS0_13random_retvalINS0_36global_math_functions_filtering_baseIT_vE4typeEE4typeERKS4_SA_(ptr noundef nonnull align 4 dereferenceable(4) %8, ptr noundef nonnull align 4 dereferenceable(4) %9)
  store i32 %26, ptr %7, align 4
  call void @_ZN5Eigen6MatrixIbLin1ELin1ELi0ELin1ELin1EEC2IiiEERKT_RKT0_(ptr noundef nonnull align 8 dereferenceable(24) %10, ptr noundef nonnull align 4 dereferenceable(4) %1, ptr noundef nonnull align 4 dereferenceable(4) %7)
  %27 = invoke noundef nonnull align 8 dereferenceable(24) ptr @_ZN5Eigen9DenseBaseINS_6MatrixIbLin1ELin1ELi0ELin1ELin1EEEE9setRandomEv(ptr noundef nonnull align 1 dereferenceable(1) %10)
          to label %28 unwind label %80

28:                                               ; preds = %0
  invoke void @_ZN5Eigen6MatrixIbLin1ELin1ELi0ELin1ELin1EEC2IiiEERKT_RKT0_(ptr noundef nonnull align 8 dereferenceable(24) %13, ptr noundef nonnull align 4 dereferenceable(4) %7, ptr noundef nonnull align 4 dereferenceable(4) %4)
          to label %29 unwind label %80

29:                                               ; preds = %28
  %30 = invoke noundef nonnull align 8 dereferenceable(24) ptr @_ZN5Eigen9DenseBaseINS_6MatrixIbLin1ELin1ELi0ELin1ELin1EEEE9setRandomEv(ptr noundef nonnull align 1 dereferenceable(1) %13)
          to label %31 unwind label %84

31:                                               ; preds = %29
  invoke void @_ZN5Eigen6MatrixIbLin1ELin1ELi0ELin1ELin1EEC2IiiEERKT_RKT0_(ptr noundef nonnull align 8 dereferenceable(24) %14, ptr noundef nonnull align 4 dereferenceable(4) %1, ptr noundef nonnull align 4 dereferenceable(4) %4)
          to label %32 unwind label %84

32:                                               ; preds = %31
  %33 = invoke noundef nonnull align 8 dereferenceable(24) ptr @_ZN5Eigen9DenseBaseINS_6MatrixIbLin1ELin1ELi0ELin1ELin1EEEE9setRandomEv(ptr noundef nonnull align 1 dereferenceable(1) %14)
          to label %34 unwind label %88

34:                                               ; preds = %32
  invoke void @_ZN5Eigen6MatrixIbLin1ELin1ELi0ELin1ELin1EEC2ERKS1_(ptr noundef nonnull align 8 dereferenceable(24) %15, ptr noundef nonnull align 8 dereferenceable(24) %14)
          to label %35 unwind label %88

35:                                               ; preds = %34
  store i64 0, ptr %16, align 8
  br label %36

36:                                               ; preds = %101, %35
  %37 = load i64, ptr %16, align 8
  %38 = call noundef i64 @_ZNK5Eigen15PlainObjectBaseINS_6MatrixIbLin1ELin1ELi0ELin1ELin1EEEE4rowsEv(ptr noundef nonnull align 8 dereferenceable(24) %14) #3
  %39 = icmp slt i64 %37, %38
  br i1 %39, label %40, label %104

40:                                               ; preds = %36
  store i64 0, ptr %17, align 8
  br label %41

41:                                               ; preds = %97, %40
  %42 = load i64, ptr %17, align 8
  %43 = call noundef i64 @_ZNK5Eigen15PlainObjectBaseINS_6MatrixIbLin1ELin1ELi0ELin1ELin1EEEE4colsEv(ptr noundef nonnull align 8 dereferenceable(24) %14) #3
  %44 = icmp slt i64 %42, %43
  br i1 %44, label %45, label %100

45:                                               ; preds = %41
  store i64 0, ptr %18, align 8
  br label %46

46:                                               ; preds = %77, %45
  %47 = load i64, ptr %18, align 8
  %48 = call noundef i64 @_ZNK5Eigen15PlainObjectBaseINS_6MatrixIbLin1ELin1ELi0ELin1ELin1EEEE4colsEv(ptr noundef nonnull align 8 dereferenceable(24) %10) #3
  %49 = icmp slt i64 %47, %48
  br i1 %49, label %50, label %96

50:                                               ; preds = %46
  %51 = load i64, ptr %16, align 8
  %52 = load i64, ptr %18, align 8
  %53 = invoke noundef nonnull align 1 dereferenceable(1) ptr @_ZNK5Eigen15PlainObjectBaseINS_6MatrixIbLin1ELin1ELi0ELin1ELin1EEEE5coeffEll(ptr noundef nonnull align 8 dereferenceable(24) %10, i64 noundef %51, i64 noundef %52)
          to label %54 unwind label %92

54:                                               ; preds = %50
  %55 = load i8, ptr %53, align 1
  %56 = trunc i8 %55 to i1
  br i1 %56, label %57, label %64

57:                                               ; preds = %54
  %58 = load i64, ptr %18, align 8
  %59 = load i64, ptr %17, align 8
  %60 = invoke noundef nonnull align 1 dereferenceable(1) ptr @_ZNK5Eigen15PlainObjectBaseINS_6MatrixIbLin1ELin1ELi0ELin1ELin1EEEE5coeffEll(ptr noundef nonnull align 8 dereferenceable(24) %13, i64 noundef %58, i64 noundef %59)
          to label %61 unwind label %92

61:                                               ; preds = %57
  %62 = load i8, ptr %60, align 1
  %63 = trunc i8 %62 to i1
  br label %64

64:                                               ; preds = %61, %54
  %65 = phi i1 [ false, %54 ], [ %63, %61 ]
  %66 = zext i1 %65 to i32
  %67 = load i64, ptr %16, align 8
  %68 = load i64, ptr %17, align 8
  %69 = invoke noundef nonnull align 1 dereferenceable(1) ptr @_ZN5Eigen15PlainObjectBaseINS_6MatrixIbLin1ELin1ELi0ELin1ELin1EEEE8coeffRefEll(ptr noundef nonnull align 8 dereferenceable(24) %15, i64 noundef %67, i64 noundef %68)
          to label %70 unwind label %92

70:                                               ; preds = %64
  %71 = load i8, ptr %69, align 1
  %72 = trunc i8 %71 to i1
  %73 = zext i1 %72 to i32
  %74 = or i32 %73, %66
  %75 = icmp ne i32 %74, 0
  %76 = zext i1 %75 to i8
  store i8 %76, ptr %69, align 1
  br label %77

77:                                               ; preds = %70
  %78 = load i64, ptr %18, align 8
  %79 = add nsw i64 %78, 1
  store i64 %79, ptr %18, align 8
  br label %46, !llvm.loop !10

80:                                               ; preds = %28, %0
  %81 = landingpad { ptr, i32 }
          cleanup
  %82 = extractvalue { ptr, i32 } %81, 0
  store ptr %82, ptr %11, align 8
  %83 = extractvalue { ptr, i32 } %81, 1
  store i32 %83, ptr %12, align 4
  br label %160

84:                                               ; preds = %31, %29
  %85 = landingpad { ptr, i32 }
          cleanup
  %86 = extractvalue { ptr, i32 } %85, 0
  store ptr %86, ptr %11, align 8
  %87 = extractvalue { ptr, i32 } %85, 1
  store i32 %87, ptr %12, align 4
  br label %159

88:                                               ; preds = %34, %32
  %89 = landingpad { ptr, i32 }
          cleanup
  %90 = extractvalue { ptr, i32 } %89, 0
  store ptr %90, ptr %11, align 8
  %91 = extractvalue { ptr, i32 } %89, 1
  store i32 %91, ptr %12, align 4
  br label %158

92:                                               ; preds = %119, %117, %114, %112, %106, %104, %64, %57, %50
  %93 = landingpad { ptr, i32 }
          cleanup
  %94 = extractvalue { ptr, i32 } %93, 0
  store ptr %94, ptr %11, align 8
  %95 = extractvalue { ptr, i32 } %93, 1
  store i32 %95, ptr %12, align 4
  br label %157

96:                                               ; preds = %46
  br label %97

97:                                               ; preds = %96
  %98 = load i64, ptr %17, align 8
  %99 = add nsw i64 %98, 1
  store i64 %99, ptr %17, align 8
  br label %41, !llvm.loop !11

100:                                              ; preds = %41
  br label %101

101:                                              ; preds = %100
  %102 = load i64, ptr %16, align 8
  %103 = add nsw i64 %102, 1
  store i64 %103, ptr %16, align 8
  br label %36, !llvm.loop !12

104:                                              ; preds = %36
  %105 = invoke { ptr, ptr } @_ZNK5Eigen10MatrixBaseINS_6MatrixIbLin1ELin1ELi0ELin1ELin1EEEEmlIS2_EEKNS_7ProductIS2_T_Li0EEERKNS0_IS6_EE(ptr noundef nonnull align 1 dereferenceable(1) %10, ptr noundef nonnull align 1 dereferenceable(1) %13)
          to label %106 unwind label %92

106:                                              ; preds = %104
  %107 = getelementptr inbounds { ptr, ptr }, ptr %19, i32 0, i32 0
  %108 = extractvalue { ptr, ptr } %105, 0
  store ptr %108, ptr %107, align 8
  %109 = getelementptr inbounds { ptr, ptr }, ptr %19, i32 0, i32 1
  %110 = extractvalue { ptr, ptr } %105, 1
  store ptr %110, ptr %109, align 8
  %111 = invoke noundef nonnull align 8 dereferenceable(24) ptr @_ZN5Eigen10MatrixBaseINS_6MatrixIbLin1ELin1ELi0ELin1ELin1EEEEpLINS_7ProductIS2_S2_Li0EEEEERS2_RKNS0_IT_EE(ptr noundef nonnull align 1 dereferenceable(1) %14, ptr noundef nonnull align 1 dereferenceable(1) %19)
          to label %112 unwind label %92

112:                                              ; preds = %106
  %113 = invoke noundef zeroext i1 @_ZN5Eigen13test_is_equalINS_6MatrixIbLin1ELin1ELi0ELin1ELin1EEES2_EEbRKT_RKT0_b(ptr noundef nonnull align 8 dereferenceable(24) %14, ptr noundef nonnull align 8 dereferenceable(24) %15, i1 noundef zeroext true)
          to label %114 unwind label %92

114:                                              ; preds = %112
  %115 = call noundef nonnull align 8 dereferenceable(32) ptr @_ZNSt6vectorINSt7__cxx1112basic_stringIcSt11char_traitsIcESaIcEEESaIS5_EE4backEv(ptr noundef nonnull align 8 dereferenceable(24) @_ZN5EigenL12g_test_stackB5cxx11E) #3
  %116 = call noundef ptr @_ZNKSt7__cxx1112basic_stringIcSt11char_traitsIcESaIcEE5c_strEv(ptr noundef nonnull align 8 dereferenceable(32) %115) #3
  invoke void @_Z11verify_implbPKcS0_iS0_(i1 noundef zeroext %113, ptr noundef %116, ptr noundef @.str.34, i32 noundef 70, ptr noundef @.str.35)
          to label %117 unwind label %92

117:                                              ; preds = %114
  %118 = invoke ptr @_ZN5Eigen9DenseBaseINS_6MatrixIbLin1ELin1ELi0ELin1ELin1EEEE9transposeEv(ptr noundef nonnull align 1 dereferenceable(1) %13)
          to label %119 unwind label %92

119:                                              ; preds = %117
  %120 = getelementptr inbounds %"class.Eigen::Transpose", ptr %21, i32 0, i32 0
  store ptr %118, ptr %120, align 8
  invoke void @_ZN5Eigen6MatrixIbLin1ELin1ELi0ELin1ELin1EEC2INS_9TransposeIS1_EEEERKNS_9EigenBaseIT_EE(ptr noundef nonnull align 8 dereferenceable(24) %20, ptr noundef nonnull align 1 dereferenceable(1) %21)
          to label %121 unwind label %92

121:                                              ; preds = %119
  store i64 0, ptr %22, align 8
  br label %122

122:                                              ; preds = %153, %121
  %123 = load i64, ptr %22, align 8
  %124 = call noundef i64 @_ZNK5Eigen15PlainObjectBaseINS_6MatrixIbLin1ELin1ELi0ELin1ELin1EEEE4rowsEv(ptr noundef nonnull align 8 dereferenceable(24) %13) #3
  %125 = icmp slt i64 %123, %124
  br i1 %125, label %126, label %156

126:                                              ; preds = %122
  store i64 0, ptr %23, align 8
  br label %127

127:                                              ; preds = %145, %126
  %128 = load i64, ptr %23, align 8
  %129 = call noundef i64 @_ZNK5Eigen15PlainObjectBaseINS_6MatrixIbLin1ELin1ELi0ELin1ELin1EEEE4colsEv(ptr noundef nonnull align 8 dereferenceable(24) %13) #3
  %130 = icmp slt i64 %128, %129
  br i1 %130, label %131, label %152

131:                                              ; preds = %127
  %132 = load i64, ptr %22, align 8
  %133 = load i64, ptr %23, align 8
  %134 = invoke noundef nonnull align 1 dereferenceable(1) ptr @_ZN5Eigen15DenseCoeffsBaseINS_6MatrixIbLin1ELin1ELi0ELin1ELin1EEELi1EEclEll(ptr noundef nonnull align 1 dereferenceable(1) %13, i64 noundef %132, i64 noundef %133)
          to label %135 unwind label %148

135:                                              ; preds = %131
  %136 = load i64, ptr %23, align 8
  %137 = load i64, ptr %22, align 8
  %138 = invoke noundef nonnull align 1 dereferenceable(1) ptr @_ZN5Eigen15DenseCoeffsBaseINS_6MatrixIbLin1ELin1ELi0ELin1ELin1EEELi1EEclEll(ptr noundef nonnull align 1 dereferenceable(1) %20, i64 noundef %136, i64 noundef %137)
          to label %139 unwind label %148

139:                                              ; preds = %135
  %140 = invoke noundef zeroext i1 @_ZN5Eigen13test_is_equalIbbEEbRKT_RKT0_b(ptr noundef nonnull align 1 dereferenceable(1) %134, ptr noundef nonnull align 1 dereferenceable(1) %138, i1 noundef zeroext true)
          to label %141 unwind label %148

141:                                              ; preds = %139
  %142 = call noundef nonnull align 8 dereferenceable(32) ptr @_ZNSt6vectorINSt7__cxx1112basic_stringIcSt11char_traitsIcESaIcEEESaIS5_EE4backEv(ptr noundef nonnull align 8 dereferenceable(24) @_ZN5EigenL12g_test_stackB5cxx11E) #3
  %143 = call noundef ptr @_ZNKSt7__cxx1112basic_stringIcSt11char_traitsIcESaIcEE5c_strEv(ptr noundef nonnull align 8 dereferenceable(32) %142) #3
  invoke void @_Z11verify_implbPKcS0_iS0_(i1 noundef zeroext %140, ptr noundef %143, ptr noundef @.str.34, i32 noundef 74, ptr noundef @.str.36)
          to label %144 unwind label %148

144:                                              ; preds = %141
  br label %145

145:                                              ; preds = %144
  %146 = load i64, ptr %23, align 8
  %147 = add nsw i64 %146, 1
  store i64 %147, ptr %23, align 8
  br label %127, !llvm.loop !13

148:                                              ; preds = %141, %139, %135, %131
  %149 = landingpad { ptr, i32 }
          cleanup
  %150 = extractvalue { ptr, i32 } %149, 0
  store ptr %150, ptr %11, align 8
  %151 = extractvalue { ptr, i32 } %149, 1
  store i32 %151, ptr %12, align 4
  call void @_ZN5Eigen6MatrixIbLin1ELin1ELi0ELin1ELin1EED2Ev(ptr noundef nonnull align 8 dereferenceable(24) %20) #3
  br label %157

152:                                              ; preds = %127
  br label %153

153:                                              ; preds = %152
  %154 = load i64, ptr %22, align 8
  %155 = add nsw i64 %154, 1
  store i64 %155, ptr %22, align 8
  br label %122, !llvm.loop !14

156:                                              ; preds = %122
  call void @_ZN5Eigen6MatrixIbLin1ELin1ELi0ELin1ELin1EED2Ev(ptr noundef nonnull align 8 dereferenceable(24) %20) #3
  call void @_ZN5Eigen6MatrixIbLin1ELin1ELi0ELin1ELin1EED2Ev(ptr noundef nonnull align 8 dereferenceable(24) %15) #3
  call void @_ZN5Eigen6MatrixIbLin1ELin1ELi0ELin1ELin1EED2Ev(ptr noundef nonnull align 8 dereferenceable(24) %14) #3
  call void @_ZN5Eigen6MatrixIbLin1ELin1ELi0ELin1ELin1EED2Ev(ptr noundef nonnull align 8 dereferenceable(24) %13) #3
  call void @_ZN5Eigen6MatrixIbLin1ELin1ELi0ELin1ELin1EED2Ev(ptr noundef nonnull align 8 dereferenceable(24) %10) #3
  ret void

157:                                              ; preds = %148, %92
  call void @_ZN5Eigen6MatrixIbLin1ELin1ELi0ELin1ELin1EED2Ev(ptr noundef nonnull align 8 dereferenceable(24) %15) #3
  br label %158

158:                                              ; preds = %157, %88
  call void @_ZN5Eigen6MatrixIbLin1ELin1ELi0ELin1ELin1EED2Ev(ptr noundef nonnull align 8 dereferenceable(24) %14) #3
  br label %159

159:                                              ; preds = %158, %84
  call void @_ZN5Eigen6MatrixIbLin1ELin1ELi0ELin1ELin1EED2Ev(ptr noundef nonnull align 8 dereferenceable(24) %13) #3
  br label %160

160:                                              ; preds = %159, %80
  call void @_ZN5Eigen6MatrixIbLin1ELin1ELi0ELin1ELin1EED2Ev(ptr noundef nonnull align 8 dereferenceable(24) %10) #3
  br label %161

161:                                              ; preds = %160
  %162 = load ptr, ptr %11, align 8
  %163 = load i32, ptr %12, align 4
  %164 = insertvalue { ptr, i32 } undef, ptr %162, 0
  %165 = insertvalue { ptr, i32 } %164, i32 %163, 1
  resume { ptr, i32 } %165
}

; Function Attrs: mustprogress noinline optnone uwtable
define linkonce_odr dso_local noundef i32 @_ZN5Eigen8internal6randomIiEENS0_13random_retvalINS0_36global_math_functions_filtering_baseIT_vE4typeEE4typeERKS4_SA_(ptr noundef nonnull align 4 dereferenceable(4) %0, ptr noundef nonnull align 4 dereferenceable(4) %1) #5 comdat {
  %3 = alloca ptr, align 8
  %4 = alloca ptr, align 8
  store ptr %0, ptr %3, align 8
  store ptr %1, ptr %4, align 8
  %5 = load ptr, ptr %3, align 8
  %6 = load ptr, ptr %4, align 8
  %7 = call noundef i32 @_ZN5Eigen8internal15random_int_implIiLb1ELb1EE3runERKiS4_(ptr noundef nonnull align 4 dereferenceable(4) %5, ptr noundef nonnull align 4 dereferenceable(4) %6)
  ret i32 %7
}

; Function Attrs: noinline optnone uwtable
define linkonce_odr dso_local void @_ZN5Eigen6MatrixIbLin1ELin1ELi0ELin1ELin1EEC2IiiEERKT_RKT0_(ptr noundef nonnull align 8 dereferenceable(24) %0, ptr noundef nonnull align 4 dereferenceable(4) %1, ptr noundef nonnull align 4 dereferenceable(4) %2) unnamed_addr #9 comdat align 2 personality ptr @__gxx_personality_v0 {
  %4 = alloca ptr, align 8
  %5 = alloca ptr, align 8
  %6 = alloca ptr, align 8
  %7 = alloca ptr, align 8
  %8 = alloca i32, align 4
  store ptr %0, ptr %4, align 8
  store ptr %1, ptr %5, align 8
  store ptr %2, ptr %6, align 8
  %9 = load ptr, ptr %4, align 8
  call void @_ZN5Eigen15PlainObjectBaseINS_6MatrixIbLin1ELin1ELi0ELin1ELin1EEEEC2Ev(ptr noundef nonnull align 8 dereferenceable(24) %9)
  %10 = load ptr, ptr %5, align 8
  %11 = load i32, ptr %10, align 4
  %12 = sext i32 %11 to i64
  %13 = load ptr, ptr %6, align 8
  %14 = load i32, ptr %13, align 4
  %15 = sext i32 %14 to i64
  invoke void @_ZN5Eigen15PlainObjectBaseINS_6MatrixIbLin1ELin1ELi0ELin1ELin1EEEE6_init2IiiEEvllPNSt9enable_ifILb1ET_E4typeE(ptr noundef nonnull align 8 dereferenceable(24) %9, i64 noundef %12, i64 noundef %15, ptr noundef null)
          to label %16 unwind label %17

16:                                               ; preds = %3
  ret void

17:                                               ; preds = %3
  %18 = landingpad { ptr, i32 }
          cleanup
  %19 = extractvalue { ptr, i32 } %18, 0
  store ptr %19, ptr %7, align 8
  %20 = extractvalue { ptr, i32 } %18, 1
  store i32 %20, ptr %8, align 4
  call void @_ZN5Eigen15PlainObjectBaseINS_6MatrixIbLin1ELin1ELi0ELin1ELin1EEEED2Ev(ptr noundef nonnull align 8 dereferenceable(24) %9) #3
  br label %21

21:                                               ; preds = %17
  %22 = load ptr, ptr %7, align 8
  %23 = load i32, ptr %8, align 4
  %24 = insertvalue { ptr, i32 } undef, ptr %22, 0
  %25 = insertvalue { ptr, i32 } %24, i32 %23, 1
  resume { ptr, i32 } %25
}

; Function Attrs: mustprogress noinline optnone uwtable
define linkonce_odr dso_local noundef nonnull align 8 dereferenceable(24) ptr @_ZN5Eigen9DenseBaseINS_6MatrixIbLin1ELin1ELi0ELin1ELin1EEEE9setRandomEv(ptr noundef nonnull align 1 dereferenceable(1) %0) #5 comdat align 2 {
  %2 = alloca ptr, align 8
  %3 = alloca %"class.Eigen::CwiseNullaryOp", align 8
  store ptr %0, ptr %2, align 8
  %4 = load ptr, ptr %2, align 8
  %5 = call noundef i64 @_ZNK5Eigen9EigenBaseINS_6MatrixIbLin1ELin1ELi0ELin1ELin1EEEE4rowsEv(ptr noundef nonnull align 1 dereferenceable(1) %4) #3
  %6 = call noundef i64 @_ZNK5Eigen9EigenBaseINS_6MatrixIbLin1ELin1ELi0ELin1ELin1EEEE4colsEv(ptr noundef nonnull align 1 dereferenceable(1) %4) #3
  call void @_ZN5Eigen9DenseBaseINS_6MatrixIbLin1ELin1ELi0ELin1ELin1EEEE6RandomEll(ptr sret(%"class.Eigen::CwiseNullaryOp") align 8 %3, i64 noundef %5, i64 noundef %6)
  %7 = call noundef nonnull align 8 dereferenceable(24) ptr @_ZN5Eigen9DenseBaseINS_6MatrixIbLin1ELin1ELi0ELin1ELin1EEEEaSINS_14CwiseNullaryOpINS_8internal16scalar_random_opIbEES2_EEEERS2_RKNS0_IT_EE(ptr noundef nonnull align 1 dereferenceable(1) %4, ptr noundef nonnull align 1 dereferenceable(1) %3)
  ret ptr %7
}

; Function Attrs: noinline optnone uwtable
define linkonce_odr dso_local void @_ZN5Eigen6MatrixIbLin1ELin1ELi0ELin1ELin1EEC2ERKS1_(ptr noundef nonnull align 8 dereferenceable(24) %0, ptr noundef nonnull align 8 dereferenceable(24) %1) unnamed_addr #9 comdat align 2 {
  %3 = alloca ptr, align 8
  %4 = alloca ptr, align 8
  store ptr %0, ptr %3, align 8
  store ptr %1, ptr %4, align 8
  %5 = load ptr, ptr %3, align 8
  %6 = load ptr, ptr %4, align 8
  call void @_ZN5Eigen15PlainObjectBaseINS_6MatrixIbLin1ELin1ELi0ELin1ELin1EEEEC2ERKS3_(ptr noundef nonnull align 8 dereferenceable(24) %5, ptr noundef nonnull align 8 dereferenceable(24) %6)
  ret void
}

; Function Attrs: mustprogress noinline nounwind optnone uwtable
define linkonce_odr dso_local noundef i64 @_ZNK5Eigen15PlainObjectBaseINS_6MatrixIbLin1ELin1ELi0ELin1ELin1EEEE4rowsEv(ptr noundef nonnull align 8 dereferenceable(24) %0) #8 comdat align 2 personality ptr @__gxx_personality_v0 {
  %2 = alloca ptr, align 8
  store ptr %0, ptr %2, align 8
  %3 = load ptr, ptr %2, align 8
  %4 = getelementptr inbounds %"class.Eigen::PlainObjectBase", ptr %3, i32 0, i32 0
  %5 = invoke noundef i64 @_ZNK5Eigen8internal17DenseStorage_implIbLin1ELin1ELin1ELi0EE4rowsEv(ptr noundef nonnull align 8 dereferenceable(24) %4)
          to label %6 unwind label %7

6:                                                ; preds = %1
  ret i64 %5

7:                                                ; preds = %1
  %8 = landingpad { ptr, i32 }
          catch ptr null
  %9 = extractvalue { ptr, i32 } %8, 0
  call void @__clang_call_terminate(ptr %9) #24
  unreachable
}

; Function Attrs: mustprogress noinline nounwind optnone uwtable
define linkonce_odr dso_local noundef i64 @_ZNK5Eigen15PlainObjectBaseINS_6MatrixIbLin1ELin1ELi0ELin1ELin1EEEE4colsEv(ptr noundef nonnull align 8 dereferenceable(24) %0) #8 comdat align 2 personality ptr @__gxx_personality_v0 {
  %2 = alloca ptr, align 8
  store ptr %0, ptr %2, align 8
  %3 = load ptr, ptr %2, align 8
  %4 = getelementptr inbounds %"class.Eigen::PlainObjectBase", ptr %3, i32 0, i32 0
  %5 = invoke noundef i64 @_ZNK5Eigen8internal17DenseStorage_implIbLin1ELin1ELin1ELi0EE4colsEv(ptr noundef nonnull align 8 dereferenceable(24) %4)
          to label %6 unwind label %7

6:                                                ; preds = %1
  ret i64 %5

7:                                                ; preds = %1
  %8 = landingpad { ptr, i32 }
          catch ptr null
  %9 = extractvalue { ptr, i32 } %8, 0
  call void @__clang_call_terminate(ptr %9) #24
  unreachable
}

; Function Attrs: mustprogress noinline optnone uwtable
define linkonce_odr dso_local noundef nonnull align 1 dereferenceable(1) ptr @_ZNK5Eigen15PlainObjectBaseINS_6MatrixIbLin1ELin1ELi0ELin1ELin1EEEE5coeffEll(ptr noundef nonnull align 8 dereferenceable(24) %0, i64 noundef %1, i64 noundef %2) #5 comdat align 2 {
  %4 = alloca ptr, align 8
  %5 = alloca i64, align 8
  %6 = alloca i64, align 8
  store ptr %0, ptr %4, align 8
  store i64 %1, ptr %5, align 8
  store i64 %2, ptr %6, align 8
  %7 = load ptr, ptr %4, align 8
  %8 = getelementptr inbounds %"class.Eigen::PlainObjectBase", ptr %7, i32 0, i32 0
  %9 = call noundef ptr @_ZNK5Eigen8internal17DenseStorage_implIbLin1ELin1ELin1ELi0EE4dataEv(ptr noundef nonnull align 8 dereferenceable(24) %8)
  %10 = load i64, ptr %5, align 8
  %11 = load i64, ptr %6, align 8
  %12 = getelementptr inbounds %"class.Eigen::PlainObjectBase", ptr %7, i32 0, i32 0
  %13 = call noundef i64 @_ZNK5Eigen8internal17DenseStorage_implIbLin1ELin1ELin1ELi0EE4rowsEv(ptr noundef nonnull align 8 dereferenceable(24) %12)
  %14 = mul nsw i64 %11, %13
  %15 = add nsw i64 %10, %14
  %16 = getelementptr inbounds i8, ptr %9, i64 %15
  ret ptr %16
}

; Function Attrs: mustprogress noinline optnone uwtable
define linkonce_odr dso_local noundef nonnull align 1 dereferenceable(1) ptr @_ZN5Eigen15PlainObjectBaseINS_6MatrixIbLin1ELin1ELi0ELin1ELin1EEEE8coeffRefEll(ptr noundef nonnull align 8 dereferenceable(24) %0, i64 noundef %1, i64 noundef %2) #5 comdat align 2 {
  %4 = alloca ptr, align 8
  %5 = alloca i64, align 8
  %6 = alloca i64, align 8
  store ptr %0, ptr %4, align 8
  store i64 %1, ptr %5, align 8
  store i64 %2, ptr %6, align 8
  %7 = load ptr, ptr %4, align 8
  %8 = getelementptr inbounds %"class.Eigen::PlainObjectBase", ptr %7, i32 0, i32 0
  %9 = call noundef ptr @_ZN5Eigen8internal17DenseStorage_implIbLin1ELin1ELin1ELi0EE4dataEv(ptr noundef nonnull align 8 dereferenceable(24) %8)
  %10 = load i64, ptr %5, align 8
  %11 = load i64, ptr %6, align 8
  %12 = getelementptr inbounds %"class.Eigen::PlainObjectBase", ptr %7, i32 0, i32 0
  %13 = call noundef i64 @_ZNK5Eigen8internal17DenseStorage_implIbLin1ELin1ELin1ELi0EE4rowsEv(ptr noundef nonnull align 8 dereferenceable(24) %12)
  %14 = mul nsw i64 %11, %13
  %15 = add nsw i64 %10, %14
  %16 = getelementptr inbounds i8, ptr %9, i64 %15
  ret ptr %16
}

; Function Attrs: mustprogress noinline optnone uwtable
define linkonce_odr dso_local { ptr, ptr } @_ZNK5Eigen10MatrixBaseINS_6MatrixIbLin1ELin1ELi0ELin1ELin1EEEEmlIS2_EEKNS_7ProductIS2_T_Li0EEERKNS0_IS6_EE(ptr noundef nonnull align 1 dereferenceable(1) %0, ptr noundef nonnull align 1 dereferenceable(1) %1) #5 comdat align 2 {
  %3 = alloca %"class.Eigen::Product", align 8
  %4 = alloca ptr, align 8
  %5 = alloca ptr, align 8
  store ptr %0, ptr %4, align 8
  store ptr %1, ptr %5, align 8
  %6 = load ptr, ptr %4, align 8
  %7 = call noundef nonnull align 8 dereferenceable(24) ptr @_ZNK5Eigen9EigenBaseINS_6MatrixIbLin1ELin1ELi0ELin1ELin1EEEE7derivedEv(ptr noundef nonnull align 1 dereferenceable(1) %6)
  %8 = load ptr, ptr %5, align 8
  %9 = call noundef nonnull align 8 dereferenceable(24) ptr @_ZNK5Eigen9EigenBaseINS_6MatrixIbLin1ELin1ELi0ELin1ELin1EEEE7derivedEv(ptr noundef nonnull align 1 dereferenceable(1) %8)
  call void @_ZN5Eigen7ProductINS_6MatrixIbLin1ELin1ELi0ELin1ELin1EEES2_Li0EEC2ERKS2_S5_(ptr noundef nonnull align 8 dereferenceable(16) %3, ptr noundef nonnull align 8 dereferenceable(24) %7, ptr noundef nonnull align 8 dereferenceable(24) %9)
  %10 = load { ptr, ptr }, ptr %3, align 8
  ret { ptr, ptr } %10
}

; Function Attrs: mustprogress noinline optnone uwtable
define linkonce_odr dso_local noundef nonnull align 8 dereferenceable(24) ptr @_ZN5Eigen10MatrixBaseINS_6MatrixIbLin1ELin1ELi0ELin1ELin1EEEEpLINS_7ProductIS2_S2_Li0EEEEERS2_RKNS0_IT_EE(ptr noundef nonnull align 1 dereferenceable(1) %0, ptr noundef nonnull align 1 dereferenceable(1) %1) #5 comdat align 2 {
  %3 = alloca ptr, align 8
  %4 = alloca ptr, align 8
  %5 = alloca %"struct.Eigen::internal::add_assign_op", align 1
  store ptr %0, ptr %3, align 8
  store ptr %1, ptr %4, align 8
  %6 = load ptr, ptr %3, align 8
  %7 = call noundef nonnull align 8 dereferenceable(24) ptr @_ZN5Eigen9EigenBaseINS_6MatrixIbLin1ELin1ELi0ELin1ELin1EEEE7derivedEv(ptr noundef nonnull align 1 dereferenceable(1) %6)
  %8 = load ptr, ptr %4, align 8
  %9 = call noundef nonnull align 8 dereferenceable(16) ptr @_ZNK5Eigen9EigenBaseINS_7ProductINS_6MatrixIbLin1ELin1ELi0ELin1ELin1EEES3_Li0EEEE7derivedEv(ptr noundef nonnull align 1 dereferenceable(1) %8)
  call void @_ZN5Eigen8internal15call_assignmentINS_6MatrixIbLin1ELin1ELi0ELin1ELin1EEENS_7ProductIS3_S3_Li0EEENS0_13add_assign_opIbbEEEEvRT_RKT0_RKT1_NSt9enable_ifIXsr25evaluator_assume_aliasingISA_EE5valueEPvE4typeE(ptr noundef nonnull align 8 dereferenceable(24) %7, ptr noundef nonnull align 8 dereferenceable(16) %9, ptr noundef nonnull align 1 dereferenceable(1) %5, ptr noundef null)
  %10 = call noundef nonnull align 8 dereferenceable(24) ptr @_ZN5Eigen9EigenBaseINS_6MatrixIbLin1ELin1ELi0ELin1ELin1EEEE7derivedEv(ptr noundef nonnull align 1 dereferenceable(1) %6)
  ret ptr %10
}

; Function Attrs: mustprogress noinline optnone uwtable
define linkonce_odr dso_local noundef zeroext i1 @_ZN5Eigen13test_is_equalINS_6MatrixIbLin1ELin1ELi0ELin1ELin1EEES2_EEbRKT_RKT0_b(ptr noundef nonnull align 8 dereferenceable(24) %0, ptr noundef nonnull align 8 dereferenceable(24) %1, i1 noundef zeroext %2) #5 comdat {
  %4 = alloca i1, align 1
  %5 = alloca ptr, align 8
  %6 = alloca ptr, align 8
  %7 = alloca i8, align 1
  store ptr %0, ptr %5, align 8
  store ptr %1, ptr %6, align 8
  %8 = zext i1 %2 to i8
  store i8 %8, ptr %7, align 1
  %9 = load ptr, ptr %5, align 8
  %10 = load ptr, ptr %6, align 8
  %11 = call noundef zeroext i1 @_ZN5Eigen6numext12equal_strictINS_6MatrixIbLin1ELin1ELi0ELin1ELin1EEES3_EEbRKT_RKT0_(ptr noundef nonnull align 8 dereferenceable(24) %9, ptr noundef nonnull align 8 dereferenceable(24) %10)
  %12 = zext i1 %11 to i32
  %13 = load i8, ptr %7, align 1
  %14 = trunc i8 %13 to i1
  %15 = zext i1 %14 to i32
  %16 = icmp eq i32 %12, %15
  br i1 %16, label %17, label %18

17:                                               ; preds = %3
  store i1 true, ptr %4, align 1
  br label %34

18:                                               ; preds = %3
  %19 = call noundef nonnull align 8 dereferenceable(8) ptr @_ZStlsISt11char_traitsIcEERSt13basic_ostreamIcT_ES5_PKc(ptr noundef nonnull align 8 dereferenceable(8) @_ZSt4cerr, ptr noundef @.str.119)
  %20 = load ptr, ptr %5, align 8
  %21 = call noundef nonnull align 8 dereferenceable(8) ptr @_ZN5EigenlsINS_6MatrixIbLin1ELin1ELi0ELin1ELin1EEEEERSoS3_RKNS_9DenseBaseIT_EE(ptr noundef nonnull align 8 dereferenceable(8) %19, ptr noundef nonnull align 1 dereferenceable(1) %20)
  %22 = call noundef nonnull align 8 dereferenceable(8) ptr @_ZStlsISt11char_traitsIcEERSt13basic_ostreamIcT_ES5_PKc(ptr noundef nonnull align 8 dereferenceable(8) %21, ptr noundef @.str.120)
  %23 = load i8, ptr %7, align 1
  %24 = trunc i8 %23 to i1
  br i1 %24, label %25, label %26

25:                                               ; preds = %18
  br label %27

26:                                               ; preds = %18
  br label %27

27:                                               ; preds = %26, %25
  %28 = phi ptr [ @.str.121, %25 ], [ @.str.122, %26 ]
  %29 = getelementptr inbounds [3 x i8], ptr %28, i64 0, i64 0
  %30 = call noundef nonnull align 8 dereferenceable(8) ptr @_ZStlsISt11char_traitsIcEERSt13basic_ostreamIcT_ES5_PKc(ptr noundef nonnull align 8 dereferenceable(8) %22, ptr noundef %29)
  %31 = load ptr, ptr %6, align 8
  %32 = call noundef nonnull align 8 dereferenceable(8) ptr @_ZN5EigenlsINS_6MatrixIbLin1ELin1ELi0ELin1ELin1EEEEERSoS3_RKNS_9DenseBaseIT_EE(ptr noundef nonnull align 8 dereferenceable(8) %30, ptr noundef nonnull align 1 dereferenceable(1) %31)
  %33 = call noundef nonnull align 8 dereferenceable(8) ptr @_ZStlsISt11char_traitsIcEERSt13basic_ostreamIcT_ES5_PKc(ptr noundef nonnull align 8 dereferenceable(8) %32, ptr noundef @.str.123)
  store i1 false, ptr %4, align 1
  br label %34

34:                                               ; preds = %27, %17
  %35 = load i1, ptr %4, align 1
  ret i1 %35
}

; Function Attrs: mustprogress noinline optnone uwtable
define linkonce_odr dso_local ptr @_ZN5Eigen9DenseBaseINS_6MatrixIbLin1ELin1ELi0ELin1ELin1EEEE9transposeEv(ptr noundef nonnull align 1 dereferenceable(1) %0) #5 comdat align 2 {
  %2 = alloca %"class.Eigen::Transpose", align 8
  %3 = alloca ptr, align 8
  store ptr %0, ptr %3, align 8
  %4 = load ptr, ptr %3, align 8
  %5 = call noundef nonnull align 8 dereferenceable(24) ptr @_ZN5Eigen9EigenBaseINS_6MatrixIbLin1ELin1ELi0ELin1ELin1EEEE7derivedEv(ptr noundef nonnull align 1 dereferenceable(1) %4)
  call void @_ZN5Eigen9TransposeINS_6MatrixIbLin1ELin1ELi0ELin1ELin1EEEEC2ERS2_(ptr noundef nonnull align 8 dereferenceable(8) %2, ptr noundef nonnull align 8 dereferenceable(24) %5)
  %6 = getelementptr inbounds %"class.Eigen::Transpose", ptr %2, i32 0, i32 0
  %7 = load ptr, ptr %6, align 8
  ret ptr %7
}

; Function Attrs: noinline optnone uwtable
define linkonce_odr dso_local void @_ZN5Eigen6MatrixIbLin1ELin1ELi0ELin1ELin1EEC2INS_9TransposeIS1_EEEERKNS_9EigenBaseIT_EE(ptr noundef nonnull align 8 dereferenceable(24) %0, ptr noundef nonnull align 1 dereferenceable(1) %1) unnamed_addr #9 comdat align 2 {
  %3 = alloca ptr, align 8
  %4 = alloca ptr, align 8
  store ptr %0, ptr %3, align 8
  store ptr %1, ptr %4, align 8
  %5 = load ptr, ptr %3, align 8
  %6 = load ptr, ptr %4, align 8
  %7 = call noundef nonnull align 8 dereferenceable(8) ptr @_ZNK5Eigen9EigenBaseINS_9TransposeINS_6MatrixIbLin1ELin1ELi0ELin1ELin1EEEEEE7derivedEv(ptr noundef nonnull align 1 dereferenceable(1) %6)
  call void @_ZN5Eigen15PlainObjectBaseINS_6MatrixIbLin1ELin1ELi0ELin1ELin1EEEEC2INS_9TransposeIS2_EEEERKNS_9DenseBaseIT_EE(ptr noundef nonnull align 8 dereferenceable(24) %5, ptr noundef nonnull align 1 dereferenceable(1) %7)
  ret void
}

; Function Attrs: mustprogress noinline optnone uwtable
define linkonce_odr dso_local noundef zeroext i1 @_ZN5Eigen13test_is_equalIbbEEbRKT_RKT0_b(ptr noundef nonnull align 1 dereferenceable(1) %0, ptr noundef nonnull align 1 dereferenceable(1) %1, i1 noundef zeroext %2) #5 comdat {
  %4 = alloca i1, align 1
  %5 = alloca ptr, align 8
  %6 = alloca ptr, align 8
  %7 = alloca i8, align 1
  store ptr %0, ptr %5, align 8
  store ptr %1, ptr %6, align 8
  %8 = zext i1 %2 to i8
  store i8 %8, ptr %7, align 1
  %9 = load ptr, ptr %5, align 8
  %10 = load ptr, ptr %6, align 8
  %11 = call noundef zeroext i1 @_ZN5Eigen6numext12equal_strictIbbEEbRKT_RKT0_(ptr noundef nonnull align 1 dereferenceable(1) %9, ptr noundef nonnull align 1 dereferenceable(1) %10)
  %12 = zext i1 %11 to i32
  %13 = load i8, ptr %7, align 1
  %14 = trunc i8 %13 to i1
  %15 = zext i1 %14 to i32
  %16 = icmp eq i32 %12, %15
  br i1 %16, label %17, label %18

17:                                               ; preds = %3
  store i1 true, ptr %4, align 1
  br label %38

18:                                               ; preds = %3
  %19 = call noundef nonnull align 8 dereferenceable(8) ptr @_ZStlsISt11char_traitsIcEERSt13basic_ostreamIcT_ES5_PKc(ptr noundef nonnull align 8 dereferenceable(8) @_ZSt4cerr, ptr noundef @.str.119)
  %20 = load ptr, ptr %5, align 8
  %21 = load i8, ptr %20, align 1
  %22 = trunc i8 %21 to i1
  %23 = call noundef nonnull align 8 dereferenceable(8) ptr @_ZNSolsEb(ptr noundef nonnull align 8 dereferenceable(8) %19, i1 noundef zeroext %22)
  %24 = call noundef nonnull align 8 dereferenceable(8) ptr @_ZStlsISt11char_traitsIcEERSt13basic_ostreamIcT_ES5_PKc(ptr noundef nonnull align 8 dereferenceable(8) %23, ptr noundef @.str.120)
  %25 = load i8, ptr %7, align 1
  %26 = trunc i8 %25 to i1
  br i1 %26, label %27, label %28

27:                                               ; preds = %18
  br label %29

28:                                               ; preds = %18
  br label %29

29:                                               ; preds = %28, %27
  %30 = phi ptr [ @.str.121, %27 ], [ @.str.122, %28 ]
  %31 = getelementptr inbounds [3 x i8], ptr %30, i64 0, i64 0
  %32 = call noundef nonnull align 8 dereferenceable(8) ptr @_ZStlsISt11char_traitsIcEERSt13basic_ostreamIcT_ES5_PKc(ptr noundef nonnull align 8 dereferenceable(8) %24, ptr noundef %31)
  %33 = load ptr, ptr %6, align 8
  %34 = load i8, ptr %33, align 1
  %35 = trunc i8 %34 to i1
  %36 = call noundef nonnull align 8 dereferenceable(8) ptr @_ZNSolsEb(ptr noundef nonnull align 8 dereferenceable(8) %32, i1 noundef zeroext %35)
  %37 = call noundef nonnull align 8 dereferenceable(8) ptr @_ZStlsISt11char_traitsIcEERSt13basic_ostreamIcT_ES5_PKc(ptr noundef nonnull align 8 dereferenceable(8) %36, ptr noundef @.str.123)
  store i1 false, ptr %4, align 1
  br label %38

38:                                               ; preds = %29, %17
  %39 = load i1, ptr %4, align 1
  ret i1 %39
}

; Function Attrs: mustprogress noinline optnone uwtable
define linkonce_odr dso_local noundef nonnull align 1 dereferenceable(1) ptr @_ZN5Eigen15DenseCoeffsBaseINS_6MatrixIbLin1ELin1ELi0ELin1ELin1EEELi1EEclEll(ptr noundef nonnull align 1 dereferenceable(1) %0, i64 noundef %1, i64 noundef %2) #5 comdat align 2 personality ptr @__gxx_personality_v0 {
  %4 = alloca ptr, align 8
  %5 = alloca i64, align 8
  %6 = alloca i64, align 8
  %7 = alloca ptr, align 8
  %8 = alloca i32, align 4
  store ptr %0, ptr %4, align 8
  store i64 %1, ptr %5, align 8
  store i64 %2, ptr %6, align 8
  %9 = load ptr, ptr %4, align 8
  %10 = load i64, ptr %5, align 8
  %11 = icmp sge i64 %10, 0
  br i1 %11, label %12, label %23

12:                                               ; preds = %3
  %13 = load i64, ptr %5, align 8
  %14 = call noundef i64 @_ZNK5Eigen9EigenBaseINS_6MatrixIbLin1ELin1ELi0ELin1ELin1EEEE4rowsEv(ptr noundef nonnull align 1 dereferenceable(1) %9) #3
  %15 = icmp slt i64 %13, %14
  br i1 %15, label %16, label %23

16:                                               ; preds = %12
  %17 = load i64, ptr %6, align 8
  %18 = icmp sge i64 %17, 0
  br i1 %18, label %19, label %23

19:                                               ; preds = %16
  %20 = load i64, ptr %6, align 8
  %21 = call noundef i64 @_ZNK5Eigen9EigenBaseINS_6MatrixIbLin1ELin1ELi0ELin1ELin1EEEE4colsEv(ptr noundef nonnull align 1 dereferenceable(1) %9) #3
  %22 = icmp slt i64 %20, %21
  br i1 %22, label %57, label %23

23:                                               ; preds = %19, %16, %12, %3
  %24 = load i8, ptr @_ZN5EigenL14no_more_assertE, align 1
  %25 = trunc i8 %24 to i1
  br i1 %25, label %57, label %26

26:                                               ; preds = %23
  store i8 1, ptr @_ZN5EigenL14no_more_assertE, align 1
  %27 = load i8, ptr @_ZN5EigenL32report_on_cerr_on_assert_failureE, align 1
  %28 = trunc i8 %27 to i1
  br i1 %28, label %29, label %49

29:                                               ; preds = %26
  %30 = load i64, ptr %5, align 8
  %31 = icmp sge i64 %30, 0
  br i1 %31, label %32, label %43

32:                                               ; preds = %29
  %33 = load i64, ptr %5, align 8
  %34 = call noundef i64 @_ZNK5Eigen9EigenBaseINS_6MatrixIbLin1ELin1ELi0ELin1ELin1EEEE4rowsEv(ptr noundef nonnull align 1 dereferenceable(1) %9) #3
  %35 = icmp slt i64 %33, %34
  br i1 %35, label %36, label %43

36:                                               ; preds = %32
  %37 = load i64, ptr %6, align 8
  %38 = icmp sge i64 %37, 0
  br i1 %38, label %39, label %43

39:                                               ; preds = %36
  %40 = load i64, ptr %6, align 8
  %41 = call noundef i64 @_ZNK5Eigen9EigenBaseINS_6MatrixIbLin1ELin1ELi0ELin1ELin1EEEE4colsEv(ptr noundef nonnull align 1 dereferenceable(1) %9) #3
  %42 = icmp slt i64 %40, %41
  br label %43

43:                                               ; preds = %39, %36, %32, %29
  %44 = phi i1 [ false, %36 ], [ false, %32 ], [ false, %29 ], [ %42, %39 ]
  br i1 %44, label %45, label %46

45:                                               ; preds = %43
  br label %48

46:                                               ; preds = %43
  call void @__assert_fail(ptr noundef @.str.53, ptr noundef @.str.54, i32 noundef 316, ptr noundef @__PRETTY_FUNCTION__._ZN5Eigen15DenseCoeffsBaseINS_6MatrixIbLin1ELin1ELi0ELin1ELin1EEELi1EEclEll) #24
  unreachable

47:                                               ; No predecessors!
  br label %48

48:                                               ; preds = %47, %45
  br label %56

49:                                               ; preds = %26
  %50 = call ptr @__cxa_allocate_exception(i64 1) #3
  invoke void @_ZN5Eigen22eigen_assert_exceptionC2Ev(ptr noundef nonnull align 1 dereferenceable(1) %50)
          to label %51 unwind label %52

51:                                               ; preds = %49
  call void @__cxa_throw(ptr %50, ptr @_ZTIN5Eigen22eigen_assert_exceptionE, ptr @_ZN5Eigen22eigen_assert_exceptionD2Ev) #26
  unreachable

52:                                               ; preds = %49
  %53 = landingpad { ptr, i32 }
          cleanup
  %54 = extractvalue { ptr, i32 } %53, 0
  store ptr %54, ptr %7, align 8
  %55 = extractvalue { ptr, i32 } %53, 1
  store i32 %55, ptr %8, align 4
  call void @__cxa_free_exception(ptr %50) #3
  br label %61

56:                                               ; preds = %48
  br label %57

57:                                               ; preds = %56, %23, %19
  %58 = load i64, ptr %5, align 8
  %59 = load i64, ptr %6, align 8
  %60 = call noundef nonnull align 1 dereferenceable(1) ptr @_ZN5Eigen15DenseCoeffsBaseINS_6MatrixIbLin1ELin1ELi0ELin1ELin1EEELi1EE8coeffRefEll(ptr noundef nonnull align 1 dereferenceable(1) %9, i64 noundef %58, i64 noundef %59)
  ret ptr %60

61:                                               ; preds = %52
  %62 = load ptr, ptr %7, align 8
  %63 = load i32, ptr %8, align 4
  %64 = insertvalue { ptr, i32 } undef, ptr %62, 0
  %65 = insertvalue { ptr, i32 } %64, i32 %63, 1
  resume { ptr, i32 } %65
}

; Function Attrs: noinline nounwind optnone uwtable
define linkonce_odr dso_local void @_ZN5Eigen6MatrixIbLin1ELin1ELi0ELin1ELin1EED2Ev(ptr noundef nonnull align 8 dereferenceable(24) %0) unnamed_addr #4 comdat align 2 {
  %2 = alloca ptr, align 8
  store ptr %0, ptr %2, align 8
  %3 = load ptr, ptr %2, align 8
  call void @_ZN5Eigen15PlainObjectBaseINS_6MatrixIbLin1ELin1ELi0ELin1ELin1EEEED2Ev(ptr noundef nonnull align 8 dereferenceable(24) %3) #3
  ret void
}

; Function Attrs: noinline uwtable
define internal void @__cxx_global_var_init.37() #0 section ".text.startup" {
  call void @_ZN5Eigen9EigenTestC2EPKcPFvvE(ptr noundef nonnull align 8 dereferenceable(40) @_ZL26test_handler_product_small, ptr noundef @.str.38, ptr noundef @_Z18test_product_smallv)
  %1 = call i32 @__cxa_atexit(ptr @_ZN5Eigen9EigenTestD2Ev, ptr @_ZL26test_handler_product_small, ptr @__dso_handle) #3
  ret void
}

; Function Attrs: mustprogress noinline nounwind optnone uwtable
define dso_local void @_Z18test_product_smallv() #8 {
  %1 = alloca i32, align 4
  store i32 0, ptr %1, align 4
  br label %2

2:                                                ; preds = %7, %0
  %3 = load i32, ptr %1, align 4
  %4 = load i32, ptr @_ZN5EigenL8g_repeatE, align 4
  %5 = icmp slt i32 %3, %4
  br i1 %5, label %6, label %10

6:                                                ; preds = %2
  br label %7

7:                                                ; preds = %6
  %8 = load i32, ptr %1, align 4
  %9 = add nsw i32 %8, 1
  store i32 %9, ptr %1, align 4
  br label %2, !llvm.loop !15

10:                                               ; preds = %2
  ret void
}

; Function Attrs: noinline optnone uwtable
define linkonce_odr dso_local void @_ZN5Eigen9EigenTestC2EPKcPFvvE(ptr noundef nonnull align 8 dereferenceable(40) %0, ptr noundef %1, ptr noundef %2) unnamed_addr #9 comdat align 2 personality ptr @__gxx_personality_v0 {
  %4 = alloca ptr, align 8
  %5 = alloca ptr, align 8
  %6 = alloca ptr, align 8
  %7 = alloca %"class.std::allocator.0", align 1
  %8 = alloca ptr, align 8
  %9 = alloca i32, align 4
  %10 = alloca ptr, align 8
  store ptr %0, ptr %4, align 8
  store ptr %1, ptr %5, align 8
  store ptr %2, ptr %6, align 8
  %11 = load ptr, ptr %4, align 8
  %12 = getelementptr inbounds %"class.Eigen::EigenTest", ptr %11, i32 0, i32 0
  %13 = load ptr, ptr %5, align 8
  call void @_ZNSaIcEC1Ev(ptr noundef nonnull align 1 dereferenceable(1) %7) #3
  invoke void @_ZNSt7__cxx1112basic_stringIcSt11char_traitsIcESaIcEEC1EPKcRKS3_(ptr noundef nonnull align 8 dereferenceable(32) %12, ptr noundef %13, ptr noundef nonnull align 1 dereferenceable(1) %7)
          to label %14 unwind label %20

14:                                               ; preds = %3
  call void @_ZNSaIcED1Ev(ptr noundef nonnull align 1 dereferenceable(1) %7) #3
  %15 = getelementptr inbounds %"class.Eigen::EigenTest", ptr %11, i32 0, i32 1
  %16 = load ptr, ptr %6, align 8
  store ptr %16, ptr %15, align 8
  %17 = invoke noundef nonnull align 8 dereferenceable(24) ptr @_ZN5Eigen9EigenTest20get_registered_testsEv()
          to label %18 unwind label %24

18:                                               ; preds = %14
  store ptr %11, ptr %10, align 8
  invoke void @_ZNSt6vectorIPN5Eigen9EigenTestESaIS2_EE9push_backEOS2_(ptr noundef nonnull align 8 dereferenceable(24) %17, ptr noundef nonnull align 8 dereferenceable(8) %10)
          to label %19 unwind label %24

19:                                               ; preds = %18
  ret void

20:                                               ; preds = %3
  %21 = landingpad { ptr, i32 }
          cleanup
  %22 = extractvalue { ptr, i32 } %21, 0
  store ptr %22, ptr %8, align 8
  %23 = extractvalue { ptr, i32 } %21, 1
  store i32 %23, ptr %9, align 4
  call void @_ZNSaIcED1Ev(ptr noundef nonnull align 1 dereferenceable(1) %7) #3
  br label %28

24:                                               ; preds = %18, %14
  %25 = landingpad { ptr, i32 }
          cleanup
  %26 = extractvalue { ptr, i32 } %25, 0
  store ptr %26, ptr %8, align 8
  %27 = extractvalue { ptr, i32 } %25, 1
  store i32 %27, ptr %9, align 4
  call void @_ZNSt7__cxx1112basic_stringIcSt11char_traitsIcESaIcEED1Ev(ptr noundef nonnull align 8 dereferenceable(32) %12) #3
  br label %28

28:                                               ; preds = %24, %20
  %29 = load ptr, ptr %8, align 8
  %30 = load i32, ptr %9, align 4
  %31 = insertvalue { ptr, i32 } undef, ptr %29, 0
  %32 = insertvalue { ptr, i32 } %31, i32 %30, 1
  resume { ptr, i32 } %32
}

; Function Attrs: noinline nounwind optnone uwtable
define linkonce_odr dso_local void @_ZN5Eigen9EigenTestD2Ev(ptr noundef nonnull align 8 dereferenceable(40) %0) unnamed_addr #4 comdat align 2 {
  %2 = alloca ptr, align 8
  store ptr %0, ptr %2, align 8
  %3 = load ptr, ptr %2, align 8
  %4 = getelementptr inbounds %"class.Eigen::EigenTest", ptr %3, i32 0, i32 0
  call void @_ZNSt7__cxx1112basic_stringIcSt11char_traitsIcESaIcEED1Ev(ptr noundef nonnull align 8 dereferenceable(32) %4) #3
  ret void
}

; Function Attrs: noinline nounwind optnone uwtable
define linkonce_odr dso_local void @_ZNSt12_Vector_baseINSt7__cxx1112basic_stringIcSt11char_traitsIcESaIcEEESaIS5_EEC2Ev(ptr noundef nonnull align 8 dereferenceable(24) %0) unnamed_addr #4 comdat align 2 {
  %2 = alloca ptr, align 8
  store ptr %0, ptr %2, align 8
  %3 = load ptr, ptr %2, align 8
  %4 = getelementptr inbounds %"struct.std::_Vector_base", ptr %3, i32 0, i32 0
  call void @_ZNSt12_Vector_baseINSt7__cxx1112basic_stringIcSt11char_traitsIcESaIcEEESaIS5_EE12_Vector_implC2Ev(ptr noundef nonnull align 8 dereferenceable(24) %4) #3
  ret void
}

; Function Attrs: noinline nounwind optnone uwtable
define linkonce_odr dso_local void @_ZNSt12_Vector_baseINSt7__cxx1112basic_stringIcSt11char_traitsIcESaIcEEESaIS5_EE12_Vector_implC2Ev(ptr noundef nonnull align 8 dereferenceable(24) %0) unnamed_addr #4 comdat align 2 {
  %2 = alloca ptr, align 8
  store ptr %0, ptr %2, align 8
  %3 = load ptr, ptr %2, align 8
  call void @_ZNSaINSt7__cxx1112basic_stringIcSt11char_traitsIcESaIcEEEEC2Ev(ptr noundef nonnull align 1 dereferenceable(1) %3) #3
  call void @_ZNSt12_Vector_baseINSt7__cxx1112basic_stringIcSt11char_traitsIcESaIcEEESaIS5_EE17_Vector_impl_dataC2Ev(ptr noundef nonnull align 8 dereferenceable(24) %3) #3
  ret void
}

; Function Attrs: noinline nounwind optnone uwtable
define linkonce_odr dso_local void @_ZNSaINSt7__cxx1112basic_stringIcSt11char_traitsIcESaIcEEEEC2Ev(ptr noundef nonnull align 1 dereferenceable(1) %0) unnamed_addr #4 comdat align 2 {
  %2 = alloca ptr, align 8
  store ptr %0, ptr %2, align 8
  %3 = load ptr, ptr %2, align 8
  call void @_ZNSt15__new_allocatorINSt7__cxx1112basic_stringIcSt11char_traitsIcESaIcEEEEC2Ev(ptr noundef nonnull align 1 dereferenceable(1) %3) #3
  ret void
}

; Function Attrs: noinline nounwind optnone uwtable
define linkonce_odr dso_local void @_ZNSt12_Vector_baseINSt7__cxx1112basic_stringIcSt11char_traitsIcESaIcEEESaIS5_EE17_Vector_impl_dataC2Ev(ptr noundef nonnull align 8 dereferenceable(24) %0) unnamed_addr #4 comdat align 2 {
  %2 = alloca ptr, align 8
  store ptr %0, ptr %2, align 8
  %3 = load ptr, ptr %2, align 8
  %4 = getelementptr inbounds %"struct.std::_Vector_base<std::__cxx11::basic_string<char>, std::allocator<std::__cxx11::basic_string<char>>>::_Vector_impl_data", ptr %3, i32 0, i32 0
  store ptr null, ptr %4, align 8
  %5 = getelementptr inbounds %"struct.std::_Vector_base<std::__cxx11::basic_string<char>, std::allocator<std::__cxx11::basic_string<char>>>::_Vector_impl_data", ptr %3, i32 0, i32 1
  store ptr null, ptr %5, align 8
  %6 = getelementptr inbounds %"struct.std::_Vector_base<std::__cxx11::basic_string<char>, std::allocator<std::__cxx11::basic_string<char>>>::_Vector_impl_data", ptr %3, i32 0, i32 2
  store ptr null, ptr %6, align 8
  ret void
}

; Function Attrs: noinline nounwind optnone uwtable
define linkonce_odr dso_local void @_ZNSt15__new_allocatorINSt7__cxx1112basic_stringIcSt11char_traitsIcESaIcEEEEC2Ev(ptr noundef nonnull align 1 dereferenceable(1) %0) unnamed_addr #4 comdat align 2 {
  %2 = alloca ptr, align 8
  store ptr %0, ptr %2, align 8
  %3 = load ptr, ptr %2, align 8
  ret void
}

; Function Attrs: nounwind readnone willreturn
declare ptr @__errno_location() #10

; Function Attrs: nounwind
declare i64 @strtoul(ptr noundef, ptr noundef, i32 noundef) #2

; Function Attrs: noreturn nounwind
declare void @exit(i32 noundef) #11

; Function Attrs: mustprogress noinline nounwind optnone uwtable
define linkonce_odr dso_local noundef i64 @_ZNKSt6vectorINSt7__cxx1112basic_stringIcSt11char_traitsIcESaIcEEESaIS5_EE4sizeEv(ptr noundef nonnull align 8 dereferenceable(24) %0) #8 comdat align 2 {
  %2 = alloca ptr, align 8
  store ptr %0, ptr %2, align 8
  %3 = load ptr, ptr %2, align 8
  %4 = getelementptr inbounds %"struct.std::_Vector_base", ptr %3, i32 0, i32 0
  %5 = getelementptr inbounds %"struct.std::_Vector_base<std::__cxx11::basic_string<char>, std::allocator<std::__cxx11::basic_string<char>>>::_Vector_impl_data", ptr %4, i32 0, i32 1
  %6 = load ptr, ptr %5, align 8
  %7 = getelementptr inbounds %"struct.std::_Vector_base", ptr %3, i32 0, i32 0
  %8 = getelementptr inbounds %"struct.std::_Vector_base<std::__cxx11::basic_string<char>, std::allocator<std::__cxx11::basic_string<char>>>::_Vector_impl_data", ptr %7, i32 0, i32 0
  %9 = load ptr, ptr %8, align 8
  %10 = ptrtoint ptr %6 to i64
  %11 = ptrtoint ptr %9 to i64
  %12 = sub i64 %10, %11
  %13 = sdiv exact i64 %12, 32
  ret i64 %13
}

declare noundef nonnull align 8 dereferenceable(8) ptr @_ZStlsIcSt11char_traitsIcESaIcEERSt13basic_ostreamIT_T0_ES7_RKNSt7__cxx1112basic_stringIS4_S5_T1_EE(ptr noundef nonnull align 8 dereferenceable(8), ptr noundef nonnull align 8 dereferenceable(32)) #1

; Function Attrs: mustprogress noinline nounwind optnone uwtable
define linkonce_odr dso_local noundef nonnull align 8 dereferenceable(32) ptr @_ZNSt6vectorINSt7__cxx1112basic_stringIcSt11char_traitsIcESaIcEEESaIS5_EEixEm(ptr noundef nonnull align 8 dereferenceable(24) %0, i64 noundef %1) #8 comdat align 2 {
  %3 = alloca ptr, align 8
  %4 = alloca i64, align 8
  store ptr %0, ptr %3, align 8
  store i64 %1, ptr %4, align 8
  %5 = load ptr, ptr %3, align 8
  %6 = getelementptr inbounds %"struct.std::_Vector_base", ptr %5, i32 0, i32 0
  %7 = getelementptr inbounds %"struct.std::_Vector_base<std::__cxx11::basic_string<char>, std::allocator<std::__cxx11::basic_string<char>>>::_Vector_impl_data", ptr %6, i32 0, i32 0
  %8 = load ptr, ptr %7, align 8
  %9 = load i64, ptr %4, align 8
  %10 = getelementptr inbounds %"class.std::__cxx11::basic_string", ptr %8, i64 %9
  ret ptr %10
}

; Function Attrs: noreturn nounwind
declare void @abort() #11

; Function Attrs: mustprogress noinline optnone uwtable
define linkonce_odr dso_local noundef nonnull align 8 dereferenceable(24) ptr @_ZN5Eigen9EigenTest20get_registered_testsEv() #5 comdat align 2 personality ptr @__gxx_personality_v0 {
  %1 = alloca ptr, align 8
  %2 = alloca i32, align 4
  %3 = load atomic i8, ptr @_ZGVZN5Eigen9EigenTest20get_registered_testsEvE19ms_registered_tests acquire, align 8
  %4 = icmp eq i8 %3, 0
  br i1 %4, label %5, label %11, !prof !16

5:                                                ; preds = %0
  %6 = call i32 @__cxa_guard_acquire(ptr @_ZGVZN5Eigen9EigenTest20get_registered_testsEvE19ms_registered_tests) #3
  %7 = icmp ne i32 %6, 0
  br i1 %7, label %8, label %11

8:                                                ; preds = %5
  %9 = invoke noalias noundef nonnull ptr @_Znwm(i64 noundef 24) #27
          to label %10 unwind label %13

10:                                               ; preds = %8
  call void @llvm.memset.p0.i64(ptr align 16 %9, i8 0, i64 24, i1 false)
  call void @_ZNSt6vectorIPN5Eigen9EigenTestESaIS2_EEC2Ev(ptr noundef nonnull align 8 dereferenceable(24) %9) #3
  store ptr %9, ptr @_ZZN5Eigen9EigenTest20get_registered_testsEvE19ms_registered_tests, align 8
  call void @__cxa_guard_release(ptr @_ZGVZN5Eigen9EigenTest20get_registered_testsEvE19ms_registered_tests) #3
  br label %11

11:                                               ; preds = %10, %5, %0
  %12 = load ptr, ptr @_ZZN5Eigen9EigenTest20get_registered_testsEvE19ms_registered_tests, align 8
  ret ptr %12

13:                                               ; preds = %8
  %14 = landingpad { ptr, i32 }
          cleanup
  %15 = extractvalue { ptr, i32 } %14, 0
  store ptr %15, ptr %1, align 8
  %16 = extractvalue { ptr, i32 } %14, 1
  store i32 %16, ptr %2, align 4
  call void @__cxa_guard_abort(ptr @_ZGVZN5Eigen9EigenTest20get_registered_testsEvE19ms_registered_tests) #3
  br label %17

17:                                               ; preds = %13
  %18 = load ptr, ptr %1, align 8
  %19 = load i32, ptr %2, align 4
  %20 = insertvalue { ptr, i32 } undef, ptr %18, 0
  %21 = insertvalue { ptr, i32 } %20, i32 %19, 1
  resume { ptr, i32 } %21
}

; Function Attrs: nounwind
declare i32 @__cxa_guard_acquire(ptr) #3

; Function Attrs: nobuiltin allocsize(0)
declare noundef nonnull ptr @_Znwm(i64 noundef) #12

; Function Attrs: argmemonly nocallback nofree nounwind willreturn writeonly
declare void @llvm.memset.p0.i64(ptr nocapture writeonly, i8, i64, i1 immarg) #13

; Function Attrs: noinline nounwind optnone uwtable
define linkonce_odr dso_local void @_ZNSt6vectorIPN5Eigen9EigenTestESaIS2_EEC2Ev(ptr noundef nonnull align 8 dereferenceable(24) %0) unnamed_addr #4 comdat align 2 {
  %2 = alloca ptr, align 8
  store ptr %0, ptr %2, align 8
  %3 = load ptr, ptr %2, align 8
  call void @_ZNSt12_Vector_baseIPN5Eigen9EigenTestESaIS2_EEC2Ev(ptr noundef nonnull align 8 dereferenceable(24) %3) #3
  ret void
}

; Function Attrs: nounwind
declare void @__cxa_guard_abort(ptr) #3

; Function Attrs: nounwind
declare void @__cxa_guard_release(ptr) #3

; Function Attrs: noinline nounwind optnone uwtable
define linkonce_odr dso_local void @_ZNSt12_Vector_baseIPN5Eigen9EigenTestESaIS2_EEC2Ev(ptr noundef nonnull align 8 dereferenceable(24) %0) unnamed_addr #4 comdat align 2 {
  %2 = alloca ptr, align 8
  store ptr %0, ptr %2, align 8
  %3 = load ptr, ptr %2, align 8
  %4 = getelementptr inbounds %"struct.std::_Vector_base.7", ptr %3, i32 0, i32 0
  call void @_ZNSt12_Vector_baseIPN5Eigen9EigenTestESaIS2_EE12_Vector_implC2Ev(ptr noundef nonnull align 8 dereferenceable(24) %4) #3
  ret void
}

; Function Attrs: noinline nounwind optnone uwtable
define linkonce_odr dso_local void @_ZNSt12_Vector_baseIPN5Eigen9EigenTestESaIS2_EE12_Vector_implC2Ev(ptr noundef nonnull align 8 dereferenceable(24) %0) unnamed_addr #4 comdat align 2 {
  %2 = alloca ptr, align 8
  store ptr %0, ptr %2, align 8
  %3 = load ptr, ptr %2, align 8
  call void @_ZNSaIPN5Eigen9EigenTestEEC2Ev(ptr noundef nonnull align 1 dereferenceable(1) %3) #3
  call void @_ZNSt12_Vector_baseIPN5Eigen9EigenTestESaIS2_EE17_Vector_impl_dataC2Ev(ptr noundef nonnull align 8 dereferenceable(24) %3) #3
  ret void
}

; Function Attrs: noinline nounwind optnone uwtable
define linkonce_odr dso_local void @_ZNSaIPN5Eigen9EigenTestEEC2Ev(ptr noundef nonnull align 1 dereferenceable(1) %0) unnamed_addr #4 comdat align 2 {
  %2 = alloca ptr, align 8
  store ptr %0, ptr %2, align 8
  %3 = load ptr, ptr %2, align 8
  call void @_ZNSt15__new_allocatorIPN5Eigen9EigenTestEEC2Ev(ptr noundef nonnull align 1 dereferenceable(1) %3) #3
  ret void
}

; Function Attrs: noinline nounwind optnone uwtable
define linkonce_odr dso_local void @_ZNSt12_Vector_baseIPN5Eigen9EigenTestESaIS2_EE17_Vector_impl_dataC2Ev(ptr noundef nonnull align 8 dereferenceable(24) %0) unnamed_addr #4 comdat align 2 {
  %2 = alloca ptr, align 8
  store ptr %0, ptr %2, align 8
  %3 = load ptr, ptr %2, align 8
  %4 = getelementptr inbounds %"struct.std::_Vector_base<Eigen::EigenTest *, std::allocator<Eigen::EigenTest *>>::_Vector_impl_data", ptr %3, i32 0, i32 0
  store ptr null, ptr %4, align 8
  %5 = getelementptr inbounds %"struct.std::_Vector_base<Eigen::EigenTest *, std::allocator<Eigen::EigenTest *>>::_Vector_impl_data", ptr %3, i32 0, i32 1
  store ptr null, ptr %5, align 8
  %6 = getelementptr inbounds %"struct.std::_Vector_base<Eigen::EigenTest *, std::allocator<Eigen::EigenTest *>>::_Vector_impl_data", ptr %3, i32 0, i32 2
  store ptr null, ptr %6, align 8
  ret void
}

; Function Attrs: noinline nounwind optnone uwtable
define linkonce_odr dso_local void @_ZNSt15__new_allocatorIPN5Eigen9EigenTestEEC2Ev(ptr noundef nonnull align 1 dereferenceable(1) %0) unnamed_addr #4 comdat align 2 {
  %2 = alloca ptr, align 8
  store ptr %0, ptr %2, align 8
  %3 = load ptr, ptr %2, align 8
  ret void
}

; Function Attrs: noinline optnone uwtable
define linkonce_odr dso_local void @_ZN5Eigen15PlainObjectBaseINS_6MatrixIbLin1ELin1ELi0ELin1ELin1EEEEC2ERKS3_(ptr noundef nonnull align 8 dereferenceable(24) %0, ptr noundef nonnull align 8 dereferenceable(24) %1) unnamed_addr #9 comdat align 2 {
  %3 = alloca ptr, align 8
  %4 = alloca ptr, align 8
  store ptr %0, ptr %3, align 8
  store ptr %1, ptr %4, align 8
  %5 = load ptr, ptr %3, align 8
  %6 = load ptr, ptr %4, align 8
  %7 = getelementptr inbounds %"class.Eigen::PlainObjectBase", ptr %5, i32 0, i32 0
  %8 = load ptr, ptr %4, align 8
  %9 = getelementptr inbounds %"class.Eigen::PlainObjectBase", ptr %8, i32 0, i32 0
  call void @_ZN5Eigen12DenseStorageIbLin1ELin1ELin1ELi0ELb1EEC2ERKS1_(ptr noundef nonnull align 8 dereferenceable(24) %7, ptr noundef nonnull align 8 dereferenceable(24) %9)
  ret void
}

; Function Attrs: noinline optnone uwtable
define linkonce_odr dso_local void @_ZN5Eigen12DenseStorageIbLin1ELin1ELin1ELi0ELb1EEC2ERKS1_(ptr noundef nonnull align 8 dereferenceable(24) %0, ptr noundef nonnull align 8 dereferenceable(24) %1) unnamed_addr #9 comdat align 2 {
  %3 = alloca ptr, align 8
  %4 = alloca ptr, align 8
  store ptr %0, ptr %3, align 8
  store ptr %1, ptr %4, align 8
  %5 = load ptr, ptr %3, align 8
  %6 = load ptr, ptr %4, align 8
  call void @_ZN5Eigen8internal17DenseStorage_implIbLin1ELin1ELin1ELi0EEC2ERKS2_(ptr noundef nonnull align 8 dereferenceable(24) %5, ptr noundef nonnull align 8 dereferenceable(24) %6)
  ret void
}

; Function Attrs: noinline optnone uwtable
define linkonce_odr dso_local void @_ZN5Eigen8internal17DenseStorage_implIbLin1ELin1ELin1ELi0EEC2ERKS2_(ptr noundef nonnull align 8 dereferenceable(24) %0, ptr noundef nonnull align 8 dereferenceable(24) %1) unnamed_addr #9 comdat align 2 {
  %3 = alloca ptr, align 8
  %4 = alloca ptr, align 8
  store ptr %0, ptr %3, align 8
  store ptr %1, ptr %4, align 8
  %5 = load ptr, ptr %3, align 8
  %6 = getelementptr inbounds %"class.Eigen::internal::DenseStorage_impl", ptr %5, i32 0, i32 0
  %7 = load ptr, ptr %4, align 8
  %8 = call noundef i64 @_ZNK5Eigen8internal17DenseStorage_implIbLin1ELin1ELin1ELi0EE4sizeEv(ptr noundef nonnull align 8 dereferenceable(24) %7)
  %9 = call noundef ptr @_ZN5Eigen8internal28conditional_aligned_new_autoIbLb1EEEPT_m(i64 noundef %8)
  store ptr %9, ptr %6, align 8
  %10 = getelementptr inbounds %"class.Eigen::internal::DenseStorage_impl", ptr %5, i32 0, i32 1
  %11 = load ptr, ptr %4, align 8
  %12 = getelementptr inbounds %"class.Eigen::internal::DenseStorage_impl", ptr %11, i32 0, i32 1
  %13 = load i64, ptr %12, align 8
  store i64 %13, ptr %10, align 8
  %14 = getelementptr inbounds %"class.Eigen::internal::DenseStorage_impl", ptr %5, i32 0, i32 2
  %15 = load ptr, ptr %4, align 8
  %16 = getelementptr inbounds %"class.Eigen::internal::DenseStorage_impl", ptr %15, i32 0, i32 2
  %17 = load i64, ptr %16, align 8
  store i64 %17, ptr %14, align 8
  %18 = load ptr, ptr %4, align 8
  %19 = getelementptr inbounds %"class.Eigen::internal::DenseStorage_impl", ptr %18, i32 0, i32 0
  %20 = load ptr, ptr %19, align 8
  %21 = load ptr, ptr %4, align 8
  %22 = getelementptr inbounds %"class.Eigen::internal::DenseStorage_impl", ptr %21, i32 0, i32 0
  %23 = load ptr, ptr %22, align 8
  %24 = load ptr, ptr %4, align 8
  %25 = call noundef i64 @_ZNK5Eigen8internal17DenseStorage_implIbLin1ELin1ELin1ELi0EE4sizeEv(ptr noundef nonnull align 8 dereferenceable(24) %24)
  %26 = getelementptr inbounds i8, ptr %23, i64 %25
  %27 = getelementptr inbounds %"class.Eigen::internal::DenseStorage_impl", ptr %5, i32 0, i32 0
  %28 = load ptr, ptr %27, align 8
  call void @_ZN5Eigen8internal10smart_copyIbEEvPKT_S4_PS2_(ptr noundef %20, ptr noundef %26, ptr noundef %28)
  ret void
}

; Function Attrs: mustprogress noinline optnone uwtable
define linkonce_odr dso_local noundef ptr @_ZN5Eigen8internal28conditional_aligned_new_autoIbLb1EEEPT_m(i64 noundef %0) #5 comdat {
  %2 = alloca i64, align 8
  %3 = alloca i64, align 8
  %4 = alloca ptr, align 8
  %5 = alloca i64, align 8
  %6 = alloca ptr, align 8
  store i64 %0, ptr %5, align 8
  %7 = load i64, ptr %5, align 8
  %8 = icmp eq i64 %7, 0
  br i1 %8, label %9, label %10

9:                                                ; preds = %1
  store ptr null, ptr %4, align 8
  br label %20

10:                                               ; preds = %1
  %11 = load i64, ptr %5, align 8
  store i64 %11, ptr %2, align 8
  store i64 9223372036854775807, ptr %3, align 8
  %12 = load i64, ptr %2, align 8
  %13 = icmp ugt i64 %12, 9223372036854775807
  br i1 %13, label %14, label %15

14:                                               ; preds = %10
  call void @_ZN5Eigen8internal19throw_std_bad_allocEv()
  br label %15

15:                                               ; preds = %10, %14
  %16 = load i64, ptr %5, align 8
  %17 = mul i64 1, %16
  %18 = call noundef ptr @_ZN5Eigen8internal26conditional_aligned_mallocILb1EEEPvm(i64 noundef %17)
  store ptr %18, ptr %6, align 8
  %19 = load ptr, ptr %6, align 8
  store ptr %19, ptr %4, align 8
  br label %20

20:                                               ; preds = %15, %9
  %21 = load ptr, ptr %4, align 8
  ret ptr %21
}

; Function Attrs: mustprogress noinline nounwind optnone uwtable
define linkonce_odr dso_local noundef i64 @_ZNK5Eigen8internal17DenseStorage_implIbLin1ELin1ELin1ELi0EE4sizeEv(ptr noundef nonnull align 8 dereferenceable(24) %0) #8 comdat align 2 {
  %2 = alloca ptr, align 8
  store ptr %0, ptr %2, align 8
  %3 = load ptr, ptr %2, align 8
  %4 = getelementptr inbounds %"class.Eigen::internal::DenseStorage_impl", ptr %3, i32 0, i32 1
  %5 = load i64, ptr %4, align 8
  %6 = getelementptr inbounds %"class.Eigen::internal::DenseStorage_impl", ptr %3, i32 0, i32 2
  %7 = load i64, ptr %6, align 8
  %8 = mul nsw i64 %5, %7
  ret i64 %8
}

; Function Attrs: mustprogress noinline optnone uwtable
define linkonce_odr dso_local void @_ZN5Eigen8internal10smart_copyIbEEvPKT_S4_PS2_(ptr noundef %0, ptr noundef %1, ptr noundef %2) #5 comdat {
  %4 = alloca ptr, align 8
  %5 = alloca ptr, align 8
  %6 = alloca ptr, align 8
  store ptr %0, ptr %4, align 8
  store ptr %1, ptr %5, align 8
  store ptr %2, ptr %6, align 8
  %7 = load ptr, ptr %4, align 8
  %8 = load ptr, ptr %5, align 8
  %9 = load ptr, ptr %6, align 8
  call void @_ZN5Eigen8internal17smart_copy_helperIbLb1EE3runEPKbS4_Pb(ptr noundef %7, ptr noundef %8, ptr noundef %9)
  ret void
}

; Function Attrs: mustprogress noinline optnone uwtable
define linkonce_odr dso_local noundef ptr @_ZN5Eigen8internal26conditional_aligned_mallocILb1EEEPvm(i64 noundef %0) #5 comdat {
  %2 = alloca i64, align 8
  store i64 %0, ptr %2, align 8
  %3 = load i64, ptr %2, align 8
  %4 = call noundef ptr @_ZN5Eigen8internal14aligned_mallocEm(i64 noundef %3)
  ret ptr %4
}

; Function Attrs: mustprogress noinline optnone uwtable
define linkonce_odr dso_local void @_ZN5Eigen8internal19throw_std_bad_allocEv() #5 comdat {
  %1 = call ptr @__cxa_allocate_exception(i64 8) #3
  call void @_ZNSt9bad_allocC2Ev(ptr noundef nonnull align 8 dereferenceable(8) %1) #3
  call void @__cxa_throw(ptr %1, ptr @_ZTISt9bad_alloc, ptr @_ZNSt9bad_allocD1Ev) #26
  unreachable
}

declare ptr @__cxa_allocate_exception(i64)

; Function Attrs: noinline nounwind optnone uwtable
define linkonce_odr dso_local void @_ZNSt9bad_allocC2Ev(ptr noundef nonnull align 8 dereferenceable(8) %0) unnamed_addr #4 comdat align 2 {
  %2 = alloca ptr, align 8
  store ptr %0, ptr %2, align 8
  %3 = load ptr, ptr %2, align 8
  call void @_ZNSt9exceptionC2Ev(ptr noundef nonnull align 8 dereferenceable(8) %3) #3
  store ptr getelementptr inbounds ({ [5 x ptr] }, ptr @_ZTVSt9bad_alloc, i32 0, inrange i32 0, i32 2), ptr %3, align 8
  ret void
}

; Function Attrs: nounwind
declare void @_ZNSt9bad_allocD1Ev(ptr noundef nonnull align 8 dereferenceable(8)) unnamed_addr #2

declare void @__cxa_throw(ptr, ptr, ptr)

; Function Attrs: noinline nounwind optnone uwtable
define linkonce_odr dso_local void @_ZNSt9exceptionC2Ev(ptr noundef nonnull align 8 dereferenceable(8) %0) unnamed_addr #4 comdat align 2 {
  %2 = alloca ptr, align 8
  store ptr %0, ptr %2, align 8
  %3 = load ptr, ptr %2, align 8
  store ptr getelementptr inbounds ({ [5 x ptr] }, ptr @_ZTVSt9exception, i32 0, inrange i32 0, i32 2), ptr %3, align 8
  ret void
}

; Function Attrs: mustprogress noinline optnone uwtable
define linkonce_odr dso_local noundef ptr @_ZN5Eigen8internal14aligned_mallocEm(i64 noundef %0) #5 comdat personality ptr @__gxx_personality_v0 {
  %2 = alloca ptr, align 8
  %3 = alloca i64, align 8
  %4 = alloca ptr, align 8
  %5 = alloca ptr, align 8
  %6 = alloca i32, align 4
  store i64 %0, ptr %3, align 8
  %7 = load i64, ptr %3, align 8
  %8 = icmp eq i64 %7, 0
  br i1 %8, label %9, label %10

9:                                                ; preds = %1
  store ptr null, ptr %2, align 8
  br label %58

10:                                               ; preds = %1
  call void @_ZN5Eigen8internal28check_that_malloc_is_allowedEv()
  %11 = load i64, ptr %3, align 8
  %12 = call noalias ptr @malloc(i64 noundef %11) #28
  store ptr %12, ptr %4, align 8
  %13 = load i64, ptr %3, align 8
  %14 = icmp ult i64 %13, 16
  br i1 %14, label %49, label %15

15:                                               ; preds = %10
  %16 = load ptr, ptr %4, align 8
  %17 = ptrtoint ptr %16 to i64
  %18 = urem i64 %17, 16
  %19 = icmp eq i64 %18, 0
  br i1 %19, label %49, label %20

20:                                               ; preds = %15
  %21 = load i8, ptr @_ZN5EigenL14no_more_assertE, align 1
  %22 = trunc i8 %21 to i1
  br i1 %22, label %49, label %23

23:                                               ; preds = %20
  store i8 1, ptr @_ZN5EigenL14no_more_assertE, align 1
  %24 = load i8, ptr @_ZN5EigenL32report_on_cerr_on_assert_failureE, align 1
  %25 = trunc i8 %24 to i1
  br i1 %25, label %26, label %41

26:                                               ; preds = %23
  %27 = load i64, ptr %3, align 8
  %28 = icmp ult i64 %27, 16
  br i1 %28, label %34, label %29

29:                                               ; preds = %26
  %30 = load ptr, ptr %4, align 8
  %31 = ptrtoint ptr %30 to i64
  %32 = urem i64 %31, 16
  %33 = icmp eq i64 %32, 0
  br i1 %33, label %34, label %35

34:                                               ; preds = %29, %26
  br label %35

35:                                               ; preds = %34, %29
  %36 = phi i1 [ false, %29 ], [ true, %34 ]
  br i1 %36, label %37, label %38

37:                                               ; preds = %35
  br label %40

38:                                               ; preds = %35
  call void @__assert_fail(ptr noundef @.str.50, ptr noundef @.str.51, i32 noundef 212, ptr noundef @__PRETTY_FUNCTION__._ZN5Eigen8internal14aligned_mallocEm) #24
  unreachable

39:                                               ; No predecessors!
  br label %40

40:                                               ; preds = %39, %37
  br label %48

41:                                               ; preds = %23
  %42 = call ptr @__cxa_allocate_exception(i64 1) #3
  invoke void @_ZN5Eigen22eigen_assert_exceptionC2Ev(ptr noundef nonnull align 1 dereferenceable(1) %42)
          to label %43 unwind label %44

43:                                               ; preds = %41
  call void @__cxa_throw(ptr %42, ptr @_ZTIN5Eigen22eigen_assert_exceptionE, ptr @_ZN5Eigen22eigen_assert_exceptionD2Ev) #26
  unreachable

44:                                               ; preds = %41
  %45 = landingpad { ptr, i32 }
          cleanup
  %46 = extractvalue { ptr, i32 } %45, 0
  store ptr %46, ptr %5, align 8
  %47 = extractvalue { ptr, i32 } %45, 1
  store i32 %47, ptr %6, align 4
  call void @__cxa_free_exception(ptr %42) #3
  br label %60

48:                                               ; preds = %40
  br label %49

49:                                               ; preds = %48, %20, %15, %10
  %50 = load ptr, ptr %4, align 8
  %51 = icmp ne ptr %50, null
  br i1 %51, label %56, label %52

52:                                               ; preds = %49
  %53 = load i64, ptr %3, align 8
  %54 = icmp ne i64 %53, 0
  br i1 %54, label %55, label %56

55:                                               ; preds = %52
  call void @_ZN5Eigen8internal19throw_std_bad_allocEv()
  br label %56

56:                                               ; preds = %55, %52, %49
  %57 = load ptr, ptr %4, align 8
  store ptr %57, ptr %2, align 8
  br label %58

58:                                               ; preds = %56, %9
  %59 = load ptr, ptr %2, align 8
  ret ptr %59

60:                                               ; preds = %44
  %61 = load ptr, ptr %5, align 8
  %62 = load i32, ptr %6, align 4
  %63 = insertvalue { ptr, i32 } undef, ptr %61, 0
  %64 = insertvalue { ptr, i32 } %63, i32 %62, 1
  resume { ptr, i32 } %64
}

; Function Attrs: mustprogress noinline nounwind optnone uwtable
define linkonce_odr dso_local void @_ZN5Eigen8internal28check_that_malloc_is_allowedEv() #8 comdat {
  ret void
}

; Function Attrs: nounwind allocsize(0)
declare noalias ptr @malloc(i64 noundef) #14

; Function Attrs: noreturn nounwind
declare void @__assert_fail(ptr noundef, ptr noundef, i32 noundef, ptr noundef) #11

; Function Attrs: noinline nounwind optnone uwtable
define linkonce_odr dso_local void @_ZN5Eigen22eigen_assert_exceptionC2Ev(ptr noundef nonnull align 1 dereferenceable(1) %0) unnamed_addr #4 comdat align 2 {
  %2 = alloca ptr, align 8
  store ptr %0, ptr %2, align 8
  %3 = load ptr, ptr %2, align 8
  ret void
}

declare void @__cxa_free_exception(ptr)

; Function Attrs: noinline nounwind optnone uwtable
define linkonce_odr dso_local void @_ZN5Eigen22eigen_assert_exceptionD2Ev(ptr noundef nonnull align 1 dereferenceable(1) %0) unnamed_addr #4 comdat align 2 {
  %2 = alloca ptr, align 8
  store ptr %0, ptr %2, align 8
  %3 = load ptr, ptr %2, align 8
  store i8 0, ptr @_ZN5EigenL14no_more_assertE, align 1
  ret void
}

; Function Attrs: mustprogress noinline optnone uwtable
define linkonce_odr dso_local void @_ZN5Eigen8internal17smart_copy_helperIbLb1EE3runEPKbS4_Pb(ptr noundef %0, ptr noundef %1, ptr noundef %2) #5 comdat align 2 personality ptr @__gxx_personality_v0 {
  %4 = alloca ptr, align 8
  %5 = alloca ptr, align 8
  %6 = alloca ptr, align 8
  %7 = alloca i64, align 8
  %8 = alloca ptr, align 8
  %9 = alloca i32, align 4
  store ptr %0, ptr %4, align 8
  store ptr %1, ptr %5, align 8
  store ptr %2, ptr %6, align 8
  %10 = load ptr, ptr %5, align 8
  %11 = ptrtoint ptr %10 to i64
  %12 = load ptr, ptr %4, align 8
  %13 = ptrtoint ptr %12 to i64
  %14 = sub nsw i64 %11, %13
  store i64 %14, ptr %7, align 8
  %15 = load i64, ptr %7, align 8
  %16 = icmp eq i64 %15, 0
  br i1 %16, label %17, label %18

17:                                               ; preds = %3
  br label %60

18:                                               ; preds = %3
  %19 = load ptr, ptr %4, align 8
  %20 = icmp ne ptr %19, null
  br i1 %20, label %21, label %27

21:                                               ; preds = %18
  %22 = load ptr, ptr %5, align 8
  %23 = icmp ne ptr %22, null
  br i1 %23, label %24, label %27

24:                                               ; preds = %21
  %25 = load ptr, ptr %6, align 8
  %26 = icmp ne ptr %25, null
  br i1 %26, label %56, label %27

27:                                               ; preds = %24, %21, %18
  %28 = load i8, ptr @_ZN5EigenL14no_more_assertE, align 1
  %29 = trunc i8 %28 to i1
  br i1 %29, label %56, label %30

30:                                               ; preds = %27
  store i8 1, ptr @_ZN5EigenL14no_more_assertE, align 1
  %31 = load i8, ptr @_ZN5EigenL32report_on_cerr_on_assert_failureE, align 1
  %32 = trunc i8 %31 to i1
  br i1 %32, label %33, label %48

33:                                               ; preds = %30
  %34 = load ptr, ptr %4, align 8
  %35 = icmp ne ptr %34, null
  br i1 %35, label %36, label %42

36:                                               ; preds = %33
  %37 = load ptr, ptr %5, align 8
  %38 = icmp ne ptr %37, null
  br i1 %38, label %39, label %42

39:                                               ; preds = %36
  %40 = load ptr, ptr %6, align 8
  %41 = icmp ne ptr %40, null
  br label %42

42:                                               ; preds = %39, %36, %33
  %43 = phi i1 [ false, %36 ], [ false, %33 ], [ %41, %39 ]
  br i1 %43, label %44, label %45

44:                                               ; preds = %42
  br label %47

45:                                               ; preds = %42
  call void @__assert_fail(ptr noundef @.str.52, ptr noundef @.str.51, i32 noundef 578, ptr noundef @__PRETTY_FUNCTION__._ZN5Eigen8internal17smart_copy_helperIbLb1EE3runEPKbS4_Pb) #24
  unreachable

46:                                               ; No predecessors!
  br label %47

47:                                               ; preds = %46, %44
  br label %55

48:                                               ; preds = %30
  %49 = call ptr @__cxa_allocate_exception(i64 1) #3
  invoke void @_ZN5Eigen22eigen_assert_exceptionC2Ev(ptr noundef nonnull align 1 dereferenceable(1) %49)
          to label %50 unwind label %51

50:                                               ; preds = %48
  call void @__cxa_throw(ptr %49, ptr @_ZTIN5Eigen22eigen_assert_exceptionE, ptr @_ZN5Eigen22eigen_assert_exceptionD2Ev) #26
  unreachable

51:                                               ; preds = %48
  %52 = landingpad { ptr, i32 }
          cleanup
  %53 = extractvalue { ptr, i32 } %52, 0
  store ptr %53, ptr %8, align 8
  %54 = extractvalue { ptr, i32 } %52, 1
  store i32 %54, ptr %9, align 4
  call void @__cxa_free_exception(ptr %49) #3
  br label %61

55:                                               ; preds = %47
  br label %56

56:                                               ; preds = %55, %27, %24
  %57 = load ptr, ptr %6, align 8
  %58 = load ptr, ptr %4, align 8
  %59 = load i64, ptr %7, align 8
  call void @llvm.memcpy.p0.p0.i64(ptr align 1 %57, ptr align 1 %58, i64 %59, i1 false)
  br label %60

60:                                               ; preds = %56, %17
  ret void

61:                                               ; preds = %51
  %62 = load ptr, ptr %8, align 8
  %63 = load i32, ptr %9, align 4
  %64 = insertvalue { ptr, i32 } undef, ptr %62, 0
  %65 = insertvalue { ptr, i32 } %64, i32 %63, 1
  resume { ptr, i32 } %65
}

; Function Attrs: argmemonly nocallback nofree nounwind willreturn
declare void @llvm.memcpy.p0.p0.i64(ptr noalias nocapture writeonly, ptr noalias nocapture readonly, i64, i1 immarg) #15

; Function Attrs: mustprogress noinline nounwind optnone uwtable
define linkonce_odr dso_local noundef i64 @_ZNK5Eigen8internal17DenseStorage_implIbLin1ELin1ELin1ELi0EE4rowsEv(ptr noundef nonnull align 8 dereferenceable(24) %0) #8 comdat align 2 {
  %2 = alloca ptr, align 8
  store ptr %0, ptr %2, align 8
  %3 = load ptr, ptr %2, align 8
  %4 = getelementptr inbounds %"class.Eigen::internal::DenseStorage_impl", ptr %3, i32 0, i32 1
  %5 = load i64, ptr %4, align 8
  ret i64 %5
}

; Function Attrs: noinline noreturn nounwind
define linkonce_odr hidden void @__clang_call_terminate(ptr %0) #16 comdat {
  %2 = call ptr @__cxa_begin_catch(ptr %0) #3
  call void @_ZSt9terminatev() #24
  unreachable
}

declare ptr @__cxa_begin_catch(ptr)

declare void @_ZSt9terminatev()

; Function Attrs: mustprogress noinline nounwind optnone uwtable
define linkonce_odr dso_local noundef i64 @_ZNK5Eigen8internal17DenseStorage_implIbLin1ELin1ELin1ELi0EE4colsEv(ptr noundef nonnull align 8 dereferenceable(24) %0) #8 comdat align 2 {
  %2 = alloca ptr, align 8
  store ptr %0, ptr %2, align 8
  %3 = load ptr, ptr %2, align 8
  %4 = getelementptr inbounds %"class.Eigen::internal::DenseStorage_impl", ptr %3, i32 0, i32 2
  %5 = load i64, ptr %4, align 8
  ret i64 %5
}

; Function Attrs: mustprogress noinline nounwind optnone uwtable
define linkonce_odr dso_local noundef ptr @_ZNK5Eigen8internal17DenseStorage_implIbLin1ELin1ELin1ELi0EE4dataEv(ptr noundef nonnull align 8 dereferenceable(24) %0) #8 comdat align 2 {
  %2 = alloca ptr, align 8
  store ptr %0, ptr %2, align 8
  %3 = load ptr, ptr %2, align 8
  %4 = getelementptr inbounds %"class.Eigen::internal::DenseStorage_impl", ptr %3, i32 0, i32 0
  %5 = load ptr, ptr %4, align 8
  ret ptr %5
}

; Function Attrs: mustprogress noinline nounwind optnone uwtable
define linkonce_odr dso_local noundef ptr @_ZN5Eigen8internal17DenseStorage_implIbLin1ELin1ELin1ELi0EE4dataEv(ptr noundef nonnull align 8 dereferenceable(24) %0) #8 comdat align 2 {
  %2 = alloca ptr, align 8
  store ptr %0, ptr %2, align 8
  %3 = load ptr, ptr %2, align 8
  %4 = getelementptr inbounds %"class.Eigen::internal::DenseStorage_impl", ptr %3, i32 0, i32 0
  %5 = load ptr, ptr %4, align 8
  ret ptr %5
}

; Function Attrs: mustprogress noinline nounwind optnone uwtable
define linkonce_odr dso_local noundef i64 @_ZNK5Eigen9EigenBaseINS_6MatrixIbLin1ELin1ELi0ELin1ELin1EEEE4rowsEv(ptr noundef nonnull align 1 dereferenceable(1) %0) #8 comdat align 2 personality ptr @__gxx_personality_v0 {
  %2 = alloca ptr, align 8
  store ptr %0, ptr %2, align 8
  %3 = load ptr, ptr %2, align 8
  %4 = invoke noundef nonnull align 8 dereferenceable(24) ptr @_ZNK5Eigen9EigenBaseINS_6MatrixIbLin1ELin1ELi0ELin1ELin1EEEE7derivedEv(ptr noundef nonnull align 1 dereferenceable(1) %3)
          to label %5 unwind label %7

5:                                                ; preds = %1
  %6 = call noundef i64 @_ZNK5Eigen15PlainObjectBaseINS_6MatrixIbLin1ELin1ELi0ELin1ELin1EEEE4rowsEv(ptr noundef nonnull align 8 dereferenceable(24) %4) #3
  ret i64 %6

7:                                                ; preds = %1
  %8 = landingpad { ptr, i32 }
          catch ptr null
  %9 = extractvalue { ptr, i32 } %8, 0
  call void @__clang_call_terminate(ptr %9) #24
  unreachable
}

; Function Attrs: mustprogress noinline nounwind optnone uwtable
define linkonce_odr dso_local noundef i64 @_ZNK5Eigen9EigenBaseINS_6MatrixIbLin1ELin1ELi0ELin1ELin1EEEE4colsEv(ptr noundef nonnull align 1 dereferenceable(1) %0) #8 comdat align 2 {
  %2 = alloca ptr, align 8
  store ptr %0, ptr %2, align 8
  %3 = load ptr, ptr %2, align 8
  %4 = call noundef nonnull align 8 dereferenceable(24) ptr @_ZNK5Eigen9EigenBaseINS_6MatrixIbLin1ELin1ELi0ELin1ELin1EEEE7derivedEv(ptr noundef nonnull align 1 dereferenceable(1) %3)
  %5 = call noundef i64 @_ZNK5Eigen15PlainObjectBaseINS_6MatrixIbLin1ELin1ELi0ELin1ELin1EEEE4colsEv(ptr noundef nonnull align 8 dereferenceable(24) %4) #3
  ret i64 %5
}

; Function Attrs: mustprogress noinline optnone uwtable
define linkonce_odr dso_local noundef nonnull align 1 dereferenceable(1) ptr @_ZN5Eigen15DenseCoeffsBaseINS_6MatrixIbLin1ELin1ELi0ELin1ELin1EEELi1EE8coeffRefEll(ptr noundef nonnull align 1 dereferenceable(1) %0, i64 noundef %1, i64 noundef %2) #5 comdat align 2 personality ptr @__gxx_personality_v0 {
  %4 = alloca ptr, align 8
  %5 = alloca i64, align 8
  %6 = alloca i64, align 8
  %7 = alloca ptr, align 8
  %8 = alloca i32, align 4
  %9 = alloca %"struct.Eigen::internal::evaluator", align 8
  store ptr %0, ptr %4, align 8
  store i64 %1, ptr %5, align 8
  store i64 %2, ptr %6, align 8
  %10 = load ptr, ptr %4, align 8
  %11 = load i64, ptr %5, align 8
  %12 = icmp sge i64 %11, 0
  br i1 %12, label %13, label %24

13:                                               ; preds = %3
  %14 = load i64, ptr %5, align 8
  %15 = call noundef i64 @_ZNK5Eigen9EigenBaseINS_6MatrixIbLin1ELin1ELi0ELin1ELin1EEEE4rowsEv(ptr noundef nonnull align 1 dereferenceable(1) %10) #3
  %16 = icmp slt i64 %14, %15
  br i1 %16, label %17, label %24

17:                                               ; preds = %13
  %18 = load i64, ptr %6, align 8
  %19 = icmp sge i64 %18, 0
  br i1 %19, label %20, label %24

20:                                               ; preds = %17
  %21 = load i64, ptr %6, align 8
  %22 = call noundef i64 @_ZNK5Eigen9EigenBaseINS_6MatrixIbLin1ELin1ELi0ELin1ELin1EEEE4colsEv(ptr noundef nonnull align 1 dereferenceable(1) %10) #3
  %23 = icmp slt i64 %21, %22
  br i1 %23, label %58, label %24

24:                                               ; preds = %20, %17, %13, %3
  %25 = load i8, ptr @_ZN5EigenL14no_more_assertE, align 1
  %26 = trunc i8 %25 to i1
  br i1 %26, label %58, label %27

27:                                               ; preds = %24
  store i8 1, ptr @_ZN5EigenL14no_more_assertE, align 1
  %28 = load i8, ptr @_ZN5EigenL32report_on_cerr_on_assert_failureE, align 1
  %29 = trunc i8 %28 to i1
  br i1 %29, label %30, label %50

30:                                               ; preds = %27
  %31 = load i64, ptr %5, align 8
  %32 = icmp sge i64 %31, 0
  br i1 %32, label %33, label %44

33:                                               ; preds = %30
  %34 = load i64, ptr %5, align 8
  %35 = call noundef i64 @_ZNK5Eigen9EigenBaseINS_6MatrixIbLin1ELin1ELi0ELin1ELin1EEEE4rowsEv(ptr noundef nonnull align 1 dereferenceable(1) %10) #3
  %36 = icmp slt i64 %34, %35
  br i1 %36, label %37, label %44

37:                                               ; preds = %33
  %38 = load i64, ptr %6, align 8
  %39 = icmp sge i64 %38, 0
  br i1 %39, label %40, label %44

40:                                               ; preds = %37
  %41 = load i64, ptr %6, align 8
  %42 = call noundef i64 @_ZNK5Eigen9EigenBaseINS_6MatrixIbLin1ELin1ELi0ELin1ELin1EEEE4colsEv(ptr noundef nonnull align 1 dereferenceable(1) %10) #3
  %43 = icmp slt i64 %41, %42
  br label %44

44:                                               ; preds = %40, %37, %33, %30
  %45 = phi i1 [ false, %37 ], [ false, %33 ], [ false, %30 ], [ %43, %40 ]
  br i1 %45, label %46, label %47

46:                                               ; preds = %44
  br label %49

47:                                               ; preds = %44
  call void @__assert_fail(ptr noundef @.str.53, ptr noundef @.str.54, i32 noundef 302, ptr noundef @__PRETTY_FUNCTION__._ZN5Eigen15DenseCoeffsBaseINS_6MatrixIbLin1ELin1ELi0ELin1ELin1EEELi1EE8coeffRefEll) #24
  unreachable

48:                                               ; No predecessors!
  br label %49

49:                                               ; preds = %48, %46
  br label %57

50:                                               ; preds = %27
  %51 = call ptr @__cxa_allocate_exception(i64 1) #3
  invoke void @_ZN5Eigen22eigen_assert_exceptionC2Ev(ptr noundef nonnull align 1 dereferenceable(1) %51)
          to label %52 unwind label %53

52:                                               ; preds = %50
  call void @__cxa_throw(ptr %51, ptr @_ZTIN5Eigen22eigen_assert_exceptionE, ptr @_ZN5Eigen22eigen_assert_exceptionD2Ev) #26
  unreachable

53:                                               ; preds = %50
  %54 = landingpad { ptr, i32 }
          cleanup
  %55 = extractvalue { ptr, i32 } %54, 0
  store ptr %55, ptr %7, align 8
  %56 = extractvalue { ptr, i32 } %54, 1
  store i32 %56, ptr %8, align 4
  call void @__cxa_free_exception(ptr %51) #3
  br label %63

57:                                               ; preds = %49
  br label %58

58:                                               ; preds = %57, %24, %20
  %59 = call noundef nonnull align 8 dereferenceable(24) ptr @_ZN5Eigen9EigenBaseINS_6MatrixIbLin1ELin1ELi0ELin1ELin1EEEE7derivedEv(ptr noundef nonnull align 1 dereferenceable(1) %10)
  call void @_ZN5Eigen8internal9evaluatorINS_6MatrixIbLin1ELin1ELi0ELin1ELin1EEEEC2ERKS3_(ptr noundef nonnull align 8 dereferenceable(16) %9, ptr noundef nonnull align 8 dereferenceable(24) %59)
  %60 = load i64, ptr %5, align 8
  %61 = load i64, ptr %6, align 8
  %62 = call noundef nonnull align 1 dereferenceable(1) ptr @_ZN5Eigen8internal9evaluatorINS_15PlainObjectBaseINS_6MatrixIbLin1ELin1ELi0ELin1ELin1EEEEEE8coeffRefEll(ptr noundef nonnull align 8 dereferenceable(16) %9, i64 noundef %60, i64 noundef %61)
  ret ptr %62

63:                                               ; preds = %53
  %64 = load ptr, ptr %7, align 8
  %65 = load i32, ptr %8, align 4
  %66 = insertvalue { ptr, i32 } undef, ptr %64, 0
  %67 = insertvalue { ptr, i32 } %66, i32 %65, 1
  resume { ptr, i32 } %67
}

; Function Attrs: mustprogress noinline nounwind optnone uwtable
define linkonce_odr dso_local noundef nonnull align 8 dereferenceable(24) ptr @_ZNK5Eigen9EigenBaseINS_6MatrixIbLin1ELin1ELi0ELin1ELin1EEEE7derivedEv(ptr noundef nonnull align 1 dereferenceable(1) %0) #8 comdat align 2 {
  %2 = alloca ptr, align 8
  store ptr %0, ptr %2, align 8
  %3 = load ptr, ptr %2, align 8
  ret ptr %3
}

; Function Attrs: mustprogress noinline nounwind optnone uwtable
define linkonce_odr dso_local noundef nonnull align 8 dereferenceable(24) ptr @_ZN5Eigen9EigenBaseINS_6MatrixIbLin1ELin1ELi0ELin1ELin1EEEE7derivedEv(ptr noundef nonnull align 1 dereferenceable(1) %0) #8 comdat align 2 {
  %2 = alloca ptr, align 8
  store ptr %0, ptr %2, align 8
  %3 = load ptr, ptr %2, align 8
  ret ptr %3
}

; Function Attrs: noinline optnone uwtable
define linkonce_odr dso_local void @_ZN5Eigen8internal9evaluatorINS_6MatrixIbLin1ELin1ELi0ELin1ELin1EEEEC2ERKS3_(ptr noundef nonnull align 8 dereferenceable(16) %0, ptr noundef nonnull align 8 dereferenceable(24) %1) unnamed_addr #9 comdat align 2 {
  %3 = alloca ptr, align 8
  %4 = alloca ptr, align 8
  store ptr %0, ptr %3, align 8
  store ptr %1, ptr %4, align 8
  %5 = load ptr, ptr %3, align 8
  %6 = load ptr, ptr %4, align 8
  call void @_ZN5Eigen8internal9evaluatorINS_15PlainObjectBaseINS_6MatrixIbLin1ELin1ELi0ELin1ELin1EEEEEEC2ERKS5_(ptr noundef nonnull align 8 dereferenceable(16) %5, ptr noundef nonnull align 8 dereferenceable(24) %6)
  ret void
}

; Function Attrs: mustprogress noinline optnone uwtable
define linkonce_odr dso_local noundef nonnull align 1 dereferenceable(1) ptr @_ZN5Eigen8internal9evaluatorINS_15PlainObjectBaseINS_6MatrixIbLin1ELin1ELi0ELin1ELin1EEEEEE8coeffRefEll(ptr noundef nonnull align 8 dereferenceable(16) %0, i64 noundef %1, i64 noundef %2) #5 comdat align 2 {
  %4 = alloca ptr, align 8
  %5 = alloca i64, align 8
  %6 = alloca i64, align 8
  store ptr %0, ptr %4, align 8
  store i64 %1, ptr %5, align 8
  store i64 %2, ptr %6, align 8
  %7 = load ptr, ptr %4, align 8
  %8 = getelementptr inbounds %"struct.Eigen::internal::evaluator.23", ptr %7, i32 0, i32 0
  %9 = getelementptr inbounds %"class.Eigen::internal::plainobjectbase_evaluator_data", ptr %8, i32 0, i32 0
  %10 = load ptr, ptr %9, align 8
  %11 = load i64, ptr %5, align 8
  %12 = load i64, ptr %6, align 8
  %13 = getelementptr inbounds %"struct.Eigen::internal::evaluator.23", ptr %7, i32 0, i32 0
  %14 = call noundef i64 @_ZNK5Eigen8internal30plainobjectbase_evaluator_dataIbLin1EE11outerStrideEv(ptr noundef nonnull align 8 dereferenceable(16) %13)
  %15 = mul nsw i64 %12, %14
  %16 = add nsw i64 %11, %15
  %17 = getelementptr inbounds i8, ptr %10, i64 %16
  ret ptr %17
}

; Function Attrs: noinline optnone uwtable
define linkonce_odr dso_local void @_ZN5Eigen8internal9evaluatorINS_15PlainObjectBaseINS_6MatrixIbLin1ELin1ELi0ELin1ELin1EEEEEEC2ERKS5_(ptr noundef nonnull align 8 dereferenceable(16) %0, ptr noundef nonnull align 8 dereferenceable(24) %1) unnamed_addr #9 comdat align 2 {
  %3 = alloca ptr, align 8
  %4 = alloca ptr, align 8
  store ptr %0, ptr %3, align 8
  store ptr %1, ptr %4, align 8
  %5 = load ptr, ptr %3, align 8
  %6 = getelementptr inbounds %"struct.Eigen::internal::evaluator.23", ptr %5, i32 0, i32 0
  %7 = load ptr, ptr %4, align 8
  %8 = call noundef ptr @_ZNK5Eigen15PlainObjectBaseINS_6MatrixIbLin1ELin1ELi0ELin1ELin1EEEE4dataEv(ptr noundef nonnull align 8 dereferenceable(24) %7)
  %9 = load ptr, ptr %4, align 8
  %10 = call noundef i64 @_ZNK5Eigen15DenseCoeffsBaseINS_6MatrixIbLin1ELin1ELi0ELin1ELin1EEELi3EE11outerStrideEv(ptr noundef nonnull align 1 dereferenceable(1) %9) #3
  call void @_ZN5Eigen8internal30plainobjectbase_evaluator_dataIbLin1EEC2EPKbl(ptr noundef nonnull align 8 dereferenceable(16) %6, ptr noundef %8, i64 noundef %10)
  ret void
}

; Function Attrs: mustprogress noinline nounwind optnone uwtable
define linkonce_odr dso_local noundef ptr @_ZNK5Eigen15PlainObjectBaseINS_6MatrixIbLin1ELin1ELi0ELin1ELin1EEEE4dataEv(ptr noundef nonnull align 8 dereferenceable(24) %0) #8 comdat align 2 {
  %2 = alloca ptr, align 8
  store ptr %0, ptr %2, align 8
  %3 = load ptr, ptr %2, align 8
  %4 = getelementptr inbounds %"class.Eigen::PlainObjectBase", ptr %3, i32 0, i32 0
  %5 = call noundef ptr @_ZNK5Eigen8internal17DenseStorage_implIbLin1ELin1ELin1ELi0EE4dataEv(ptr noundef nonnull align 8 dereferenceable(24) %4)
  ret ptr %5
}

; Function Attrs: mustprogress noinline nounwind optnone uwtable
define linkonce_odr dso_local noundef i64 @_ZNK5Eigen15DenseCoeffsBaseINS_6MatrixIbLin1ELin1ELi0ELin1ELin1EEELi3EE11outerStrideEv(ptr noundef nonnull align 1 dereferenceable(1) %0) #8 comdat align 2 {
  %2 = alloca ptr, align 8
  store ptr %0, ptr %2, align 8
  %3 = load ptr, ptr %2, align 8
  %4 = call noundef nonnull align 8 dereferenceable(24) ptr @_ZNK5Eigen9EigenBaseINS_6MatrixIbLin1ELin1ELi0ELin1ELin1EEEE7derivedEv(ptr noundef nonnull align 1 dereferenceable(1) %3)
  %5 = call noundef i64 @_ZNK5Eigen6MatrixIbLin1ELin1ELi0ELin1ELin1EE11outerStrideEv(ptr noundef nonnull align 8 dereferenceable(24) %4) #3
  ret i64 %5
}

; Function Attrs: noinline nounwind optnone uwtable
define linkonce_odr dso_local void @_ZN5Eigen8internal30plainobjectbase_evaluator_dataIbLin1EEC2EPKbl(ptr noundef nonnull align 8 dereferenceable(16) %0, ptr noundef %1, i64 noundef %2) unnamed_addr #4 comdat align 2 {
  %4 = alloca ptr, align 8
  %5 = alloca ptr, align 8
  %6 = alloca i64, align 8
  store ptr %0, ptr %4, align 8
  store ptr %1, ptr %5, align 8
  store i64 %2, ptr %6, align 8
  %7 = load ptr, ptr %4, align 8
  %8 = getelementptr inbounds %"class.Eigen::internal::plainobjectbase_evaluator_data", ptr %7, i32 0, i32 0
  %9 = load ptr, ptr %5, align 8
  store ptr %9, ptr %8, align 8
  %10 = getelementptr inbounds %"class.Eigen::internal::plainobjectbase_evaluator_data", ptr %7, i32 0, i32 1
  %11 = load i64, ptr %6, align 8
  store i64 %11, ptr %10, align 8
  ret void
}

; Function Attrs: mustprogress noinline nounwind optnone uwtable
define linkonce_odr dso_local noundef i64 @_ZNK5Eigen6MatrixIbLin1ELin1ELi0ELin1ELin1EE11outerStrideEv(ptr noundef nonnull align 8 dereferenceable(24) %0) #8 comdat align 2 personality ptr @__gxx_personality_v0 {
  %2 = alloca ptr, align 8
  store ptr %0, ptr %2, align 8
  %3 = load ptr, ptr %2, align 8
  %4 = invoke noundef i64 @_ZNK5Eigen9DenseBaseINS_6MatrixIbLin1ELin1ELi0ELin1ELin1EEEE9innerSizeEv(ptr noundef nonnull align 1 dereferenceable(1) %3)
          to label %5 unwind label %6

5:                                                ; preds = %1
  ret i64 %4

6:                                                ; preds = %1
  %7 = landingpad { ptr, i32 }
          catch ptr null
  %8 = extractvalue { ptr, i32 } %7, 0
  call void @__clang_call_terminate(ptr %8) #24
  unreachable
}

; Function Attrs: mustprogress noinline nounwind optnone uwtable
define linkonce_odr dso_local noundef i64 @_ZNK5Eigen9DenseBaseINS_6MatrixIbLin1ELin1ELi0ELin1ELin1EEEE9innerSizeEv(ptr noundef nonnull align 1 dereferenceable(1) %0) #8 comdat align 2 {
  %2 = alloca ptr, align 8
  store ptr %0, ptr %2, align 8
  %3 = load ptr, ptr %2, align 8
  %4 = call noundef i64 @_ZNK5Eigen9EigenBaseINS_6MatrixIbLin1ELin1ELi0ELin1ELin1EEEE4rowsEv(ptr noundef nonnull align 1 dereferenceable(1) %3) #3
  ret i64 %4
}

; Function Attrs: mustprogress noinline nounwind optnone uwtable
define linkonce_odr dso_local noundef i64 @_ZNK5Eigen8internal30plainobjectbase_evaluator_dataIbLin1EE11outerStrideEv(ptr noundef nonnull align 8 dereferenceable(16) %0) #8 comdat align 2 {
  %2 = alloca ptr, align 8
  store ptr %0, ptr %2, align 8
  %3 = load ptr, ptr %2, align 8
  %4 = getelementptr inbounds %"class.Eigen::internal::plainobjectbase_evaluator_data", ptr %3, i32 0, i32 1
  %5 = load i64, ptr %4, align 8
  ret i64 %5
}

; Function Attrs: noinline nounwind optnone uwtable
define linkonce_odr dso_local void @_ZN5Eigen15PlainObjectBaseINS_6MatrixIbLin1ELin1ELi0ELin1ELin1EEEED2Ev(ptr noundef nonnull align 8 dereferenceable(24) %0) unnamed_addr #4 comdat align 2 {
  %2 = alloca ptr, align 8
  store ptr %0, ptr %2, align 8
  %3 = load ptr, ptr %2, align 8
  %4 = getelementptr inbounds %"class.Eigen::PlainObjectBase", ptr %3, i32 0, i32 0
  call void @_ZN5Eigen12DenseStorageIbLin1ELin1ELin1ELi0ELb1EED2Ev(ptr noundef nonnull align 8 dereferenceable(24) %4) #3
  ret void
}

; Function Attrs: noinline nounwind optnone uwtable
define linkonce_odr dso_local void @_ZN5Eigen12DenseStorageIbLin1ELin1ELin1ELi0ELb1EED2Ev(ptr noundef nonnull align 8 dereferenceable(24) %0) unnamed_addr #4 comdat align 2 {
  %2 = alloca ptr, align 8
  store ptr %0, ptr %2, align 8
  %3 = load ptr, ptr %2, align 8
  call void @_ZN5Eigen8internal17DenseStorage_implIbLin1ELin1ELin1ELi0EED2Ev(ptr noundef nonnull align 8 dereferenceable(24) %3) #3
  ret void
}

; Function Attrs: noinline nounwind optnone uwtable
define linkonce_odr dso_local void @_ZN5Eigen8internal17DenseStorage_implIbLin1ELin1ELin1ELi0EED2Ev(ptr noundef nonnull align 8 dereferenceable(24) %0) unnamed_addr #4 comdat align 2 personality ptr @__gxx_personality_v0 {
  %2 = alloca ptr, align 8
  store ptr %0, ptr %2, align 8
  %3 = load ptr, ptr %2, align 8
  %4 = getelementptr inbounds %"class.Eigen::internal::DenseStorage_impl", ptr %3, i32 0, i32 0
  %5 = load ptr, ptr %4, align 8
  %6 = call noundef i64 @_ZNK5Eigen8internal17DenseStorage_implIbLin1ELin1ELin1ELi0EE4sizeEv(ptr noundef nonnull align 8 dereferenceable(24) %3)
  invoke void @_ZN5Eigen8internal31conditional_aligned_delete_autoIbLb1EEEvPT_m(ptr noundef %5, i64 noundef %6)
          to label %7 unwind label %8

7:                                                ; preds = %1
  ret void

8:                                                ; preds = %1
  %9 = landingpad { ptr, i32 }
          catch ptr null
  %10 = extractvalue { ptr, i32 } %9, 0
  call void @__clang_call_terminate(ptr %10) #24
  unreachable
}

; Function Attrs: mustprogress noinline optnone uwtable
define linkonce_odr dso_local void @_ZN5Eigen8internal31conditional_aligned_delete_autoIbLb1EEEvPT_m(ptr noundef %0, i64 noundef %1) #5 comdat {
  %3 = alloca ptr, align 8
  %4 = alloca i64, align 8
  store ptr %0, ptr %3, align 8
  store i64 %1, ptr %4, align 8
  %5 = load ptr, ptr %3, align 8
  call void @_ZN5Eigen8internal24conditional_aligned_freeILb1EEEvPv(ptr noundef %5)
  ret void
}

; Function Attrs: mustprogress noinline optnone uwtable
define linkonce_odr dso_local void @_ZN5Eigen8internal24conditional_aligned_freeILb1EEEvPv(ptr noundef %0) #5 comdat {
  %2 = alloca ptr, align 8
  store ptr %0, ptr %2, align 8
  %3 = load ptr, ptr %2, align 8
  call void @_ZN5Eigen8internal12aligned_freeEPv(ptr noundef %3)
  ret void
}

; Function Attrs: mustprogress noinline nounwind optnone uwtable
define linkonce_odr dso_local void @_ZN5Eigen8internal12aligned_freeEPv(ptr noundef %0) #8 comdat {
  %2 = alloca ptr, align 8
  store ptr %0, ptr %2, align 8
  %3 = load ptr, ptr %2, align 8
  %4 = icmp ne ptr %3, null
  br i1 %4, label %5, label %7

5:                                                ; preds = %1
  call void @_ZN5Eigen8internal28check_that_malloc_is_allowedEv()
  %6 = load ptr, ptr %2, align 8
  call void @free(ptr noundef %6) #3
  br label %7

7:                                                ; preds = %5, %1
  ret void
}

; Function Attrs: nounwind
declare void @free(ptr noundef) #2

; Function Attrs: mustprogress noinline optnone uwtable
define linkonce_odr dso_local void @_ZNSt6vectorIPN5Eigen9EigenTestESaIS2_EE9push_backEOS2_(ptr noundef nonnull align 8 dereferenceable(24) %0, ptr noundef nonnull align 8 dereferenceable(8) %1) #5 comdat align 2 {
  %3 = alloca ptr, align 8
  %4 = alloca ptr, align 8
  store ptr %0, ptr %3, align 8
  store ptr %1, ptr %4, align 8
  %5 = load ptr, ptr %3, align 8
  %6 = load ptr, ptr %4, align 8
  call void @_ZNSt6vectorIPN5Eigen9EigenTestESaIS2_EE12emplace_backIJS2_EEEvDpOT_(ptr noundef nonnull align 8 dereferenceable(24) %5, ptr noundef nonnull align 8 dereferenceable(8) %6)
  ret void
}

; Function Attrs: mustprogress noinline optnone uwtable
define linkonce_odr dso_local void @_ZNSt6vectorIPN5Eigen9EigenTestESaIS2_EE12emplace_backIJS2_EEEvDpOT_(ptr noundef nonnull align 8 dereferenceable(24) %0, ptr noundef nonnull align 8 dereferenceable(8) %1) #5 comdat align 2 {
  %3 = alloca ptr, align 8
  %4 = alloca ptr, align 8
  %5 = alloca %"class.__gnu_cxx::__normal_iterator", align 8
  store ptr %0, ptr %3, align 8
  store ptr %1, ptr %4, align 8
  %6 = load ptr, ptr %3, align 8
  %7 = getelementptr inbounds %"struct.std::_Vector_base.7", ptr %6, i32 0, i32 0
  %8 = getelementptr inbounds %"struct.std::_Vector_base<Eigen::EigenTest *, std::allocator<Eigen::EigenTest *>>::_Vector_impl_data", ptr %7, i32 0, i32 1
  %9 = load ptr, ptr %8, align 8
  %10 = getelementptr inbounds %"struct.std::_Vector_base.7", ptr %6, i32 0, i32 0
  %11 = getelementptr inbounds %"struct.std::_Vector_base<Eigen::EigenTest *, std::allocator<Eigen::EigenTest *>>::_Vector_impl_data", ptr %10, i32 0, i32 2
  %12 = load ptr, ptr %11, align 8
  %13 = icmp ne ptr %9, %12
  br i1 %13, label %14, label %24

14:                                               ; preds = %2
  %15 = getelementptr inbounds %"struct.std::_Vector_base.7", ptr %6, i32 0, i32 0
  %16 = getelementptr inbounds %"struct.std::_Vector_base.7", ptr %6, i32 0, i32 0
  %17 = getelementptr inbounds %"struct.std::_Vector_base<Eigen::EigenTest *, std::allocator<Eigen::EigenTest *>>::_Vector_impl_data", ptr %16, i32 0, i32 1
  %18 = load ptr, ptr %17, align 8
  %19 = load ptr, ptr %4, align 8
  call void @_ZNSt16allocator_traitsISaIPN5Eigen9EigenTestEEE9constructIS2_JS2_EEEvRS3_PT_DpOT0_(ptr noundef nonnull align 1 dereferenceable(1) %15, ptr noundef %18, ptr noundef nonnull align 8 dereferenceable(8) %19) #3
  %20 = getelementptr inbounds %"struct.std::_Vector_base.7", ptr %6, i32 0, i32 0
  %21 = getelementptr inbounds %"struct.std::_Vector_base<Eigen::EigenTest *, std::allocator<Eigen::EigenTest *>>::_Vector_impl_data", ptr %20, i32 0, i32 1
  %22 = load ptr, ptr %21, align 8
  %23 = getelementptr inbounds ptr, ptr %22, i32 1
  store ptr %23, ptr %21, align 8
  br label %30

24:                                               ; preds = %2
  %25 = call ptr @_ZNSt6vectorIPN5Eigen9EigenTestESaIS2_EE3endEv(ptr noundef nonnull align 8 dereferenceable(24) %6) #3
  %26 = getelementptr inbounds %"class.__gnu_cxx::__normal_iterator", ptr %5, i32 0, i32 0
  store ptr %25, ptr %26, align 8
  %27 = load ptr, ptr %4, align 8
  %28 = getelementptr inbounds %"class.__gnu_cxx::__normal_iterator", ptr %5, i32 0, i32 0
  %29 = load ptr, ptr %28, align 8
  call void @_ZNSt6vectorIPN5Eigen9EigenTestESaIS2_EE17_M_realloc_insertIJS2_EEEvN9__gnu_cxx17__normal_iteratorIPS2_S4_EEDpOT_(ptr noundef nonnull align 8 dereferenceable(24) %6, ptr %29, ptr noundef nonnull align 8 dereferenceable(8) %27)
  br label %30

30:                                               ; preds = %24, %14
  ret void
}

; Function Attrs: mustprogress noinline nounwind optnone uwtable
define linkonce_odr dso_local void @_ZNSt16allocator_traitsISaIPN5Eigen9EigenTestEEE9constructIS2_JS2_EEEvRS3_PT_DpOT0_(ptr noundef nonnull align 1 dereferenceable(1) %0, ptr noundef %1, ptr noundef nonnull align 8 dereferenceable(8) %2) #8 comdat align 2 {
  %4 = alloca ptr, align 8
  %5 = alloca ptr, align 8
  %6 = alloca ptr, align 8
  store ptr %0, ptr %4, align 8
  store ptr %1, ptr %5, align 8
  store ptr %2, ptr %6, align 8
  %7 = load ptr, ptr %4, align 8
  %8 = load ptr, ptr %5, align 8
  %9 = load ptr, ptr %6, align 8
  call void @_ZNSt15__new_allocatorIPN5Eigen9EigenTestEE9constructIS2_JS2_EEEvPT_DpOT0_(ptr noundef nonnull align 1 dereferenceable(1) %7, ptr noundef %8, ptr noundef nonnull align 8 dereferenceable(8) %9) #3
  ret void
}

; Function Attrs: mustprogress noinline optnone uwtable
define linkonce_odr dso_local void @_ZNSt6vectorIPN5Eigen9EigenTestESaIS2_EE17_M_realloc_insertIJS2_EEEvN9__gnu_cxx17__normal_iteratorIPS2_S4_EEDpOT_(ptr noundef nonnull align 8 dereferenceable(24) %0, ptr %1, ptr noundef nonnull align 8 dereferenceable(8) %2) #5 comdat align 2 {
  %4 = alloca %"class.__gnu_cxx::__normal_iterator", align 8
  %5 = alloca ptr, align 8
  %6 = alloca ptr, align 8
  %7 = alloca i64, align 8
  %8 = alloca ptr, align 8
  %9 = alloca ptr, align 8
  %10 = alloca i64, align 8
  %11 = alloca %"class.__gnu_cxx::__normal_iterator", align 8
  %12 = alloca ptr, align 8
  %13 = alloca ptr, align 8
  %14 = getelementptr inbounds %"class.__gnu_cxx::__normal_iterator", ptr %4, i32 0, i32 0
  store ptr %1, ptr %14, align 8
  store ptr %0, ptr %5, align 8
  store ptr %2, ptr %6, align 8
  %15 = load ptr, ptr %5, align 8
  %16 = call noundef i64 @_ZNKSt6vectorIPN5Eigen9EigenTestESaIS2_EE12_M_check_lenEmPKc(ptr noundef nonnull align 8 dereferenceable(24) %15, i64 noundef 1, ptr noundef @.str.55)
  store i64 %16, ptr %7, align 8
  %17 = getelementptr inbounds %"struct.std::_Vector_base.7", ptr %15, i32 0, i32 0
  %18 = getelementptr inbounds %"struct.std::_Vector_base<Eigen::EigenTest *, std::allocator<Eigen::EigenTest *>>::_Vector_impl_data", ptr %17, i32 0, i32 0
  %19 = load ptr, ptr %18, align 8
  store ptr %19, ptr %8, align 8
  %20 = getelementptr inbounds %"struct.std::_Vector_base.7", ptr %15, i32 0, i32 0
  %21 = getelementptr inbounds %"struct.std::_Vector_base<Eigen::EigenTest *, std::allocator<Eigen::EigenTest *>>::_Vector_impl_data", ptr %20, i32 0, i32 1
  %22 = load ptr, ptr %21, align 8
  store ptr %22, ptr %9, align 8
  %23 = call ptr @_ZNSt6vectorIPN5Eigen9EigenTestESaIS2_EE5beginEv(ptr noundef nonnull align 8 dereferenceable(24) %15) #3
  %24 = getelementptr inbounds %"class.__gnu_cxx::__normal_iterator", ptr %11, i32 0, i32 0
  store ptr %23, ptr %24, align 8
  %25 = call noundef i64 @_ZN9__gnu_cxxmiIPPN5Eigen9EigenTestESt6vectorIS3_SaIS3_EEEENS_17__normal_iteratorIT_T0_E15difference_typeERKSB_SE_(ptr noundef nonnull align 8 dereferenceable(8) %4, ptr noundef nonnull align 8 dereferenceable(8) %11) #3
  store i64 %25, ptr %10, align 8
  %26 = load i64, ptr %7, align 8
  %27 = call noundef ptr @_ZNSt12_Vector_baseIPN5Eigen9EigenTestESaIS2_EE11_M_allocateEm(ptr noundef nonnull align 8 dereferenceable(24) %15, i64 noundef %26)
  store ptr %27, ptr %12, align 8
  %28 = load ptr, ptr %12, align 8
  store ptr %28, ptr %13, align 8
  %29 = getelementptr inbounds %"struct.std::_Vector_base.7", ptr %15, i32 0, i32 0
  %30 = load ptr, ptr %12, align 8
  %31 = load i64, ptr %10, align 8
  %32 = getelementptr inbounds ptr, ptr %30, i64 %31
  %33 = load ptr, ptr %6, align 8
  call void @_ZNSt16allocator_traitsISaIPN5Eigen9EigenTestEEE9constructIS2_JS2_EEEvRS3_PT_DpOT0_(ptr noundef nonnull align 1 dereferenceable(1) %29, ptr noundef %32, ptr noundef nonnull align 8 dereferenceable(8) %33) #3
  store ptr null, ptr %13, align 8
  %34 = load ptr, ptr %8, align 8
  %35 = call noundef nonnull align 8 dereferenceable(8) ptr @_ZNK9__gnu_cxx17__normal_iteratorIPPN5Eigen9EigenTestESt6vectorIS3_SaIS3_EEE4baseEv(ptr noundef nonnull align 8 dereferenceable(8) %4) #3
  %36 = load ptr, ptr %35, align 8
  %37 = load ptr, ptr %12, align 8
  %38 = call noundef nonnull align 1 dereferenceable(1) ptr @_ZNSt12_Vector_baseIPN5Eigen9EigenTestESaIS2_EE19_M_get_Tp_allocatorEv(ptr noundef nonnull align 8 dereferenceable(24) %15) #3
  %39 = call noundef ptr @_ZNSt6vectorIPN5Eigen9EigenTestESaIS2_EE11_S_relocateEPS2_S5_S5_RS3_(ptr noundef %34, ptr noundef %36, ptr noundef %37, ptr noundef nonnull align 1 dereferenceable(1) %38) #3
  store ptr %39, ptr %13, align 8
  %40 = load ptr, ptr %13, align 8
  %41 = getelementptr inbounds ptr, ptr %40, i32 1
  store ptr %41, ptr %13, align 8
  %42 = call noundef nonnull align 8 dereferenceable(8) ptr @_ZNK9__gnu_cxx17__normal_iteratorIPPN5Eigen9EigenTestESt6vectorIS3_SaIS3_EEE4baseEv(ptr noundef nonnull align 8 dereferenceable(8) %4) #3
  %43 = load ptr, ptr %42, align 8
  %44 = load ptr, ptr %9, align 8
  %45 = load ptr, ptr %13, align 8
  %46 = call noundef nonnull align 1 dereferenceable(1) ptr @_ZNSt12_Vector_baseIPN5Eigen9EigenTestESaIS2_EE19_M_get_Tp_allocatorEv(ptr noundef nonnull align 8 dereferenceable(24) %15) #3
  %47 = call noundef ptr @_ZNSt6vectorIPN5Eigen9EigenTestESaIS2_EE11_S_relocateEPS2_S5_S5_RS3_(ptr noundef %43, ptr noundef %44, ptr noundef %45, ptr noundef nonnull align 1 dereferenceable(1) %46) #3
  store ptr %47, ptr %13, align 8
  %48 = load ptr, ptr %8, align 8
  %49 = getelementptr inbounds %"struct.std::_Vector_base.7", ptr %15, i32 0, i32 0
  %50 = getelementptr inbounds %"struct.std::_Vector_base<Eigen::EigenTest *, std::allocator<Eigen::EigenTest *>>::_Vector_impl_data", ptr %49, i32 0, i32 2
  %51 = load ptr, ptr %50, align 8
  %52 = load ptr, ptr %8, align 8
  %53 = ptrtoint ptr %51 to i64
  %54 = ptrtoint ptr %52 to i64
  %55 = sub i64 %53, %54
  %56 = sdiv exact i64 %55, 8
  call void @_ZNSt12_Vector_baseIPN5Eigen9EigenTestESaIS2_EE13_M_deallocateEPS2_m(ptr noundef nonnull align 8 dereferenceable(24) %15, ptr noundef %48, i64 noundef %56)
  %57 = load ptr, ptr %12, align 8
  %58 = getelementptr inbounds %"struct.std::_Vector_base.7", ptr %15, i32 0, i32 0
  %59 = getelementptr inbounds %"struct.std::_Vector_base<Eigen::EigenTest *, std::allocator<Eigen::EigenTest *>>::_Vector_impl_data", ptr %58, i32 0, i32 0
  store ptr %57, ptr %59, align 8
  %60 = load ptr, ptr %13, align 8
  %61 = getelementptr inbounds %"struct.std::_Vector_base.7", ptr %15, i32 0, i32 0
  %62 = getelementptr inbounds %"struct.std::_Vector_base<Eigen::EigenTest *, std::allocator<Eigen::EigenTest *>>::_Vector_impl_data", ptr %61, i32 0, i32 1
  store ptr %60, ptr %62, align 8
  %63 = load ptr, ptr %12, align 8
  %64 = load i64, ptr %7, align 8
  %65 = getelementptr inbounds ptr, ptr %63, i64 %64
  %66 = getelementptr inbounds %"struct.std::_Vector_base.7", ptr %15, i32 0, i32 0
  %67 = getelementptr inbounds %"struct.std::_Vector_base<Eigen::EigenTest *, std::allocator<Eigen::EigenTest *>>::_Vector_impl_data", ptr %66, i32 0, i32 2
  store ptr %65, ptr %67, align 8
  ret void
}

; Function Attrs: mustprogress noinline nounwind optnone uwtable
define linkonce_odr dso_local ptr @_ZNSt6vectorIPN5Eigen9EigenTestESaIS2_EE3endEv(ptr noundef nonnull align 8 dereferenceable(24) %0) #8 comdat align 2 {
  %2 = alloca %"class.__gnu_cxx::__normal_iterator", align 8
  %3 = alloca ptr, align 8
  store ptr %0, ptr %3, align 8
  %4 = load ptr, ptr %3, align 8
  %5 = getelementptr inbounds %"struct.std::_Vector_base.7", ptr %4, i32 0, i32 0
  %6 = getelementptr inbounds %"struct.std::_Vector_base<Eigen::EigenTest *, std::allocator<Eigen::EigenTest *>>::_Vector_impl_data", ptr %5, i32 0, i32 1
  call void @_ZN9__gnu_cxx17__normal_iteratorIPPN5Eigen9EigenTestESt6vectorIS3_SaIS3_EEEC2ERKS4_(ptr noundef nonnull align 8 dereferenceable(8) %2, ptr noundef nonnull align 8 dereferenceable(8) %6) #3
  %7 = getelementptr inbounds %"class.__gnu_cxx::__normal_iterator", ptr %2, i32 0, i32 0
  %8 = load ptr, ptr %7, align 8
  ret ptr %8
}

; Function Attrs: mustprogress noinline nounwind optnone uwtable
define linkonce_odr dso_local void @_ZNSt15__new_allocatorIPN5Eigen9EigenTestEE9constructIS2_JS2_EEEvPT_DpOT0_(ptr noundef nonnull align 1 dereferenceable(1) %0, ptr noundef %1, ptr noundef nonnull align 8 dereferenceable(8) %2) #8 comdat align 2 {
  %4 = alloca ptr, align 8
  %5 = alloca ptr, align 8
  %6 = alloca ptr, align 8
  store ptr %0, ptr %4, align 8
  store ptr %1, ptr %5, align 8
  store ptr %2, ptr %6, align 8
  %7 = load ptr, ptr %4, align 8
  %8 = load ptr, ptr %5, align 8
  %9 = load ptr, ptr %6, align 8
  %10 = load ptr, ptr %9, align 8
  store ptr %10, ptr %8, align 8
  ret void
}

; Function Attrs: mustprogress noinline optnone uwtable
define linkonce_odr dso_local noundef i64 @_ZNKSt6vectorIPN5Eigen9EigenTestESaIS2_EE12_M_check_lenEmPKc(ptr noundef nonnull align 8 dereferenceable(24) %0, i64 noundef %1, ptr noundef %2) #5 comdat align 2 {
  %4 = alloca ptr, align 8
  %5 = alloca i64, align 8
  %6 = alloca ptr, align 8
  %7 = alloca i64, align 8
  %8 = alloca i64, align 8
  store ptr %0, ptr %4, align 8
  store i64 %1, ptr %5, align 8
  store ptr %2, ptr %6, align 8
  %9 = load ptr, ptr %4, align 8
  %10 = call noundef i64 @_ZNKSt6vectorIPN5Eigen9EigenTestESaIS2_EE8max_sizeEv(ptr noundef nonnull align 8 dereferenceable(24) %9) #3
  %11 = call noundef i64 @_ZNKSt6vectorIPN5Eigen9EigenTestESaIS2_EE4sizeEv(ptr noundef nonnull align 8 dereferenceable(24) %9) #3
  %12 = sub i64 %10, %11
  %13 = load i64, ptr %5, align 8
  %14 = icmp ult i64 %12, %13
  br i1 %14, label %15, label %17

15:                                               ; preds = %3
  %16 = load ptr, ptr %6, align 8
  call void @_ZSt20__throw_length_errorPKc(ptr noundef %16) #26
  unreachable

17:                                               ; preds = %3
  %18 = call noundef i64 @_ZNKSt6vectorIPN5Eigen9EigenTestESaIS2_EE4sizeEv(ptr noundef nonnull align 8 dereferenceable(24) %9) #3
  %19 = call noundef i64 @_ZNKSt6vectorIPN5Eigen9EigenTestESaIS2_EE4sizeEv(ptr noundef nonnull align 8 dereferenceable(24) %9) #3
  store i64 %19, ptr %8, align 8
  %20 = call noundef nonnull align 8 dereferenceable(8) ptr @_ZSt3maxImERKT_S2_S2_(ptr noundef nonnull align 8 dereferenceable(8) %8, ptr noundef nonnull align 8 dereferenceable(8) %5)
  %21 = load i64, ptr %20, align 8
  %22 = add i64 %18, %21
  store i64 %22, ptr %7, align 8
  %23 = load i64, ptr %7, align 8
  %24 = call noundef i64 @_ZNKSt6vectorIPN5Eigen9EigenTestESaIS2_EE4sizeEv(ptr noundef nonnull align 8 dereferenceable(24) %9) #3
  %25 = icmp ult i64 %23, %24
  br i1 %25, label %30, label %26

26:                                               ; preds = %17
  %27 = load i64, ptr %7, align 8
  %28 = call noundef i64 @_ZNKSt6vectorIPN5Eigen9EigenTestESaIS2_EE8max_sizeEv(ptr noundef nonnull align 8 dereferenceable(24) %9) #3
  %29 = icmp ugt i64 %27, %28
  br i1 %29, label %30, label %32

30:                                               ; preds = %26, %17
  %31 = call noundef i64 @_ZNKSt6vectorIPN5Eigen9EigenTestESaIS2_EE8max_sizeEv(ptr noundef nonnull align 8 dereferenceable(24) %9) #3
  br label %34

32:                                               ; preds = %26
  %33 = load i64, ptr %7, align 8
  br label %34

34:                                               ; preds = %32, %30
  %35 = phi i64 [ %31, %30 ], [ %33, %32 ]
  ret i64 %35
}

; Function Attrs: mustprogress noinline nounwind optnone uwtable
define linkonce_odr dso_local noundef i64 @_ZN9__gnu_cxxmiIPPN5Eigen9EigenTestESt6vectorIS3_SaIS3_EEEENS_17__normal_iteratorIT_T0_E15difference_typeERKSB_SE_(ptr noundef nonnull align 8 dereferenceable(8) %0, ptr noundef nonnull align 8 dereferenceable(8) %1) #8 comdat {
  %3 = alloca ptr, align 8
  %4 = alloca ptr, align 8
  store ptr %0, ptr %3, align 8
  store ptr %1, ptr %4, align 8
  %5 = load ptr, ptr %3, align 8
  %6 = call noundef nonnull align 8 dereferenceable(8) ptr @_ZNK9__gnu_cxx17__normal_iteratorIPPN5Eigen9EigenTestESt6vectorIS3_SaIS3_EEE4baseEv(ptr noundef nonnull align 8 dereferenceable(8) %5) #3
  %7 = load ptr, ptr %6, align 8
  %8 = load ptr, ptr %4, align 8
  %9 = call noundef nonnull align 8 dereferenceable(8) ptr @_ZNK9__gnu_cxx17__normal_iteratorIPPN5Eigen9EigenTestESt6vectorIS3_SaIS3_EEE4baseEv(ptr noundef nonnull align 8 dereferenceable(8) %8) #3
  %10 = load ptr, ptr %9, align 8
  %11 = ptrtoint ptr %7 to i64
  %12 = ptrtoint ptr %10 to i64
  %13 = sub i64 %11, %12
  %14 = sdiv exact i64 %13, 8
  ret i64 %14
}

; Function Attrs: mustprogress noinline nounwind optnone uwtable
define linkonce_odr dso_local ptr @_ZNSt6vectorIPN5Eigen9EigenTestESaIS2_EE5beginEv(ptr noundef nonnull align 8 dereferenceable(24) %0) #8 comdat align 2 {
  %2 = alloca %"class.__gnu_cxx::__normal_iterator", align 8
  %3 = alloca ptr, align 8
  store ptr %0, ptr %3, align 8
  %4 = load ptr, ptr %3, align 8
  %5 = getelementptr inbounds %"struct.std::_Vector_base.7", ptr %4, i32 0, i32 0
  %6 = getelementptr inbounds %"struct.std::_Vector_base<Eigen::EigenTest *, std::allocator<Eigen::EigenTest *>>::_Vector_impl_data", ptr %5, i32 0, i32 0
  call void @_ZN9__gnu_cxx17__normal_iteratorIPPN5Eigen9EigenTestESt6vectorIS3_SaIS3_EEEC2ERKS4_(ptr noundef nonnull align 8 dereferenceable(8) %2, ptr noundef nonnull align 8 dereferenceable(8) %6) #3
  %7 = getelementptr inbounds %"class.__gnu_cxx::__normal_iterator", ptr %2, i32 0, i32 0
  %8 = load ptr, ptr %7, align 8
  ret ptr %8
}

; Function Attrs: mustprogress noinline optnone uwtable
define linkonce_odr dso_local noundef ptr @_ZNSt12_Vector_baseIPN5Eigen9EigenTestESaIS2_EE11_M_allocateEm(ptr noundef nonnull align 8 dereferenceable(24) %0, i64 noundef %1) #5 comdat align 2 {
  %3 = alloca ptr, align 8
  %4 = alloca i64, align 8
  store ptr %0, ptr %3, align 8
  store i64 %1, ptr %4, align 8
  %5 = load ptr, ptr %3, align 8
  %6 = load i64, ptr %4, align 8
  %7 = icmp ne i64 %6, 0
  br i1 %7, label %8, label %12

8:                                                ; preds = %2
  %9 = getelementptr inbounds %"struct.std::_Vector_base.7", ptr %5, i32 0, i32 0
  %10 = load i64, ptr %4, align 8
  %11 = call noundef ptr @_ZNSt16allocator_traitsISaIPN5Eigen9EigenTestEEE8allocateERS3_m(ptr noundef nonnull align 1 dereferenceable(1) %9, i64 noundef %10)
  br label %13

12:                                               ; preds = %2
  br label %13

13:                                               ; preds = %12, %8
  %14 = phi ptr [ %11, %8 ], [ null, %12 ]
  ret ptr %14
}

; Function Attrs: mustprogress noinline nounwind optnone uwtable
define linkonce_odr dso_local noundef ptr @_ZNSt6vectorIPN5Eigen9EigenTestESaIS2_EE11_S_relocateEPS2_S5_S5_RS3_(ptr noundef %0, ptr noundef %1, ptr noundef %2, ptr noundef nonnull align 1 dereferenceable(1) %3) #8 comdat align 2 {
  %5 = alloca ptr, align 8
  %6 = alloca ptr, align 8
  %7 = alloca ptr, align 8
  %8 = alloca ptr, align 8
  %9 = alloca %"struct.std::integral_constant", align 1
  store ptr %0, ptr %5, align 8
  store ptr %1, ptr %6, align 8
  store ptr %2, ptr %7, align 8
  store ptr %3, ptr %8, align 8
  %10 = load ptr, ptr %5, align 8
  %11 = load ptr, ptr %6, align 8
  %12 = load ptr, ptr %7, align 8
  %13 = load ptr, ptr %8, align 8
  %14 = call noundef ptr @_ZNSt6vectorIPN5Eigen9EigenTestESaIS2_EE14_S_do_relocateEPS2_S5_S5_RS3_St17integral_constantIbLb1EE(ptr noundef %10, ptr noundef %11, ptr noundef %12, ptr noundef nonnull align 1 dereferenceable(1) %13) #3
  ret ptr %14
}

; Function Attrs: mustprogress noinline nounwind optnone uwtable
define linkonce_odr dso_local noundef nonnull align 8 dereferenceable(8) ptr @_ZNK9__gnu_cxx17__normal_iteratorIPPN5Eigen9EigenTestESt6vectorIS3_SaIS3_EEE4baseEv(ptr noundef nonnull align 8 dereferenceable(8) %0) #8 comdat align 2 {
  %2 = alloca ptr, align 8
  store ptr %0, ptr %2, align 8
  %3 = load ptr, ptr %2, align 8
  %4 = getelementptr inbounds %"class.__gnu_cxx::__normal_iterator", ptr %3, i32 0, i32 0
  ret ptr %4
}

; Function Attrs: mustprogress noinline nounwind optnone uwtable
define linkonce_odr dso_local noundef nonnull align 1 dereferenceable(1) ptr @_ZNSt12_Vector_baseIPN5Eigen9EigenTestESaIS2_EE19_M_get_Tp_allocatorEv(ptr noundef nonnull align 8 dereferenceable(24) %0) #8 comdat align 2 {
  %2 = alloca ptr, align 8
  store ptr %0, ptr %2, align 8
  %3 = load ptr, ptr %2, align 8
  %4 = getelementptr inbounds %"struct.std::_Vector_base.7", ptr %3, i32 0, i32 0
  ret ptr %4
}

; Function Attrs: mustprogress noinline optnone uwtable
define linkonce_odr dso_local void @_ZNSt12_Vector_baseIPN5Eigen9EigenTestESaIS2_EE13_M_deallocateEPS2_m(ptr noundef nonnull align 8 dereferenceable(24) %0, ptr noundef %1, i64 noundef %2) #5 comdat align 2 {
  %4 = alloca ptr, align 8
  %5 = alloca ptr, align 8
  %6 = alloca i64, align 8
  store ptr %0, ptr %4, align 8
  store ptr %1, ptr %5, align 8
  store i64 %2, ptr %6, align 8
  %7 = load ptr, ptr %4, align 8
  %8 = load ptr, ptr %5, align 8
  %9 = icmp ne ptr %8, null
  br i1 %9, label %10, label %14

10:                                               ; preds = %3
  %11 = getelementptr inbounds %"struct.std::_Vector_base.7", ptr %7, i32 0, i32 0
  %12 = load ptr, ptr %5, align 8
  %13 = load i64, ptr %6, align 8
  call void @_ZNSt16allocator_traitsISaIPN5Eigen9EigenTestEEE10deallocateERS3_PS2_m(ptr noundef nonnull align 1 dereferenceable(1) %11, ptr noundef %12, i64 noundef %13)
  br label %14

14:                                               ; preds = %10, %3
  ret void
}

; Function Attrs: mustprogress noinline nounwind optnone uwtable
define linkonce_odr dso_local noundef i64 @_ZNKSt6vectorIPN5Eigen9EigenTestESaIS2_EE8max_sizeEv(ptr noundef nonnull align 8 dereferenceable(24) %0) #8 comdat align 2 {
  %2 = alloca ptr, align 8
  store ptr %0, ptr %2, align 8
  %3 = load ptr, ptr %2, align 8
  %4 = call noundef nonnull align 1 dereferenceable(1) ptr @_ZNKSt12_Vector_baseIPN5Eigen9EigenTestESaIS2_EE19_M_get_Tp_allocatorEv(ptr noundef nonnull align 8 dereferenceable(24) %3) #3
  %5 = call noundef i64 @_ZNSt6vectorIPN5Eigen9EigenTestESaIS2_EE11_S_max_sizeERKS3_(ptr noundef nonnull align 1 dereferenceable(1) %4) #3
  ret i64 %5
}

; Function Attrs: noreturn
declare void @_ZSt20__throw_length_errorPKc(ptr noundef) #17

; Function Attrs: mustprogress noinline nounwind optnone uwtable
define linkonce_odr dso_local noundef nonnull align 8 dereferenceable(8) ptr @_ZSt3maxImERKT_S2_S2_(ptr noundef nonnull align 8 dereferenceable(8) %0, ptr noundef nonnull align 8 dereferenceable(8) %1) #8 comdat {
  %3 = alloca ptr, align 8
  %4 = alloca ptr, align 8
  %5 = alloca ptr, align 8
  store ptr %0, ptr %4, align 8
  store ptr %1, ptr %5, align 8
  %6 = load ptr, ptr %4, align 8
  %7 = load i64, ptr %6, align 8
  %8 = load ptr, ptr %5, align 8
  %9 = load i64, ptr %8, align 8
  %10 = icmp ult i64 %7, %9
  br i1 %10, label %11, label %13

11:                                               ; preds = %2
  %12 = load ptr, ptr %5, align 8
  store ptr %12, ptr %3, align 8
  br label %15

13:                                               ; preds = %2
  %14 = load ptr, ptr %4, align 8
  store ptr %14, ptr %3, align 8
  br label %15

15:                                               ; preds = %13, %11
  %16 = load ptr, ptr %3, align 8
  ret ptr %16
}

; Function Attrs: mustprogress noinline nounwind optnone uwtable
define linkonce_odr dso_local noundef i64 @_ZNSt6vectorIPN5Eigen9EigenTestESaIS2_EE11_S_max_sizeERKS3_(ptr noundef nonnull align 1 dereferenceable(1) %0) #8 comdat align 2 personality ptr @__gxx_personality_v0 {
  %2 = alloca ptr, align 8
  %3 = alloca i64, align 8
  %4 = alloca i64, align 8
  store ptr %0, ptr %2, align 8
  store i64 1152921504606846975, ptr %3, align 8
  %5 = load ptr, ptr %2, align 8
  %6 = call noundef i64 @_ZNSt16allocator_traitsISaIPN5Eigen9EigenTestEEE8max_sizeERKS3_(ptr noundef nonnull align 1 dereferenceable(1) %5) #3
  store i64 %6, ptr %4, align 8
  %7 = invoke noundef nonnull align 8 dereferenceable(8) ptr @_ZSt3minImERKT_S2_S2_(ptr noundef nonnull align 8 dereferenceable(8) %3, ptr noundef nonnull align 8 dereferenceable(8) %4)
          to label %8 unwind label %10

8:                                                ; preds = %1
  %9 = load i64, ptr %7, align 8
  ret i64 %9

10:                                               ; preds = %1
  %11 = landingpad { ptr, i32 }
          catch ptr null
  %12 = extractvalue { ptr, i32 } %11, 0
  call void @__clang_call_terminate(ptr %12) #24
  unreachable
}

; Function Attrs: mustprogress noinline nounwind optnone uwtable
define linkonce_odr dso_local noundef nonnull align 1 dereferenceable(1) ptr @_ZNKSt12_Vector_baseIPN5Eigen9EigenTestESaIS2_EE19_M_get_Tp_allocatorEv(ptr noundef nonnull align 8 dereferenceable(24) %0) #8 comdat align 2 {
  %2 = alloca ptr, align 8
  store ptr %0, ptr %2, align 8
  %3 = load ptr, ptr %2, align 8
  %4 = getelementptr inbounds %"struct.std::_Vector_base.7", ptr %3, i32 0, i32 0
  ret ptr %4
}

; Function Attrs: mustprogress noinline nounwind optnone uwtable
define linkonce_odr dso_local noundef i64 @_ZNSt16allocator_traitsISaIPN5Eigen9EigenTestEEE8max_sizeERKS3_(ptr noundef nonnull align 1 dereferenceable(1) %0) #8 comdat align 2 {
  %2 = alloca ptr, align 8
  store ptr %0, ptr %2, align 8
  %3 = load ptr, ptr %2, align 8
  %4 = call noundef i64 @_ZNKSt15__new_allocatorIPN5Eigen9EigenTestEE8max_sizeEv(ptr noundef nonnull align 1 dereferenceable(1) %3) #3
  ret i64 %4
}

; Function Attrs: mustprogress noinline nounwind optnone uwtable
define linkonce_odr dso_local noundef nonnull align 8 dereferenceable(8) ptr @_ZSt3minImERKT_S2_S2_(ptr noundef nonnull align 8 dereferenceable(8) %0, ptr noundef nonnull align 8 dereferenceable(8) %1) #8 comdat {
  %3 = alloca ptr, align 8
  %4 = alloca ptr, align 8
  %5 = alloca ptr, align 8
  store ptr %0, ptr %4, align 8
  store ptr %1, ptr %5, align 8
  %6 = load ptr, ptr %5, align 8
  %7 = load i64, ptr %6, align 8
  %8 = load ptr, ptr %4, align 8
  %9 = load i64, ptr %8, align 8
  %10 = icmp ult i64 %7, %9
  br i1 %10, label %11, label %13

11:                                               ; preds = %2
  %12 = load ptr, ptr %5, align 8
  store ptr %12, ptr %3, align 8
  br label %15

13:                                               ; preds = %2
  %14 = load ptr, ptr %4, align 8
  store ptr %14, ptr %3, align 8
  br label %15

15:                                               ; preds = %13, %11
  %16 = load ptr, ptr %3, align 8
  ret ptr %16
}

; Function Attrs: mustprogress noinline nounwind optnone uwtable
define linkonce_odr dso_local noundef i64 @_ZNKSt15__new_allocatorIPN5Eigen9EigenTestEE8max_sizeEv(ptr noundef nonnull align 1 dereferenceable(1) %0) #8 comdat align 2 {
  %2 = alloca ptr, align 8
  store ptr %0, ptr %2, align 8
  %3 = load ptr, ptr %2, align 8
  %4 = call noundef i64 @_ZNKSt15__new_allocatorIPN5Eigen9EigenTestEE11_M_max_sizeEv(ptr noundef nonnull align 1 dereferenceable(1) %3) #3
  ret i64 %4
}

; Function Attrs: mustprogress noinline nounwind optnone uwtable
define linkonce_odr dso_local noundef i64 @_ZNKSt15__new_allocatorIPN5Eigen9EigenTestEE11_M_max_sizeEv(ptr noundef nonnull align 1 dereferenceable(1) %0) #8 comdat align 2 {
  %2 = alloca ptr, align 8
  store ptr %0, ptr %2, align 8
  %3 = load ptr, ptr %2, align 8
  ret i64 1152921504606846975
}

; Function Attrs: noinline nounwind optnone uwtable
define linkonce_odr dso_local void @_ZN9__gnu_cxx17__normal_iteratorIPPN5Eigen9EigenTestESt6vectorIS3_SaIS3_EEEC2ERKS4_(ptr noundef nonnull align 8 dereferenceable(8) %0, ptr noundef nonnull align 8 dereferenceable(8) %1) unnamed_addr #4 comdat align 2 {
  %3 = alloca ptr, align 8
  %4 = alloca ptr, align 8
  store ptr %0, ptr %3, align 8
  store ptr %1, ptr %4, align 8
  %5 = load ptr, ptr %3, align 8
  %6 = getelementptr inbounds %"class.__gnu_cxx::__normal_iterator", ptr %5, i32 0, i32 0
  %7 = load ptr, ptr %4, align 8
  %8 = load ptr, ptr %7, align 8
  store ptr %8, ptr %6, align 8
  ret void
}

; Function Attrs: mustprogress noinline optnone uwtable
define linkonce_odr dso_local noundef ptr @_ZNSt16allocator_traitsISaIPN5Eigen9EigenTestEEE8allocateERS3_m(ptr noundef nonnull align 1 dereferenceable(1) %0, i64 noundef %1) #5 comdat align 2 {
  %3 = alloca ptr, align 8
  %4 = alloca i64, align 8
  store ptr %0, ptr %3, align 8
  store i64 %1, ptr %4, align 8
  %5 = load ptr, ptr %3, align 8
  %6 = load i64, ptr %4, align 8
  %7 = call noundef ptr @_ZNSt15__new_allocatorIPN5Eigen9EigenTestEE8allocateEmPKv(ptr noundef nonnull align 1 dereferenceable(1) %5, i64 noundef %6, ptr noundef null)
  ret ptr %7
}

; Function Attrs: mustprogress noinline optnone uwtable
define linkonce_odr dso_local noundef ptr @_ZNSt15__new_allocatorIPN5Eigen9EigenTestEE8allocateEmPKv(ptr noundef nonnull align 1 dereferenceable(1) %0, i64 noundef %1, ptr noundef %2) #5 comdat align 2 {
  %4 = alloca ptr, align 8
  %5 = alloca i64, align 8
  %6 = alloca ptr, align 8
  store ptr %0, ptr %4, align 8
  store i64 %1, ptr %5, align 8
  store ptr %2, ptr %6, align 8
  %7 = load ptr, ptr %4, align 8
  %8 = load i64, ptr %5, align 8
  %9 = call noundef i64 @_ZNKSt15__new_allocatorIPN5Eigen9EigenTestEE11_M_max_sizeEv(ptr noundef nonnull align 1 dereferenceable(1) %7) #3
  %10 = icmp ugt i64 %8, %9
  br i1 %10, label %11, label %16

11:                                               ; preds = %3
  %12 = load i64, ptr %5, align 8
  %13 = icmp ugt i64 %12, 2305843009213693951
  br i1 %13, label %14, label %15

14:                                               ; preds = %11
  call void @_ZSt28__throw_bad_array_new_lengthv() #26
  unreachable

15:                                               ; preds = %11
  call void @_ZSt17__throw_bad_allocv() #26
  unreachable

16:                                               ; preds = %3
  %17 = load i64, ptr %5, align 8
  %18 = mul i64 %17, 8
  %19 = call noalias noundef nonnull ptr @_Znwm(i64 noundef %18) #27
  ret ptr %19
}

; Function Attrs: noreturn
declare void @_ZSt28__throw_bad_array_new_lengthv() #17

; Function Attrs: noreturn
declare void @_ZSt17__throw_bad_allocv() #17

; Function Attrs: mustprogress noinline nounwind optnone uwtable
define linkonce_odr dso_local noundef ptr @_ZNSt6vectorIPN5Eigen9EigenTestESaIS2_EE14_S_do_relocateEPS2_S5_S5_RS3_St17integral_constantIbLb1EE(ptr noundef %0, ptr noundef %1, ptr noundef %2, ptr noundef nonnull align 1 dereferenceable(1) %3) #8 comdat align 2 {
  %5 = alloca %"struct.std::integral_constant", align 1
  %6 = alloca ptr, align 8
  %7 = alloca ptr, align 8
  %8 = alloca ptr, align 8
  %9 = alloca ptr, align 8
  store ptr %0, ptr %6, align 8
  store ptr %1, ptr %7, align 8
  store ptr %2, ptr %8, align 8
  store ptr %3, ptr %9, align 8
  %10 = load ptr, ptr %6, align 8
  %11 = load ptr, ptr %7, align 8
  %12 = load ptr, ptr %8, align 8
  %13 = load ptr, ptr %9, align 8
  %14 = call noundef ptr @_ZSt12__relocate_aIPPN5Eigen9EigenTestES3_SaIS2_EET0_T_S6_S5_RT1_(ptr noundef %10, ptr noundef %11, ptr noundef %12, ptr noundef nonnull align 1 dereferenceable(1) %13) #3
  ret ptr %14
}

; Function Attrs: mustprogress noinline nounwind optnone uwtable
define linkonce_odr dso_local noundef ptr @_ZSt12__relocate_aIPPN5Eigen9EigenTestES3_SaIS2_EET0_T_S6_S5_RT1_(ptr noundef %0, ptr noundef %1, ptr noundef %2, ptr noundef nonnull align 1 dereferenceable(1) %3) #8 comdat {
  %5 = alloca ptr, align 8
  %6 = alloca ptr, align 8
  %7 = alloca ptr, align 8
  %8 = alloca ptr, align 8
  store ptr %0, ptr %5, align 8
  store ptr %1, ptr %6, align 8
  store ptr %2, ptr %7, align 8
  store ptr %3, ptr %8, align 8
  %9 = load ptr, ptr %5, align 8
  %10 = call noundef ptr @_ZSt12__niter_baseIPPN5Eigen9EigenTestEET_S4_(ptr noundef %9) #3
  %11 = load ptr, ptr %6, align 8
  %12 = call noundef ptr @_ZSt12__niter_baseIPPN5Eigen9EigenTestEET_S4_(ptr noundef %11) #3
  %13 = load ptr, ptr %7, align 8
  %14 = call noundef ptr @_ZSt12__niter_baseIPPN5Eigen9EigenTestEET_S4_(ptr noundef %13) #3
  %15 = load ptr, ptr %8, align 8
  %16 = call noundef ptr @_ZSt14__relocate_a_1IPN5Eigen9EigenTestES2_ENSt9enable_ifIXsr3std24__is_bitwise_relocatableIT_EE5valueEPS4_E4typeES5_S5_S5_RSaIT0_E(ptr noundef %10, ptr noundef %12, ptr noundef %14, ptr noundef nonnull align 1 dereferenceable(1) %15) #3
  ret ptr %16
}

; Function Attrs: mustprogress noinline nounwind optnone uwtable
define linkonce_odr dso_local noundef ptr @_ZSt14__relocate_a_1IPN5Eigen9EigenTestES2_ENSt9enable_ifIXsr3std24__is_bitwise_relocatableIT_EE5valueEPS4_E4typeES5_S5_S5_RSaIT0_E(ptr noundef %0, ptr noundef %1, ptr noundef %2, ptr noundef nonnull align 1 dereferenceable(1) %3) #8 comdat {
  %5 = alloca ptr, align 8
  %6 = alloca ptr, align 8
  %7 = alloca ptr, align 8
  %8 = alloca ptr, align 8
  %9 = alloca i64, align 8
  store ptr %0, ptr %5, align 8
  store ptr %1, ptr %6, align 8
  store ptr %2, ptr %7, align 8
  store ptr %3, ptr %8, align 8
  %10 = load ptr, ptr %6, align 8
  %11 = load ptr, ptr %5, align 8
  %12 = ptrtoint ptr %10 to i64
  %13 = ptrtoint ptr %11 to i64
  %14 = sub i64 %12, %13
  %15 = sdiv exact i64 %14, 8
  store i64 %15, ptr %9, align 8
  %16 = load i64, ptr %9, align 8
  %17 = icmp sgt i64 %16, 0
  br i1 %17, label %18, label %23

18:                                               ; preds = %4
  %19 = load ptr, ptr %7, align 8
  %20 = load ptr, ptr %5, align 8
  %21 = load i64, ptr %9, align 8
  %22 = mul i64 %21, 8
  call void @llvm.memmove.p0.p0.i64(ptr align 8 %19, ptr align 8 %20, i64 %22, i1 false)
  br label %23

23:                                               ; preds = %18, %4
  %24 = load ptr, ptr %7, align 8
  %25 = load i64, ptr %9, align 8
  %26 = getelementptr inbounds ptr, ptr %24, i64 %25
  ret ptr %26
}

; Function Attrs: mustprogress noinline nounwind optnone uwtable
define linkonce_odr dso_local noundef ptr @_ZSt12__niter_baseIPPN5Eigen9EigenTestEET_S4_(ptr noundef %0) #8 comdat {
  %2 = alloca ptr, align 8
  store ptr %0, ptr %2, align 8
  %3 = load ptr, ptr %2, align 8
  ret ptr %3
}

; Function Attrs: argmemonly nocallback nofree nounwind willreturn
declare void @llvm.memmove.p0.p0.i64(ptr nocapture writeonly, ptr nocapture readonly, i64, i1 immarg) #15

; Function Attrs: mustprogress noinline optnone uwtable
define linkonce_odr dso_local void @_ZNSt16allocator_traitsISaIPN5Eigen9EigenTestEEE10deallocateERS3_PS2_m(ptr noundef nonnull align 1 dereferenceable(1) %0, ptr noundef %1, i64 noundef %2) #5 comdat align 2 {
  %4 = alloca ptr, align 8
  %5 = alloca ptr, align 8
  %6 = alloca i64, align 8
  store ptr %0, ptr %4, align 8
  store ptr %1, ptr %5, align 8
  store i64 %2, ptr %6, align 8
  %7 = load ptr, ptr %4, align 8
  %8 = load ptr, ptr %5, align 8
  %9 = load i64, ptr %6, align 8
  call void @_ZNSt15__new_allocatorIPN5Eigen9EigenTestEE10deallocateEPS2_m(ptr noundef nonnull align 1 dereferenceable(1) %7, ptr noundef %8, i64 noundef %9)
  ret void
}

; Function Attrs: mustprogress noinline nounwind optnone uwtable
define linkonce_odr dso_local void @_ZNSt15__new_allocatorIPN5Eigen9EigenTestEE10deallocateEPS2_m(ptr noundef nonnull align 1 dereferenceable(1) %0, ptr noundef %1, i64 noundef %2) #8 comdat align 2 {
  %4 = alloca ptr, align 8
  %5 = alloca ptr, align 8
  %6 = alloca i64, align 8
  store ptr %0, ptr %4, align 8
  store ptr %1, ptr %5, align 8
  store i64 %2, ptr %6, align 8
  %7 = load ptr, ptr %4, align 8
  %8 = load ptr, ptr %5, align 8
  call void @_ZdlPv(ptr noundef %8) #29
  ret void
}

; Function Attrs: nobuiltin nounwind
declare void @_ZdlPv(ptr noundef) #18

; Function Attrs: mustprogress noinline optnone uwtable
define linkonce_odr dso_local void @_ZSt8_DestroyIPNSt7__cxx1112basic_stringIcSt11char_traitsIcESaIcEEES5_EvT_S7_RSaIT0_E(ptr noundef %0, ptr noundef %1, ptr noundef nonnull align 1 dereferenceable(1) %2) #5 comdat {
  %4 = alloca ptr, align 8
  %5 = alloca ptr, align 8
  %6 = alloca ptr, align 8
  store ptr %0, ptr %4, align 8
  store ptr %1, ptr %5, align 8
  store ptr %2, ptr %6, align 8
  %7 = load ptr, ptr %4, align 8
  %8 = load ptr, ptr %5, align 8
  call void @_ZSt8_DestroyIPNSt7__cxx1112basic_stringIcSt11char_traitsIcESaIcEEEEvT_S7_(ptr noundef %7, ptr noundef %8)
  ret void
}

; Function Attrs: mustprogress noinline nounwind optnone uwtable
define linkonce_odr dso_local noundef nonnull align 1 dereferenceable(1) ptr @_ZNSt12_Vector_baseINSt7__cxx1112basic_stringIcSt11char_traitsIcESaIcEEESaIS5_EE19_M_get_Tp_allocatorEv(ptr noundef nonnull align 8 dereferenceable(24) %0) #8 comdat align 2 {
  %2 = alloca ptr, align 8
  store ptr %0, ptr %2, align 8
  %3 = load ptr, ptr %2, align 8
  %4 = getelementptr inbounds %"struct.std::_Vector_base", ptr %3, i32 0, i32 0
  ret ptr %4
}

; Function Attrs: noinline nounwind optnone uwtable
define linkonce_odr dso_local void @_ZNSt12_Vector_baseINSt7__cxx1112basic_stringIcSt11char_traitsIcESaIcEEESaIS5_EED2Ev(ptr noundef nonnull align 8 dereferenceable(24) %0) unnamed_addr #4 comdat align 2 personality ptr @__gxx_personality_v0 {
  %2 = alloca ptr, align 8
  store ptr %0, ptr %2, align 8
  %3 = load ptr, ptr %2, align 8
  %4 = getelementptr inbounds %"struct.std::_Vector_base", ptr %3, i32 0, i32 0
  %5 = getelementptr inbounds %"struct.std::_Vector_base<std::__cxx11::basic_string<char>, std::allocator<std::__cxx11::basic_string<char>>>::_Vector_impl_data", ptr %4, i32 0, i32 0
  %6 = load ptr, ptr %5, align 8
  %7 = getelementptr inbounds %"struct.std::_Vector_base", ptr %3, i32 0, i32 0
  %8 = getelementptr inbounds %"struct.std::_Vector_base<std::__cxx11::basic_string<char>, std::allocator<std::__cxx11::basic_string<char>>>::_Vector_impl_data", ptr %7, i32 0, i32 2
  %9 = load ptr, ptr %8, align 8
  %10 = getelementptr inbounds %"struct.std::_Vector_base", ptr %3, i32 0, i32 0
  %11 = getelementptr inbounds %"struct.std::_Vector_base<std::__cxx11::basic_string<char>, std::allocator<std::__cxx11::basic_string<char>>>::_Vector_impl_data", ptr %10, i32 0, i32 0
  %12 = load ptr, ptr %11, align 8
  %13 = ptrtoint ptr %9 to i64
  %14 = ptrtoint ptr %12 to i64
  %15 = sub i64 %13, %14
  %16 = sdiv exact i64 %15, 32
  invoke void @_ZNSt12_Vector_baseINSt7__cxx1112basic_stringIcSt11char_traitsIcESaIcEEESaIS5_EE13_M_deallocateEPS5_m(ptr noundef nonnull align 8 dereferenceable(24) %3, ptr noundef %6, i64 noundef %16)
          to label %17 unwind label %19

17:                                               ; preds = %1
  %18 = getelementptr inbounds %"struct.std::_Vector_base", ptr %3, i32 0, i32 0
  call void @_ZNSt12_Vector_baseINSt7__cxx1112basic_stringIcSt11char_traitsIcESaIcEEESaIS5_EE12_Vector_implD2Ev(ptr noundef nonnull align 8 dereferenceable(24) %18) #3
  ret void

19:                                               ; preds = %1
  %20 = landingpad { ptr, i32 }
          catch ptr null
  %21 = extractvalue { ptr, i32 } %20, 0
  call void @__clang_call_terminate(ptr %21) #24
  unreachable
}

; Function Attrs: mustprogress noinline optnone uwtable
define linkonce_odr dso_local void @_ZSt8_DestroyIPNSt7__cxx1112basic_stringIcSt11char_traitsIcESaIcEEEEvT_S7_(ptr noundef %0, ptr noundef %1) #5 comdat {
  %3 = alloca ptr, align 8
  %4 = alloca ptr, align 8
  store ptr %0, ptr %3, align 8
  store ptr %1, ptr %4, align 8
  %5 = load ptr, ptr %3, align 8
  %6 = load ptr, ptr %4, align 8
  call void @_ZNSt12_Destroy_auxILb0EE9__destroyIPNSt7__cxx1112basic_stringIcSt11char_traitsIcESaIcEEEEEvT_S9_(ptr noundef %5, ptr noundef %6)
  ret void
}

; Function Attrs: mustprogress noinline optnone uwtable
define linkonce_odr dso_local void @_ZNSt12_Destroy_auxILb0EE9__destroyIPNSt7__cxx1112basic_stringIcSt11char_traitsIcESaIcEEEEEvT_S9_(ptr noundef %0, ptr noundef %1) #5 comdat align 2 {
  %3 = alloca ptr, align 8
  %4 = alloca ptr, align 8
  store ptr %0, ptr %3, align 8
  store ptr %1, ptr %4, align 8
  br label %5

5:                                                ; preds = %11, %2
  %6 = load ptr, ptr %3, align 8
  %7 = load ptr, ptr %4, align 8
  %8 = icmp ne ptr %6, %7
  br i1 %8, label %9, label %14

9:                                                ; preds = %5
  %10 = load ptr, ptr %3, align 8
  call void @_ZSt8_DestroyINSt7__cxx1112basic_stringIcSt11char_traitsIcESaIcEEEEvPT_(ptr noundef %10)
  br label %11

11:                                               ; preds = %9
  %12 = load ptr, ptr %3, align 8
  %13 = getelementptr inbounds %"class.std::__cxx11::basic_string", ptr %12, i32 1
  store ptr %13, ptr %3, align 8
  br label %5, !llvm.loop !17

14:                                               ; preds = %5
  ret void
}

; Function Attrs: mustprogress noinline nounwind optnone uwtable
define linkonce_odr dso_local void @_ZSt8_DestroyINSt7__cxx1112basic_stringIcSt11char_traitsIcESaIcEEEEvPT_(ptr noundef %0) #8 comdat {
  %2 = alloca ptr, align 8
  store ptr %0, ptr %2, align 8
  %3 = load ptr, ptr %2, align 8
  call void @_ZNSt7__cxx1112basic_stringIcSt11char_traitsIcESaIcEED1Ev(ptr noundef nonnull align 8 dereferenceable(32) %3) #3
  ret void
}

; Function Attrs: mustprogress noinline optnone uwtable
define linkonce_odr dso_local void @_ZNSt12_Vector_baseINSt7__cxx1112basic_stringIcSt11char_traitsIcESaIcEEESaIS5_EE13_M_deallocateEPS5_m(ptr noundef nonnull align 8 dereferenceable(24) %0, ptr noundef %1, i64 noundef %2) #5 comdat align 2 {
  %4 = alloca ptr, align 8
  %5 = alloca ptr, align 8
  %6 = alloca i64, align 8
  store ptr %0, ptr %4, align 8
  store ptr %1, ptr %5, align 8
  store i64 %2, ptr %6, align 8
  %7 = load ptr, ptr %4, align 8
  %8 = load ptr, ptr %5, align 8
  %9 = icmp ne ptr %8, null
  br i1 %9, label %10, label %14

10:                                               ; preds = %3
  %11 = getelementptr inbounds %"struct.std::_Vector_base", ptr %7, i32 0, i32 0
  %12 = load ptr, ptr %5, align 8
  %13 = load i64, ptr %6, align 8
  call void @_ZNSt16allocator_traitsISaINSt7__cxx1112basic_stringIcSt11char_traitsIcESaIcEEEEE10deallocateERS6_PS5_m(ptr noundef nonnull align 1 dereferenceable(1) %11, ptr noundef %12, i64 noundef %13)
  br label %14

14:                                               ; preds = %10, %3
  ret void
}

; Function Attrs: noinline nounwind optnone uwtable
define linkonce_odr dso_local void @_ZNSt12_Vector_baseINSt7__cxx1112basic_stringIcSt11char_traitsIcESaIcEEESaIS5_EE12_Vector_implD2Ev(ptr noundef nonnull align 8 dereferenceable(24) %0) unnamed_addr #4 comdat align 2 {
  %2 = alloca ptr, align 8
  store ptr %0, ptr %2, align 8
  %3 = load ptr, ptr %2, align 8
  call void @_ZNSaINSt7__cxx1112basic_stringIcSt11char_traitsIcESaIcEEEED2Ev(ptr noundef nonnull align 1 dereferenceable(1) %3) #3
  ret void
}

; Function Attrs: mustprogress noinline optnone uwtable
define linkonce_odr dso_local void @_ZNSt16allocator_traitsISaINSt7__cxx1112basic_stringIcSt11char_traitsIcESaIcEEEEE10deallocateERS6_PS5_m(ptr noundef nonnull align 1 dereferenceable(1) %0, ptr noundef %1, i64 noundef %2) #5 comdat align 2 {
  %4 = alloca ptr, align 8
  %5 = alloca ptr, align 8
  %6 = alloca i64, align 8
  store ptr %0, ptr %4, align 8
  store ptr %1, ptr %5, align 8
  store i64 %2, ptr %6, align 8
  %7 = load ptr, ptr %4, align 8
  %8 = load ptr, ptr %5, align 8
  %9 = load i64, ptr %6, align 8
  call void @_ZNSt15__new_allocatorINSt7__cxx1112basic_stringIcSt11char_traitsIcESaIcEEEE10deallocateEPS5_m(ptr noundef nonnull align 1 dereferenceable(1) %7, ptr noundef %8, i64 noundef %9)
  ret void
}

; Function Attrs: mustprogress noinline nounwind optnone uwtable
define linkonce_odr dso_local void @_ZNSt15__new_allocatorINSt7__cxx1112basic_stringIcSt11char_traitsIcESaIcEEEE10deallocateEPS5_m(ptr noundef nonnull align 1 dereferenceable(1) %0, ptr noundef %1, i64 noundef %2) #8 comdat align 2 {
  %4 = alloca ptr, align 8
  %5 = alloca ptr, align 8
  %6 = alloca i64, align 8
  store ptr %0, ptr %4, align 8
  store ptr %1, ptr %5, align 8
  store i64 %2, ptr %6, align 8
  %7 = load ptr, ptr %4, align 8
  %8 = load ptr, ptr %5, align 8
  call void @_ZdlPv(ptr noundef %8) #29
  ret void
}

; Function Attrs: noinline nounwind optnone uwtable
define linkonce_odr dso_local void @_ZNSaINSt7__cxx1112basic_stringIcSt11char_traitsIcESaIcEEEED2Ev(ptr noundef nonnull align 1 dereferenceable(1) %0) unnamed_addr #4 comdat align 2 {
  %2 = alloca ptr, align 8
  store ptr %0, ptr %2, align 8
  %3 = load ptr, ptr %2, align 8
  call void @_ZNSt15__new_allocatorINSt7__cxx1112basic_stringIcSt11char_traitsIcESaIcEEEED2Ev(ptr noundef nonnull align 1 dereferenceable(1) %3) #3
  ret void
}

; Function Attrs: noinline nounwind optnone uwtable
define linkonce_odr dso_local void @_ZNSt15__new_allocatorINSt7__cxx1112basic_stringIcSt11char_traitsIcESaIcEEEED2Ev(ptr noundef nonnull align 1 dereferenceable(1) %0) unnamed_addr #4 comdat align 2 {
  %2 = alloca ptr, align 8
  store ptr %0, ptr %2, align 8
  %3 = load ptr, ptr %2, align 8
  ret void
}

; Function Attrs: mustprogress noinline optnone uwtable
define linkonce_odr dso_local void @_ZNSt6vectorINSt7__cxx1112basic_stringIcSt11char_traitsIcESaIcEEESaIS5_EE12emplace_backIJS5_EEEvDpOT_(ptr noundef nonnull align 8 dereferenceable(24) %0, ptr noundef nonnull align 8 dereferenceable(32) %1) #5 comdat align 2 {
  %3 = alloca ptr, align 8
  %4 = alloca ptr, align 8
  %5 = alloca %"class.__gnu_cxx::__normal_iterator.24", align 8
  store ptr %0, ptr %3, align 8
  store ptr %1, ptr %4, align 8
  %6 = load ptr, ptr %3, align 8
  %7 = getelementptr inbounds %"struct.std::_Vector_base", ptr %6, i32 0, i32 0
  %8 = getelementptr inbounds %"struct.std::_Vector_base<std::__cxx11::basic_string<char>, std::allocator<std::__cxx11::basic_string<char>>>::_Vector_impl_data", ptr %7, i32 0, i32 1
  %9 = load ptr, ptr %8, align 8
  %10 = getelementptr inbounds %"struct.std::_Vector_base", ptr %6, i32 0, i32 0
  %11 = getelementptr inbounds %"struct.std::_Vector_base<std::__cxx11::basic_string<char>, std::allocator<std::__cxx11::basic_string<char>>>::_Vector_impl_data", ptr %10, i32 0, i32 2
  %12 = load ptr, ptr %11, align 8
  %13 = icmp ne ptr %9, %12
  br i1 %13, label %14, label %24

14:                                               ; preds = %2
  %15 = getelementptr inbounds %"struct.std::_Vector_base", ptr %6, i32 0, i32 0
  %16 = getelementptr inbounds %"struct.std::_Vector_base", ptr %6, i32 0, i32 0
  %17 = getelementptr inbounds %"struct.std::_Vector_base<std::__cxx11::basic_string<char>, std::allocator<std::__cxx11::basic_string<char>>>::_Vector_impl_data", ptr %16, i32 0, i32 1
  %18 = load ptr, ptr %17, align 8
  %19 = load ptr, ptr %4, align 8
  call void @_ZNSt16allocator_traitsISaINSt7__cxx1112basic_stringIcSt11char_traitsIcESaIcEEEEE9constructIS5_JS5_EEEvRS6_PT_DpOT0_(ptr noundef nonnull align 1 dereferenceable(1) %15, ptr noundef %18, ptr noundef nonnull align 8 dereferenceable(32) %19) #3
  %20 = getelementptr inbounds %"struct.std::_Vector_base", ptr %6, i32 0, i32 0
  %21 = getelementptr inbounds %"struct.std::_Vector_base<std::__cxx11::basic_string<char>, std::allocator<std::__cxx11::basic_string<char>>>::_Vector_impl_data", ptr %20, i32 0, i32 1
  %22 = load ptr, ptr %21, align 8
  %23 = getelementptr inbounds %"class.std::__cxx11::basic_string", ptr %22, i32 1
  store ptr %23, ptr %21, align 8
  br label %30

24:                                               ; preds = %2
  %25 = call ptr @_ZNSt6vectorINSt7__cxx1112basic_stringIcSt11char_traitsIcESaIcEEESaIS5_EE3endEv(ptr noundef nonnull align 8 dereferenceable(24) %6) #3
  %26 = getelementptr inbounds %"class.__gnu_cxx::__normal_iterator.24", ptr %5, i32 0, i32 0
  store ptr %25, ptr %26, align 8
  %27 = load ptr, ptr %4, align 8
  %28 = getelementptr inbounds %"class.__gnu_cxx::__normal_iterator.24", ptr %5, i32 0, i32 0
  %29 = load ptr, ptr %28, align 8
  call void @_ZNSt6vectorINSt7__cxx1112basic_stringIcSt11char_traitsIcESaIcEEESaIS5_EE17_M_realloc_insertIJS5_EEEvN9__gnu_cxx17__normal_iteratorIPS5_S7_EEDpOT_(ptr noundef nonnull align 8 dereferenceable(24) %6, ptr %29, ptr noundef nonnull align 8 dereferenceable(32) %27)
  br label %30

30:                                               ; preds = %24, %14
  ret void
}

; Function Attrs: mustprogress noinline nounwind optnone uwtable
define linkonce_odr dso_local void @_ZNSt16allocator_traitsISaINSt7__cxx1112basic_stringIcSt11char_traitsIcESaIcEEEEE9constructIS5_JS5_EEEvRS6_PT_DpOT0_(ptr noundef nonnull align 1 dereferenceable(1) %0, ptr noundef %1, ptr noundef nonnull align 8 dereferenceable(32) %2) #8 comdat align 2 {
  %4 = alloca ptr, align 8
  %5 = alloca ptr, align 8
  %6 = alloca ptr, align 8
  store ptr %0, ptr %4, align 8
  store ptr %1, ptr %5, align 8
  store ptr %2, ptr %6, align 8
  %7 = load ptr, ptr %4, align 8
  %8 = load ptr, ptr %5, align 8
  %9 = load ptr, ptr %6, align 8
  call void @_ZNSt15__new_allocatorINSt7__cxx1112basic_stringIcSt11char_traitsIcESaIcEEEE9constructIS5_JS5_EEEvPT_DpOT0_(ptr noundef nonnull align 1 dereferenceable(1) %7, ptr noundef %8, ptr noundef nonnull align 8 dereferenceable(32) %9) #3
  ret void
}

; Function Attrs: mustprogress noinline optnone uwtable
define linkonce_odr dso_local void @_ZNSt6vectorINSt7__cxx1112basic_stringIcSt11char_traitsIcESaIcEEESaIS5_EE17_M_realloc_insertIJS5_EEEvN9__gnu_cxx17__normal_iteratorIPS5_S7_EEDpOT_(ptr noundef nonnull align 8 dereferenceable(24) %0, ptr %1, ptr noundef nonnull align 8 dereferenceable(32) %2) #5 comdat align 2 {
  %4 = alloca %"class.__gnu_cxx::__normal_iterator.24", align 8
  %5 = alloca ptr, align 8
  %6 = alloca ptr, align 8
  %7 = alloca i64, align 8
  %8 = alloca ptr, align 8
  %9 = alloca ptr, align 8
  %10 = alloca i64, align 8
  %11 = alloca %"class.__gnu_cxx::__normal_iterator.24", align 8
  %12 = alloca ptr, align 8
  %13 = alloca ptr, align 8
  %14 = getelementptr inbounds %"class.__gnu_cxx::__normal_iterator.24", ptr %4, i32 0, i32 0
  store ptr %1, ptr %14, align 8
  store ptr %0, ptr %5, align 8
  store ptr %2, ptr %6, align 8
  %15 = load ptr, ptr %5, align 8
  %16 = call noundef i64 @_ZNKSt6vectorINSt7__cxx1112basic_stringIcSt11char_traitsIcESaIcEEESaIS5_EE12_M_check_lenEmPKc(ptr noundef nonnull align 8 dereferenceable(24) %15, i64 noundef 1, ptr noundef @.str.55)
  store i64 %16, ptr %7, align 8
  %17 = getelementptr inbounds %"struct.std::_Vector_base", ptr %15, i32 0, i32 0
  %18 = getelementptr inbounds %"struct.std::_Vector_base<std::__cxx11::basic_string<char>, std::allocator<std::__cxx11::basic_string<char>>>::_Vector_impl_data", ptr %17, i32 0, i32 0
  %19 = load ptr, ptr %18, align 8
  store ptr %19, ptr %8, align 8
  %20 = getelementptr inbounds %"struct.std::_Vector_base", ptr %15, i32 0, i32 0
  %21 = getelementptr inbounds %"struct.std::_Vector_base<std::__cxx11::basic_string<char>, std::allocator<std::__cxx11::basic_string<char>>>::_Vector_impl_data", ptr %20, i32 0, i32 1
  %22 = load ptr, ptr %21, align 8
  store ptr %22, ptr %9, align 8
  %23 = call ptr @_ZNSt6vectorINSt7__cxx1112basic_stringIcSt11char_traitsIcESaIcEEESaIS5_EE5beginEv(ptr noundef nonnull align 8 dereferenceable(24) %15) #3
  %24 = getelementptr inbounds %"class.__gnu_cxx::__normal_iterator.24", ptr %11, i32 0, i32 0
  store ptr %23, ptr %24, align 8
  %25 = call noundef i64 @_ZN9__gnu_cxxmiIPNSt7__cxx1112basic_stringIcSt11char_traitsIcESaIcEEESt6vectorIS6_SaIS6_EEEENS_17__normal_iteratorIT_T0_E15difference_typeERKSE_SH_(ptr noundef nonnull align 8 dereferenceable(8) %4, ptr noundef nonnull align 8 dereferenceable(8) %11) #3
  store i64 %25, ptr %10, align 8
  %26 = load i64, ptr %7, align 8
  %27 = call noundef ptr @_ZNSt12_Vector_baseINSt7__cxx1112basic_stringIcSt11char_traitsIcESaIcEEESaIS5_EE11_M_allocateEm(ptr noundef nonnull align 8 dereferenceable(24) %15, i64 noundef %26)
  store ptr %27, ptr %12, align 8
  %28 = load ptr, ptr %12, align 8
  store ptr %28, ptr %13, align 8
  %29 = getelementptr inbounds %"struct.std::_Vector_base", ptr %15, i32 0, i32 0
  %30 = load ptr, ptr %12, align 8
  %31 = load i64, ptr %10, align 8
  %32 = getelementptr inbounds %"class.std::__cxx11::basic_string", ptr %30, i64 %31
  %33 = load ptr, ptr %6, align 8
  call void @_ZNSt16allocator_traitsISaINSt7__cxx1112basic_stringIcSt11char_traitsIcESaIcEEEEE9constructIS5_JS5_EEEvRS6_PT_DpOT0_(ptr noundef nonnull align 1 dereferenceable(1) %29, ptr noundef %32, ptr noundef nonnull align 8 dereferenceable(32) %33) #3
  store ptr null, ptr %13, align 8
  %34 = load ptr, ptr %8, align 8
  %35 = call noundef nonnull align 8 dereferenceable(8) ptr @_ZNK9__gnu_cxx17__normal_iteratorIPNSt7__cxx1112basic_stringIcSt11char_traitsIcESaIcEEESt6vectorIS6_SaIS6_EEE4baseEv(ptr noundef nonnull align 8 dereferenceable(8) %4) #3
  %36 = load ptr, ptr %35, align 8
  %37 = load ptr, ptr %12, align 8
  %38 = call noundef nonnull align 1 dereferenceable(1) ptr @_ZNSt12_Vector_baseINSt7__cxx1112basic_stringIcSt11char_traitsIcESaIcEEESaIS5_EE19_M_get_Tp_allocatorEv(ptr noundef nonnull align 8 dereferenceable(24) %15) #3
  %39 = call noundef ptr @_ZNSt6vectorINSt7__cxx1112basic_stringIcSt11char_traitsIcESaIcEEESaIS5_EE11_S_relocateEPS5_S8_S8_RS6_(ptr noundef %34, ptr noundef %36, ptr noundef %37, ptr noundef nonnull align 1 dereferenceable(1) %38) #3
  store ptr %39, ptr %13, align 8
  %40 = load ptr, ptr %13, align 8
  %41 = getelementptr inbounds %"class.std::__cxx11::basic_string", ptr %40, i32 1
  store ptr %41, ptr %13, align 8
  %42 = call noundef nonnull align 8 dereferenceable(8) ptr @_ZNK9__gnu_cxx17__normal_iteratorIPNSt7__cxx1112basic_stringIcSt11char_traitsIcESaIcEEESt6vectorIS6_SaIS6_EEE4baseEv(ptr noundef nonnull align 8 dereferenceable(8) %4) #3
  %43 = load ptr, ptr %42, align 8
  %44 = load ptr, ptr %9, align 8
  %45 = load ptr, ptr %13, align 8
  %46 = call noundef nonnull align 1 dereferenceable(1) ptr @_ZNSt12_Vector_baseINSt7__cxx1112basic_stringIcSt11char_traitsIcESaIcEEESaIS5_EE19_M_get_Tp_allocatorEv(ptr noundef nonnull align 8 dereferenceable(24) %15) #3
  %47 = call noundef ptr @_ZNSt6vectorINSt7__cxx1112basic_stringIcSt11char_traitsIcESaIcEEESaIS5_EE11_S_relocateEPS5_S8_S8_RS6_(ptr noundef %43, ptr noundef %44, ptr noundef %45, ptr noundef nonnull align 1 dereferenceable(1) %46) #3
  store ptr %47, ptr %13, align 8
  %48 = load ptr, ptr %8, align 8
  %49 = getelementptr inbounds %"struct.std::_Vector_base", ptr %15, i32 0, i32 0
  %50 = getelementptr inbounds %"struct.std::_Vector_base<std::__cxx11::basic_string<char>, std::allocator<std::__cxx11::basic_string<char>>>::_Vector_impl_data", ptr %49, i32 0, i32 2
  %51 = load ptr, ptr %50, align 8
  %52 = load ptr, ptr %8, align 8
  %53 = ptrtoint ptr %51 to i64
  %54 = ptrtoint ptr %52 to i64
  %55 = sub i64 %53, %54
  %56 = sdiv exact i64 %55, 32
  call void @_ZNSt12_Vector_baseINSt7__cxx1112basic_stringIcSt11char_traitsIcESaIcEEESaIS5_EE13_M_deallocateEPS5_m(ptr noundef nonnull align 8 dereferenceable(24) %15, ptr noundef %48, i64 noundef %56)
  %57 = load ptr, ptr %12, align 8
  %58 = getelementptr inbounds %"struct.std::_Vector_base", ptr %15, i32 0, i32 0
  %59 = getelementptr inbounds %"struct.std::_Vector_base<std::__cxx11::basic_string<char>, std::allocator<std::__cxx11::basic_string<char>>>::_Vector_impl_data", ptr %58, i32 0, i32 0
  store ptr %57, ptr %59, align 8
  %60 = load ptr, ptr %13, align 8
  %61 = getelementptr inbounds %"struct.std::_Vector_base", ptr %15, i32 0, i32 0
  %62 = getelementptr inbounds %"struct.std::_Vector_base<std::__cxx11::basic_string<char>, std::allocator<std::__cxx11::basic_string<char>>>::_Vector_impl_data", ptr %61, i32 0, i32 1
  store ptr %60, ptr %62, align 8
  %63 = load ptr, ptr %12, align 8
  %64 = load i64, ptr %7, align 8
  %65 = getelementptr inbounds %"class.std::__cxx11::basic_string", ptr %63, i64 %64
  %66 = getelementptr inbounds %"struct.std::_Vector_base", ptr %15, i32 0, i32 0
  %67 = getelementptr inbounds %"struct.std::_Vector_base<std::__cxx11::basic_string<char>, std::allocator<std::__cxx11::basic_string<char>>>::_Vector_impl_data", ptr %66, i32 0, i32 2
  store ptr %65, ptr %67, align 8
  ret void
}

; Function Attrs: mustprogress noinline nounwind optnone uwtable
define linkonce_odr dso_local ptr @_ZNSt6vectorINSt7__cxx1112basic_stringIcSt11char_traitsIcESaIcEEESaIS5_EE3endEv(ptr noundef nonnull align 8 dereferenceable(24) %0) #8 comdat align 2 {
  %2 = alloca %"class.__gnu_cxx::__normal_iterator.24", align 8
  %3 = alloca ptr, align 8
  store ptr %0, ptr %3, align 8
  %4 = load ptr, ptr %3, align 8
  %5 = getelementptr inbounds %"struct.std::_Vector_base", ptr %4, i32 0, i32 0
  %6 = getelementptr inbounds %"struct.std::_Vector_base<std::__cxx11::basic_string<char>, std::allocator<std::__cxx11::basic_string<char>>>::_Vector_impl_data", ptr %5, i32 0, i32 1
  call void @_ZN9__gnu_cxx17__normal_iteratorIPNSt7__cxx1112basic_stringIcSt11char_traitsIcESaIcEEESt6vectorIS6_SaIS6_EEEC2ERKS7_(ptr noundef nonnull align 8 dereferenceable(8) %2, ptr noundef nonnull align 8 dereferenceable(8) %6) #3
  %7 = getelementptr inbounds %"class.__gnu_cxx::__normal_iterator.24", ptr %2, i32 0, i32 0
  %8 = load ptr, ptr %7, align 8
  ret ptr %8
}

; Function Attrs: mustprogress noinline nounwind optnone uwtable
define linkonce_odr dso_local void @_ZNSt15__new_allocatorINSt7__cxx1112basic_stringIcSt11char_traitsIcESaIcEEEE9constructIS5_JS5_EEEvPT_DpOT0_(ptr noundef nonnull align 1 dereferenceable(1) %0, ptr noundef %1, ptr noundef nonnull align 8 dereferenceable(32) %2) #8 comdat align 2 {
  %4 = alloca ptr, align 8
  %5 = alloca ptr, align 8
  %6 = alloca ptr, align 8
  store ptr %0, ptr %4, align 8
  store ptr %1, ptr %5, align 8
  store ptr %2, ptr %6, align 8
  %7 = load ptr, ptr %4, align 8
  %8 = load ptr, ptr %5, align 8
  %9 = load ptr, ptr %6, align 8
  call void @_ZNSt7__cxx1112basic_stringIcSt11char_traitsIcESaIcEEC1EOS4_(ptr noundef nonnull align 8 dereferenceable(32) %8, ptr noundef nonnull align 8 dereferenceable(32) %9) #3
  ret void
}

; Function Attrs: nounwind
declare void @_ZNSt7__cxx1112basic_stringIcSt11char_traitsIcESaIcEEC1EOS4_(ptr noundef nonnull align 8 dereferenceable(32), ptr noundef nonnull align 8 dereferenceable(32)) unnamed_addr #2

; Function Attrs: mustprogress noinline optnone uwtable
define linkonce_odr dso_local noundef i64 @_ZNKSt6vectorINSt7__cxx1112basic_stringIcSt11char_traitsIcESaIcEEESaIS5_EE12_M_check_lenEmPKc(ptr noundef nonnull align 8 dereferenceable(24) %0, i64 noundef %1, ptr noundef %2) #5 comdat align 2 {
  %4 = alloca ptr, align 8
  %5 = alloca i64, align 8
  %6 = alloca ptr, align 8
  %7 = alloca i64, align 8
  %8 = alloca i64, align 8
  store ptr %0, ptr %4, align 8
  store i64 %1, ptr %5, align 8
  store ptr %2, ptr %6, align 8
  %9 = load ptr, ptr %4, align 8
  %10 = call noundef i64 @_ZNKSt6vectorINSt7__cxx1112basic_stringIcSt11char_traitsIcESaIcEEESaIS5_EE8max_sizeEv(ptr noundef nonnull align 8 dereferenceable(24) %9) #3
  %11 = call noundef i64 @_ZNKSt6vectorINSt7__cxx1112basic_stringIcSt11char_traitsIcESaIcEEESaIS5_EE4sizeEv(ptr noundef nonnull align 8 dereferenceable(24) %9) #3
  %12 = sub i64 %10, %11
  %13 = load i64, ptr %5, align 8
  %14 = icmp ult i64 %12, %13
  br i1 %14, label %15, label %17

15:                                               ; preds = %3
  %16 = load ptr, ptr %6, align 8
  call void @_ZSt20__throw_length_errorPKc(ptr noundef %16) #26
  unreachable

17:                                               ; preds = %3
  %18 = call noundef i64 @_ZNKSt6vectorINSt7__cxx1112basic_stringIcSt11char_traitsIcESaIcEEESaIS5_EE4sizeEv(ptr noundef nonnull align 8 dereferenceable(24) %9) #3
  %19 = call noundef i64 @_ZNKSt6vectorINSt7__cxx1112basic_stringIcSt11char_traitsIcESaIcEEESaIS5_EE4sizeEv(ptr noundef nonnull align 8 dereferenceable(24) %9) #3
  store i64 %19, ptr %8, align 8
  %20 = call noundef nonnull align 8 dereferenceable(8) ptr @_ZSt3maxImERKT_S2_S2_(ptr noundef nonnull align 8 dereferenceable(8) %8, ptr noundef nonnull align 8 dereferenceable(8) %5)
  %21 = load i64, ptr %20, align 8
  %22 = add i64 %18, %21
  store i64 %22, ptr %7, align 8
  %23 = load i64, ptr %7, align 8
  %24 = call noundef i64 @_ZNKSt6vectorINSt7__cxx1112basic_stringIcSt11char_traitsIcESaIcEEESaIS5_EE4sizeEv(ptr noundef nonnull align 8 dereferenceable(24) %9) #3
  %25 = icmp ult i64 %23, %24
  br i1 %25, label %30, label %26

26:                                               ; preds = %17
  %27 = load i64, ptr %7, align 8
  %28 = call noundef i64 @_ZNKSt6vectorINSt7__cxx1112basic_stringIcSt11char_traitsIcESaIcEEESaIS5_EE8max_sizeEv(ptr noundef nonnull align 8 dereferenceable(24) %9) #3
  %29 = icmp ugt i64 %27, %28
  br i1 %29, label %30, label %32

30:                                               ; preds = %26, %17
  %31 = call noundef i64 @_ZNKSt6vectorINSt7__cxx1112basic_stringIcSt11char_traitsIcESaIcEEESaIS5_EE8max_sizeEv(ptr noundef nonnull align 8 dereferenceable(24) %9) #3
  br label %34

32:                                               ; preds = %26
  %33 = load i64, ptr %7, align 8
  br label %34

34:                                               ; preds = %32, %30
  %35 = phi i64 [ %31, %30 ], [ %33, %32 ]
  ret i64 %35
}

; Function Attrs: mustprogress noinline nounwind optnone uwtable
define linkonce_odr dso_local noundef i64 @_ZN9__gnu_cxxmiIPNSt7__cxx1112basic_stringIcSt11char_traitsIcESaIcEEESt6vectorIS6_SaIS6_EEEENS_17__normal_iteratorIT_T0_E15difference_typeERKSE_SH_(ptr noundef nonnull align 8 dereferenceable(8) %0, ptr noundef nonnull align 8 dereferenceable(8) %1) #8 comdat {
  %3 = alloca ptr, align 8
  %4 = alloca ptr, align 8
  store ptr %0, ptr %3, align 8
  store ptr %1, ptr %4, align 8
  %5 = load ptr, ptr %3, align 8
  %6 = call noundef nonnull align 8 dereferenceable(8) ptr @_ZNK9__gnu_cxx17__normal_iteratorIPNSt7__cxx1112basic_stringIcSt11char_traitsIcESaIcEEESt6vectorIS6_SaIS6_EEE4baseEv(ptr noundef nonnull align 8 dereferenceable(8) %5) #3
  %7 = load ptr, ptr %6, align 8
  %8 = load ptr, ptr %4, align 8
  %9 = call noundef nonnull align 8 dereferenceable(8) ptr @_ZNK9__gnu_cxx17__normal_iteratorIPNSt7__cxx1112basic_stringIcSt11char_traitsIcESaIcEEESt6vectorIS6_SaIS6_EEE4baseEv(ptr noundef nonnull align 8 dereferenceable(8) %8) #3
  %10 = load ptr, ptr %9, align 8
  %11 = ptrtoint ptr %7 to i64
  %12 = ptrtoint ptr %10 to i64
  %13 = sub i64 %11, %12
  %14 = sdiv exact i64 %13, 32
  ret i64 %14
}

; Function Attrs: mustprogress noinline nounwind optnone uwtable
define linkonce_odr dso_local ptr @_ZNSt6vectorINSt7__cxx1112basic_stringIcSt11char_traitsIcESaIcEEESaIS5_EE5beginEv(ptr noundef nonnull align 8 dereferenceable(24) %0) #8 comdat align 2 {
  %2 = alloca %"class.__gnu_cxx::__normal_iterator.24", align 8
  %3 = alloca ptr, align 8
  store ptr %0, ptr %3, align 8
  %4 = load ptr, ptr %3, align 8
  %5 = getelementptr inbounds %"struct.std::_Vector_base", ptr %4, i32 0, i32 0
  %6 = getelementptr inbounds %"struct.std::_Vector_base<std::__cxx11::basic_string<char>, std::allocator<std::__cxx11::basic_string<char>>>::_Vector_impl_data", ptr %5, i32 0, i32 0
  call void @_ZN9__gnu_cxx17__normal_iteratorIPNSt7__cxx1112basic_stringIcSt11char_traitsIcESaIcEEESt6vectorIS6_SaIS6_EEEC2ERKS7_(ptr noundef nonnull align 8 dereferenceable(8) %2, ptr noundef nonnull align 8 dereferenceable(8) %6) #3
  %7 = getelementptr inbounds %"class.__gnu_cxx::__normal_iterator.24", ptr %2, i32 0, i32 0
  %8 = load ptr, ptr %7, align 8
  ret ptr %8
}

; Function Attrs: mustprogress noinline optnone uwtable
define linkonce_odr dso_local noundef ptr @_ZNSt12_Vector_baseINSt7__cxx1112basic_stringIcSt11char_traitsIcESaIcEEESaIS5_EE11_M_allocateEm(ptr noundef nonnull align 8 dereferenceable(24) %0, i64 noundef %1) #5 comdat align 2 {
  %3 = alloca ptr, align 8
  %4 = alloca i64, align 8
  store ptr %0, ptr %3, align 8
  store i64 %1, ptr %4, align 8
  %5 = load ptr, ptr %3, align 8
  %6 = load i64, ptr %4, align 8
  %7 = icmp ne i64 %6, 0
  br i1 %7, label %8, label %12

8:                                                ; preds = %2
  %9 = getelementptr inbounds %"struct.std::_Vector_base", ptr %5, i32 0, i32 0
  %10 = load i64, ptr %4, align 8
  %11 = call noundef ptr @_ZNSt16allocator_traitsISaINSt7__cxx1112basic_stringIcSt11char_traitsIcESaIcEEEEE8allocateERS6_m(ptr noundef nonnull align 1 dereferenceable(1) %9, i64 noundef %10)
  br label %13

12:                                               ; preds = %2
  br label %13

13:                                               ; preds = %12, %8
  %14 = phi ptr [ %11, %8 ], [ null, %12 ]
  ret ptr %14
}

; Function Attrs: mustprogress noinline nounwind optnone uwtable
define linkonce_odr dso_local noundef ptr @_ZNSt6vectorINSt7__cxx1112basic_stringIcSt11char_traitsIcESaIcEEESaIS5_EE11_S_relocateEPS5_S8_S8_RS6_(ptr noundef %0, ptr noundef %1, ptr noundef %2, ptr noundef nonnull align 1 dereferenceable(1) %3) #8 comdat align 2 {
  %5 = alloca ptr, align 8
  %6 = alloca ptr, align 8
  %7 = alloca ptr, align 8
  %8 = alloca ptr, align 8
  %9 = alloca %"struct.std::integral_constant", align 1
  store ptr %0, ptr %5, align 8
  store ptr %1, ptr %6, align 8
  store ptr %2, ptr %7, align 8
  store ptr %3, ptr %8, align 8
  %10 = load ptr, ptr %5, align 8
  %11 = load ptr, ptr %6, align 8
  %12 = load ptr, ptr %7, align 8
  %13 = load ptr, ptr %8, align 8
  %14 = call noundef ptr @_ZNSt6vectorINSt7__cxx1112basic_stringIcSt11char_traitsIcESaIcEEESaIS5_EE14_S_do_relocateEPS5_S8_S8_RS6_St17integral_constantIbLb1EE(ptr noundef %10, ptr noundef %11, ptr noundef %12, ptr noundef nonnull align 1 dereferenceable(1) %13) #3
  ret ptr %14
}

; Function Attrs: mustprogress noinline nounwind optnone uwtable
define linkonce_odr dso_local noundef nonnull align 8 dereferenceable(8) ptr @_ZNK9__gnu_cxx17__normal_iteratorIPNSt7__cxx1112basic_stringIcSt11char_traitsIcESaIcEEESt6vectorIS6_SaIS6_EEE4baseEv(ptr noundef nonnull align 8 dereferenceable(8) %0) #8 comdat align 2 {
  %2 = alloca ptr, align 8
  store ptr %0, ptr %2, align 8
  %3 = load ptr, ptr %2, align 8
  %4 = getelementptr inbounds %"class.__gnu_cxx::__normal_iterator.24", ptr %3, i32 0, i32 0
  ret ptr %4
}

; Function Attrs: mustprogress noinline nounwind optnone uwtable
define linkonce_odr dso_local noundef i64 @_ZNKSt6vectorINSt7__cxx1112basic_stringIcSt11char_traitsIcESaIcEEESaIS5_EE8max_sizeEv(ptr noundef nonnull align 8 dereferenceable(24) %0) #8 comdat align 2 {
  %2 = alloca ptr, align 8
  store ptr %0, ptr %2, align 8
  %3 = load ptr, ptr %2, align 8
  %4 = call noundef nonnull align 1 dereferenceable(1) ptr @_ZNKSt12_Vector_baseINSt7__cxx1112basic_stringIcSt11char_traitsIcESaIcEEESaIS5_EE19_M_get_Tp_allocatorEv(ptr noundef nonnull align 8 dereferenceable(24) %3) #3
  %5 = call noundef i64 @_ZNSt6vectorINSt7__cxx1112basic_stringIcSt11char_traitsIcESaIcEEESaIS5_EE11_S_max_sizeERKS6_(ptr noundef nonnull align 1 dereferenceable(1) %4) #3
  ret i64 %5
}

; Function Attrs: mustprogress noinline nounwind optnone uwtable
define linkonce_odr dso_local noundef i64 @_ZNSt6vectorINSt7__cxx1112basic_stringIcSt11char_traitsIcESaIcEEESaIS5_EE11_S_max_sizeERKS6_(ptr noundef nonnull align 1 dereferenceable(1) %0) #8 comdat align 2 {
  %2 = alloca ptr, align 8
  %3 = alloca i64, align 8
  %4 = alloca i64, align 8
  store ptr %0, ptr %2, align 8
  store i64 288230376151711743, ptr %3, align 8
  %5 = load ptr, ptr %2, align 8
  %6 = call noundef i64 @_ZNSt16allocator_traitsISaINSt7__cxx1112basic_stringIcSt11char_traitsIcESaIcEEEEE8max_sizeERKS6_(ptr noundef nonnull align 1 dereferenceable(1) %5) #3
  store i64 %6, ptr %4, align 8
  %7 = call noundef nonnull align 8 dereferenceable(8) ptr @_ZSt3minImERKT_S2_S2_(ptr noundef nonnull align 8 dereferenceable(8) %3, ptr noundef nonnull align 8 dereferenceable(8) %4)
  %8 = load i64, ptr %7, align 8
  ret i64 %8
}

; Function Attrs: mustprogress noinline nounwind optnone uwtable
define linkonce_odr dso_local noundef nonnull align 1 dereferenceable(1) ptr @_ZNKSt12_Vector_baseINSt7__cxx1112basic_stringIcSt11char_traitsIcESaIcEEESaIS5_EE19_M_get_Tp_allocatorEv(ptr noundef nonnull align 8 dereferenceable(24) %0) #8 comdat align 2 {
  %2 = alloca ptr, align 8
  store ptr %0, ptr %2, align 8
  %3 = load ptr, ptr %2, align 8
  %4 = getelementptr inbounds %"struct.std::_Vector_base", ptr %3, i32 0, i32 0
  ret ptr %4
}

; Function Attrs: mustprogress noinline nounwind optnone uwtable
define linkonce_odr dso_local noundef i64 @_ZNSt16allocator_traitsISaINSt7__cxx1112basic_stringIcSt11char_traitsIcESaIcEEEEE8max_sizeERKS6_(ptr noundef nonnull align 1 dereferenceable(1) %0) #8 comdat align 2 {
  %2 = alloca ptr, align 8
  store ptr %0, ptr %2, align 8
  %3 = load ptr, ptr %2, align 8
  %4 = call noundef i64 @_ZNKSt15__new_allocatorINSt7__cxx1112basic_stringIcSt11char_traitsIcESaIcEEEE8max_sizeEv(ptr noundef nonnull align 1 dereferenceable(1) %3) #3
  ret i64 %4
}

; Function Attrs: mustprogress noinline nounwind optnone uwtable
define linkonce_odr dso_local noundef i64 @_ZNKSt15__new_allocatorINSt7__cxx1112basic_stringIcSt11char_traitsIcESaIcEEEE8max_sizeEv(ptr noundef nonnull align 1 dereferenceable(1) %0) #8 comdat align 2 {
  %2 = alloca ptr, align 8
  store ptr %0, ptr %2, align 8
  %3 = load ptr, ptr %2, align 8
  %4 = call noundef i64 @_ZNKSt15__new_allocatorINSt7__cxx1112basic_stringIcSt11char_traitsIcESaIcEEEE11_M_max_sizeEv(ptr noundef nonnull align 1 dereferenceable(1) %3) #3
  ret i64 %4
}

; Function Attrs: mustprogress noinline nounwind optnone uwtable
define linkonce_odr dso_local noundef i64 @_ZNKSt15__new_allocatorINSt7__cxx1112basic_stringIcSt11char_traitsIcESaIcEEEE11_M_max_sizeEv(ptr noundef nonnull align 1 dereferenceable(1) %0) #8 comdat align 2 {
  %2 = alloca ptr, align 8
  store ptr %0, ptr %2, align 8
  %3 = load ptr, ptr %2, align 8
  ret i64 288230376151711743
}

; Function Attrs: noinline nounwind optnone uwtable
define linkonce_odr dso_local void @_ZN9__gnu_cxx17__normal_iteratorIPNSt7__cxx1112basic_stringIcSt11char_traitsIcESaIcEEESt6vectorIS6_SaIS6_EEEC2ERKS7_(ptr noundef nonnull align 8 dereferenceable(8) %0, ptr noundef nonnull align 8 dereferenceable(8) %1) unnamed_addr #4 comdat align 2 {
  %3 = alloca ptr, align 8
  %4 = alloca ptr, align 8
  store ptr %0, ptr %3, align 8
  store ptr %1, ptr %4, align 8
  %5 = load ptr, ptr %3, align 8
  %6 = getelementptr inbounds %"class.__gnu_cxx::__normal_iterator.24", ptr %5, i32 0, i32 0
  %7 = load ptr, ptr %4, align 8
  %8 = load ptr, ptr %7, align 8
  store ptr %8, ptr %6, align 8
  ret void
}

; Function Attrs: mustprogress noinline optnone uwtable
define linkonce_odr dso_local noundef ptr @_ZNSt16allocator_traitsISaINSt7__cxx1112basic_stringIcSt11char_traitsIcESaIcEEEEE8allocateERS6_m(ptr noundef nonnull align 1 dereferenceable(1) %0, i64 noundef %1) #5 comdat align 2 {
  %3 = alloca ptr, align 8
  %4 = alloca i64, align 8
  store ptr %0, ptr %3, align 8
  store i64 %1, ptr %4, align 8
  %5 = load ptr, ptr %3, align 8
  %6 = load i64, ptr %4, align 8
  %7 = call noundef ptr @_ZNSt15__new_allocatorINSt7__cxx1112basic_stringIcSt11char_traitsIcESaIcEEEE8allocateEmPKv(ptr noundef nonnull align 1 dereferenceable(1) %5, i64 noundef %6, ptr noundef null)
  ret ptr %7
}

; Function Attrs: mustprogress noinline optnone uwtable
define linkonce_odr dso_local noundef ptr @_ZNSt15__new_allocatorINSt7__cxx1112basic_stringIcSt11char_traitsIcESaIcEEEE8allocateEmPKv(ptr noundef nonnull align 1 dereferenceable(1) %0, i64 noundef %1, ptr noundef %2) #5 comdat align 2 {
  %4 = alloca ptr, align 8
  %5 = alloca i64, align 8
  %6 = alloca ptr, align 8
  store ptr %0, ptr %4, align 8
  store i64 %1, ptr %5, align 8
  store ptr %2, ptr %6, align 8
  %7 = load ptr, ptr %4, align 8
  %8 = load i64, ptr %5, align 8
  %9 = call noundef i64 @_ZNKSt15__new_allocatorINSt7__cxx1112basic_stringIcSt11char_traitsIcESaIcEEEE11_M_max_sizeEv(ptr noundef nonnull align 1 dereferenceable(1) %7) #3
  %10 = icmp ugt i64 %8, %9
  br i1 %10, label %11, label %16

11:                                               ; preds = %3
  %12 = load i64, ptr %5, align 8
  %13 = icmp ugt i64 %12, 576460752303423487
  br i1 %13, label %14, label %15

14:                                               ; preds = %11
  call void @_ZSt28__throw_bad_array_new_lengthv() #26
  unreachable

15:                                               ; preds = %11
  call void @_ZSt17__throw_bad_allocv() #26
  unreachable

16:                                               ; preds = %3
  %17 = load i64, ptr %5, align 8
  %18 = mul i64 %17, 32
  %19 = call noalias noundef nonnull ptr @_Znwm(i64 noundef %18) #27
  ret ptr %19
}

; Function Attrs: mustprogress noinline nounwind optnone uwtable
define linkonce_odr dso_local noundef ptr @_ZNSt6vectorINSt7__cxx1112basic_stringIcSt11char_traitsIcESaIcEEESaIS5_EE14_S_do_relocateEPS5_S8_S8_RS6_St17integral_constantIbLb1EE(ptr noundef %0, ptr noundef %1, ptr noundef %2, ptr noundef nonnull align 1 dereferenceable(1) %3) #8 comdat align 2 {
  %5 = alloca %"struct.std::integral_constant", align 1
  %6 = alloca ptr, align 8
  %7 = alloca ptr, align 8
  %8 = alloca ptr, align 8
  %9 = alloca ptr, align 8
  store ptr %0, ptr %6, align 8
  store ptr %1, ptr %7, align 8
  store ptr %2, ptr %8, align 8
  store ptr %3, ptr %9, align 8
  %10 = load ptr, ptr %6, align 8
  %11 = load ptr, ptr %7, align 8
  %12 = load ptr, ptr %8, align 8
  %13 = load ptr, ptr %9, align 8
  %14 = call noundef ptr @_ZSt12__relocate_aIPNSt7__cxx1112basic_stringIcSt11char_traitsIcESaIcEEES6_SaIS5_EET0_T_S9_S8_RT1_(ptr noundef %10, ptr noundef %11, ptr noundef %12, ptr noundef nonnull align 1 dereferenceable(1) %13) #3
  ret ptr %14
}

; Function Attrs: mustprogress noinline nounwind optnone uwtable
define linkonce_odr dso_local noundef ptr @_ZSt12__relocate_aIPNSt7__cxx1112basic_stringIcSt11char_traitsIcESaIcEEES6_SaIS5_EET0_T_S9_S8_RT1_(ptr noundef %0, ptr noundef %1, ptr noundef %2, ptr noundef nonnull align 1 dereferenceable(1) %3) #8 comdat {
  %5 = alloca ptr, align 8
  %6 = alloca ptr, align 8
  %7 = alloca ptr, align 8
  %8 = alloca ptr, align 8
  store ptr %0, ptr %5, align 8
  store ptr %1, ptr %6, align 8
  store ptr %2, ptr %7, align 8
  store ptr %3, ptr %8, align 8
  %9 = load ptr, ptr %5, align 8
  %10 = call noundef ptr @_ZSt12__niter_baseIPNSt7__cxx1112basic_stringIcSt11char_traitsIcESaIcEEEET_S7_(ptr noundef %9) #3
  %11 = load ptr, ptr %6, align 8
  %12 = call noundef ptr @_ZSt12__niter_baseIPNSt7__cxx1112basic_stringIcSt11char_traitsIcESaIcEEEET_S7_(ptr noundef %11) #3
  %13 = load ptr, ptr %7, align 8
  %14 = call noundef ptr @_ZSt12__niter_baseIPNSt7__cxx1112basic_stringIcSt11char_traitsIcESaIcEEEET_S7_(ptr noundef %13) #3
  %15 = load ptr, ptr %8, align 8
  %16 = call noundef ptr @_ZSt14__relocate_a_1IPNSt7__cxx1112basic_stringIcSt11char_traitsIcESaIcEEES6_SaIS5_EET0_T_S9_S8_RT1_(ptr noundef %10, ptr noundef %12, ptr noundef %14, ptr noundef nonnull align 1 dereferenceable(1) %15) #3
  ret ptr %16
}

; Function Attrs: mustprogress noinline nounwind optnone uwtable
define linkonce_odr dso_local noundef ptr @_ZSt14__relocate_a_1IPNSt7__cxx1112basic_stringIcSt11char_traitsIcESaIcEEES6_SaIS5_EET0_T_S9_S8_RT1_(ptr noundef %0, ptr noundef %1, ptr noundef %2, ptr noundef nonnull align 1 dereferenceable(1) %3) #8 comdat {
  %5 = alloca ptr, align 8
  %6 = alloca ptr, align 8
  %7 = alloca ptr, align 8
  %8 = alloca ptr, align 8
  %9 = alloca ptr, align 8
  store ptr %0, ptr %5, align 8
  store ptr %1, ptr %6, align 8
  store ptr %2, ptr %7, align 8
  store ptr %3, ptr %8, align 8
  %10 = load ptr, ptr %7, align 8
  store ptr %10, ptr %9, align 8
  br label %11

11:                                               ; preds = %19, %4
  %12 = load ptr, ptr %5, align 8
  %13 = load ptr, ptr %6, align 8
  %14 = icmp ne ptr %12, %13
  br i1 %14, label %15, label %24

15:                                               ; preds = %11
  %16 = load ptr, ptr %9, align 8
  %17 = load ptr, ptr %5, align 8
  %18 = load ptr, ptr %8, align 8
  call void @_ZSt19__relocate_object_aINSt7__cxx1112basic_stringIcSt11char_traitsIcESaIcEEES5_SaIS5_EEvPT_PT0_RT1_(ptr noundef %16, ptr noundef %17, ptr noundef nonnull align 1 dereferenceable(1) %18) #3
  br label %19

19:                                               ; preds = %15
  %20 = load ptr, ptr %5, align 8
  %21 = getelementptr inbounds %"class.std::__cxx11::basic_string", ptr %20, i32 1
  store ptr %21, ptr %5, align 8
  %22 = load ptr, ptr %9, align 8
  %23 = getelementptr inbounds %"class.std::__cxx11::basic_string", ptr %22, i32 1
  store ptr %23, ptr %9, align 8
  br label %11, !llvm.loop !18

24:                                               ; preds = %11
  %25 = load ptr, ptr %9, align 8
  ret ptr %25
}

; Function Attrs: mustprogress noinline nounwind optnone uwtable
define linkonce_odr dso_local noundef ptr @_ZSt12__niter_baseIPNSt7__cxx1112basic_stringIcSt11char_traitsIcESaIcEEEET_S7_(ptr noundef %0) #8 comdat {
  %2 = alloca ptr, align 8
  store ptr %0, ptr %2, align 8
  %3 = load ptr, ptr %2, align 8
  ret ptr %3
}

; Function Attrs: mustprogress noinline nounwind optnone uwtable
define linkonce_odr dso_local void @_ZSt19__relocate_object_aINSt7__cxx1112basic_stringIcSt11char_traitsIcESaIcEEES5_SaIS5_EEvPT_PT0_RT1_(ptr noalias noundef %0, ptr noalias noundef %1, ptr noundef nonnull align 1 dereferenceable(1) %2) #8 comdat {
  %4 = alloca ptr, align 8
  %5 = alloca ptr, align 8
  %6 = alloca ptr, align 8
  store ptr %0, ptr %4, align 8
  store ptr %1, ptr %5, align 8
  store ptr %2, ptr %6, align 8
  %7 = load ptr, ptr %6, align 8
  %8 = load ptr, ptr %4, align 8
  %9 = load ptr, ptr %5, align 8
  call void @_ZNSt16allocator_traitsISaINSt7__cxx1112basic_stringIcSt11char_traitsIcESaIcEEEEE9constructIS5_JS5_EEEvRS6_PT_DpOT0_(ptr noundef nonnull align 1 dereferenceable(1) %7, ptr noundef %8, ptr noundef nonnull align 8 dereferenceable(32) %9) #3
  %10 = load ptr, ptr %6, align 8
  %11 = load ptr, ptr %5, align 8
  call void @_ZNSt16allocator_traitsISaINSt7__cxx1112basic_stringIcSt11char_traitsIcESaIcEEEEE7destroyIS5_EEvRS6_PT_(ptr noundef nonnull align 1 dereferenceable(1) %10, ptr noundef %11) #3
  ret void
}

; Function Attrs: mustprogress noinline nounwind optnone uwtable
define linkonce_odr dso_local void @_ZNSt16allocator_traitsISaINSt7__cxx1112basic_stringIcSt11char_traitsIcESaIcEEEEE7destroyIS5_EEvRS6_PT_(ptr noundef nonnull align 1 dereferenceable(1) %0, ptr noundef %1) #8 comdat align 2 {
  %3 = alloca ptr, align 8
  %4 = alloca ptr, align 8
  store ptr %0, ptr %3, align 8
  store ptr %1, ptr %4, align 8
  %5 = load ptr, ptr %3, align 8
  %6 = load ptr, ptr %4, align 8
  call void @_ZNSt15__new_allocatorINSt7__cxx1112basic_stringIcSt11char_traitsIcESaIcEEEE7destroyIS5_EEvPT_(ptr noundef nonnull align 1 dereferenceable(1) %5, ptr noundef %6) #3
  ret void
}

; Function Attrs: mustprogress noinline nounwind optnone uwtable
define linkonce_odr dso_local void @_ZNSt15__new_allocatorINSt7__cxx1112basic_stringIcSt11char_traitsIcESaIcEEEE7destroyIS5_EEvPT_(ptr noundef nonnull align 1 dereferenceable(1) %0, ptr noundef %1) #8 comdat align 2 {
  %3 = alloca ptr, align 8
  %4 = alloca ptr, align 8
  store ptr %0, ptr %3, align 8
  store ptr %1, ptr %4, align 8
  %5 = load ptr, ptr %3, align 8
  %6 = load ptr, ptr %4, align 8
  call void @_ZNSt7__cxx1112basic_stringIcSt11char_traitsIcESaIcEED1Ev(ptr noundef nonnull align 8 dereferenceable(32) %6) #3
  ret void
}

; Function Attrs: mustprogress noinline nounwind optnone uwtable
define linkonce_odr dso_local ptr @_ZNK9__gnu_cxx17__normal_iteratorIPNSt7__cxx1112basic_stringIcSt11char_traitsIcESaIcEEESt6vectorIS6_SaIS6_EEEmiEl(ptr noundef nonnull align 8 dereferenceable(8) %0, i64 noundef %1) #8 comdat align 2 {
  %3 = alloca %"class.__gnu_cxx::__normal_iterator.24", align 8
  %4 = alloca ptr, align 8
  %5 = alloca i64, align 8
  %6 = alloca ptr, align 8
  store ptr %0, ptr %4, align 8
  store i64 %1, ptr %5, align 8
  %7 = load ptr, ptr %4, align 8
  %8 = getelementptr inbounds %"class.__gnu_cxx::__normal_iterator.24", ptr %7, i32 0, i32 0
  %9 = load ptr, ptr %8, align 8
  %10 = load i64, ptr %5, align 8
  %11 = sub i64 0, %10
  %12 = getelementptr inbounds %"class.std::__cxx11::basic_string", ptr %9, i64 %11
  store ptr %12, ptr %6, align 8
  call void @_ZN9__gnu_cxx17__normal_iteratorIPNSt7__cxx1112basic_stringIcSt11char_traitsIcESaIcEEESt6vectorIS6_SaIS6_EEEC2ERKS7_(ptr noundef nonnull align 8 dereferenceable(8) %3, ptr noundef nonnull align 8 dereferenceable(8) %6) #3
  %13 = getelementptr inbounds %"class.__gnu_cxx::__normal_iterator.24", ptr %3, i32 0, i32 0
  %14 = load ptr, ptr %13, align 8
  ret ptr %14
}

; Function Attrs: mustprogress noinline nounwind optnone uwtable
define linkonce_odr dso_local noundef nonnull align 8 dereferenceable(32) ptr @_ZNK9__gnu_cxx17__normal_iteratorIPNSt7__cxx1112basic_stringIcSt11char_traitsIcESaIcEEESt6vectorIS6_SaIS6_EEEdeEv(ptr noundef nonnull align 8 dereferenceable(8) %0) #8 comdat align 2 {
  %2 = alloca ptr, align 8
  store ptr %0, ptr %2, align 8
  %3 = load ptr, ptr %2, align 8
  %4 = getelementptr inbounds %"class.__gnu_cxx::__normal_iterator.24", ptr %3, i32 0, i32 0
  %5 = load ptr, ptr %4, align 8
  ret ptr %5
}

; Function Attrs: mustprogress noinline optnone uwtable
define linkonce_odr dso_local void @_ZNSt16allocator_traitsISaINSt7__cxx1112basic_stringIcSt11char_traitsIcESaIcEEEEE9constructIS5_JRKS5_EEEvRS6_PT_DpOT0_(ptr noundef nonnull align 1 dereferenceable(1) %0, ptr noundef %1, ptr noundef nonnull align 8 dereferenceable(32) %2) #5 comdat align 2 {
  %4 = alloca ptr, align 8
  %5 = alloca ptr, align 8
  %6 = alloca ptr, align 8
  store ptr %0, ptr %4, align 8
  store ptr %1, ptr %5, align 8
  store ptr %2, ptr %6, align 8
  %7 = load ptr, ptr %4, align 8
  %8 = load ptr, ptr %5, align 8
  %9 = load ptr, ptr %6, align 8
  call void @_ZNSt15__new_allocatorINSt7__cxx1112basic_stringIcSt11char_traitsIcESaIcEEEE9constructIS5_JRKS5_EEEvPT_DpOT0_(ptr noundef nonnull align 1 dereferenceable(1) %7, ptr noundef %8, ptr noundef nonnull align 8 dereferenceable(32) %9)
  ret void
}

; Function Attrs: mustprogress noinline optnone uwtable
define linkonce_odr dso_local void @_ZNSt6vectorINSt7__cxx1112basic_stringIcSt11char_traitsIcESaIcEEESaIS5_EE17_M_realloc_insertIJRKS5_EEEvN9__gnu_cxx17__normal_iteratorIPS5_S7_EEDpOT_(ptr noundef nonnull align 8 dereferenceable(24) %0, ptr %1, ptr noundef nonnull align 8 dereferenceable(32) %2) #5 comdat align 2 personality ptr @__gxx_personality_v0 {
  %4 = alloca %"class.__gnu_cxx::__normal_iterator.24", align 8
  %5 = alloca ptr, align 8
  %6 = alloca ptr, align 8
  %7 = alloca i64, align 8
  %8 = alloca ptr, align 8
  %9 = alloca ptr, align 8
  %10 = alloca i64, align 8
  %11 = alloca %"class.__gnu_cxx::__normal_iterator.24", align 8
  %12 = alloca ptr, align 8
  %13 = alloca ptr, align 8
  %14 = alloca ptr, align 8
  %15 = alloca i32, align 4
  %16 = getelementptr inbounds %"class.__gnu_cxx::__normal_iterator.24", ptr %4, i32 0, i32 0
  store ptr %1, ptr %16, align 8
  store ptr %0, ptr %5, align 8
  store ptr %2, ptr %6, align 8
  %17 = load ptr, ptr %5, align 8
  %18 = call noundef i64 @_ZNKSt6vectorINSt7__cxx1112basic_stringIcSt11char_traitsIcESaIcEEESaIS5_EE12_M_check_lenEmPKc(ptr noundef nonnull align 8 dereferenceable(24) %17, i64 noundef 1, ptr noundef @.str.55)
  store i64 %18, ptr %7, align 8
  %19 = getelementptr inbounds %"struct.std::_Vector_base", ptr %17, i32 0, i32 0
  %20 = getelementptr inbounds %"struct.std::_Vector_base<std::__cxx11::basic_string<char>, std::allocator<std::__cxx11::basic_string<char>>>::_Vector_impl_data", ptr %19, i32 0, i32 0
  %21 = load ptr, ptr %20, align 8
  store ptr %21, ptr %8, align 8
  %22 = getelementptr inbounds %"struct.std::_Vector_base", ptr %17, i32 0, i32 0
  %23 = getelementptr inbounds %"struct.std::_Vector_base<std::__cxx11::basic_string<char>, std::allocator<std::__cxx11::basic_string<char>>>::_Vector_impl_data", ptr %22, i32 0, i32 1
  %24 = load ptr, ptr %23, align 8
  store ptr %24, ptr %9, align 8
  %25 = call ptr @_ZNSt6vectorINSt7__cxx1112basic_stringIcSt11char_traitsIcESaIcEEESaIS5_EE5beginEv(ptr noundef nonnull align 8 dereferenceable(24) %17) #3
  %26 = getelementptr inbounds %"class.__gnu_cxx::__normal_iterator.24", ptr %11, i32 0, i32 0
  store ptr %25, ptr %26, align 8
  %27 = call noundef i64 @_ZN9__gnu_cxxmiIPNSt7__cxx1112basic_stringIcSt11char_traitsIcESaIcEEESt6vectorIS6_SaIS6_EEEENS_17__normal_iteratorIT_T0_E15difference_typeERKSE_SH_(ptr noundef nonnull align 8 dereferenceable(8) %4, ptr noundef nonnull align 8 dereferenceable(8) %11) #3
  store i64 %27, ptr %10, align 8
  %28 = load i64, ptr %7, align 8
  %29 = call noundef ptr @_ZNSt12_Vector_baseINSt7__cxx1112basic_stringIcSt11char_traitsIcESaIcEEESaIS5_EE11_M_allocateEm(ptr noundef nonnull align 8 dereferenceable(24) %17, i64 noundef %28)
  store ptr %29, ptr %12, align 8
  %30 = load ptr, ptr %12, align 8
  store ptr %30, ptr %13, align 8
  %31 = getelementptr inbounds %"struct.std::_Vector_base", ptr %17, i32 0, i32 0
  %32 = load ptr, ptr %12, align 8
  %33 = load i64, ptr %10, align 8
  %34 = getelementptr inbounds %"class.std::__cxx11::basic_string", ptr %32, i64 %33
  %35 = load ptr, ptr %6, align 8
  invoke void @_ZNSt16allocator_traitsISaINSt7__cxx1112basic_stringIcSt11char_traitsIcESaIcEEEEE9constructIS5_JRKS5_EEEvRS6_PT_DpOT0_(ptr noundef nonnull align 1 dereferenceable(1) %31, ptr noundef %34, ptr noundef nonnull align 8 dereferenceable(32) %35)
          to label %36 unwind label %51

36:                                               ; preds = %3
  store ptr null, ptr %13, align 8
  %37 = load ptr, ptr %8, align 8
  %38 = call noundef nonnull align 8 dereferenceable(8) ptr @_ZNK9__gnu_cxx17__normal_iteratorIPNSt7__cxx1112basic_stringIcSt11char_traitsIcESaIcEEESt6vectorIS6_SaIS6_EEE4baseEv(ptr noundef nonnull align 8 dereferenceable(8) %4) #3
  %39 = load ptr, ptr %38, align 8
  %40 = load ptr, ptr %12, align 8
  %41 = call noundef nonnull align 1 dereferenceable(1) ptr @_ZNSt12_Vector_baseINSt7__cxx1112basic_stringIcSt11char_traitsIcESaIcEEESaIS5_EE19_M_get_Tp_allocatorEv(ptr noundef nonnull align 8 dereferenceable(24) %17) #3
  %42 = call noundef ptr @_ZNSt6vectorINSt7__cxx1112basic_stringIcSt11char_traitsIcESaIcEEESaIS5_EE11_S_relocateEPS5_S8_S8_RS6_(ptr noundef %37, ptr noundef %39, ptr noundef %40, ptr noundef nonnull align 1 dereferenceable(1) %41) #3
  store ptr %42, ptr %13, align 8
  %43 = load ptr, ptr %13, align 8
  %44 = getelementptr inbounds %"class.std::__cxx11::basic_string", ptr %43, i32 1
  store ptr %44, ptr %13, align 8
  %45 = call noundef nonnull align 8 dereferenceable(8) ptr @_ZNK9__gnu_cxx17__normal_iteratorIPNSt7__cxx1112basic_stringIcSt11char_traitsIcESaIcEEESt6vectorIS6_SaIS6_EEE4baseEv(ptr noundef nonnull align 8 dereferenceable(8) %4) #3
  %46 = load ptr, ptr %45, align 8
  %47 = load ptr, ptr %9, align 8
  %48 = load ptr, ptr %13, align 8
  %49 = call noundef nonnull align 1 dereferenceable(1) ptr @_ZNSt12_Vector_baseINSt7__cxx1112basic_stringIcSt11char_traitsIcESaIcEEESaIS5_EE19_M_get_Tp_allocatorEv(ptr noundef nonnull align 8 dereferenceable(24) %17) #3
  %50 = call noundef ptr @_ZNSt6vectorINSt7__cxx1112basic_stringIcSt11char_traitsIcESaIcEEESaIS5_EE11_S_relocateEPS5_S8_S8_RS6_(ptr noundef %46, ptr noundef %47, ptr noundef %48, ptr noundef nonnull align 1 dereferenceable(1) %49) #3
  store ptr %50, ptr %13, align 8
  br label %79

51:                                               ; preds = %3
  %52 = landingpad { ptr, i32 }
          catch ptr null
  %53 = extractvalue { ptr, i32 } %52, 0
  store ptr %53, ptr %14, align 8
  %54 = extractvalue { ptr, i32 } %52, 1
  store i32 %54, ptr %15, align 4
  br label %55

55:                                               ; preds = %51
  %56 = load ptr, ptr %14, align 8
  %57 = call ptr @__cxa_begin_catch(ptr %56) #3
  %58 = load ptr, ptr %13, align 8
  %59 = icmp ne ptr %58, null
  br i1 %59, label %65, label %60

60:                                               ; preds = %55
  %61 = getelementptr inbounds %"struct.std::_Vector_base", ptr %17, i32 0, i32 0
  %62 = load ptr, ptr %12, align 8
  %63 = load i64, ptr %10, align 8
  %64 = getelementptr inbounds %"class.std::__cxx11::basic_string", ptr %62, i64 %63
  call void @_ZNSt16allocator_traitsISaINSt7__cxx1112basic_stringIcSt11char_traitsIcESaIcEEEEE7destroyIS5_EEvRS6_PT_(ptr noundef nonnull align 1 dereferenceable(1) %61, ptr noundef %64) #3
  br label %74

65:                                               ; preds = %55
  %66 = load ptr, ptr %12, align 8
  %67 = load ptr, ptr %13, align 8
  %68 = call noundef nonnull align 1 dereferenceable(1) ptr @_ZNSt12_Vector_baseINSt7__cxx1112basic_stringIcSt11char_traitsIcESaIcEEESaIS5_EE19_M_get_Tp_allocatorEv(ptr noundef nonnull align 8 dereferenceable(24) %17) #3
  invoke void @_ZSt8_DestroyIPNSt7__cxx1112basic_stringIcSt11char_traitsIcESaIcEEES5_EvT_S7_RSaIT0_E(ptr noundef %66, ptr noundef %67, ptr noundef nonnull align 1 dereferenceable(1) %68)
          to label %69 unwind label %70

69:                                               ; preds = %65
  br label %74

70:                                               ; preds = %77, %74, %65
  %71 = landingpad { ptr, i32 }
          cleanup
  %72 = extractvalue { ptr, i32 } %71, 0
  store ptr %72, ptr %14, align 8
  %73 = extractvalue { ptr, i32 } %71, 1
  store i32 %73, ptr %15, align 4
  invoke void @__cxa_end_catch()
          to label %78 unwind label %105

74:                                               ; preds = %69, %60
  %75 = load ptr, ptr %12, align 8
  %76 = load i64, ptr %7, align 8
  invoke void @_ZNSt12_Vector_baseINSt7__cxx1112basic_stringIcSt11char_traitsIcESaIcEEESaIS5_EE13_M_deallocateEPS5_m(ptr noundef nonnull align 8 dereferenceable(24) %17, ptr noundef %75, i64 noundef %76)
          to label %77 unwind label %70

77:                                               ; preds = %74
  invoke void @__cxa_rethrow() #26
          to label %108 unwind label %70

78:                                               ; preds = %70
  br label %100

79:                                               ; preds = %36
  %80 = load ptr, ptr %8, align 8
  %81 = getelementptr inbounds %"struct.std::_Vector_base", ptr %17, i32 0, i32 0
  %82 = getelementptr inbounds %"struct.std::_Vector_base<std::__cxx11::basic_string<char>, std::allocator<std::__cxx11::basic_string<char>>>::_Vector_impl_data", ptr %81, i32 0, i32 2
  %83 = load ptr, ptr %82, align 8
  %84 = load ptr, ptr %8, align 8
  %85 = ptrtoint ptr %83 to i64
  %86 = ptrtoint ptr %84 to i64
  %87 = sub i64 %85, %86
  %88 = sdiv exact i64 %87, 32
  call void @_ZNSt12_Vector_baseINSt7__cxx1112basic_stringIcSt11char_traitsIcESaIcEEESaIS5_EE13_M_deallocateEPS5_m(ptr noundef nonnull align 8 dereferenceable(24) %17, ptr noundef %80, i64 noundef %88)
  %89 = load ptr, ptr %12, align 8
  %90 = getelementptr inbounds %"struct.std::_Vector_base", ptr %17, i32 0, i32 0
  %91 = getelementptr inbounds %"struct.std::_Vector_base<std::__cxx11::basic_string<char>, std::allocator<std::__cxx11::basic_string<char>>>::_Vector_impl_data", ptr %90, i32 0, i32 0
  store ptr %89, ptr %91, align 8
  %92 = load ptr, ptr %13, align 8
  %93 = getelementptr inbounds %"struct.std::_Vector_base", ptr %17, i32 0, i32 0
  %94 = getelementptr inbounds %"struct.std::_Vector_base<std::__cxx11::basic_string<char>, std::allocator<std::__cxx11::basic_string<char>>>::_Vector_impl_data", ptr %93, i32 0, i32 1
  store ptr %92, ptr %94, align 8
  %95 = load ptr, ptr %12, align 8
  %96 = load i64, ptr %7, align 8
  %97 = getelementptr inbounds %"class.std::__cxx11::basic_string", ptr %95, i64 %96
  %98 = getelementptr inbounds %"struct.std::_Vector_base", ptr %17, i32 0, i32 0
  %99 = getelementptr inbounds %"struct.std::_Vector_base<std::__cxx11::basic_string<char>, std::allocator<std::__cxx11::basic_string<char>>>::_Vector_impl_data", ptr %98, i32 0, i32 2
  store ptr %97, ptr %99, align 8
  ret void

100:                                              ; preds = %78
  %101 = load ptr, ptr %14, align 8
  %102 = load i32, ptr %15, align 4
  %103 = insertvalue { ptr, i32 } undef, ptr %101, 0
  %104 = insertvalue { ptr, i32 } %103, i32 %102, 1
  resume { ptr, i32 } %104

105:                                              ; preds = %70
  %106 = landingpad { ptr, i32 }
          catch ptr null
  %107 = extractvalue { ptr, i32 } %106, 0
  call void @__clang_call_terminate(ptr %107) #24
  unreachable

108:                                              ; preds = %77
  unreachable
}

; Function Attrs: mustprogress noinline optnone uwtable
define linkonce_odr dso_local void @_ZNSt15__new_allocatorINSt7__cxx1112basic_stringIcSt11char_traitsIcESaIcEEEE9constructIS5_JRKS5_EEEvPT_DpOT0_(ptr noundef nonnull align 1 dereferenceable(1) %0, ptr noundef %1, ptr noundef nonnull align 8 dereferenceable(32) %2) #5 comdat align 2 {
  %4 = alloca ptr, align 8
  %5 = alloca ptr, align 8
  %6 = alloca ptr, align 8
  store ptr %0, ptr %4, align 8
  store ptr %1, ptr %5, align 8
  store ptr %2, ptr %6, align 8
  %7 = load ptr, ptr %4, align 8
  %8 = load ptr, ptr %5, align 8
  %9 = load ptr, ptr %6, align 8
  call void @_ZNSt7__cxx1112basic_stringIcSt11char_traitsIcESaIcEEC1ERKS4_(ptr noundef nonnull align 8 dereferenceable(32) %8, ptr noundef nonnull align 8 dereferenceable(32) %9)
  ret void
}

declare void @_ZNSt7__cxx1112basic_stringIcSt11char_traitsIcESaIcEEC1ERKS4_(ptr noundef nonnull align 8 dereferenceable(32), ptr noundef nonnull align 8 dereferenceable(32)) unnamed_addr #1

declare void @__cxa_rethrow()

declare void @__cxa_end_catch()

; Function Attrs: mustprogress noinline optnone uwtable
define linkonce_odr dso_local noundef i32 @_ZN5Eigen8internal15random_int_implIiLb1ELb1EE3runERKiS4_(ptr noundef nonnull align 4 dereferenceable(4) %0, ptr noundef nonnull align 4 dereferenceable(4) %1) #5 comdat align 2 {
  %3 = alloca i32, align 4
  %4 = alloca ptr, align 8
  %5 = alloca ptr, align 8
  %6 = alloca i32, align 4
  %7 = alloca i32, align 4
  %8 = alloca i32, align 4
  %9 = alloca i32, align 4
  store ptr %0, ptr %4, align 8
  store ptr %1, ptr %5, align 8
  %10 = load ptr, ptr %5, align 8
  %11 = load i32, ptr %10, align 4
  %12 = load ptr, ptr %4, align 8
  %13 = load i32, ptr %12, align 4
  %14 = icmp sle i32 %11, %13
  br i1 %14, label %15, label %18

15:                                               ; preds = %2
  %16 = load ptr, ptr %4, align 8
  %17 = load i32, ptr %16, align 4
  store i32 %17, ptr %3, align 4
  br label %30

18:                                               ; preds = %2
  %19 = load ptr, ptr %5, align 8
  %20 = load i32, ptr %19, align 4
  %21 = load ptr, ptr %4, align 8
  %22 = load i32, ptr %21, align 4
  %23 = sub i32 %20, %22
  store i32 %23, ptr %6, align 4
  store i32 0, ptr %8, align 4
  %24 = call noundef i32 @_ZN5Eigen8internal15random_int_implIjLb0ELb1EE3runERKjS4_(ptr noundef nonnull align 4 dereferenceable(4) %8, ptr noundef nonnull align 4 dereferenceable(4) %6)
  store i32 %24, ptr %7, align 4
  %25 = load ptr, ptr %4, align 8
  %26 = load i32, ptr %25, align 4
  %27 = load i32, ptr %7, align 4
  %28 = add i32 %26, %27
  store i32 %28, ptr %9, align 4
  %29 = load i32, ptr %9, align 4
  store i32 %29, ptr %3, align 4
  br label %30

30:                                               ; preds = %18, %15
  %31 = load i32, ptr %3, align 4
  ret i32 %31
}

; Function Attrs: mustprogress noinline optnone uwtable
define linkonce_odr dso_local noundef i32 @_ZN5Eigen8internal15random_int_implIjLb0ELb1EE3runERKjS4_(ptr noundef nonnull align 4 dereferenceable(4) %0, ptr noundef nonnull align 4 dereferenceable(4) %1) #5 comdat align 2 {
  %3 = alloca i32, align 4
  %4 = alloca ptr, align 8
  %5 = alloca ptr, align 8
  %6 = alloca i32, align 4
  %7 = alloca i32, align 4
  %8 = alloca i32, align 4
  %9 = alloca i32, align 4
  %10 = alloca i32, align 4
  store ptr %0, ptr %4, align 8
  store ptr %1, ptr %5, align 8
  %11 = load ptr, ptr %5, align 8
  %12 = load i32, ptr %11, align 4
  %13 = load ptr, ptr %4, align 8
  %14 = load i32, ptr %13, align 4
  %15 = icmp ule i32 %12, %14
  br i1 %15, label %16, label %19

16:                                               ; preds = %2
  %17 = load ptr, ptr %4, align 8
  %18 = load i32, ptr %17, align 4
  store i32 %18, ptr %3, align 4
  br label %47

19:                                               ; preds = %2
  %20 = load ptr, ptr %5, align 8
  %21 = load i32, ptr %20, align 4
  %22 = load ptr, ptr %4, align 8
  %23 = load i32, ptr %22, align 4
  %24 = sub i32 %21, %23
  store i32 %24, ptr %6, align 4
  %25 = load i32, ptr %6, align 4
  %26 = call noundef i32 @_ZN5Eigen16GenericNumTraitsIjE7highestEv()
  %27 = icmp eq i32 %25, %26
  br i1 %27, label %28, label %30

28:                                               ; preds = %19
  %29 = call noundef i32 @_ZN5Eigen8internal15random_int_implIjLb0ELb1EE3runEv()
  store i32 %29, ptr %3, align 4
  br label %47

30:                                               ; preds = %19
  %31 = load i32, ptr %6, align 4
  %32 = add i32 %31, 1
  store i32 %32, ptr %7, align 4
  %33 = call noundef i32 @_ZN5Eigen8internal9log2_ceilIjEEiRKT_(ptr noundef nonnull align 4 dereferenceable(4) %7)
  store i32 %33, ptr %8, align 4
  br label %34

34:                                               ; preds = %37, %30
  %35 = load i32, ptr %8, align 4
  %36 = call noundef i32 @_ZN5Eigen8internal13getRandomBitsIjEET_i(i32 noundef %35)
  store i32 %36, ptr %9, align 4
  br label %37

37:                                               ; preds = %34
  %38 = load i32, ptr %9, align 4
  %39 = load i32, ptr %7, align 4
  %40 = icmp uge i32 %38, %39
  br i1 %40, label %34, label %41, !llvm.loop !19

41:                                               ; preds = %37
  %42 = load ptr, ptr %4, align 8
  %43 = load i32, ptr %42, align 4
  %44 = load i32, ptr %9, align 4
  %45 = add i32 %43, %44
  store i32 %45, ptr %10, align 4
  %46 = load i32, ptr %10, align 4
  store i32 %46, ptr %3, align 4
  br label %47

47:                                               ; preds = %41, %28, %16
  %48 = load i32, ptr %3, align 4
  ret i32 %48
}

; Function Attrs: mustprogress noinline nounwind optnone uwtable
define linkonce_odr dso_local noundef i32 @_ZN5Eigen16GenericNumTraitsIjE7highestEv() #8 comdat align 2 {
  %1 = call noundef i32 @_ZNSt14numeric_limitsIjE3maxEv() #3
  ret i32 %1
}

; Function Attrs: mustprogress noinline optnone uwtable
define linkonce_odr dso_local noundef i32 @_ZN5Eigen8internal15random_int_implIjLb0ELb1EE3runEv() #5 comdat align 2 {
  %1 = call noundef i32 @_ZN5Eigen8internal13getRandomBitsIjEET_i(i32 noundef 32)
  ret i32 %1
}

; Function Attrs: mustprogress noinline optnone uwtable
define linkonce_odr dso_local noundef i32 @_ZN5Eigen8internal9log2_ceilIjEEiRKT_(ptr noundef nonnull align 4 dereferenceable(4) %0) #5 comdat {
  %2 = alloca ptr, align 8
  store ptr %0, ptr %2, align 8
  %3 = load ptr, ptr %2, align 8
  %4 = call noundef i32 @_ZN5Eigen8internal10log_2_implIjE8run_ceilERKj(ptr noundef nonnull align 4 dereferenceable(4) %3)
  ret i32 %4
}

; Function Attrs: mustprogress noinline optnone uwtable
define linkonce_odr dso_local noundef i32 @_ZN5Eigen8internal13getRandomBitsIjEET_i(i32 noundef %0) #5 comdat {
  %2 = alloca i32, align 4
  store i32 %0, ptr %2, align 4
  %3 = load i32, ptr %2, align 4
  %4 = call noundef i32 @_ZN5Eigen8internal16random_bits_implIjE3runEi(i32 noundef %3)
  ret i32 %4
}

; Function Attrs: mustprogress noinline nounwind optnone uwtable
define linkonce_odr dso_local noundef i32 @_ZNSt14numeric_limitsIjE3maxEv() #8 comdat align 2 {
  ret i32 -1
}

; Function Attrs: mustprogress noinline optnone uwtable
define linkonce_odr dso_local noundef i32 @_ZN5Eigen8internal10log_2_implIjE8run_ceilERKj(ptr noundef nonnull align 4 dereferenceable(4) %0) #5 comdat align 2 {
  %2 = alloca ptr, align 8
  %3 = alloca i32, align 4
  %4 = alloca i8, align 1
  store ptr %0, ptr %2, align 8
  %5 = load ptr, ptr %2, align 8
  %6 = load i32, ptr %5, align 4
  %7 = call noundef i32 @_ZN5Eigen8internal3clzIjEEiT_(i32 noundef %6)
  %8 = sub nsw i32 32, %7
  store i32 %8, ptr %3, align 4
  %9 = load ptr, ptr %2, align 8
  %10 = load i32, ptr %9, align 4
  %11 = load ptr, ptr %2, align 8
  %12 = load i32, ptr %11, align 4
  %13 = sub i32 %12, 1
  %14 = and i32 %10, %13
  %15 = icmp eq i32 %14, 0
  %16 = zext i1 %15 to i8
  store i8 %16, ptr %4, align 1
  %17 = load ptr, ptr %2, align 8
  %18 = load i32, ptr %17, align 4
  %19 = icmp eq i32 %18, 0
  br i1 %19, label %20, label %21

20:                                               ; preds = %1
  br label %31

21:                                               ; preds = %1
  %22 = load i8, ptr %4, align 1
  %23 = trunc i8 %22 to i1
  br i1 %23, label %24, label %27

24:                                               ; preds = %21
  %25 = load i32, ptr %3, align 4
  %26 = sub nsw i32 %25, 1
  br label %29

27:                                               ; preds = %21
  %28 = load i32, ptr %3, align 4
  br label %29

29:                                               ; preds = %27, %24
  %30 = phi i32 [ %26, %24 ], [ %28, %27 ]
  br label %31

31:                                               ; preds = %29, %20
  %32 = phi i32 [ 0, %20 ], [ %30, %29 ]
  ret i32 %32
}

; Function Attrs: mustprogress noinline optnone uwtable
define linkonce_odr dso_local noundef i32 @_ZN5Eigen8internal3clzIjEEiT_(i32 noundef %0) #5 comdat {
  %2 = alloca i32, align 4
  store i32 %0, ptr %2, align 4
  %3 = load i32, ptr %2, align 4
  %4 = call noundef i32 @_ZN5Eigen8internal15count_bits_implIjvE3clzEj(i32 noundef %3)
  ret i32 %4
}

; Function Attrs: mustprogress noinline nounwind optnone uwtable
define linkonce_odr dso_local noundef i32 @_ZN5Eigen8internal15count_bits_implIjvE3clzEj(i32 noundef %0) #8 comdat align 2 {
  %2 = alloca i32, align 4
  store i32 %0, ptr %2, align 4
  %3 = load i32, ptr %2, align 4
  %4 = icmp eq i32 %3, 0
  br i1 %4, label %5, label %6

5:                                                ; preds = %1
  br label %10

6:                                                ; preds = %1
  %7 = load i32, ptr %2, align 4
  %8 = call i32 @llvm.ctlz.i32(i32 %7, i1 true)
  %9 = sub nsw i32 %8, 0
  br label %10

10:                                               ; preds = %6, %5
  %11 = phi i32 [ 32, %5 ], [ %9, %6 ]
  ret i32 %11
}

; Function Attrs: nocallback nofree nosync nounwind readnone speculatable willreturn
declare i32 @llvm.ctlz.i32(i32, i1 immarg) #19

; Function Attrs: mustprogress noinline optnone uwtable
define linkonce_odr dso_local noundef i32 @_ZN5Eigen8internal16random_bits_implIjE3runEi(i32 noundef %0) #5 comdat align 2 personality ptr @__gxx_personality_v0 {
  %2 = alloca i32, align 4
  %3 = alloca ptr, align 8
  %4 = alloca i32, align 4
  %5 = alloca i32, align 4
  %6 = alloca i32, align 4
  %7 = alloca i32, align 4
  %8 = alloca i32, align 4
  store i32 %0, ptr %2, align 4
  %9 = load i32, ptr %2, align 4
  %10 = icmp sge i32 %9, 0
  br i1 %10, label %11, label %14

11:                                               ; preds = %1
  %12 = load i32, ptr %2, align 4
  %13 = icmp sle i32 %12, 32
  br i1 %13, label %40, label %14

14:                                               ; preds = %11, %1
  %15 = load i8, ptr @_ZN5EigenL14no_more_assertE, align 1
  %16 = trunc i8 %15 to i1
  br i1 %16, label %40, label %17

17:                                               ; preds = %14
  store i8 1, ptr @_ZN5EigenL14no_more_assertE, align 1
  %18 = load i8, ptr @_ZN5EigenL32report_on_cerr_on_assert_failureE, align 1
  %19 = trunc i8 %18 to i1
  br i1 %19, label %20, label %32

20:                                               ; preds = %17
  %21 = load i32, ptr %2, align 4
  %22 = icmp sge i32 %21, 0
  br i1 %22, label %23, label %26

23:                                               ; preds = %20
  %24 = load i32, ptr %2, align 4
  %25 = icmp sle i32 %24, 32
  br label %26

26:                                               ; preds = %23, %20
  %27 = phi i1 [ false, %20 ], [ %25, %23 ]
  br i1 %27, label %28, label %29

28:                                               ; preds = %26
  br label %31

29:                                               ; preds = %26
  call void @__assert_fail(ptr noundef @.str.56, ptr noundef @.str.57, i32 noundef 63, ptr noundef @__PRETTY_FUNCTION__._ZN5Eigen8internal16random_bits_implIjE3runEi) #24
  unreachable

30:                                               ; No predecessors!
  br label %31

31:                                               ; preds = %30, %28
  br label %39

32:                                               ; preds = %17
  %33 = call ptr @__cxa_allocate_exception(i64 1) #3
  invoke void @_ZN5Eigen22eigen_assert_exceptionC2Ev(ptr noundef nonnull align 1 dereferenceable(1) %33)
          to label %34 unwind label %35

34:                                               ; preds = %32
  call void @__cxa_throw(ptr %33, ptr @_ZTIN5Eigen22eigen_assert_exceptionE, ptr @_ZN5Eigen22eigen_assert_exceptionD2Ev) #26
  unreachable

35:                                               ; preds = %32
  %36 = landingpad { ptr, i32 }
          cleanup
  %37 = extractvalue { ptr, i32 } %36, 0
  store ptr %37, ptr %3, align 8
  %38 = extractvalue { ptr, i32 } %36, 1
  store i32 %38, ptr %4, align 4
  call void @__cxa_free_exception(ptr %33) #3
  br label %64

39:                                               ; preds = %31
  br label %40

40:                                               ; preds = %39, %14, %11
  %41 = load i32, ptr %2, align 4
  %42 = sub nsw i32 32, %41
  %43 = and i32 %42, 31
  %44 = lshr i32 -1, %43
  store i32 %44, ptr %5, align 4
  store i32 0, ptr %6, align 4
  store i32 0, ptr %7, align 4
  br label %45

45:                                               ; preds = %56, %40
  %46 = load i32, ptr %7, align 4
  %47 = load i32, ptr %2, align 4
  %48 = icmp slt i32 %46, %47
  br i1 %48, label %49, label %59

49:                                               ; preds = %45
  %50 = call noundef i32 @_ZN5Eigen8internal19eigen_random_device3runEv()
  store i32 %50, ptr %8, align 4
  %51 = load i32, ptr %8, align 4
  %52 = load i32, ptr %7, align 4
  %53 = shl i32 %51, %52
  %54 = load i32, ptr %6, align 4
  %55 = or i32 %54, %53
  store i32 %55, ptr %6, align 4
  br label %56

56:                                               ; preds = %49
  %57 = load i32, ptr %7, align 4
  %58 = add nsw i32 %57, 31
  store i32 %58, ptr %7, align 4
  br label %45, !llvm.loop !20

59:                                               ; preds = %45
  %60 = load i32, ptr %5, align 4
  %61 = load i32, ptr %6, align 4
  %62 = and i32 %61, %60
  store i32 %62, ptr %6, align 4
  %63 = load i32, ptr %6, align 4
  ret i32 %63

64:                                               ; preds = %35
  %65 = load ptr, ptr %3, align 8
  %66 = load i32, ptr %4, align 4
  %67 = insertvalue { ptr, i32 } undef, ptr %65, 0
  %68 = insertvalue { ptr, i32 } %67, i32 %66, 1
  resume { ptr, i32 } %68
}

; Function Attrs: mustprogress noinline nounwind optnone uwtable
define linkonce_odr dso_local noundef i32 @_ZN5Eigen8internal19eigen_random_device3runEv() #8 comdat align 2 {
  %1 = call i32 @rand() #3
  ret i32 %1
}

; Function Attrs: nounwind
declare i32 @rand() #2

; Function Attrs: noinline optnone uwtable
define linkonce_odr dso_local void @_ZN5Eigen15PlainObjectBaseINS_6MatrixIbLin1ELin1ELi0ELin1ELin1EEEEC2Ev(ptr noundef nonnull align 8 dereferenceable(24) %0) unnamed_addr #9 comdat align 2 {
  %2 = alloca ptr, align 8
  store ptr %0, ptr %2, align 8
  %3 = load ptr, ptr %2, align 8
  call void @_ZN5Eigen10MatrixBaseINS_6MatrixIbLin1ELin1ELi0ELin1ELin1EEEEC2Ev(ptr noundef nonnull align 1 dereferenceable(1) %3)
  %4 = getelementptr inbounds %"class.Eigen::PlainObjectBase", ptr %3, i32 0, i32 0
  call void @_ZN5Eigen12DenseStorageIbLin1ELin1ELin1ELi0ELb1EEC2Ev(ptr noundef nonnull align 8 dereferenceable(24) %4) #3
  ret void
}

; Function Attrs: mustprogress noinline optnone uwtable
define linkonce_odr dso_local void @_ZN5Eigen15PlainObjectBaseINS_6MatrixIbLin1ELin1ELi0ELin1ELin1EEEE6_init2IiiEEvllPNSt9enable_ifILb1ET_E4typeE(ptr noundef nonnull align 8 dereferenceable(24) %0, i64 noundef %1, i64 noundef %2, ptr noundef %3) #5 comdat align 2 {
  %5 = alloca ptr, align 8
  %6 = alloca i64, align 8
  %7 = alloca i64, align 8
  %8 = alloca ptr, align 8
  store ptr %0, ptr %5, align 8
  store i64 %1, ptr %6, align 8
  store i64 %2, ptr %7, align 8
  store ptr %3, ptr %8, align 8
  %9 = load ptr, ptr %5, align 8
  %10 = load i64, ptr %6, align 8
  %11 = load i64, ptr %7, align 8
  call void @_ZN5Eigen15PlainObjectBaseINS_6MatrixIbLin1ELin1ELi0ELin1ELin1EEEE6resizeEll(ptr noundef nonnull align 8 dereferenceable(24) %9, i64 noundef %10, i64 noundef %11)
  ret void
}

; Function Attrs: noinline optnone uwtable
define linkonce_odr dso_local void @_ZN5Eigen10MatrixBaseINS_6MatrixIbLin1ELin1ELi0ELin1ELin1EEEEC2Ev(ptr noundef nonnull align 1 dereferenceable(1) %0) unnamed_addr #9 comdat align 2 {
  %2 = alloca ptr, align 8
  store ptr %0, ptr %2, align 8
  %3 = load ptr, ptr %2, align 8
  call void @_ZN5Eigen9DenseBaseINS_6MatrixIbLin1ELin1ELi0ELin1ELin1EEEEC2Ev(ptr noundef nonnull align 1 dereferenceable(1) %3)
  ret void
}

; Function Attrs: noinline nounwind optnone uwtable
define linkonce_odr dso_local void @_ZN5Eigen12DenseStorageIbLin1ELin1ELin1ELi0ELb1EEC2Ev(ptr noundef nonnull align 8 dereferenceable(24) %0) unnamed_addr #4 comdat align 2 {
  %2 = alloca ptr, align 8
  store ptr %0, ptr %2, align 8
  %3 = load ptr, ptr %2, align 8
  call void @_ZN5Eigen8internal17DenseStorage_implIbLin1ELin1ELin1ELi0EEC2Ev(ptr noundef nonnull align 8 dereferenceable(24) %3) #3
  ret void
}

; Function Attrs: noinline nounwind optnone uwtable
define linkonce_odr dso_local void @_ZN5Eigen9DenseBaseINS_6MatrixIbLin1ELin1ELi0ELin1ELin1EEEEC2Ev(ptr noundef nonnull align 1 dereferenceable(1) %0) unnamed_addr #4 comdat align 2 {
  %2 = alloca ptr, align 8
  store ptr %0, ptr %2, align 8
  %3 = load ptr, ptr %2, align 8
  ret void
}

; Function Attrs: noinline nounwind optnone uwtable
define linkonce_odr dso_local void @_ZN5Eigen8internal17DenseStorage_implIbLin1ELin1ELin1ELi0EEC2Ev(ptr noundef nonnull align 8 dereferenceable(24) %0) unnamed_addr #4 comdat align 2 {
  %2 = alloca ptr, align 8
  store ptr %0, ptr %2, align 8
  %3 = load ptr, ptr %2, align 8
  %4 = getelementptr inbounds %"class.Eigen::internal::DenseStorage_impl", ptr %3, i32 0, i32 0
  store ptr null, ptr %4, align 8
  %5 = getelementptr inbounds %"class.Eigen::internal::DenseStorage_impl", ptr %3, i32 0, i32 1
  store i64 0, ptr %5, align 8
  %6 = getelementptr inbounds %"class.Eigen::internal::DenseStorage_impl", ptr %3, i32 0, i32 2
  store i64 0, ptr %6, align 8
  ret void
}

; Function Attrs: mustprogress noinline optnone uwtable
define linkonce_odr dso_local void @_ZN5Eigen15PlainObjectBaseINS_6MatrixIbLin1ELin1ELi0ELin1ELin1EEEE6resizeEll(ptr noundef nonnull align 8 dereferenceable(24) %0, i64 noundef %1, i64 noundef %2) #5 comdat align 2 personality ptr @__gxx_personality_v0 {
  %4 = alloca i64, align 8
  %5 = alloca i64, align 8
  %6 = alloca i64, align 8
  %7 = alloca i8, align 1
  %8 = alloca ptr, align 8
  %9 = alloca i64, align 8
  %10 = alloca i64, align 8
  %11 = alloca ptr, align 8
  %12 = alloca i32, align 4
  store ptr %0, ptr %8, align 8
  store i64 %1, ptr %9, align 8
  store i64 %2, ptr %10, align 8
  %13 = load ptr, ptr %8, align 8
  %14 = load i64, ptr %9, align 8
  %15 = icmp eq i64 %14, -1
  %16 = call noundef zeroext i1 @_ZN5Eigen8internal17check_implicationEbb(i1 noundef zeroext false, i1 noundef zeroext %15)
  br i1 %16, label %17, label %35

17:                                               ; preds = %3
  %18 = load i64, ptr %10, align 8
  %19 = icmp eq i64 %18, -1
  %20 = call noundef zeroext i1 @_ZN5Eigen8internal17check_implicationEbb(i1 noundef zeroext false, i1 noundef zeroext %19)
  br i1 %20, label %21, label %35

21:                                               ; preds = %17
  %22 = load i64, ptr %9, align 8
  %23 = icmp sle i64 %22, -1
  %24 = call noundef zeroext i1 @_ZN5Eigen8internal17check_implicationEbb(i1 noundef zeroext false, i1 noundef zeroext %23)
  br i1 %24, label %25, label %35

25:                                               ; preds = %21
  %26 = load i64, ptr %10, align 8
  %27 = icmp sle i64 %26, -1
  %28 = call noundef zeroext i1 @_ZN5Eigen8internal17check_implicationEbb(i1 noundef zeroext false, i1 noundef zeroext %27)
  br i1 %28, label %29, label %35

29:                                               ; preds = %25
  %30 = load i64, ptr %9, align 8
  %31 = icmp sge i64 %30, 0
  br i1 %31, label %32, label %35

32:                                               ; preds = %29
  %33 = load i64, ptr %10, align 8
  %34 = icmp sge i64 %33, 0
  br i1 %34, label %78, label %35

35:                                               ; preds = %32, %29, %25, %21, %17, %3
  %36 = load i8, ptr @_ZN5EigenL14no_more_assertE, align 1
  %37 = trunc i8 %36 to i1
  br i1 %37, label %78, label %38

38:                                               ; preds = %35
  store i8 1, ptr @_ZN5EigenL14no_more_assertE, align 1
  %39 = load i8, ptr @_ZN5EigenL32report_on_cerr_on_assert_failureE, align 1
  %40 = trunc i8 %39 to i1
  br i1 %40, label %41, label %70

41:                                               ; preds = %38
  %42 = load i64, ptr %9, align 8
  %43 = icmp eq i64 %42, -1
  %44 = call noundef zeroext i1 @_ZN5Eigen8internal17check_implicationEbb(i1 noundef zeroext false, i1 noundef zeroext %43)
  br i1 %44, label %45, label %64

45:                                               ; preds = %41
  %46 = load i64, ptr %10, align 8
  %47 = icmp eq i64 %46, -1
  %48 = call noundef zeroext i1 @_ZN5Eigen8internal17check_implicationEbb(i1 noundef zeroext false, i1 noundef zeroext %47)
  br i1 %48, label %49, label %64

49:                                               ; preds = %45
  %50 = load i64, ptr %9, align 8
  %51 = icmp sle i64 %50, -1
  %52 = call noundef zeroext i1 @_ZN5Eigen8internal17check_implicationEbb(i1 noundef zeroext false, i1 noundef zeroext %51)
  br i1 %52, label %53, label %64

53:                                               ; preds = %49
  %54 = load i64, ptr %10, align 8
  %55 = icmp sle i64 %54, -1
  %56 = call noundef zeroext i1 @_ZN5Eigen8internal17check_implicationEbb(i1 noundef zeroext false, i1 noundef zeroext %55)
  br i1 %56, label %57, label %64

57:                                               ; preds = %53
  %58 = load i64, ptr %9, align 8
  %59 = icmp sge i64 %58, 0
  br i1 %59, label %60, label %64

60:                                               ; preds = %57
  %61 = load i64, ptr %10, align 8
  %62 = icmp sge i64 %61, 0
  br i1 %62, label %63, label %64

63:                                               ; preds = %60
  br label %64

64:                                               ; preds = %63, %60, %57, %53, %49, %45, %41
  %65 = phi i1 [ false, %60 ], [ false, %57 ], [ false, %53 ], [ false, %49 ], [ false, %45 ], [ false, %41 ], [ true, %63 ]
  br i1 %65, label %66, label %67

66:                                               ; preds = %64
  br label %69

67:                                               ; preds = %64
  call void @__assert_fail(ptr noundef @.str.59, ptr noundef @.str.60, i32 noundef 301, ptr noundef @__PRETTY_FUNCTION__._ZN5Eigen15PlainObjectBaseINS_6MatrixIbLin1ELin1ELi0ELin1ELin1EEEE6resizeEll) #24
  unreachable

68:                                               ; No predecessors!
  br label %69

69:                                               ; preds = %68, %66
  br label %77

70:                                               ; preds = %38
  %71 = call ptr @__cxa_allocate_exception(i64 1) #3
  invoke void @_ZN5Eigen22eigen_assert_exceptionC2Ev(ptr noundef nonnull align 1 dereferenceable(1) %71)
          to label %72 unwind label %73

72:                                               ; preds = %70
  call void @__cxa_throw(ptr %71, ptr @_ZTIN5Eigen22eigen_assert_exceptionE, ptr @_ZN5Eigen22eigen_assert_exceptionD2Ev) #26
  unreachable

73:                                               ; preds = %70
  %74 = landingpad { ptr, i32 }
          cleanup
  %75 = extractvalue { ptr, i32 } %74, 0
  store ptr %75, ptr %11, align 8
  %76 = extractvalue { ptr, i32 } %74, 1
  store i32 %76, ptr %12, align 4
  call void @__cxa_free_exception(ptr %71) #3
  br label %102

77:                                               ; preds = %69
  br label %78

78:                                               ; preds = %77, %35, %32
  %79 = load i64, ptr %9, align 8
  %80 = load i64, ptr %10, align 8
  store i64 %79, ptr %4, align 8
  store i64 %80, ptr %5, align 8
  store i64 9223372036854775807, ptr %6, align 8
  %81 = load i64, ptr %5, align 8
  %82 = icmp eq i64 %81, 0
  br i1 %82, label %83, label %84

83:                                               ; preds = %78
  br label %89

84:                                               ; preds = %78
  %85 = load i64, ptr %4, align 8
  %86 = load i64, ptr %5, align 8
  %87 = sdiv i64 9223372036854775807, %86
  %88 = icmp sgt i64 %85, %87
  br label %89

89:                                               ; preds = %84, %83
  %90 = phi i1 [ false, %83 ], [ %88, %84 ]
  %91 = zext i1 %90 to i8
  store i8 %91, ptr %7, align 1
  %92 = load i8, ptr %7, align 1
  %93 = trunc i8 %92 to i1
  br i1 %93, label %94, label %95

94:                                               ; preds = %89
  call void @_ZN5Eigen8internal19throw_std_bad_allocEv()
  br label %95

95:                                               ; preds = %89, %94
  %96 = getelementptr inbounds %"class.Eigen::PlainObjectBase", ptr %13, i32 0, i32 0
  %97 = load i64, ptr %9, align 8
  %98 = load i64, ptr %10, align 8
  %99 = mul nsw i64 %97, %98
  %100 = load i64, ptr %9, align 8
  %101 = load i64, ptr %10, align 8
  call void @_ZN5Eigen8internal17DenseStorage_implIbLin1ELin1ELin1ELi0EE6resizeElll(ptr noundef nonnull align 8 dereferenceable(24) %96, i64 noundef %99, i64 noundef %100, i64 noundef %101)
  ret void

102:                                              ; preds = %73
  %103 = load ptr, ptr %11, align 8
  %104 = load i32, ptr %12, align 4
  %105 = insertvalue { ptr, i32 } undef, ptr %103, 0
  %106 = insertvalue { ptr, i32 } %105, i32 %104, 1
  resume { ptr, i32 } %106
}

; Function Attrs: mustprogress noinline nounwind optnone uwtable
define linkonce_odr dso_local noundef zeroext i1 @_ZN5Eigen8internal17check_implicationEbb(i1 noundef zeroext %0, i1 noundef zeroext %1) #8 comdat {
  %3 = alloca i8, align 1
  %4 = alloca i8, align 1
  %5 = zext i1 %0 to i8
  store i8 %5, ptr %3, align 1
  %6 = zext i1 %1 to i8
  store i8 %6, ptr %4, align 1
  %7 = load i8, ptr %3, align 1
  %8 = trunc i8 %7 to i1
  br i1 %8, label %9, label %12

9:                                                ; preds = %2
  %10 = load i8, ptr %4, align 1
  %11 = trunc i8 %10 to i1
  br label %12

12:                                               ; preds = %9, %2
  %13 = phi i1 [ true, %2 ], [ %11, %9 ]
  ret i1 %13
}

; Function Attrs: mustprogress noinline optnone uwtable
define linkonce_odr dso_local void @_ZN5Eigen8internal17DenseStorage_implIbLin1ELin1ELin1ELi0EE6resizeElll(ptr noundef nonnull align 8 dereferenceable(24) %0, i64 noundef %1, i64 noundef %2, i64 noundef %3) #5 comdat align 2 {
  %5 = alloca ptr, align 8
  %6 = alloca i64, align 8
  %7 = alloca i64, align 8
  %8 = alloca i64, align 8
  %9 = alloca i64, align 8
  store ptr %0, ptr %5, align 8
  store i64 %1, ptr %6, align 8
  store i64 %2, ptr %7, align 8
  store i64 %3, ptr %8, align 8
  %10 = load ptr, ptr %5, align 8
  %11 = call noundef i64 @_ZNK5Eigen8internal17DenseStorage_implIbLin1ELin1ELin1ELi0EE4sizeEv(ptr noundef nonnull align 8 dereferenceable(24) %10)
  store i64 %11, ptr %9, align 8
  %12 = load i64, ptr %9, align 8
  %13 = load i64, ptr %6, align 8
  %14 = icmp ne i64 %12, %13
  br i1 %14, label %15, label %22

15:                                               ; preds = %4
  %16 = getelementptr inbounds %"class.Eigen::internal::DenseStorage_impl", ptr %10, i32 0, i32 0
  %17 = load ptr, ptr %16, align 8
  %18 = load i64, ptr %9, align 8
  call void @_ZN5Eigen8internal31conditional_aligned_delete_autoIbLb1EEEvPT_m(ptr noundef %17, i64 noundef %18)
  %19 = load i64, ptr %6, align 8
  %20 = call noundef ptr @_ZN5Eigen8internal28conditional_aligned_new_autoIbLb1EEEPT_m(i64 noundef %19)
  %21 = getelementptr inbounds %"class.Eigen::internal::DenseStorage_impl", ptr %10, i32 0, i32 0
  store ptr %20, ptr %21, align 8
  br label %22

22:                                               ; preds = %15, %4
  %23 = load i64, ptr %7, align 8
  %24 = getelementptr inbounds %"class.Eigen::internal::DenseStorage_impl", ptr %10, i32 0, i32 1
  store i64 %23, ptr %24, align 8
  %25 = load i64, ptr %8, align 8
  %26 = getelementptr inbounds %"class.Eigen::internal::DenseStorage_impl", ptr %10, i32 0, i32 2
  store i64 %25, ptr %26, align 8
  ret void
}

; Function Attrs: mustprogress noinline optnone uwtable
define linkonce_odr dso_local void @_ZN5Eigen9DenseBaseINS_6MatrixIbLin1ELin1ELi0ELin1ELin1EEEE6RandomEll(ptr noalias sret(%"class.Eigen::CwiseNullaryOp") align 8 %0, i64 noundef %1, i64 noundef %2) #5 comdat align 2 {
  %4 = alloca i64, align 8
  %5 = alloca i64, align 8
  %6 = alloca %"struct.Eigen::internal::scalar_random_op", align 1
  store i64 %1, ptr %4, align 8
  store i64 %2, ptr %5, align 8
  %7 = load i64, ptr %4, align 8
  %8 = load i64, ptr %5, align 8
  call void @_ZN5Eigen9DenseBaseINS_6MatrixIbLin1ELin1ELi0ELin1ELin1EEEE11NullaryExprINS_8internal16scalar_random_opIbEEEEKNS_14CwiseNullaryOpIT_S2_EEllRKS9_(ptr sret(%"class.Eigen::CwiseNullaryOp") align 8 %0, i64 noundef %7, i64 noundef %8, ptr noundef nonnull align 1 dereferenceable(1) %6)
  ret void
}

; Function Attrs: mustprogress noinline optnone uwtable
define linkonce_odr dso_local noundef nonnull align 8 dereferenceable(24) ptr @_ZN5Eigen9DenseBaseINS_6MatrixIbLin1ELin1ELi0ELin1ELin1EEEEaSINS_14CwiseNullaryOpINS_8internal16scalar_random_opIbEES2_EEEERS2_RKNS0_IT_EE(ptr noundef nonnull align 1 dereferenceable(1) %0, ptr noundef nonnull align 1 dereferenceable(1) %1) #5 comdat align 2 {
  %3 = alloca ptr, align 8
  %4 = alloca ptr, align 8
  store ptr %0, ptr %3, align 8
  store ptr %1, ptr %4, align 8
  %5 = load ptr, ptr %3, align 8
  %6 = call noundef nonnull align 8 dereferenceable(24) ptr @_ZN5Eigen9EigenBaseINS_6MatrixIbLin1ELin1ELi0ELin1ELin1EEEE7derivedEv(ptr noundef nonnull align 1 dereferenceable(1) %5)
  %7 = load ptr, ptr %4, align 8
  %8 = call noundef nonnull align 8 dereferenceable(17) ptr @_ZNK5Eigen9EigenBaseINS_14CwiseNullaryOpINS_8internal16scalar_random_opIbEENS_6MatrixIbLin1ELin1ELi0ELin1ELin1EEEEEE7derivedEv(ptr noundef nonnull align 1 dereferenceable(1) %7)
  call void @_ZN5Eigen8internal15call_assignmentINS_6MatrixIbLin1ELin1ELi0ELin1ELin1EEENS_14CwiseNullaryOpINS0_16scalar_random_opIbEES3_EEEEvRT_RKT0_(ptr noundef nonnull align 8 dereferenceable(24) %6, ptr noundef nonnull align 8 dereferenceable(17) %8)
  %9 = call noundef nonnull align 8 dereferenceable(24) ptr @_ZN5Eigen9EigenBaseINS_6MatrixIbLin1ELin1ELi0ELin1ELin1EEEE7derivedEv(ptr noundef nonnull align 1 dereferenceable(1) %5)
  ret ptr %9
}

; Function Attrs: mustprogress noinline optnone uwtable
define linkonce_odr dso_local void @_ZN5Eigen9DenseBaseINS_6MatrixIbLin1ELin1ELi0ELin1ELin1EEEE11NullaryExprINS_8internal16scalar_random_opIbEEEEKNS_14CwiseNullaryOpIT_S2_EEllRKS9_(ptr noalias sret(%"class.Eigen::CwiseNullaryOp") align 8 %0, i64 noundef %1, i64 noundef %2, ptr noundef nonnull align 1 dereferenceable(1) %3) #5 comdat align 2 {
  %5 = alloca i64, align 8
  %6 = alloca i64, align 8
  %7 = alloca ptr, align 8
  store i64 %1, ptr %5, align 8
  store i64 %2, ptr %6, align 8
  store ptr %3, ptr %7, align 8
  %8 = load i64, ptr %5, align 8
  %9 = load i64, ptr %6, align 8
  %10 = load ptr, ptr %7, align 8
  call void @_ZN5Eigen14CwiseNullaryOpINS_8internal16scalar_random_opIbEENS_6MatrixIbLin1ELin1ELi0ELin1ELin1EEEEC2EllRKS3_(ptr noundef nonnull align 8 dereferenceable(17) %0, i64 noundef %8, i64 noundef %9, ptr noundef nonnull align 1 dereferenceable(1) %10)
  ret void
}

; Function Attrs: noinline optnone uwtable
define linkonce_odr dso_local void @_ZN5Eigen14CwiseNullaryOpINS_8internal16scalar_random_opIbEENS_6MatrixIbLin1ELin1ELi0ELin1ELin1EEEEC2EllRKS3_(ptr noundef nonnull align 8 dereferenceable(17) %0, i64 noundef %1, i64 noundef %2, ptr noundef nonnull align 1 dereferenceable(1) %3) unnamed_addr #9 comdat align 2 personality ptr @__gxx_personality_v0 {
  %5 = alloca ptr, align 8
  %6 = alloca i64, align 8
  %7 = alloca i64, align 8
  %8 = alloca ptr, align 8
  %9 = alloca ptr, align 8
  %10 = alloca i32, align 4
  store ptr %0, ptr %5, align 8
  store i64 %1, ptr %6, align 8
  store i64 %2, ptr %7, align 8
  store ptr %3, ptr %8, align 8
  %11 = load ptr, ptr %5, align 8
  call void @_ZN5Eigen10MatrixBaseINS_14CwiseNullaryOpINS_8internal16scalar_random_opIbEENS_6MatrixIbLin1ELin1ELi0ELin1ELin1EEEEEEC2Ev(ptr noundef nonnull align 1 dereferenceable(1) %11)
  %12 = getelementptr inbounds %"class.Eigen::CwiseNullaryOp", ptr %11, i32 0, i32 0
  %13 = load i64, ptr %6, align 8
  call void @_ZN5Eigen8internal19variable_if_dynamicIlLin1EEC2El(ptr noundef nonnull align 8 dereferenceable(8) %12, i64 noundef %13) #3
  %14 = getelementptr inbounds %"class.Eigen::CwiseNullaryOp", ptr %11, i32 0, i32 1
  %15 = load i64, ptr %7, align 8
  call void @_ZN5Eigen8internal19variable_if_dynamicIlLin1EEC2El(ptr noundef nonnull align 8 dereferenceable(8) %14, i64 noundef %15) #3
  %16 = getelementptr inbounds %"class.Eigen::CwiseNullaryOp", ptr %11, i32 0, i32 2
  %17 = load ptr, ptr %8, align 8
  %18 = load i64, ptr %6, align 8
  %19 = icmp sge i64 %18, 0
  br i1 %19, label %20, label %23

20:                                               ; preds = %4
  %21 = load i64, ptr %7, align 8
  %22 = icmp sge i64 %21, 0
  br i1 %22, label %50, label %23

23:                                               ; preds = %20, %4
  %24 = load i8, ptr @_ZN5EigenL14no_more_assertE, align 1
  %25 = trunc i8 %24 to i1
  br i1 %25, label %50, label %26

26:                                               ; preds = %23
  store i8 1, ptr @_ZN5EigenL14no_more_assertE, align 1
  %27 = load i8, ptr @_ZN5EigenL32report_on_cerr_on_assert_failureE, align 1
  %28 = trunc i8 %27 to i1
  br i1 %28, label %29, label %42

29:                                               ; preds = %26
  %30 = load i64, ptr %6, align 8
  %31 = icmp sge i64 %30, 0
  br i1 %31, label %32, label %36

32:                                               ; preds = %29
  %33 = load i64, ptr %7, align 8
  %34 = icmp sge i64 %33, 0
  br i1 %34, label %35, label %36

35:                                               ; preds = %32
  br label %36

36:                                               ; preds = %35, %32, %29
  %37 = phi i1 [ false, %32 ], [ false, %29 ], [ true, %35 ]
  br i1 %37, label %38, label %39

38:                                               ; preds = %36
  br label %41

39:                                               ; preds = %36
  call void @__assert_fail(ptr noundef @.str.61, ptr noundef @.str.62, i32 noundef 72, ptr noundef @__PRETTY_FUNCTION__._ZN5Eigen14CwiseNullaryOpINS_8internal16scalar_random_opIbEENS_6MatrixIbLin1ELin1ELi0ELin1ELin1EEEEC2EllRKS3_) #24
  unreachable

40:                                               ; No predecessors!
  br label %41

41:                                               ; preds = %40, %38
  br label %49

42:                                               ; preds = %26
  %43 = call ptr @__cxa_allocate_exception(i64 1) #3
  invoke void @_ZN5Eigen22eigen_assert_exceptionC2Ev(ptr noundef nonnull align 1 dereferenceable(1) %43)
          to label %44 unwind label %45

44:                                               ; preds = %42
  call void @__cxa_throw(ptr %43, ptr @_ZTIN5Eigen22eigen_assert_exceptionE, ptr @_ZN5Eigen22eigen_assert_exceptionD2Ev) #26
  unreachable

45:                                               ; preds = %42
  %46 = landingpad { ptr, i32 }
          cleanup
  %47 = extractvalue { ptr, i32 } %46, 0
  store ptr %47, ptr %9, align 8
  %48 = extractvalue { ptr, i32 } %46, 1
  store i32 %48, ptr %10, align 4
  call void @__cxa_free_exception(ptr %43) #3
  br label %51

49:                                               ; preds = %41
  br label %50

50:                                               ; preds = %49, %23, %20
  ret void

51:                                               ; preds = %45
  %52 = load ptr, ptr %9, align 8
  %53 = load i32, ptr %10, align 4
  %54 = insertvalue { ptr, i32 } undef, ptr %52, 0
  %55 = insertvalue { ptr, i32 } %54, i32 %53, 1
  resume { ptr, i32 } %55
}

; Function Attrs: noinline optnone uwtable
define linkonce_odr dso_local void @_ZN5Eigen10MatrixBaseINS_14CwiseNullaryOpINS_8internal16scalar_random_opIbEENS_6MatrixIbLin1ELin1ELi0ELin1ELin1EEEEEEC2Ev(ptr noundef nonnull align 1 dereferenceable(1) %0) unnamed_addr #9 comdat align 2 {
  %2 = alloca ptr, align 8
  store ptr %0, ptr %2, align 8
  %3 = load ptr, ptr %2, align 8
  call void @_ZN5Eigen9DenseBaseINS_14CwiseNullaryOpINS_8internal16scalar_random_opIbEENS_6MatrixIbLin1ELin1ELi0ELin1ELin1EEEEEEC2Ev(ptr noundef nonnull align 1 dereferenceable(1) %3)
  ret void
}

; Function Attrs: noinline nounwind optnone uwtable
define linkonce_odr dso_local void @_ZN5Eigen8internal19variable_if_dynamicIlLin1EEC2El(ptr noundef nonnull align 8 dereferenceable(8) %0, i64 noundef %1) unnamed_addr #4 comdat align 2 {
  %3 = alloca ptr, align 8
  %4 = alloca i64, align 8
  store ptr %0, ptr %3, align 8
  store i64 %1, ptr %4, align 8
  %5 = load ptr, ptr %3, align 8
  %6 = getelementptr inbounds %"class.Eigen::internal::variable_if_dynamic", ptr %5, i32 0, i32 0
  %7 = load i64, ptr %4, align 8
  store i64 %7, ptr %6, align 8
  ret void
}

; Function Attrs: noinline nounwind optnone uwtable
define linkonce_odr dso_local void @_ZN5Eigen9DenseBaseINS_14CwiseNullaryOpINS_8internal16scalar_random_opIbEENS_6MatrixIbLin1ELin1ELi0ELin1ELin1EEEEEEC2Ev(ptr noundef nonnull align 1 dereferenceable(1) %0) unnamed_addr #4 comdat align 2 {
  %2 = alloca ptr, align 8
  store ptr %0, ptr %2, align 8
  %3 = load ptr, ptr %2, align 8
  ret void
}

; Function Attrs: mustprogress noinline optnone uwtable
define linkonce_odr dso_local void @_ZN5Eigen8internal15call_assignmentINS_6MatrixIbLin1ELin1ELi0ELin1ELin1EEENS_14CwiseNullaryOpINS0_16scalar_random_opIbEES3_EEEEvRT_RKT0_(ptr noundef nonnull align 8 dereferenceable(24) %0, ptr noundef nonnull align 8 dereferenceable(17) %1) #5 comdat {
  %3 = alloca ptr, align 8
  %4 = alloca ptr, align 8
  %5 = alloca %"struct.Eigen::internal::assign_op", align 1
  store ptr %0, ptr %3, align 8
  store ptr %1, ptr %4, align 8
  %6 = load ptr, ptr %3, align 8
  %7 = load ptr, ptr %4, align 8
  call void @_ZN5Eigen8internal15call_assignmentINS_6MatrixIbLin1ELin1ELi0ELin1ELin1EEENS_14CwiseNullaryOpINS0_16scalar_random_opIbEES3_EENS0_9assign_opIbbEEEEvRT_RKT0_RKT1_NSt9enable_ifIXntsr25evaluator_assume_aliasingISC_EE5valueEPvE4typeE(ptr noundef nonnull align 8 dereferenceable(24) %6, ptr noundef nonnull align 8 dereferenceable(17) %7, ptr noundef nonnull align 1 dereferenceable(1) %5, ptr noundef null)
  ret void
}

; Function Attrs: mustprogress noinline nounwind optnone uwtable
define linkonce_odr dso_local noundef nonnull align 8 dereferenceable(17) ptr @_ZNK5Eigen9EigenBaseINS_14CwiseNullaryOpINS_8internal16scalar_random_opIbEENS_6MatrixIbLin1ELin1ELi0ELin1ELin1EEEEEE7derivedEv(ptr noundef nonnull align 1 dereferenceable(1) %0) #8 comdat align 2 {
  %2 = alloca ptr, align 8
  store ptr %0, ptr %2, align 8
  %3 = load ptr, ptr %2, align 8
  ret ptr %3
}

; Function Attrs: mustprogress noinline optnone uwtable
define linkonce_odr dso_local void @_ZN5Eigen8internal15call_assignmentINS_6MatrixIbLin1ELin1ELi0ELin1ELin1EEENS_14CwiseNullaryOpINS0_16scalar_random_opIbEES3_EENS0_9assign_opIbbEEEEvRT_RKT0_RKT1_NSt9enable_ifIXntsr25evaluator_assume_aliasingISC_EE5valueEPvE4typeE(ptr noundef nonnull align 8 dereferenceable(24) %0, ptr noundef nonnull align 8 dereferenceable(17) %1, ptr noundef nonnull align 1 dereferenceable(1) %2, ptr noundef %3) #5 comdat {
  %5 = alloca ptr, align 8
  %6 = alloca ptr, align 8
  %7 = alloca ptr, align 8
  %8 = alloca ptr, align 8
  store ptr %0, ptr %5, align 8
  store ptr %1, ptr %6, align 8
  store ptr %2, ptr %7, align 8
  store ptr %3, ptr %8, align 8
  %9 = load ptr, ptr %5, align 8
  %10 = load ptr, ptr %6, align 8
  %11 = load ptr, ptr %7, align 8
  call void @_ZN5Eigen8internal24call_assignment_no_aliasINS_6MatrixIbLin1ELin1ELi0ELin1ELin1EEENS_14CwiseNullaryOpINS0_16scalar_random_opIbEES3_EENS0_9assign_opIbbEEEEvRT_RKT0_RKT1_(ptr noundef nonnull align 8 dereferenceable(24) %9, ptr noundef nonnull align 8 dereferenceable(17) %10, ptr noundef nonnull align 1 dereferenceable(1) %11)
  ret void
}

; Function Attrs: mustprogress noinline optnone uwtable
define linkonce_odr dso_local void @_ZN5Eigen8internal24call_assignment_no_aliasINS_6MatrixIbLin1ELin1ELi0ELin1ELin1EEENS_14CwiseNullaryOpINS0_16scalar_random_opIbEES3_EENS0_9assign_opIbbEEEEvRT_RKT0_RKT1_(ptr noundef nonnull align 8 dereferenceable(24) %0, ptr noundef nonnull align 8 dereferenceable(17) %1, ptr noundef nonnull align 1 dereferenceable(1) %2) #5 comdat {
  %4 = alloca ptr, align 8
  %5 = alloca ptr, align 8
  %6 = alloca ptr, align 8
  %7 = alloca ptr, align 8
  store ptr %0, ptr %4, align 8
  store ptr %1, ptr %5, align 8
  store ptr %2, ptr %6, align 8
  %8 = load ptr, ptr %4, align 8
  store ptr %8, ptr %7, align 8
  %9 = load ptr, ptr %7, align 8
  %10 = load ptr, ptr %5, align 8
  %11 = load ptr, ptr %6, align 8
  call void @_ZN5Eigen8internal10AssignmentINS_6MatrixIbLin1ELin1ELi0ELin1ELin1EEENS_14CwiseNullaryOpINS0_16scalar_random_opIbEES3_EENS0_9assign_opIbbEENS0_11Dense2DenseEvE3runERS3_RKS7_RKS9_(ptr noundef nonnull align 8 dereferenceable(24) %9, ptr noundef nonnull align 8 dereferenceable(17) %10, ptr noundef nonnull align 1 dereferenceable(1) %11)
  ret void
}

; Function Attrs: mustprogress noinline optnone uwtable
define linkonce_odr dso_local void @_ZN5Eigen8internal10AssignmentINS_6MatrixIbLin1ELin1ELi0ELin1ELin1EEENS_14CwiseNullaryOpINS0_16scalar_random_opIbEES3_EENS0_9assign_opIbbEENS0_11Dense2DenseEvE3runERS3_RKS7_RKS9_(ptr noundef nonnull align 8 dereferenceable(24) %0, ptr noundef nonnull align 8 dereferenceable(17) %1, ptr noundef nonnull align 1 dereferenceable(1) %2) #5 comdat align 2 {
  %4 = alloca ptr, align 8
  %5 = alloca ptr, align 8
  %6 = alloca ptr, align 8
  store ptr %0, ptr %4, align 8
  store ptr %1, ptr %5, align 8
  store ptr %2, ptr %6, align 8
  %7 = load ptr, ptr %4, align 8
  %8 = load ptr, ptr %5, align 8
  call void @_ZN5Eigen8internal18check_for_aliasingINS_6MatrixIbLin1ELin1ELi0ELin1ELin1EEENS_14CwiseNullaryOpINS0_16scalar_random_opIbEES3_EEEEvRKT_RKT0_(ptr noundef nonnull align 8 dereferenceable(24) %7, ptr noundef nonnull align 8 dereferenceable(17) %8)
  %9 = load ptr, ptr %4, align 8
  %10 = load ptr, ptr %5, align 8
  %11 = load ptr, ptr %6, align 8
  call void @_ZN5Eigen8internal26call_dense_assignment_loopINS_6MatrixIbLin1ELin1ELi0ELin1ELin1EEENS_14CwiseNullaryOpINS0_16scalar_random_opIbEES3_EENS0_9assign_opIbbEEEEvRT_RKT0_RKT1_(ptr noundef nonnull align 8 dereferenceable(24) %9, ptr noundef nonnull align 8 dereferenceable(17) %10, ptr noundef nonnull align 1 dereferenceable(1) %11)
  ret void
}

; Function Attrs: mustprogress noinline optnone uwtable
define linkonce_odr dso_local void @_ZN5Eigen8internal18check_for_aliasingINS_6MatrixIbLin1ELin1ELi0ELin1ELin1EEENS_14CwiseNullaryOpINS0_16scalar_random_opIbEES3_EEEEvRKT_RKT0_(ptr noundef nonnull align 8 dereferenceable(24) %0, ptr noundef nonnull align 8 dereferenceable(17) %1) #5 comdat {
  %3 = alloca ptr, align 8
  %4 = alloca ptr, align 8
  store ptr %0, ptr %3, align 8
  store ptr %1, ptr %4, align 8
  %5 = load ptr, ptr %3, align 8
  %6 = call noundef i64 @_ZNK5Eigen15PlainObjectBaseINS_6MatrixIbLin1ELin1ELi0ELin1ELin1EEEE4rowsEv(ptr noundef nonnull align 8 dereferenceable(24) %5) #3
  %7 = icmp sgt i64 %6, 1
  br i1 %7, label %8, label %15

8:                                                ; preds = %2
  %9 = load ptr, ptr %3, align 8
  %10 = call noundef i64 @_ZNK5Eigen15PlainObjectBaseINS_6MatrixIbLin1ELin1ELi0ELin1ELin1EEEE4colsEv(ptr noundef nonnull align 8 dereferenceable(24) %9) #3
  %11 = icmp sgt i64 %10, 1
  br i1 %11, label %12, label %15

12:                                               ; preds = %8
  %13 = load ptr, ptr %3, align 8
  %14 = load ptr, ptr %4, align 8
  call void @_ZN5Eigen8internal27checkTransposeAliasing_implINS_6MatrixIbLin1ELin1ELi0ELin1ELin1EEENS_14CwiseNullaryOpINS0_16scalar_random_opIbEES3_EELb0EE3runERKS3_RKS7_(ptr noundef nonnull align 8 dereferenceable(24) %13, ptr noundef nonnull align 8 dereferenceable(17) %14)
  br label %15

15:                                               ; preds = %12, %8, %2
  ret void
}

; Function Attrs: mustprogress noinline optnone uwtable
define linkonce_odr dso_local void @_ZN5Eigen8internal26call_dense_assignment_loopINS_6MatrixIbLin1ELin1ELi0ELin1ELin1EEENS_14CwiseNullaryOpINS0_16scalar_random_opIbEES3_EENS0_9assign_opIbbEEEEvRT_RKT0_RKT1_(ptr noundef nonnull align 8 dereferenceable(24) %0, ptr noundef nonnull align 8 dereferenceable(17) %1, ptr noundef nonnull align 1 dereferenceable(1) %2) #5 comdat {
  %4 = alloca ptr, align 8
  %5 = alloca ptr, align 8
  %6 = alloca ptr, align 8
  %7 = alloca %"struct.Eigen::internal::evaluator.29", align 1
  %8 = alloca %"struct.Eigen::internal::evaluator", align 8
  %9 = alloca %"class.Eigen::internal::generic_dense_assignment_kernel", align 8
  store ptr %0, ptr %4, align 8
  store ptr %1, ptr %5, align 8
  store ptr %2, ptr %6, align 8
  %10 = load ptr, ptr %5, align 8
  call void @_ZN5Eigen8internal9evaluatorINS_14CwiseNullaryOpINS0_16scalar_random_opIbEENS_6MatrixIbLin1ELin1ELi0ELin1ELin1EEEEEEC2ERKS7_(ptr noundef nonnull align 1 dereferenceable(2) %7, ptr noundef nonnull align 8 dereferenceable(17) %10)
  %11 = load ptr, ptr %4, align 8
  %12 = load ptr, ptr %5, align 8
  %13 = load ptr, ptr %6, align 8
  call void @_ZN5Eigen8internal17resize_if_allowedINS_6MatrixIbLin1ELin1ELi0ELin1ELin1EEENS_14CwiseNullaryOpINS0_16scalar_random_opIbEES3_EEbbEEvRT_RKT0_RKNS0_9assign_opIT1_T2_EE(ptr noundef nonnull align 8 dereferenceable(24) %11, ptr noundef nonnull align 8 dereferenceable(17) %12, ptr noundef nonnull align 1 dereferenceable(1) %13)
  %14 = load ptr, ptr %4, align 8
  call void @_ZN5Eigen8internal9evaluatorINS_6MatrixIbLin1ELin1ELi0ELin1ELin1EEEEC2ERKS3_(ptr noundef nonnull align 8 dereferenceable(16) %8, ptr noundef nonnull align 8 dereferenceable(24) %14)
  %15 = load ptr, ptr %6, align 8
  %16 = load ptr, ptr %4, align 8
  %17 = call noundef nonnull align 8 dereferenceable(24) ptr @_ZNK5Eigen9EigenBaseINS_6MatrixIbLin1ELin1ELi0ELin1ELin1EEEE18const_cast_derivedEv(ptr noundef nonnull align 1 dereferenceable(1) %16)
  call void @_ZN5Eigen8internal31generic_dense_assignment_kernelINS0_9evaluatorINS_6MatrixIbLin1ELin1ELi0ELin1ELin1EEEEENS2_INS_14CwiseNullaryOpINS0_16scalar_random_opIbEES4_EEEENS0_9assign_opIbbEELi0EEC2ERS5_RKSA_RKSC_RS4_(ptr noundef nonnull align 8 dereferenceable(32) %9, ptr noundef nonnull align 8 dereferenceable(16) %8, ptr noundef nonnull align 1 dereferenceable(2) %7, ptr noundef nonnull align 1 dereferenceable(1) %15, ptr noundef nonnull align 8 dereferenceable(24) %17)
  call void @_ZN5Eigen8internal21dense_assignment_loopINS0_31generic_dense_assignment_kernelINS0_9evaluatorINS_6MatrixIbLin1ELin1ELi0ELin1ELin1EEEEENS3_INS_14CwiseNullaryOpINS0_16scalar_random_opIbEES5_EEEENS0_9assign_opIbbEELi0EEELi1ELi0EE3runERSE_(ptr noundef nonnull align 8 dereferenceable(32) %9)
  ret void
}

; Function Attrs: mustprogress noinline nounwind optnone uwtable
define linkonce_odr dso_local void @_ZN5Eigen8internal27checkTransposeAliasing_implINS_6MatrixIbLin1ELin1ELi0ELin1ELin1EEENS_14CwiseNullaryOpINS0_16scalar_random_opIbEES3_EELb0EE3runERKS3_RKS7_(ptr noundef nonnull align 8 dereferenceable(24) %0, ptr noundef nonnull align 8 dereferenceable(17) %1) #8 comdat align 2 {
  %3 = alloca ptr, align 8
  %4 = alloca ptr, align 8
  store ptr %0, ptr %3, align 8
  store ptr %1, ptr %4, align 8
  ret void
}

; Function Attrs: noinline optnone uwtable
define linkonce_odr dso_local void @_ZN5Eigen8internal9evaluatorINS_14CwiseNullaryOpINS0_16scalar_random_opIbEENS_6MatrixIbLin1ELin1ELi0ELin1ELin1EEEEEEC2ERKS7_(ptr noundef nonnull align 1 dereferenceable(2) %0, ptr noundef nonnull align 8 dereferenceable(17) %1) unnamed_addr #9 comdat align 2 {
  %3 = alloca ptr, align 8
  %4 = alloca ptr, align 8
  store ptr %0, ptr %3, align 8
  store ptr %1, ptr %4, align 8
  %5 = load ptr, ptr %3, align 8
  %6 = getelementptr inbounds %"struct.Eigen::internal::evaluator.29", ptr %5, i32 0, i32 0
  %7 = load ptr, ptr %4, align 8
  %8 = call noundef nonnull align 1 dereferenceable(1) ptr @_ZNK5Eigen14CwiseNullaryOpINS_8internal16scalar_random_opIbEENS_6MatrixIbLin1ELin1ELi0ELin1ELin1EEEE7functorEv(ptr noundef nonnull align 8 dereferenceable(17) %7)
  %9 = getelementptr inbounds %"struct.Eigen::internal::evaluator.29", ptr %5, i32 0, i32 1
  ret void
}

; Function Attrs: mustprogress noinline optnone uwtable
define linkonce_odr dso_local void @_ZN5Eigen8internal17resize_if_allowedINS_6MatrixIbLin1ELin1ELi0ELin1ELin1EEENS_14CwiseNullaryOpINS0_16scalar_random_opIbEES3_EEbbEEvRT_RKT0_RKNS0_9assign_opIT1_T2_EE(ptr noundef nonnull align 8 dereferenceable(24) %0, ptr noundef nonnull align 8 dereferenceable(17) %1, ptr noundef nonnull align 1 dereferenceable(1) %2) #5 comdat personality ptr @__gxx_personality_v0 {
  %4 = alloca ptr, align 8
  %5 = alloca ptr, align 8
  %6 = alloca ptr, align 8
  %7 = alloca i64, align 8
  %8 = alloca i64, align 8
  %9 = alloca ptr, align 8
  %10 = alloca i32, align 4
  store ptr %0, ptr %4, align 8
  store ptr %1, ptr %5, align 8
  store ptr %2, ptr %6, align 8
  %11 = load ptr, ptr %5, align 8
  %12 = call noundef i64 @_ZNK5Eigen14CwiseNullaryOpINS_8internal16scalar_random_opIbEENS_6MatrixIbLin1ELin1ELi0ELin1ELin1EEEE4rowsEv(ptr noundef nonnull align 8 dereferenceable(17) %11)
  store i64 %12, ptr %7, align 8
  %13 = load ptr, ptr %5, align 8
  %14 = call noundef i64 @_ZNK5Eigen14CwiseNullaryOpINS_8internal16scalar_random_opIbEENS_6MatrixIbLin1ELin1ELi0ELin1ELin1EEEE4colsEv(ptr noundef nonnull align 8 dereferenceable(17) %13)
  store i64 %14, ptr %8, align 8
  %15 = load ptr, ptr %4, align 8
  %16 = call noundef i64 @_ZNK5Eigen15PlainObjectBaseINS_6MatrixIbLin1ELin1ELi0ELin1ELin1EEEE4rowsEv(ptr noundef nonnull align 8 dereferenceable(24) %15) #3
  %17 = load i64, ptr %7, align 8
  %18 = icmp ne i64 %16, %17
  br i1 %18, label %24, label %19

19:                                               ; preds = %3
  %20 = load ptr, ptr %4, align 8
  %21 = call noundef i64 @_ZNK5Eigen15PlainObjectBaseINS_6MatrixIbLin1ELin1ELi0ELin1ELin1EEEE4colsEv(ptr noundef nonnull align 8 dereferenceable(24) %20) #3
  %22 = load i64, ptr %8, align 8
  %23 = icmp ne i64 %21, %22
  br i1 %23, label %24, label %28

24:                                               ; preds = %19, %3
  %25 = load ptr, ptr %4, align 8
  %26 = load i64, ptr %7, align 8
  %27 = load i64, ptr %8, align 8
  call void @_ZN5Eigen15PlainObjectBaseINS_6MatrixIbLin1ELin1ELi0ELin1ELin1EEEE6resizeEll(ptr noundef nonnull align 8 dereferenceable(24) %25, i64 noundef %26, i64 noundef %27)
  br label %28

28:                                               ; preds = %24, %19
  %29 = load ptr, ptr %4, align 8
  %30 = call noundef i64 @_ZNK5Eigen15PlainObjectBaseINS_6MatrixIbLin1ELin1ELi0ELin1ELin1EEEE4rowsEv(ptr noundef nonnull align 8 dereferenceable(24) %29) #3
  %31 = load i64, ptr %7, align 8
  %32 = icmp eq i64 %30, %31
  br i1 %32, label %33, label %38

33:                                               ; preds = %28
  %34 = load ptr, ptr %4, align 8
  %35 = call noundef i64 @_ZNK5Eigen15PlainObjectBaseINS_6MatrixIbLin1ELin1ELi0ELin1ELin1EEEE4colsEv(ptr noundef nonnull align 8 dereferenceable(24) %34) #3
  %36 = load i64, ptr %8, align 8
  %37 = icmp eq i64 %35, %36
  br i1 %37, label %68, label %38

38:                                               ; preds = %33, %28
  %39 = load i8, ptr @_ZN5EigenL14no_more_assertE, align 1
  %40 = trunc i8 %39 to i1
  br i1 %40, label %68, label %41

41:                                               ; preds = %38
  store i8 1, ptr @_ZN5EigenL14no_more_assertE, align 1
  %42 = load i8, ptr @_ZN5EigenL32report_on_cerr_on_assert_failureE, align 1
  %43 = trunc i8 %42 to i1
  br i1 %43, label %44, label %60

44:                                               ; preds = %41
  %45 = load ptr, ptr %4, align 8
  %46 = call noundef i64 @_ZNK5Eigen15PlainObjectBaseINS_6MatrixIbLin1ELin1ELi0ELin1ELin1EEEE4rowsEv(ptr noundef nonnull align 8 dereferenceable(24) %45) #3
  %47 = load i64, ptr %7, align 8
  %48 = icmp eq i64 %46, %47
  br i1 %48, label %49, label %54

49:                                               ; preds = %44
  %50 = load ptr, ptr %4, align 8
  %51 = call noundef i64 @_ZNK5Eigen15PlainObjectBaseINS_6MatrixIbLin1ELin1ELi0ELin1ELin1EEEE4colsEv(ptr noundef nonnull align 8 dereferenceable(24) %50) #3
  %52 = load i64, ptr %8, align 8
  %53 = icmp eq i64 %51, %52
  br label %54

54:                                               ; preds = %49, %44
  %55 = phi i1 [ false, %44 ], [ %53, %49 ]
  br i1 %55, label %56, label %57

56:                                               ; preds = %54
  br label %59

57:                                               ; preds = %54
  call void @__assert_fail(ptr noundef @.str.63, ptr noundef @.str.64, i32 noundef 716, ptr noundef @__PRETTY_FUNCTION__._ZN5Eigen8internal17resize_if_allowedINS_6MatrixIbLin1ELin1ELi0ELin1ELin1EEENS_14CwiseNullaryOpINS0_16scalar_random_opIbEES3_EEbbEEvRT_RKT0_RKNS0_9assign_opIT1_T2_EE) #24
  unreachable

58:                                               ; No predecessors!
  br label %59

59:                                               ; preds = %58, %56
  br label %67

60:                                               ; preds = %41
  %61 = call ptr @__cxa_allocate_exception(i64 1) #3
  invoke void @_ZN5Eigen22eigen_assert_exceptionC2Ev(ptr noundef nonnull align 1 dereferenceable(1) %61)
          to label %62 unwind label %63

62:                                               ; preds = %60
  call void @__cxa_throw(ptr %61, ptr @_ZTIN5Eigen22eigen_assert_exceptionE, ptr @_ZN5Eigen22eigen_assert_exceptionD2Ev) #26
  unreachable

63:                                               ; preds = %60
  %64 = landingpad { ptr, i32 }
          cleanup
  %65 = extractvalue { ptr, i32 } %64, 0
  store ptr %65, ptr %9, align 8
  %66 = extractvalue { ptr, i32 } %64, 1
  store i32 %66, ptr %10, align 4
  call void @__cxa_free_exception(ptr %61) #3
  br label %69

67:                                               ; preds = %59
  br label %68

68:                                               ; preds = %67, %38, %33
  ret void

69:                                               ; preds = %63
  %70 = load ptr, ptr %9, align 8
  %71 = load i32, ptr %10, align 4
  %72 = insertvalue { ptr, i32 } undef, ptr %70, 0
  %73 = insertvalue { ptr, i32 } %72, i32 %71, 1
  resume { ptr, i32 } %73
}

; Function Attrs: mustprogress noinline nounwind optnone uwtable
define linkonce_odr dso_local noundef nonnull align 8 dereferenceable(24) ptr @_ZNK5Eigen9EigenBaseINS_6MatrixIbLin1ELin1ELi0ELin1ELin1EEEE18const_cast_derivedEv(ptr noundef nonnull align 1 dereferenceable(1) %0) #8 comdat align 2 {
  %2 = alloca ptr, align 8
  store ptr %0, ptr %2, align 8
  %3 = load ptr, ptr %2, align 8
  ret ptr %3
}

; Function Attrs: noinline nounwind optnone uwtable
define linkonce_odr dso_local void @_ZN5Eigen8internal31generic_dense_assignment_kernelINS0_9evaluatorINS_6MatrixIbLin1ELin1ELi0ELin1ELin1EEEEENS2_INS_14CwiseNullaryOpINS0_16scalar_random_opIbEES4_EEEENS0_9assign_opIbbEELi0EEC2ERS5_RKSA_RKSC_RS4_(ptr noundef nonnull align 8 dereferenceable(32) %0, ptr noundef nonnull align 8 dereferenceable(16) %1, ptr noundef nonnull align 1 dereferenceable(2) %2, ptr noundef nonnull align 1 dereferenceable(1) %3, ptr noundef nonnull align 8 dereferenceable(24) %4) unnamed_addr #4 comdat align 2 {
  %6 = alloca ptr, align 8
  %7 = alloca ptr, align 8
  %8 = alloca ptr, align 8
  %9 = alloca ptr, align 8
  %10 = alloca ptr, align 8
  store ptr %0, ptr %6, align 8
  store ptr %1, ptr %7, align 8
  store ptr %2, ptr %8, align 8
  store ptr %3, ptr %9, align 8
  store ptr %4, ptr %10, align 8
  %11 = load ptr, ptr %6, align 8
  %12 = getelementptr inbounds %"class.Eigen::internal::generic_dense_assignment_kernel", ptr %11, i32 0, i32 0
  %13 = load ptr, ptr %7, align 8
  store ptr %13, ptr %12, align 8
  %14 = getelementptr inbounds %"class.Eigen::internal::generic_dense_assignment_kernel", ptr %11, i32 0, i32 1
  %15 = load ptr, ptr %8, align 8
  store ptr %15, ptr %14, align 8
  %16 = getelementptr inbounds %"class.Eigen::internal::generic_dense_assignment_kernel", ptr %11, i32 0, i32 2
  %17 = load ptr, ptr %9, align 8
  store ptr %17, ptr %16, align 8
  %18 = getelementptr inbounds %"class.Eigen::internal::generic_dense_assignment_kernel", ptr %11, i32 0, i32 3
  %19 = load ptr, ptr %10, align 8
  store ptr %19, ptr %18, align 8
  ret void
}

; Function Attrs: mustprogress noinline optnone uwtable
define linkonce_odr dso_local void @_ZN5Eigen8internal21dense_assignment_loopINS0_31generic_dense_assignment_kernelINS0_9evaluatorINS_6MatrixIbLin1ELin1ELi0ELin1ELin1EEEEENS3_INS_14CwiseNullaryOpINS0_16scalar_random_opIbEES5_EEEENS0_9assign_opIbbEELi0EEELi1ELi0EE3runERSE_(ptr noundef nonnull align 8 dereferenceable(32) %0) #5 comdat align 2 {
  %2 = alloca ptr, align 8
  %3 = alloca i64, align 8
  %4 = alloca i64, align 8
  store ptr %0, ptr %2, align 8
  %5 = load ptr, ptr %2, align 8
  %6 = call noundef i64 @_ZNK5Eigen8internal31generic_dense_assignment_kernelINS0_9evaluatorINS_6MatrixIbLin1ELin1ELi0ELin1ELin1EEEEENS2_INS_14CwiseNullaryOpINS0_16scalar_random_opIbEES4_EEEENS0_9assign_opIbbEELi0EE4sizeEv(ptr noundef nonnull align 8 dereferenceable(32) %5) #3
  store i64 %6, ptr %3, align 8
  store i64 0, ptr %4, align 8
  br label %7

7:                                                ; preds = %14, %1
  %8 = load i64, ptr %4, align 8
  %9 = load i64, ptr %3, align 8
  %10 = icmp slt i64 %8, %9
  br i1 %10, label %11, label %17

11:                                               ; preds = %7
  %12 = load ptr, ptr %2, align 8
  %13 = load i64, ptr %4, align 8
  call void @_ZN5Eigen8internal31generic_dense_assignment_kernelINS0_9evaluatorINS_6MatrixIbLin1ELin1ELi0ELin1ELin1EEEEENS2_INS_14CwiseNullaryOpINS0_16scalar_random_opIbEES4_EEEENS0_9assign_opIbbEELi0EE11assignCoeffEl(ptr noundef nonnull align 8 dereferenceable(32) %12, i64 noundef %13)
  br label %14

14:                                               ; preds = %11
  %15 = load i64, ptr %4, align 8
  %16 = add nsw i64 %15, 1
  store i64 %16, ptr %4, align 8
  br label %7, !llvm.loop !21

17:                                               ; preds = %7
  ret void
}

; Function Attrs: mustprogress noinline nounwind optnone uwtable
define linkonce_odr dso_local noundef nonnull align 1 dereferenceable(1) ptr @_ZNK5Eigen14CwiseNullaryOpINS_8internal16scalar_random_opIbEENS_6MatrixIbLin1ELin1ELi0ELin1ELin1EEEE7functorEv(ptr noundef nonnull align 8 dereferenceable(17) %0) #8 comdat align 2 {
  %2 = alloca ptr, align 8
  store ptr %0, ptr %2, align 8
  %3 = load ptr, ptr %2, align 8
  %4 = getelementptr inbounds %"class.Eigen::CwiseNullaryOp", ptr %3, i32 0, i32 2
  ret ptr %4
}

; Function Attrs: mustprogress noinline optnone uwtable
define linkonce_odr dso_local noundef i64 @_ZNK5Eigen14CwiseNullaryOpINS_8internal16scalar_random_opIbEENS_6MatrixIbLin1ELin1ELi0ELin1ELin1EEEE4rowsEv(ptr noundef nonnull align 8 dereferenceable(17) %0) #5 comdat align 2 {
  %2 = alloca ptr, align 8
  store ptr %0, ptr %2, align 8
  %3 = load ptr, ptr %2, align 8
  %4 = getelementptr inbounds %"class.Eigen::CwiseNullaryOp", ptr %3, i32 0, i32 0
  %5 = call noundef i64 @_ZNK5Eigen8internal19variable_if_dynamicIlLin1EE5valueEv(ptr noundef nonnull align 8 dereferenceable(8) %4)
  ret i64 %5
}

; Function Attrs: mustprogress noinline nounwind optnone uwtable
define linkonce_odr dso_local noundef i64 @_ZNK5Eigen14CwiseNullaryOpINS_8internal16scalar_random_opIbEENS_6MatrixIbLin1ELin1ELi0ELin1ELin1EEEE4colsEv(ptr noundef nonnull align 8 dereferenceable(17) %0) #8 comdat align 2 {
  %2 = alloca ptr, align 8
  store ptr %0, ptr %2, align 8
  %3 = load ptr, ptr %2, align 8
  %4 = getelementptr inbounds %"class.Eigen::CwiseNullaryOp", ptr %3, i32 0, i32 1
  %5 = call noundef i64 @_ZNK5Eigen8internal19variable_if_dynamicIlLin1EE5valueEv(ptr noundef nonnull align 8 dereferenceable(8) %4)
  ret i64 %5
}

; Function Attrs: mustprogress noinline nounwind optnone uwtable
define linkonce_odr dso_local noundef i64 @_ZNK5Eigen8internal19variable_if_dynamicIlLin1EE5valueEv(ptr noundef nonnull align 8 dereferenceable(8) %0) #8 comdat align 2 {
  %2 = alloca ptr, align 8
  store ptr %0, ptr %2, align 8
  %3 = load ptr, ptr %2, align 8
  %4 = getelementptr inbounds %"class.Eigen::internal::variable_if_dynamic", ptr %3, i32 0, i32 0
  %5 = load i64, ptr %4, align 8
  ret i64 %5
}

; Function Attrs: mustprogress noinline nounwind optnone uwtable
define linkonce_odr dso_local noundef i64 @_ZNK5Eigen8internal31generic_dense_assignment_kernelINS0_9evaluatorINS_6MatrixIbLin1ELin1ELi0ELin1ELin1EEEEENS2_INS_14CwiseNullaryOpINS0_16scalar_random_opIbEES4_EEEENS0_9assign_opIbbEELi0EE4sizeEv(ptr noundef nonnull align 8 dereferenceable(32) %0) #8 comdat align 2 {
  %2 = alloca ptr, align 8
  store ptr %0, ptr %2, align 8
  %3 = load ptr, ptr %2, align 8
  %4 = getelementptr inbounds %"class.Eigen::internal::generic_dense_assignment_kernel", ptr %3, i32 0, i32 3
  %5 = load ptr, ptr %4, align 8
  %6 = call noundef i64 @_ZNK5Eigen9EigenBaseINS_6MatrixIbLin1ELin1ELi0ELin1ELin1EEEE4sizeEv(ptr noundef nonnull align 1 dereferenceable(1) %5) #3
  ret i64 %6
}

; Function Attrs: mustprogress noinline optnone uwtable
define linkonce_odr dso_local void @_ZN5Eigen8internal31generic_dense_assignment_kernelINS0_9evaluatorINS_6MatrixIbLin1ELin1ELi0ELin1ELin1EEEEENS2_INS_14CwiseNullaryOpINS0_16scalar_random_opIbEES4_EEEENS0_9assign_opIbbEELi0EE11assignCoeffEl(ptr noundef nonnull align 8 dereferenceable(32) %0, i64 noundef %1) #5 comdat align 2 {
  %3 = alloca ptr, align 8
  %4 = alloca i64, align 8
  %5 = alloca i8, align 1
  store ptr %0, ptr %3, align 8
  store i64 %1, ptr %4, align 8
  %6 = load ptr, ptr %3, align 8
  %7 = getelementptr inbounds %"class.Eigen::internal::generic_dense_assignment_kernel", ptr %6, i32 0, i32 2
  %8 = load ptr, ptr %7, align 8
  %9 = getelementptr inbounds %"class.Eigen::internal::generic_dense_assignment_kernel", ptr %6, i32 0, i32 0
  %10 = load ptr, ptr %9, align 8
  %11 = load i64, ptr %4, align 8
  %12 = call noundef nonnull align 1 dereferenceable(1) ptr @_ZN5Eigen8internal9evaluatorINS_15PlainObjectBaseINS_6MatrixIbLin1ELin1ELi0ELin1ELin1EEEEEE8coeffRefEl(ptr noundef nonnull align 8 dereferenceable(16) %10, i64 noundef %11)
  %13 = getelementptr inbounds %"class.Eigen::internal::generic_dense_assignment_kernel", ptr %6, i32 0, i32 1
  %14 = load ptr, ptr %13, align 8
  %15 = load i64, ptr %4, align 8
  %16 = call noundef zeroext i1 @_ZNK5Eigen8internal9evaluatorINS_14CwiseNullaryOpINS0_16scalar_random_opIbEENS_6MatrixIbLin1ELin1ELi0ELin1ELin1EEEEEE5coeffIlEEbT_(ptr noundef nonnull align 1 dereferenceable(2) %14, i64 noundef %15)
  %17 = zext i1 %16 to i8
  store i8 %17, ptr %5, align 1
  call void @_ZNK5Eigen8internal9assign_opIbbE11assignCoeffERbRKb(ptr noundef nonnull align 1 dereferenceable(1) %8, ptr noundef nonnull align 1 dereferenceable(1) %12, ptr noundef nonnull align 1 dereferenceable(1) %5)
  ret void
}

; Function Attrs: mustprogress noinline nounwind optnone uwtable
define linkonce_odr dso_local noundef i64 @_ZNK5Eigen9EigenBaseINS_6MatrixIbLin1ELin1ELi0ELin1ELin1EEEE4sizeEv(ptr noundef nonnull align 1 dereferenceable(1) %0) #8 comdat align 2 {
  %2 = alloca ptr, align 8
  store ptr %0, ptr %2, align 8
  %3 = load ptr, ptr %2, align 8
  %4 = call noundef i64 @_ZNK5Eigen9EigenBaseINS_6MatrixIbLin1ELin1ELi0ELin1ELin1EEEE4rowsEv(ptr noundef nonnull align 1 dereferenceable(1) %3) #3
  %5 = call noundef i64 @_ZNK5Eigen9EigenBaseINS_6MatrixIbLin1ELin1ELi0ELin1ELin1EEEE4colsEv(ptr noundef nonnull align 1 dereferenceable(1) %3) #3
  %6 = mul nsw i64 %4, %5
  ret i64 %6
}

; Function Attrs: mustprogress noinline nounwind optnone uwtable
define linkonce_odr dso_local void @_ZNK5Eigen8internal9assign_opIbbE11assignCoeffERbRKb(ptr noundef nonnull align 1 dereferenceable(1) %0, ptr noundef nonnull align 1 dereferenceable(1) %1, ptr noundef nonnull align 1 dereferenceable(1) %2) #8 comdat align 2 {
  %4 = alloca ptr, align 8
  %5 = alloca ptr, align 8
  %6 = alloca ptr, align 8
  store ptr %0, ptr %4, align 8
  store ptr %1, ptr %5, align 8
  store ptr %2, ptr %6, align 8
  %7 = load ptr, ptr %4, align 8
  %8 = load ptr, ptr %6, align 8
  %9 = load i8, ptr %8, align 1
  %10 = trunc i8 %9 to i1
  %11 = load ptr, ptr %5, align 8
  %12 = zext i1 %10 to i8
  store i8 %12, ptr %11, align 1
  ret void
}

; Function Attrs: mustprogress noinline nounwind optnone uwtable
define linkonce_odr dso_local noundef nonnull align 1 dereferenceable(1) ptr @_ZN5Eigen8internal9evaluatorINS_15PlainObjectBaseINS_6MatrixIbLin1ELin1ELi0ELin1ELin1EEEEEE8coeffRefEl(ptr noundef nonnull align 8 dereferenceable(16) %0, i64 noundef %1) #8 comdat align 2 {
  %3 = alloca ptr, align 8
  %4 = alloca i64, align 8
  store ptr %0, ptr %3, align 8
  store i64 %1, ptr %4, align 8
  %5 = load ptr, ptr %3, align 8
  %6 = getelementptr inbounds %"struct.Eigen::internal::evaluator.23", ptr %5, i32 0, i32 0
  %7 = getelementptr inbounds %"class.Eigen::internal::plainobjectbase_evaluator_data", ptr %6, i32 0, i32 0
  %8 = load ptr, ptr %7, align 8
  %9 = load i64, ptr %4, align 8
  %10 = getelementptr inbounds i8, ptr %8, i64 %9
  ret ptr %10
}

; Function Attrs: mustprogress noinline optnone uwtable
define linkonce_odr dso_local noundef zeroext i1 @_ZNK5Eigen8internal9evaluatorINS_14CwiseNullaryOpINS0_16scalar_random_opIbEENS_6MatrixIbLin1ELin1ELi0ELin1ELin1EEEEEE5coeffIlEEbT_(ptr noundef nonnull align 1 dereferenceable(2) %0, i64 noundef %1) #5 comdat align 2 {
  %3 = alloca ptr, align 8
  %4 = alloca i64, align 8
  store ptr %0, ptr %3, align 8
  store i64 %1, ptr %4, align 8
  %5 = load ptr, ptr %3, align 8
  %6 = getelementptr inbounds %"struct.Eigen::internal::evaluator.29", ptr %5, i32 0, i32 1
  %7 = getelementptr inbounds %"struct.Eigen::internal::evaluator.29", ptr %5, i32 0, i32 0
  %8 = load i64, ptr %4, align 8
  %9 = call noundef zeroext i1 @_ZNK5Eigen8internal15nullary_wrapperIbNS0_16scalar_random_opIbEELb1ELb0ELb0EEclIlEEbRKS3_T_S8_(ptr noundef nonnull align 1 dereferenceable(1) %6, ptr noundef nonnull align 1 dereferenceable(1) %7, i64 noundef %8, i64 noundef 0)
  ret i1 %9
}

; Function Attrs: mustprogress noinline optnone uwtable
define linkonce_odr dso_local noundef zeroext i1 @_ZNK5Eigen8internal15nullary_wrapperIbNS0_16scalar_random_opIbEELb1ELb0ELb0EEclIlEEbRKS3_T_S8_(ptr noundef nonnull align 1 dereferenceable(1) %0, ptr noundef nonnull align 1 dereferenceable(1) %1, i64 noundef %2, i64 noundef %3) #5 comdat align 2 {
  %5 = alloca ptr, align 8
  %6 = alloca ptr, align 8
  %7 = alloca i64, align 8
  %8 = alloca i64, align 8
  store ptr %0, ptr %5, align 8
  store ptr %1, ptr %6, align 8
  store i64 %2, ptr %7, align 8
  store i64 %3, ptr %8, align 8
  %9 = load ptr, ptr %5, align 8
  %10 = load ptr, ptr %6, align 8
  %11 = call noundef zeroext i1 @_ZNK5Eigen8internal16scalar_random_opIbEclEv(ptr noundef nonnull align 1 dereferenceable(1) %10)
  ret i1 %11
}

; Function Attrs: mustprogress noinline optnone uwtable
define linkonce_odr dso_local noundef zeroext i1 @_ZNK5Eigen8internal16scalar_random_opIbEclEv(ptr noundef nonnull align 1 dereferenceable(1) %0) #5 comdat align 2 {
  %2 = alloca ptr, align 8
  store ptr %0, ptr %2, align 8
  %3 = load ptr, ptr %2, align 8
  %4 = call noundef zeroext i1 @_ZN5Eigen8internal6randomIbEENS0_13random_retvalINS0_36global_math_functions_filtering_baseIT_vE4typeEE4typeEv()
  ret i1 %4
}

; Function Attrs: mustprogress noinline optnone uwtable
define linkonce_odr dso_local noundef zeroext i1 @_ZN5Eigen8internal6randomIbEENS0_13random_retvalINS0_36global_math_functions_filtering_baseIT_vE4typeEE4typeEv() #5 comdat {
  %1 = call noundef zeroext i1 @_ZN5Eigen8internal11random_implIbE3runEv()
  ret i1 %1
}

; Function Attrs: mustprogress noinline optnone uwtable
define linkonce_odr dso_local noundef zeroext i1 @_ZN5Eigen8internal11random_implIbE3runEv() #5 comdat align 2 {
  %1 = call noundef i32 @_ZN5Eigen8internal13getRandomBitsIjEET_i(i32 noundef 1)
  %2 = icmp ne i32 %1, 0
  %3 = zext i1 %2 to i64
  %4 = select i1 %2, i1 true, i1 false
  ret i1 %4
}

; Function Attrs: noinline optnone uwtable
define linkonce_odr dso_local void @_ZN5Eigen7ProductINS_6MatrixIbLin1ELin1ELi0ELin1ELin1EEES2_Li0EEC2ERKS2_S5_(ptr noundef nonnull align 8 dereferenceable(16) %0, ptr noundef nonnull align 8 dereferenceable(24) %1, ptr noundef nonnull align 8 dereferenceable(24) %2) unnamed_addr #9 comdat align 2 personality ptr @__gxx_personality_v0 {
  %4 = alloca ptr, align 8
  %5 = alloca ptr, align 8
  %6 = alloca ptr, align 8
  %7 = alloca ptr, align 8
  %8 = alloca i32, align 4
  store ptr %0, ptr %4, align 8
  store ptr %1, ptr %5, align 8
  store ptr %2, ptr %6, align 8
  %9 = load ptr, ptr %4, align 8
  call void @_ZN5Eigen11ProductImplINS_6MatrixIbLin1ELin1ELi0ELin1ELin1EEES2_Li0ENS_5DenseEEC2Ev(ptr noundef nonnull align 1 dereferenceable(1) %9)
  %10 = getelementptr inbounds %"class.Eigen::Product", ptr %9, i32 0, i32 0
  %11 = load ptr, ptr %5, align 8
  store ptr %11, ptr %10, align 8
  %12 = getelementptr inbounds %"class.Eigen::Product", ptr %9, i32 0, i32 1
  %13 = load ptr, ptr %6, align 8
  store ptr %13, ptr %12, align 8
  %14 = load ptr, ptr %5, align 8
  %15 = call noundef i64 @_ZNK5Eigen15PlainObjectBaseINS_6MatrixIbLin1ELin1ELi0ELin1ELin1EEEE4colsEv(ptr noundef nonnull align 8 dereferenceable(24) %14) #3
  %16 = load ptr, ptr %6, align 8
  %17 = call noundef i64 @_ZNK5Eigen15PlainObjectBaseINS_6MatrixIbLin1ELin1ELi0ELin1ELin1EEEE4rowsEv(ptr noundef nonnull align 8 dereferenceable(24) %16) #3
  %18 = icmp eq i64 %15, %17
  br i1 %18, label %46, label %19

19:                                               ; preds = %3
  %20 = load i8, ptr @_ZN5EigenL14no_more_assertE, align 1
  %21 = trunc i8 %20 to i1
  br i1 %21, label %46, label %22

22:                                               ; preds = %19
  store i8 1, ptr @_ZN5EigenL14no_more_assertE, align 1
  %23 = load i8, ptr @_ZN5EigenL32report_on_cerr_on_assert_failureE, align 1
  %24 = trunc i8 %23 to i1
  br i1 %24, label %25, label %38

25:                                               ; preds = %22
  %26 = load ptr, ptr %5, align 8
  %27 = call noundef i64 @_ZNK5Eigen15PlainObjectBaseINS_6MatrixIbLin1ELin1ELi0ELin1ELin1EEEE4colsEv(ptr noundef nonnull align 8 dereferenceable(24) %26) #3
  %28 = load ptr, ptr %6, align 8
  %29 = call noundef i64 @_ZNK5Eigen15PlainObjectBaseINS_6MatrixIbLin1ELin1ELi0ELin1ELin1EEEE4rowsEv(ptr noundef nonnull align 8 dereferenceable(24) %28) #3
  %30 = icmp eq i64 %27, %29
  br i1 %30, label %31, label %32

31:                                               ; preds = %25
  br label %32

32:                                               ; preds = %31, %25
  %33 = phi i1 [ false, %25 ], [ true, %31 ]
  br i1 %33, label %34, label %35

