; ModuleID = './test/threads_non_blocking_thread_pool.cpp'
source_filename = "./test/threads_non_blocking_thread_pool.cpp"
target datalayout = "e-m:e-p270:32:32-p271:32:32-p272:64:64-i64:64-f80:128-n8:16:32:64-S128"
target triple = "x86_64-pc-linux-gnu"

%"class.std::ios_base::Init" = type { i8 }
%"class.std::vector" = type { %"struct.std::_Vector_base" }
%"struct.std::_Vector_base" = type { %"struct.std::_Vector_base<std::__cxx11::basic_string<char>, std::allocator<std::__cxx11::basic_string<char>>>::_Vector_impl" }
%"struct.std::_Vector_base<std::__cxx11::basic_string<char>, std::allocator<std::__cxx11::basic_string<char>>>::_Vector_impl" = type { %"struct.std::_Vector_base<std::__cxx11::basic_string<char>, std::allocator<std::__cxx11::basic_string<char>>>::_Vector_impl_data" }
%"struct.std::_Vector_base<std::__cxx11::basic_string<char>, std::allocator<std::__cxx11::basic_string<char>>>::_Vector_impl_data" = type { ptr, ptr, ptr }
%"class.std::basic_ostream" = type { ptr, %"class.std::basic_ios" }
%"class.std::basic_ios" = type { %"class.std::ios_base", ptr, i8, i8, ptr, ptr, ptr, ptr }
%"class.std::ios_base" = type { ptr, i64, i64, i32, i32, i32, ptr, %"struct.std::ios_base::_Words", [8 x %"struct.std::ios_base::_Words"], i32, ptr, %"class.std::locale" }
%"struct.std::ios_base::_Words" = type { ptr, i64 }
%"class.std::locale" = type { ptr }
%"class.Eigen::EigenTest" = type { %"class.std::__cxx11::basic_string", ptr }
%"class.std::__cxx11::basic_string" = type { %"struct.std::__cxx11::basic_string<char>::_Alloc_hider", i64, %union.anon }
%"struct.std::__cxx11::basic_string<char>::_Alloc_hider" = type { ptr }
%union.anon = type { i64, [8 x i8] }
%"class.std::allocator.0" = type { i8 }
%"struct.Eigen::half" = type { %"struct.Eigen::half_impl::half_base" }
%"struct.Eigen::half_impl::half_base" = type { %"struct.Eigen::half_impl::__half_raw" }
%"struct.Eigen::half_impl::__half_raw" = type { i16 }
%"struct.Eigen::bfloat16" = type { %"struct.Eigen::bfloat16_impl::bfloat16_base" }
%"struct.Eigen::bfloat16_impl::bfloat16_base" = type { %"struct.Eigen::bfloat16_impl::__bfloat16_raw" }
%"struct.Eigen::bfloat16_impl::__bfloat16_raw" = type { i16 }
%"class.std::complex" = type { { float, float } }
%"class.std::complex.3" = type { { double, double } }
%"class.std::complex.4" = type { { x86_fp80, x86_fp80 } }
%"class.std::complex.5" = type { i32, i32 }
%"class.std::__cxx11::basic_stringstream" = type { %"class.std::basic_iostream.base", %"class.std::__cxx11::basic_stringbuf", %"class.std::basic_ios" }
%"class.std::basic_iostream.base" = type { %"class.std::basic_istream.base", %"class.std::basic_ostream.base" }
%"class.std::basic_istream.base" = type { ptr, i64 }
%"class.std::basic_ostream.base" = type { ptr }
%"class.std::__cxx11::basic_stringbuf" = type { %"class.std::basic_streambuf", i32, %"class.std::__cxx11::basic_string" }
%"class.std::basic_streambuf" = type { ptr, ptr, ptr, ptr, ptr, ptr, ptr, %"class.std::locale" }
%"struct.std::_Vector_base.7" = type { %"struct.std::_Vector_base<Eigen::EigenTest *, std::allocator<Eigen::EigenTest *>>::_Vector_impl" }
%"struct.std::_Vector_base<Eigen::EigenTest *, std::allocator<Eigen::EigenTest *>>::_Vector_impl" = type { %"struct.std::_Vector_base<Eigen::EigenTest *, std::allocator<Eigen::EigenTest *>>::_Vector_impl_data" }
%"struct.std::_Vector_base<Eigen::EigenTest *, std::allocator<Eigen::EigenTest *>>::_Vector_impl_data" = type { ptr, ptr, ptr }
%"class.__gnu_cxx::__normal_iterator.56" = type { ptr }
%"class.Eigen::ThreadPoolTempl" = type { %"class.Eigen::ThreadPoolInterface", %"struct.Eigen::StlThreadEnvironment", i32, i8, i32, %"class.Eigen::MaxSizeVector", %"class.Eigen::MaxSizeVector.15", %"class.Eigen::MaxSizeVector.17", i32, %"struct.std::atomic.18", %"struct.std::atomic", %"struct.std::atomic.20", %"struct.std::atomic.20", %"class.Eigen::EventCount" }
%"class.Eigen::ThreadPoolInterface" = type { ptr }
%"struct.Eigen::StlThreadEnvironment" = type { i8 }
%"class.Eigen::MaxSizeVector" = type { i64, i64, ptr }
%"class.Eigen::MaxSizeVector.15" = type { i64, i64, ptr }
%"class.Eigen::MaxSizeVector.17" = type { i64, i64, ptr }
%"struct.std::atomic.18" = type { %"struct.std::__atomic_base.19" }
%"struct.std::__atomic_base.19" = type { i64 }
%"struct.std::atomic" = type { %"struct.std::__atomic_base" }
%"struct.std::__atomic_base" = type { i32 }
%"struct.std::atomic.20" = type { %"struct.std::__atomic_base.21" }
%"struct.std::__atomic_base.21" = type { i8 }
%"class.Eigen::EventCount" = type { %"struct.std::atomic.18", ptr }
%"struct.std::atomic.35" = type { %"struct.std::__atomic_base.36" }
%"struct.std::__atomic_base.36" = type { i32 }
%"class.std::function" = type { %"class.std::_Function_base", ptr }
%"class.std::_Function_base" = type { %"union.std::_Any_data", ptr }
%"union.std::_Any_data" = type { %"union.std::_Nocopy_types" }
%"union.std::_Nocopy_types" = type { { i64, i64 } }
%class.anon.37 = type { ptr, ptr, ptr, ptr }
%class.anon.38 = type { i32, ptr, ptr, ptr, ptr }
%class.anon.39 = type { ptr, ptr, ptr }
%class.anon.42 = type { i8 }
%"class.std::vector.46" = type { %"struct.std::_Vector_base.47" }
%"struct.std::_Vector_base.47" = type { %"struct.std::_Vector_base<std::pair<unsigned int, unsigned int>, std::allocator<std::pair<unsigned int, unsigned int>>>::_Vector_impl" }
%"struct.std::_Vector_base<std::pair<unsigned int, unsigned int>, std::allocator<std::pair<unsigned int, unsigned int>>>::_Vector_impl" = type { %"struct.std::_Vector_base<std::pair<unsigned int, unsigned int>, std::allocator<std::pair<unsigned int, unsigned int>>>::_Vector_impl_data" }
%"struct.std::_Vector_base<std::pair<unsigned int, unsigned int>, std::allocator<std::pair<unsigned int, unsigned int>>>::_Vector_impl_data" = type { ptr, ptr, ptr }
%"class.std::allocator.48" = type { i8 }
%"struct.std::pair.51" = type { i32, i32 }
%class.anon.54 = type { ptr, ptr, ptr, ptr }
%class.anon.55 = type { i32, ptr, ptr, ptr, ptr }
%"class.__gnu_cxx::__normal_iterator" = type { ptr }
%"struct.std::integral_constant" = type { i8 }
%"struct.Eigen::ThreadPoolTempl<Eigen::StlThreadEnvironment>::ThreadData" = type { %"class.std::unique_ptr", %"struct.std::atomic", [116 x i8], %"class.Eigen::RunQueue" }
%"class.std::unique_ptr" = type { %"struct.std::__uniq_ptr_data" }
%"struct.std::__uniq_ptr_data" = type { %"class.std::__uniq_ptr_impl" }
%"class.std::__uniq_ptr_impl" = type { %"class.std::tuple" }
%"class.std::tuple" = type { %"struct.std::_Tuple_impl" }
%"struct.std::_Tuple_impl" = type { %"struct.std::_Head_base.12" }
%"struct.std::_Head_base.12" = type { ptr }
%"class.Eigen::RunQueue" = type { %"struct.std::atomic", [124 x i8], %"struct.std::atomic", %"class.std::mutex", [80 x i8], [1024 x %"struct.Eigen::RunQueue<Eigen::StlThreadEnvironment::Task, 1024>::Elem"] }
%"class.std::mutex" = type { %"class.std::__mutex_base" }
%"class.std::__mutex_base" = type { %union.pthread_mutex_t }
%union.pthread_mutex_t = type { %struct.__pthread_mutex_s }
%struct.__pthread_mutex_s = type { i32, i32, i32, i32, i32, i16, i16, %struct.__pthread_internal_list }
%struct.__pthread_internal_list = type { ptr, ptr }
%"struct.Eigen::RunQueue<Eigen::StlThreadEnvironment::Task, 1024>::Elem" = type { %"struct.std::atomic.13", %"struct.Eigen::StlThreadEnvironment::Task" }
%"struct.std::atomic.13" = type { %"struct.std::__atomic_base.14" }
%"struct.std::__atomic_base.14" = type { i8 }
%"struct.Eigen::StlThreadEnvironment::Task" = type { %"class.std::function" }
%"class.Eigen::EventCount::Waiter" = type <{ %"struct.std::atomic.18", %"class.std::mutex", %"class.std::condition_variable", i64, i32, [20 x i8] }>
%"class.std::condition_variable" = type { %"class.std::__condvar" }
%"class.std::__condvar" = type { %union.pthread_cond_t }
%union.pthread_cond_t = type { %struct.__pthread_cond_s }
%struct.__pthread_cond_s = type { %union.__atomic_wide_counter, %union.__atomic_wide_counter, [2 x i32], [2 x i32], i32, i32, [2 x i32] }
%union.__atomic_wide_counter = type { i64 }
%"class.Eigen::MaxSizeVector.16" = type { i64, i64, ptr }
%"struct.Eigen::ThreadPoolTempl<Eigen::StlThreadEnvironment>::PerThread" = type <{ ptr, i64, i32, [4 x i8] }>
%"class.Eigen::StlThreadEnvironment::EnvThread" = type { %"class.std::thread" }
%"class.std::thread" = type { %"class.std::thread::id" }
%"class.std::thread::id" = type { i64 }
%"class.std::unique_ptr.22" = type { %"struct.std::__uniq_ptr_data.23" }
%"struct.std::__uniq_ptr_data.23" = type { %"class.std::__uniq_ptr_impl.24" }
%"class.std::__uniq_ptr_impl.24" = type { %"class.std::tuple.25" }
%"class.std::tuple.25" = type { %"struct.std::_Tuple_impl.26" }
%"struct.std::_Tuple_impl.26" = type { %"struct.std::_Head_base.29" }
%"struct.std::_Head_base.29" = type { ptr }
%"struct.std::thread::_State_impl" = type { %"struct.std::thread::_State", %"struct.std::thread::_Invoker" }
%"struct.std::thread::_State" = type { ptr }
%"struct.std::thread::_Invoker" = type { %"class.std::tuple.30" }
%"class.std::tuple.30" = type { %"struct.std::_Tuple_impl.31" }
%"struct.std::_Tuple_impl.31" = type { %"struct.std::_Head_base.32" }
%"struct.std::_Head_base.32" = type { %"class.std::function" }
%"struct.std::_Index_tuple" = type { i8 }
%"struct.std::__invoke_other" = type { i8 }
%class.anon = type <{ ptr, i32, [4 x i8] }>
%"struct.std::hash" = type { i8 }
%"struct.Eigen::ThreadPoolTempl<Eigen::StlThreadEnvironment>::SpinningState" = type { i64, i64 }
%"class.std::unique_lock" = type <{ ptr, i8, [7 x i8] }>
%"struct.std::integral_constant.40" = type { i8 }
%class.anon.41 = type { ptr, ptr, ptr }
%"class.std::chrono::duration" = type { i64 }
%"class.std::chrono::duration.44" = type { i64 }
%"class.std::chrono::duration.45" = type { i64 }
%struct.timespec = type { i64, i64 }
%"struct.std::pair" = type { i32, i32 }

$_ZNSt6vectorINSt7__cxx1112basic_stringIcSt11char_traitsIcESaIcEEESaIS5_EEC2Ev = comdat any

$_ZNSt6vectorINSt7__cxx1112basic_stringIcSt11char_traitsIcESaIcEEESaIS5_EED2Ev = comdat any

$_Z22set_repeat_from_stringPKc = comdat any

$_Z20set_seed_from_stringPKc = comdat any

$_ZNSt6vectorINSt7__cxx1112basic_stringIcSt11char_traitsIcESaIcEEESaIS5_EE9push_backEOS5_ = comdat any

$_Z11verify_implbPKcS0_iS0_ = comdat any

$_ZN5Eigen9EigenTest3allEv = comdat any

$_ZNKSt6vectorIPN5Eigen9EigenTestESaIS2_EE4sizeEv = comdat any

$_ZNSt6vectorINSt7__cxx1112basic_stringIcSt11char_traitsIcESaIcEEESaIS5_EE4backEv = comdat any

$_ZNKSt6vectorIPN5Eigen9EigenTestESaIS2_EEixEm = comdat any

$_ZNSt6vectorINSt7__cxx1112basic_stringIcSt11char_traitsIcESaIcEEESaIS5_EE9push_backERKS5_ = comdat any

$_ZNK5Eigen9EigenTest4nameB5cxx11Ev = comdat any

$_ZNK5Eigen9EigenTestclEv = comdat any

$_ZNSt6vectorINSt7__cxx1112basic_stringIcSt11char_traitsIcESaIcEEESaIS5_EE8pop_backEv = comdat any

$_ZN5Eigen9EigenTestC2EPKcPFvvE = comdat any

$_ZN5Eigen9EigenTestD2Ev = comdat any

$_ZNSt12_Vector_baseINSt7__cxx1112basic_stringIcSt11char_traitsIcESaIcEEESaIS5_EEC2Ev = comdat any

$_ZNSt12_Vector_baseINSt7__cxx1112basic_stringIcSt11char_traitsIcESaIcEEESaIS5_EE12_Vector_implC2Ev = comdat any

$_ZNSaINSt7__cxx1112basic_stringIcSt11char_traitsIcESaIcEEEEC2Ev = comdat any

$_ZNSt12_Vector_baseINSt7__cxx1112basic_stringIcSt11char_traitsIcESaIcEEESaIS5_EE17_Vector_impl_dataC2Ev = comdat any

$_ZNSt15__new_allocatorINSt7__cxx1112basic_stringIcSt11char_traitsIcESaIcEEEEC2Ev = comdat any

$_ZNKSt6vectorINSt7__cxx1112basic_stringIcSt11char_traitsIcESaIcEEESaIS5_EE4sizeEv = comdat any

$_ZNSt6vectorINSt7__cxx1112basic_stringIcSt11char_traitsIcESaIcEEESaIS5_EEixEm = comdat any

$_ZN5Eigen9EigenTest20get_registered_testsEv = comdat any

$_ZNSt6vectorIPN5Eigen9EigenTestESaIS2_EEC2Ev = comdat any

$_ZNSt12_Vector_baseIPN5Eigen9EigenTestESaIS2_EEC2Ev = comdat any

$_ZNSt12_Vector_baseIPN5Eigen9EigenTestESaIS2_EE12_Vector_implC2Ev = comdat any

$_ZNSaIPN5Eigen9EigenTestEEC2Ev = comdat any

$_ZNSt12_Vector_baseIPN5Eigen9EigenTestESaIS2_EE17_Vector_impl_dataC2Ev = comdat any

$_ZNSt15__new_allocatorIPN5Eigen9EigenTestEEC2Ev = comdat any

$_ZNSt6vectorIPN5Eigen9EigenTestESaIS2_EE9push_backEOS2_ = comdat any

$_ZNSt6vectorIPN5Eigen9EigenTestESaIS2_EE12emplace_backIJS2_EEEvDpOT_ = comdat any

$_ZNSt16allocator_traitsISaIPN5Eigen9EigenTestEEE9constructIS2_JS2_EEEvRS3_PT_DpOT0_ = comdat any

$_ZNSt6vectorIPN5Eigen9EigenTestESaIS2_EE17_M_realloc_insertIJS2_EEEvN9__gnu_cxx17__normal_iteratorIPS2_S4_EEDpOT_ = comdat any

$_ZNSt6vectorIPN5Eigen9EigenTestESaIS2_EE3endEv = comdat any

$_ZNSt15__new_allocatorIPN5Eigen9EigenTestEE9constructIS2_JS2_EEEvPT_DpOT0_ = comdat any

$_ZNKSt6vectorIPN5Eigen9EigenTestESaIS2_EE12_M_check_lenEmPKc = comdat any

$_ZN9__gnu_cxxmiIPPN5Eigen9EigenTestESt6vectorIS3_SaIS3_EEEENS_17__normal_iteratorIT_T0_E15difference_typeERKSB_SE_ = comdat any

$_ZNSt6vectorIPN5Eigen9EigenTestESaIS2_EE5beginEv = comdat any

$_ZNSt12_Vector_baseIPN5Eigen9EigenTestESaIS2_EE11_M_allocateEm = comdat any

$_ZNSt6vectorIPN5Eigen9EigenTestESaIS2_EE11_S_relocateEPS2_S5_S5_RS3_ = comdat any

$_ZNK9__gnu_cxx17__normal_iteratorIPPN5Eigen9EigenTestESt6vectorIS3_SaIS3_EEE4baseEv = comdat any

$_ZNSt12_Vector_baseIPN5Eigen9EigenTestESaIS2_EE19_M_get_Tp_allocatorEv = comdat any

$_ZNSt12_Vector_baseIPN5Eigen9EigenTestESaIS2_EE13_M_deallocateEPS2_m = comdat any

$_ZNKSt6vectorIPN5Eigen9EigenTestESaIS2_EE8max_sizeEv = comdat any

$_ZSt3maxImERKT_S2_S2_ = comdat any

$_ZNSt6vectorIPN5Eigen9EigenTestESaIS2_EE11_S_max_sizeERKS3_ = comdat any

$_ZNKSt12_Vector_baseIPN5Eigen9EigenTestESaIS2_EE19_M_get_Tp_allocatorEv = comdat any

$_ZNSt16allocator_traitsISaIPN5Eigen9EigenTestEEE8max_sizeERKS3_ = comdat any

$_ZSt3minImERKT_S2_S2_ = comdat any

$__clang_call_terminate = comdat any

$_ZNKSt15__new_allocatorIPN5Eigen9EigenTestEE8max_sizeEv = comdat any

$_ZNKSt15__new_allocatorIPN5Eigen9EigenTestEE11_M_max_sizeEv = comdat any

$_ZN9__gnu_cxx17__normal_iteratorIPPN5Eigen9EigenTestESt6vectorIS3_SaIS3_EEEC2ERKS4_ = comdat any

$_ZNSt16allocator_traitsISaIPN5Eigen9EigenTestEEE8allocateERS3_m = comdat any

$_ZNSt15__new_allocatorIPN5Eigen9EigenTestEE8allocateEmPKv = comdat any

$_ZNSt6vectorIPN5Eigen9EigenTestESaIS2_EE14_S_do_relocateEPS2_S5_S5_RS3_St17integral_constantIbLb1EE = comdat any

$_ZSt12__relocate_aIPPN5Eigen9EigenTestES3_SaIS2_EET0_T_S6_S5_RT1_ = comdat any

$_ZSt14__relocate_a_1IPN5Eigen9EigenTestES2_ENSt9enable_ifIXsr3std24__is_bitwise_relocatableIT_EE5valueEPS4_E4typeES5_S5_S5_RSaIT0_E = comdat any

$_ZSt12__niter_baseIPPN5Eigen9EigenTestEET_S4_ = comdat any

$_ZNSt16allocator_traitsISaIPN5Eigen9EigenTestEEE10deallocateERS3_PS2_m = comdat any

$_ZNSt15__new_allocatorIPN5Eigen9EigenTestEE10deallocateEPS2_m = comdat any

$_ZN5Eigen15ThreadPoolTemplINS_20StlThreadEnvironmentEEC2EiS1_ = comdat any

$_ZN5Eigen15ThreadPoolTemplINS_20StlThreadEnvironmentEED2Ev = comdat any

$_ZN5Eigen19ThreadPoolInterfaceC2Ev = comdat any

$_ZN5Eigen13MaxSizeVectorINS_15ThreadPoolTemplINS_20StlThreadEnvironmentEE10ThreadDataEEC2Em = comdat any

$_ZN5Eigen13MaxSizeVectorINS0_IjEEEC2Em = comdat any

$_ZN5Eigen13MaxSizeVectorINS_10EventCount6WaiterEEC2Em = comdat any

$_ZN5Eigen15ThreadPoolTemplINS_20StlThreadEnvironmentEE15EncodePartitionEjj = comdat any

$_ZNSt6atomicImEC2Em = comdat any

$_ZNSt6atomicIjEC2Ej = comdat any

$_ZNSt6atomicIbEC2Eb = comdat any

$_ZN5Eigen10EventCountC2ERNS_13MaxSizeVectorINS0_6WaiterEEE = comdat any

$_ZN5Eigen13MaxSizeVectorINS_10EventCount6WaiterEE6resizeEm = comdat any

$_ZN5Eigen13MaxSizeVectorINS0_IjEEE12emplace_backIiEEvRKT_ = comdat any

$_ZN5Eigen15ThreadPoolTemplINS_20StlThreadEnvironmentEE15ComputeCoprimesEiPNS_13MaxSizeVectorIjEE = comdat any

$_ZN5Eigen13MaxSizeVectorINS0_IjEEE4backEv = comdat any

$_ZN5Eigen13MaxSizeVectorINS_15ThreadPoolTemplINS_20StlThreadEnvironmentEE10ThreadDataEE6resizeEm = comdat any

$_ZN5Eigen15ThreadPoolTemplINS_20StlThreadEnvironmentEE17SetStealPartitionEmj = comdat any

$_ZN5Eigen13MaxSizeVectorINS_15ThreadPoolTemplINS_20StlThreadEnvironmentEE10ThreadDataEEixEm = comdat any

$_ZNSt10unique_ptrIN5Eigen20StlThreadEnvironment9EnvThreadESt14default_deleteIS2_EE5resetEPS2_ = comdat any

$_ZN5Eigen20StlThreadEnvironment12CreateThreadESt8functionIFvvEE = comdat any

$_ZNSt8functionIFvvEEC2IZN5Eigen15ThreadPoolTemplINS3_20StlThreadEnvironmentEEC1EibS5_EUlvE_vEEOT_ = comdat any

$_ZNSt8functionIFvvEED2Ev = comdat any

$_ZN5Eigen10EventCountD2Ev = comdat any

$_ZN5Eigen13MaxSizeVectorINS_10EventCount6WaiterEED2Ev = comdat any

$_ZN5Eigen13MaxSizeVectorINS0_IjEEED2Ev = comdat any

$_ZN5Eigen13MaxSizeVectorINS_15ThreadPoolTemplINS_20StlThreadEnvironmentEE10ThreadDataEED2Ev = comdat any

$_ZN5Eigen15ThreadPoolTemplINS_20StlThreadEnvironmentEE8ScheduleESt8functionIFvvEE = comdat any

$_ZN5Eigen15ThreadPoolTemplINS_20StlThreadEnvironmentEE16ScheduleWithHintESt8functionIFvvEEii = comdat any

$_ZN5Eigen15ThreadPoolTemplINS_20StlThreadEnvironmentEE6CancelEv = comdat any

$_ZNK5Eigen15ThreadPoolTemplINS_20StlThreadEnvironmentEE10NumThreadsEv = comdat any

$_ZNK5Eigen15ThreadPoolTemplINS_20StlThreadEnvironmentEE15CurrentThreadIdEv = comdat any

$_ZN5Eigen15ThreadPoolTemplINS_20StlThreadEnvironmentEED0Ev = comdat any

$_ZN5Eigen19ThreadPoolInterface16ScheduleWithHintESt8functionIFvvEEii = comdat any

$_ZN5Eigen19ThreadPoolInterface6CancelEv = comdat any

$_ZN5Eigen19ThreadPoolInterfaceD2Ev = comdat any

$_ZN5Eigen19ThreadPoolInterfaceD0Ev = comdat any

$_ZNSt8functionIFvvEEC2ERKS1_ = comdat any

$_ZNSt14_Function_baseC2Ev = comdat any

$_ZNKSt8functionIFvvEEcvbEv = comdat any

$_ZNSt14_Function_baseD2Ev = comdat any

$_ZNKSt14_Function_base8_M_emptyEv = comdat any

$_ZN5Eigen8internal23handmade_aligned_mallocEmm = comdat any

$_ZN5Eigen22eigen_assert_exceptionC2Ev = comdat any

$_ZN5Eigen22eigen_assert_exceptionD2Ev = comdat any

$_ZN5Eigen8internal28check_that_malloc_is_allowedEv = comdat any

$_ZNSt13__atomic_baseImEC2Em = comdat any

$_ZNSt13__atomic_baseIjEC2Ej = comdat any

$_ZNSt13__atomic_baseIbEC2Eb = comdat any

$_ZNK5Eigen13MaxSizeVectorINS_10EventCount6WaiterEE4sizeEv = comdat any

$_ZN5Eigen10EventCount6WaiterC2Ev = comdat any

$_ZN5Eigen10EventCount6WaiterD2Ev = comdat any

$_ZNSt5mutexC2Ev = comdat any

$_ZNSt12__mutex_baseC2Ev = comdat any

$_ZN5Eigen13MaxSizeVectorIjEC2Em = comdat any

$_ZN5Eigen13MaxSizeVectorIjE9push_backERKj = comdat any

$_ZN5Eigen15ThreadPoolTemplINS_20StlThreadEnvironmentEE10ThreadDataC2Ev = comdat any

$_ZN5Eigen15ThreadPoolTemplINS_20StlThreadEnvironmentEE10ThreadDataD2Ev = comdat any

$_ZNSt10unique_ptrIN5Eigen20StlThreadEnvironment9EnvThreadESt14default_deleteIS2_EEC2IS4_vEEv = comdat any

$_ZN5Eigen8RunQueueINS_20StlThreadEnvironment4TaskELj1024EEC2Ev = comdat any

$_ZNSt10unique_ptrIN5Eigen20StlThreadEnvironment9EnvThreadESt14default_deleteIS2_EED2Ev = comdat any

$_ZNSt15__uniq_ptr_dataIN5Eigen20StlThreadEnvironment9EnvThreadESt14default_deleteIS2_ELb1ELb1EEC2Ev = comdat any

$_ZNSt15__uniq_ptr_implIN5Eigen20StlThreadEnvironment9EnvThreadESt14default_deleteIS2_EEC2Ev = comdat any

$_ZNSt5tupleIJPN5Eigen20StlThreadEnvironment9EnvThreadESt14default_deleteIS2_EEEC2ILb1ELb1EEEv = comdat any

$_ZNSt11_Tuple_implILm0EJPN5Eigen20StlThreadEnvironment9EnvThreadESt14default_deleteIS2_EEEC2Ev = comdat any

$_ZNSt11_Tuple_implILm1EJSt14default_deleteIN5Eigen20StlThreadEnvironment9EnvThreadEEEEC2Ev = comdat any

$_ZNSt10_Head_baseILm0EPN5Eigen20StlThreadEnvironment9EnvThreadELb0EEC2Ev = comdat any

$_ZNSt10_Head_baseILm1ESt14default_deleteIN5Eigen20StlThreadEnvironment9EnvThreadEELb1EEC2Ev = comdat any

$_ZN5Eigen8RunQueueINS_20StlThreadEnvironment4TaskELj1024EE4ElemC2Ev = comdat any

$_ZN5Eigen20StlThreadEnvironment4TaskC2Ev = comdat any

$_ZNSt8functionIFvvEEC2Ev = comdat any

$_ZStanSt12memory_orderSt23__memory_order_modifier = comdat any

$_ZNSt15__uniq_ptr_implIN5Eigen20StlThreadEnvironment9EnvThreadESt14default_deleteIS2_EE6_M_ptrEv = comdat any

$_ZNSt10unique_ptrIN5Eigen20StlThreadEnvironment9EnvThreadESt14default_deleteIS2_EE11get_deleterEv = comdat any

$_ZNKSt14default_deleteIN5Eigen20StlThreadEnvironment9EnvThreadEEclEPS2_ = comdat any

$_ZSt3getILm0EJPN5Eigen20StlThreadEnvironment9EnvThreadESt14default_deleteIS2_EEERNSt13tuple_elementIXT_ESt5tupleIJDpT0_EEE4typeERSA_ = comdat any

$_ZSt12__get_helperILm0EPN5Eigen20StlThreadEnvironment9EnvThreadEJSt14default_deleteIS2_EEERT0_RSt11_Tuple_implIXT_EJS6_DpT1_EE = comdat any

$_ZNSt11_Tuple_implILm0EJPN5Eigen20StlThreadEnvironment9EnvThreadESt14default_deleteIS2_EEE7_M_headERS6_ = comdat any

$_ZNSt10_Head_baseILm0EPN5Eigen20StlThreadEnvironment9EnvThreadELb0EE7_M_headERS4_ = comdat any

$_ZNSt15__uniq_ptr_implIN5Eigen20StlThreadEnvironment9EnvThreadESt14default_deleteIS2_EE10_M_deleterEv = comdat any

$_ZSt3getILm1EJPN5Eigen20StlThreadEnvironment9EnvThreadESt14default_deleteIS2_EEERNSt13tuple_elementIXT_ESt5tupleIJDpT0_EEE4typeERSA_ = comdat any

$_ZSt12__get_helperILm1ESt14default_deleteIN5Eigen20StlThreadEnvironment9EnvThreadEEJEERT0_RSt11_Tuple_implIXT_EJS5_DpT1_EE = comdat any

$_ZNSt11_Tuple_implILm1EJSt14default_deleteIN5Eigen20StlThreadEnvironment9EnvThreadEEEE7_M_headERS5_ = comdat any

$_ZNSt10_Head_baseILm1ESt14default_deleteIN5Eigen20StlThreadEnvironment9EnvThreadEELb1EE7_M_headERS5_ = comdat any

$_ZN5Eigen20StlThreadEnvironment9EnvThreadD2Ev = comdat any

$_ZNSt6threadD2Ev = comdat any

$_ZNKSt6thread8joinableEv = comdat any

$_ZSteqNSt6thread2idES0_ = comdat any

$_ZNSt6thread2idC2Ev = comdat any

$_ZN5Eigen8RunQueueINS_20StlThreadEnvironment4TaskELj1024EED2Ev = comdat any

$_ZNK5Eigen8RunQueueINS_20StlThreadEnvironment4TaskELj1024EE4SizeEv = comdat any

$_ZN5Eigen8RunQueueINS_20StlThreadEnvironment4TaskELj1024EE4ElemD2Ev = comdat any

$_ZNK5Eigen8RunQueueINS_20StlThreadEnvironment4TaskELj1024EE14SizeOrNotEmptyILb1EEEjv = comdat any

$_ZN5Eigen20StlThreadEnvironment4TaskD2Ev = comdat any

$_ZNSt15__uniq_ptr_implIN5Eigen20StlThreadEnvironment9EnvThreadESt14default_deleteIS2_EE5resetEPS2_ = comdat any

$_ZNSt8functionIFvvEEC2EOS1_ = comdat any

$_ZN5Eigen20StlThreadEnvironment9EnvThreadC2ESt8functionIFvvEE = comdat any

$_ZNSt6threadC2ISt8functionIFvvEEJEvEEOT_DpOT0_ = comdat any

$_ZNSt6thread11_State_implINS_8_InvokerISt5tupleIJSt8functionIFvvEEEEEEEC2IJS5_EEEDpOT_ = comdat any

$_ZNSt10unique_ptrINSt6thread6_StateESt14default_deleteIS1_EEC2IS3_vEEPS1_ = comdat any

$_ZNSt10unique_ptrINSt6thread6_StateESt14default_deleteIS1_EED2Ev = comdat any

$_ZNSt6thread6_StateC2Ev = comdat any

$_ZNSt6thread8_InvokerISt5tupleIJSt8functionIFvvEEEEEC2IJS4_EEEDpOT_ = comdat any

$_ZNSt6thread11_State_implINS_8_InvokerISt5tupleIJSt8functionIFvvEEEEEEED2Ev = comdat any

$_ZNSt6thread11_State_implINS_8_InvokerISt5tupleIJSt8functionIFvvEEEEEEED0Ev = comdat any

$_ZNSt6thread11_State_implINS_8_InvokerISt5tupleIJSt8functionIFvvEEEEEEE6_M_runEv = comdat any

$_ZNSt5tupleIJSt8functionIFvvEEEEC2IJS2_ELb1ELb1EEEDpOT_ = comdat any

$_ZNSt11_Tuple_implILm0EJSt8functionIFvvEEEEC2IS2_EEOT_ = comdat any

$_ZNSt10_Head_baseILm0ESt8functionIFvvEELb0EEC2IS2_EEOT_ = comdat any

$_ZNSt6thread8_InvokerISt5tupleIJSt8functionIFvvEEEEED2Ev = comdat any

$_ZNSt5tupleIJSt8functionIFvvEEEED2Ev = comdat any

$_ZNSt11_Tuple_implILm0EJSt8functionIFvvEEEED2Ev = comdat any

$_ZNSt10_Head_baseILm0ESt8functionIFvvEELb0EED2Ev = comdat any

$_ZNSt6thread8_InvokerISt5tupleIJSt8functionIFvvEEEEEclEv = comdat any

$_ZNSt6thread8_InvokerISt5tupleIJSt8functionIFvvEEEEE9_M_invokeIJLm0EEEEvSt12_Index_tupleIJXspT_EEE = comdat any

$_ZSt8__invokeISt8functionIFvvEEJEENSt15__invoke_resultIT_JDpT0_EE4typeEOS4_DpOS5_ = comdat any

$_ZSt3getILm0EJSt8functionIFvvEEEEONSt13tuple_elementIXT_ESt5tupleIJDpT0_EEE4typeEOS7_ = comdat any

$_ZSt13__invoke_implIvSt8functionIFvvEEJEET_St14__invoke_otherOT0_DpOT1_ = comdat any

$_ZNKSt8functionIFvvEEclEv = comdat any

$_ZSt12__get_helperILm0ESt8functionIFvvEEJEERT0_RSt11_Tuple_implIXT_EJS3_DpT1_EE = comdat any

$_ZNSt11_Tuple_implILm0EJSt8functionIFvvEEEE7_M_headERS3_ = comdat any

$_ZNSt10_Head_baseILm0ESt8functionIFvvEELb0EE7_M_headERS3_ = comdat any

$_ZNSt15__uniq_ptr_dataINSt6thread6_StateESt14default_deleteIS1_ELb1ELb1EECI2St15__uniq_ptr_implIS1_S3_EEPS1_ = comdat any

$_ZNSt15__uniq_ptr_implINSt6thread6_StateESt14default_deleteIS1_EEC2EPS1_ = comdat any

$_ZNSt5tupleIJPNSt6thread6_StateESt14default_deleteIS1_EEEC2ILb1ELb1EEEv = comdat any

$_ZNSt15__uniq_ptr_implINSt6thread6_StateESt14default_deleteIS1_EE6_M_ptrEv = comdat any

$_ZNSt11_Tuple_implILm0EJPNSt6thread6_StateESt14default_deleteIS1_EEEC2Ev = comdat any

$_ZNSt11_Tuple_implILm1EJSt14default_deleteINSt6thread6_StateEEEEC2Ev = comdat any

$_ZNSt10_Head_baseILm0EPNSt6thread6_StateELb0EEC2Ev = comdat any

$_ZNSt10_Head_baseILm1ESt14default_deleteINSt6thread6_StateEELb1EEC2Ev = comdat any

$_ZSt3getILm0EJPNSt6thread6_StateESt14default_deleteIS1_EEERNSt13tuple_elementIXT_ESt5tupleIJDpT0_EEE4typeERS9_ = comdat any

$_ZSt12__get_helperILm0EPNSt6thread6_StateEJSt14default_deleteIS1_EEERT0_RSt11_Tuple_implIXT_EJS5_DpT1_EE = comdat any

$_ZNSt11_Tuple_implILm0EJPNSt6thread6_StateESt14default_deleteIS1_EEE7_M_headERS5_ = comdat any

$_ZNSt10_Head_baseILm0EPNSt6thread6_StateELb0EE7_M_headERS3_ = comdat any

$_ZNSt10unique_ptrINSt6thread6_StateESt14default_deleteIS1_EE11get_deleterEv = comdat any

$_ZNKSt14default_deleteINSt6thread6_StateEEclEPS1_ = comdat any

$_ZNSt15__uniq_ptr_implINSt6thread6_StateESt14default_deleteIS1_EE10_M_deleterEv = comdat any

$_ZSt3getILm1EJPNSt6thread6_StateESt14default_deleteIS1_EEERNSt13tuple_elementIXT_ESt5tupleIJDpT0_EEE4typeERS9_ = comdat any

$_ZSt12__get_helperILm1ESt14default_deleteINSt6thread6_StateEEJEERT0_RSt11_Tuple_implIXT_EJS4_DpT1_EE = comdat any

$_ZNSt11_Tuple_implILm1EJSt14default_deleteINSt6thread6_StateEEEE7_M_headERS4_ = comdat any

$_ZNSt10_Head_baseILm1ESt14default_deleteINSt6thread6_StateEELb1EE7_M_headERS4_ = comdat any

$_ZNSt14_Function_base13_Base_managerIZN5Eigen15ThreadPoolTemplINS1_20StlThreadEnvironmentEEC1EibS3_EUlvE_E21_M_not_empty_functionIS5_EEbRKT_ = comdat any

$_ZNSt14_Function_base13_Base_managerIZN5Eigen15ThreadPoolTemplINS1_20StlThreadEnvironmentEEC1EibS3_EUlvE_E15_M_init_functorIS5_EEvRSt9_Any_dataOT_ = comdat any

$_ZNSt17_Function_handlerIFvvEZN5Eigen15ThreadPoolTemplINS1_20StlThreadEnvironmentEEC1EibS3_EUlvE_E9_M_invokeERKSt9_Any_data = comdat any

$_ZNSt17_Function_handlerIFvvEZN5Eigen15ThreadPoolTemplINS1_20StlThreadEnvironmentEEC1EibS3_EUlvE_E10_M_managerERSt9_Any_dataRKS7_St18_Manager_operation = comdat any

$_ZNSt14_Function_base13_Base_managerIZN5Eigen15ThreadPoolTemplINS1_20StlThreadEnvironmentEEC1EibS3_EUlvE_E9_M_createIS5_EEvRSt9_Any_dataOT_St17integral_constantIbLb1EE = comdat any

$_ZNSt9_Any_data9_M_accessEv = comdat any

$_ZSt10__invoke_rIvRZN5Eigen15ThreadPoolTemplINS0_20StlThreadEnvironmentEEC1EibS2_EUlvE_JEENSt9enable_ifIXsr6__and_ISt7is_voidIT_ESt14__is_invocableIT0_JDpT1_EEEE5valueES8_E4typeEOSB_DpOSC_ = comdat any

$_ZNSt14_Function_base13_Base_managerIZN5Eigen15ThreadPoolTemplINS1_20StlThreadEnvironmentEEC1EibS3_EUlvE_E14_M_get_pointerERKSt9_Any_data = comdat any

$_ZSt13__invoke_implIvRZN5Eigen15ThreadPoolTemplINS0_20StlThreadEnvironmentEEC1EibS2_EUlvE_JEET_St14__invoke_otherOT0_DpOT1_ = comdat any

$_ZZN5Eigen15ThreadPoolTemplINS_20StlThreadEnvironmentEEC1EibS1_ENKUlvE_clEv = comdat any

$_ZN5Eigen15ThreadPoolTemplINS_20StlThreadEnvironmentEE10WorkerLoopEi = comdat any

$_ZN5Eigen15ThreadPoolTemplINS_20StlThreadEnvironmentEE12GetPerThreadEv = comdat any

$_ZN5Eigen15ThreadPoolTemplINS_20StlThreadEnvironmentEE18GlobalThreadIdHashEv = comdat any

$_ZN5Eigen13MaxSizeVectorINS_10EventCount6WaiterEEixEm = comdat any

$_ZNKSt6atomicIbE4loadESt12memory_order = comdat any

$_ZN5Eigen15ThreadPoolTemplINS_20StlThreadEnvironmentEE12MaybeGetTaskEPNS1_4TaskE = comdat any

$_ZN5Eigen15ThreadPoolTemplINS_20StlThreadEnvironmentEE11WaitForWorkEPNS_10EventCount6WaiterEPNS1_4TaskE = comdat any

$_ZN5Eigen20StlThreadEnvironment11ExecuteTaskERKNS0_4TaskE = comdat any

$_ZNKSt4hashINSt6thread2idEEclERKS1_ = comdat any

$_ZNSt11this_thread6get_idEv = comdat any

$_ZNSt10_Hash_impl4hashImEEmRKT_ = comdat any

$_ZNSt10_Hash_impl4hashEPKvmm = comdat any

$_ZNSt6thread2idC2Em = comdat any

$_ZN5Eigen8RunQueueINS_20StlThreadEnvironment4TaskELj1024EE8PopFrontEv = comdat any

$_ZN5Eigen20StlThreadEnvironment4TaskaSEOS1_ = comdat any

$_ZN5Eigen15ThreadPoolTemplINS_20StlThreadEnvironmentEE10LocalStealEv = comdat any

$_ZN5Eigen15ThreadPoolTemplINS_20StlThreadEnvironmentEE11GlobalStealEv = comdat any

$_ZN5Eigen15ThreadPoolTemplINS_20StlThreadEnvironmentEE13StartSpinningEv = comdat any

$_ZN5Eigen15ThreadPoolTemplINS_20StlThreadEnvironmentEE12StopSpinningEv = comdat any

$_ZN5Eigen20StlThreadEnvironment4TaskC2EOS1_ = comdat any

$_ZSt23__cmpexch_failure_orderSt12memory_order = comdat any

$_ZStorSt12memory_orderSt23__memory_order_modifier = comdat any

$_ZSt24__cmpexch_failure_order2St12memory_order = comdat any

$_ZNSt8functionIFvvEEaSEOS1_ = comdat any

$_ZNSt8functionIFvvEE4swapERS1_ = comdat any

$_ZSt4swapISt9_Any_dataENSt9enable_ifIXsr6__and_ISt6__not_ISt15__is_tuple_likeIT_EESt21is_move_constructibleIS4_ESt18is_move_assignableIS4_EEE5valueEvE4typeERS4_SD_ = comdat any

$_ZSt4swapIPFbRSt9_Any_dataRKS0_St18_Manager_operationEENSt9enable_ifIXsr6__and_ISt6__not_ISt15__is_tuple_likeIT_EESt21is_move_constructibleISA_ESt18is_move_assignableISA_EEE5valueEvE4typeERSA_SJ_ = comdat any

$_ZSt4swapIPFvRKSt9_Any_dataEENSt9enable_ifIXsr6__and_ISt6__not_ISt15__is_tuple_likeIT_EESt21is_move_constructibleIS8_ESt18is_move_assignableIS8_EEE5valueEvE4typeERS8_SH_ = comdat any

$_ZN5Eigen15ThreadPoolTemplINS_20StlThreadEnvironmentEE17GetStealPartitionEi = comdat any

$_ZN5Eigen15ThreadPoolTemplINS_20StlThreadEnvironmentEE15DecodePartitionEjPjS3_ = comdat any

$_ZN5Eigen15ThreadPoolTemplINS_20StlThreadEnvironmentEE12AssertBoundsEii = comdat any

$_ZN5Eigen15ThreadPoolTemplINS_20StlThreadEnvironmentEE5StealEjj = comdat any

$_ZN5Eigen15ThreadPoolTemplINS_20StlThreadEnvironmentEE4RandEPm = comdat any

$_ZN5Eigen13MaxSizeVectorINS0_IjEEEixEm = comdat any

$_ZNK5Eigen13MaxSizeVectorIjE4sizeEv = comdat any

$_ZN5Eigen13MaxSizeVectorIjEixEm = comdat any

$_ZN5Eigen8RunQueueINS_20StlThreadEnvironment4TaskELj1024EE7PopBackEv = comdat any

$_ZNK5Eigen8RunQueueINS_20StlThreadEnvironment4TaskELj1024EE5EmptyEv = comdat any

$_ZNSt11unique_lockISt5mutexEC2ERS0_ = comdat any

$_ZNSt11unique_lockISt5mutexED2Ev = comdat any

$_ZNK5Eigen8RunQueueINS_20StlThreadEnvironment4TaskELj1024EE14SizeOrNotEmptyILb0EEEjv = comdat any

$_ZNSt11unique_lockISt5mutexE4lockEv = comdat any

$_ZNSt5mutex4lockEv = comdat any

$_ZNSt11unique_lockISt5mutexE6unlockEv = comdat any

$_ZNSt5mutex6unlockEv = comdat any

$_ZNK5Eigen15ThreadPoolTemplINS_20StlThreadEnvironmentEE16NumActiveThreadsEv = comdat any

$_ZN5Eigen15ThreadPoolTemplINS_20StlThreadEnvironmentEE13SpinningState6DecodeEm = comdat any

$_ZNK5Eigen15ThreadPoolTemplINS_20StlThreadEnvironmentEE13SpinningState6EncodeEv = comdat any

$_ZN5Eigen10EventCount7PrewaitEv = comdat any

$_ZN5Eigen15ThreadPoolTemplINS_20StlThreadEnvironmentEE18NonEmptyQueueIndexEv = comdat any

$_ZN5Eigen10EventCount10CancelWaitEv = comdat any

$_ZNKSt6atomicIbEcvbEv = comdat any

$_ZNSt13__atomic_baseIjEppEi = comdat any

$_ZNKSt13__atomic_baseIjEcvjEv = comdat any

$_ZNSt13__atomic_baseIjEmmEi = comdat any

$_ZN5Eigen10EventCount6NotifyEb = comdat any

$_ZN5Eigen10EventCount10CommitWaitEPNS0_6WaiterE = comdat any

$_ZN5Eigen10EventCount10CheckStateEmb = comdat any

$_ZNK5Eigen13MaxSizeVectorINS_15ThreadPoolTemplINS_20StlThreadEnvironmentEE10ThreadDataEE4sizeEv = comdat any

$_ZN5Eigen10EventCount6UnparkEPNS0_6WaiterE = comdat any

$_ZN5Eigen8internal13convert_indexImmEET_RKT0_ = comdat any

$_ZN5Eigen8internal18convert_index_implImmLb1ELb0ELb1ELb0EE3runERKm = comdat any

$_ZN5Eigen16GenericNumTraitsImE7highestEv = comdat any

$_ZNSt14numeric_limitsImE3maxEv = comdat any

$_ZN5Eigen10EventCount4ParkEPNS0_6WaiterE = comdat any

$_ZNKSt9_Any_data9_M_accessIZN5Eigen15ThreadPoolTemplINS1_20StlThreadEnvironmentEEC1EibS3_EUlvE_EERKT_v = comdat any

$_ZNKSt9_Any_data9_M_accessEv = comdat any

$_ZNSt9_Any_data9_M_accessIPKSt9type_infoEERT_v = comdat any

$_ZNSt9_Any_data9_M_accessIPZN5Eigen15ThreadPoolTemplINS1_20StlThreadEnvironmentEEC1EibS3_EUlvE_EERT_v = comdat any

$_ZNSt14_Function_base13_Base_managerIZN5Eigen15ThreadPoolTemplINS1_20StlThreadEnvironmentEEC1EibS3_EUlvE_E10_M_managerERSt9_Any_dataRKS7_St18_Manager_operation = comdat any

$_ZNSt14_Function_base13_Base_managerIZN5Eigen15ThreadPoolTemplINS1_20StlThreadEnvironmentEEC1EibS3_EUlvE_E15_M_init_functorIRKS5_EEvRSt9_Any_dataOT_ = comdat any

$_ZNSt14_Function_base13_Base_managerIZN5Eigen15ThreadPoolTemplINS1_20StlThreadEnvironmentEEC1EibS3_EUlvE_E10_M_destroyERSt9_Any_dataSt17integral_constantIbLb1EE = comdat any

$_ZNSt14_Function_base13_Base_managerIZN5Eigen15ThreadPoolTemplINS1_20StlThreadEnvironmentEEC1EibS3_EUlvE_E9_M_createIRKS5_EEvRSt9_Any_dataOT_St17integral_constantIbLb1EE = comdat any

$_ZNSt9_Any_data9_M_accessIZN5Eigen15ThreadPoolTemplINS1_20StlThreadEnvironmentEEC1EibS3_EUlvE_EERT_v = comdat any

$_ZN5Eigen8internal21handmade_aligned_freeEPv = comdat any

$_ZN5Eigen13MaxSizeVectorIjED2Ev = comdat any

$_ZN5Eigen20StlThreadEnvironment10CreateTaskESt8functionIFvvEE = comdat any

$_ZN5Eigen8RunQueueINS_20StlThreadEnvironment4TaskELj1024EE9PushFrontES2_ = comdat any

$_ZN5Eigen8RunQueueINS_20StlThreadEnvironment4TaskELj1024EE8PushBackES2_ = comdat any

$_ZN5Eigen15ThreadPoolTemplINS_20StlThreadEnvironmentEE28IsNotifyParkedThreadRequiredEv = comdat any

$_ZNSt6atomicIbEaSEb = comdat any

$_ZNSt13__atomic_baseIbEaSEb = comdat any

$_ZN5Eigen8RunQueueINS_20StlThreadEnvironment4TaskELj1024EE5FlushEv = comdat any

$_ZN5Eigen15ThreadPoolTemplINS_20StlThreadEnvironmentEEC2EibS1_ = comdat any

$_ZN5Eigen13test_is_equalIiiEEbRKT_RKT0_b = comdat any

$_ZNKSt13__atomic_baseIiEcviEv = comdat any

$_ZNSt13__atomic_baseIiEaSEi = comdat any

$_ZN5Eigen6numext12equal_strictIiiEEbRKT_RKT0_ = comdat any

$_ZN5Eigen6numext17equal_strict_implIiiLb1ELb1ELb1ELb1EE3runERKiS4_ = comdat any

$_ZNSt13__atomic_baseIiEppEi = comdat any

$_ZNSt11this_thread9sleep_forIlSt5ratioILl1ELl1000EEEEvRKNSt6chrono8durationIT_T0_EE = comdat any

$_ZNSt6chrono8durationIlSt5ratioILl1ELl1000EEEC2IivEERKT_ = comdat any

$_ZNSt6chronoleIlSt5ratioILl1ELl1000EElS2_EEbRKNS_8durationIT_T0_EERKNS3_IT1_T2_EE = comdat any

$_ZNSt6chrono8durationIlSt5ratioILl1ELl1000EEE4zeroEv = comdat any

$_ZNSt6chrono13duration_castINS_8durationIlSt5ratioILl1ELl1EEEElS2_ILl1ELl1000EEEENSt9enable_ifIXsr13__is_durationIT_EE5valueES7_E4typeERKNS1_IT0_T1_EE = comdat any

$_ZNSt6chrono13duration_castINS_8durationIlSt5ratioILl1ELl1000000000EEEElS2_ILl1ELl1000EEEENSt9enable_ifIXsr13__is_durationIT_EE5valueES7_E4typeERKNS1_IT0_T1_EE = comdat any

$_ZNSt6chronomiIlSt5ratioILl1ELl1000EElS1_ILl1ELl1EEEENSt11common_typeIJNS_8durationIT_T0_EENS5_IT1_T2_EEEE4typeERKS8_RKSB_ = comdat any

$_ZNKSt6chrono8durationIlSt5ratioILl1ELl1EEE5countEv = comdat any

$_ZNKSt6chrono8durationIlSt5ratioILl1ELl1000000000EEE5countEv = comdat any

$_ZNSt6chronoltIlSt5ratioILl1ELl1000EElS2_EEbRKNS_8durationIT_T0_EERKNS3_IT1_T2_EE = comdat any

$_ZNKSt6chrono8durationIlSt5ratioILl1ELl1000EEE5countEv = comdat any

$_ZNSt6chrono15duration_valuesIlE4zeroEv = comdat any

$_ZNSt6chrono8durationIlSt5ratioILl1ELl1000EEEC2IlvEERKT_ = comdat any

$_ZNSt6chrono20__duration_cast_implINS_8durationIlSt5ratioILl1ELl1EEEES2_ILl1ELl1000EElLb1ELb0EE6__castIlS5_EES4_RKNS1_IT_T0_EE = comdat any

$_ZNSt6chrono8durationIlSt5ratioILl1ELl1EEEC2IlvEERKT_ = comdat any

$_ZNSt6chrono20__duration_cast_implINS_8durationIlSt5ratioILl1ELl1000000000EEEES2_ILl1000000ELl1EElLb0ELb1EE6__castIlS2_ILl1ELl1000EEEES4_RKNS1_IT_T0_EE = comdat any

$_ZNSt6chrono8durationIlSt5ratioILl1ELl1000000000EEEC2IlvEERKT_ = comdat any

$_ZNSt6chrono8durationIlSt5ratioILl1ELl1000EEEC2IlS1_ILl1ELl1EEvEERKNS0_IT_T0_EE = comdat any

$_ZNSt6chrono13duration_castINS_8durationIlSt5ratioILl1ELl1000EEEElS2_ILl1ELl1EEEENSt9enable_ifIXsr13__is_durationIT_EE5valueES7_E4typeERKNS1_IT0_T1_EE = comdat any

$_ZNSt6chrono20__duration_cast_implINS_8durationIlSt5ratioILl1ELl1000EEEES2_ILl1000ELl1EElLb0ELb1EE6__castIlS2_ILl1ELl1EEEES4_RKNS1_IT_T0_EE = comdat any

$_ZNSaISt4pairIjjEEC2Ev = comdat any

$_ZNSt6vectorISt4pairIjjESaIS1_EEC2EmRKS2_ = comdat any

$_ZNSaISt4pairIjjEED2Ev = comdat any

$_ZSt9make_pairIRiiESt4pairINSt25__strip_reference_wrapperINSt5decayIT_E4typeEE6__typeENS2_INS3_IT0_E4typeEE6__typeEEOS4_OS9_ = comdat any

$_ZNSt6vectorISt4pairIjjESaIS1_EEixEm = comdat any

$_ZNSt4pairIjjEaSIiiEENSt9enable_ifIXsr6__and_ISt13is_assignableIRjOT_ES3_IS4_OT0_EEE5valueERS0_E4typeEOS_IS5_S8_E = comdat any

$_ZN5Eigen15ThreadPoolTemplINS_20StlThreadEnvironmentEE18SetStealPartitionsERKSt6vectorISt4pairIjjESaIS5_EE = comdat any

$_ZNSt6vectorISt4pairIjjESaIS1_EED2Ev = comdat any

$_ZNSt15__new_allocatorISt4pairIjjEEC2Ev = comdat any

$_ZNSt6vectorISt4pairIjjESaIS1_EE17_S_check_init_lenEmRKS2_ = comdat any

$_ZNSt12_Vector_baseISt4pairIjjESaIS1_EEC2EmRKS2_ = comdat any

$_ZNSt6vectorISt4pairIjjESaIS1_EE21_M_default_initializeEm = comdat any

$_ZNSt12_Vector_baseISt4pairIjjESaIS1_EED2Ev = comdat any

$_ZNSt6vectorISt4pairIjjESaIS1_EE11_S_max_sizeERKS2_ = comdat any

$_ZNSaISt4pairIjjEEC2ERKS1_ = comdat any

$_ZNSt16allocator_traitsISaISt4pairIjjEEE8max_sizeERKS2_ = comdat any

$_ZNKSt15__new_allocatorISt4pairIjjEE8max_sizeEv = comdat any

$_ZNKSt15__new_allocatorISt4pairIjjEE11_M_max_sizeEv = comdat any

$_ZNSt15__new_allocatorISt4pairIjjEEC2ERKS2_ = comdat any

$_ZNSt12_Vector_baseISt4pairIjjESaIS1_EE12_Vector_implC2ERKS2_ = comdat any

$_ZNSt12_Vector_baseISt4pairIjjESaIS1_EE17_M_create_storageEm = comdat any

$_ZNSt12_Vector_baseISt4pairIjjESaIS1_EE12_Vector_implD2Ev = comdat any

$_ZNSt12_Vector_baseISt4pairIjjESaIS1_EE17_Vector_impl_dataC2Ev = comdat any

$_ZNSt12_Vector_baseISt4pairIjjESaIS1_EE11_M_allocateEm = comdat any

$_ZNSt16allocator_traitsISaISt4pairIjjEEE8allocateERS2_m = comdat any

$_ZNSt15__new_allocatorISt4pairIjjEE8allocateEmPKv = comdat any

$_ZNSt15__new_allocatorISt4pairIjjEED2Ev = comdat any

$_ZSt27__uninitialized_default_n_aIPSt4pairIjjEmS1_ET_S3_T0_RSaIT1_E = comdat any

$_ZNSt12_Vector_baseISt4pairIjjESaIS1_EE19_M_get_Tp_allocatorEv = comdat any

$_ZSt25__uninitialized_default_nIPSt4pairIjjEmET_S3_T0_ = comdat any

$_ZNSt27__uninitialized_default_n_1ILb0EE18__uninit_default_nIPSt4pairIjjEmEET_S5_T0_ = comdat any

$_ZSt10_ConstructISt4pairIjjEJEEvPT_DpOT0_ = comdat any

$_ZSt8_DestroyIPSt4pairIjjEEvT_S3_ = comdat any

$_ZNSt4pairIjjEC2IjjLb1EEEv = comdat any

$_ZNSt12_Destroy_auxILb1EE9__destroyIPSt4pairIjjEEEvT_S5_ = comdat any

$_ZNSt12_Vector_baseISt4pairIjjESaIS1_EE13_M_deallocateEPS1_m = comdat any

$_ZNSt16allocator_traitsISaISt4pairIjjEEE10deallocateERS2_PS1_m = comdat any

$_ZNSt15__new_allocatorISt4pairIjjEE10deallocateEPS1_m = comdat any

$_ZNSt4pairIiiEC2IRiiLb1EEEOT_OT0_ = comdat any

$_ZNKSt6vectorISt4pairIjjESaIS1_EE4sizeEv = comdat any

$_ZNKSt6vectorISt4pairIjjESaIS1_EEixEm = comdat any

$_ZNSt13__atomic_baseIiEppEv = comdat any

$_ZSt8_DestroyIPSt4pairIjjES1_EvT_S3_RSaIT0_E = comdat any

$_ZSt8_DestroyIPNSt7__cxx1112basic_stringIcSt11char_traitsIcESaIcEEES5_EvT_S7_RSaIT0_E = comdat any

$_ZNSt12_Vector_baseINSt7__cxx1112basic_stringIcSt11char_traitsIcESaIcEEESaIS5_EE19_M_get_Tp_allocatorEv = comdat any

$_ZNSt12_Vector_baseINSt7__cxx1112basic_stringIcSt11char_traitsIcESaIcEEESaIS5_EED2Ev = comdat any

$_ZSt8_DestroyIPNSt7__cxx1112basic_stringIcSt11char_traitsIcESaIcEEEEvT_S7_ = comdat any

$_ZNSt12_Destroy_auxILb0EE9__destroyIPNSt7__cxx1112basic_stringIcSt11char_traitsIcESaIcEEEEEvT_S9_ = comdat any

$_ZSt8_DestroyINSt7__cxx1112basic_stringIcSt11char_traitsIcESaIcEEEEvPT_ = comdat any

$_ZNSt12_Vector_baseINSt7__cxx1112basic_stringIcSt11char_traitsIcESaIcEEESaIS5_EE13_M_deallocateEPS5_m = comdat any

$_ZNSt12_Vector_baseINSt7__cxx1112basic_stringIcSt11char_traitsIcESaIcEEESaIS5_EE12_Vector_implD2Ev = comdat any

$_ZNSt16allocator_traitsISaINSt7__cxx1112basic_stringIcSt11char_traitsIcESaIcEEEEE10deallocateERS6_PS5_m = comdat any

$_ZNSt15__new_allocatorINSt7__cxx1112basic_stringIcSt11char_traitsIcESaIcEEEE10deallocateEPS5_m = comdat any

$_ZNSaINSt7__cxx1112basic_stringIcSt11char_traitsIcESaIcEEEED2Ev = comdat any

$_ZNSt15__new_allocatorINSt7__cxx1112basic_stringIcSt11char_traitsIcESaIcEEEED2Ev = comdat any

$_ZNSt6vectorINSt7__cxx1112basic_stringIcSt11char_traitsIcESaIcEEESaIS5_EE12emplace_backIJS5_EEEvDpOT_ = comdat any

$_ZNSt16allocator_traitsISaINSt7__cxx1112basic_stringIcSt11char_traitsIcESaIcEEEEE9constructIS5_JS5_EEEvRS6_PT_DpOT0_ = comdat any

$_ZNSt6vectorINSt7__cxx1112basic_stringIcSt11char_traitsIcESaIcEEESaIS5_EE17_M_realloc_insertIJS5_EEEvN9__gnu_cxx17__normal_iteratorIPS5_S7_EEDpOT_ = comdat any

$_ZNSt6vectorINSt7__cxx1112basic_stringIcSt11char_traitsIcESaIcEEESaIS5_EE3endEv = comdat any

$_ZNSt15__new_allocatorINSt7__cxx1112basic_stringIcSt11char_traitsIcESaIcEEEE9constructIS5_JS5_EEEvPT_DpOT0_ = comdat any

$_ZNKSt6vectorINSt7__cxx1112basic_stringIcSt11char_traitsIcESaIcEEESaIS5_EE12_M_check_lenEmPKc = comdat any

$_ZN9__gnu_cxxmiIPNSt7__cxx1112basic_stringIcSt11char_traitsIcESaIcEEESt6vectorIS6_SaIS6_EEEENS_17__normal_iteratorIT_T0_E15difference_typeERKSE_SH_ = comdat any

$_ZNSt6vectorINSt7__cxx1112basic_stringIcSt11char_traitsIcESaIcEEESaIS5_EE5beginEv = comdat any

$_ZNSt12_Vector_baseINSt7__cxx1112basic_stringIcSt11char_traitsIcESaIcEEESaIS5_EE11_M_allocateEm = comdat any

$_ZNSt6vectorINSt7__cxx1112basic_stringIcSt11char_traitsIcESaIcEEESaIS5_EE11_S_relocateEPS5_S8_S8_RS6_ = comdat any

$_ZNK9__gnu_cxx17__normal_iteratorIPNSt7__cxx1112basic_stringIcSt11char_traitsIcESaIcEEESt6vectorIS6_SaIS6_EEE4baseEv = comdat any

$_ZNKSt6vectorINSt7__cxx1112basic_stringIcSt11char_traitsIcESaIcEEESaIS5_EE8max_sizeEv = comdat any

$_ZNSt6vectorINSt7__cxx1112basic_stringIcSt11char_traitsIcESaIcEEESaIS5_EE11_S_max_sizeERKS6_ = comdat any

$_ZNKSt12_Vector_baseINSt7__cxx1112basic_stringIcSt11char_traitsIcESaIcEEESaIS5_EE19_M_get_Tp_allocatorEv = comdat any

$_ZNSt16allocator_traitsISaINSt7__cxx1112basic_stringIcSt11char_traitsIcESaIcEEEEE8max_sizeERKS6_ = comdat any

$_ZNKSt15__new_allocatorINSt7__cxx1112basic_stringIcSt11char_traitsIcESaIcEEEE8max_sizeEv = comdat any

$_ZNKSt15__new_allocatorINSt7__cxx1112basic_stringIcSt11char_traitsIcESaIcEEEE11_M_max_sizeEv = comdat any

$_ZN9__gnu_cxx17__normal_iteratorIPNSt7__cxx1112basic_stringIcSt11char_traitsIcESaIcEEESt6vectorIS6_SaIS6_EEEC2ERKS7_ = comdat any

$_ZNSt16allocator_traitsISaINSt7__cxx1112basic_stringIcSt11char_traitsIcESaIcEEEEE8allocateERS6_m = comdat any

$_ZNSt15__new_allocatorINSt7__cxx1112basic_stringIcSt11char_traitsIcESaIcEEEE8allocateEmPKv = comdat any

$_ZNSt6vectorINSt7__cxx1112basic_stringIcSt11char_traitsIcESaIcEEESaIS5_EE14_S_do_relocateEPS5_S8_S8_RS6_St17integral_constantIbLb1EE = comdat any

$_ZSt12__relocate_aIPNSt7__cxx1112basic_stringIcSt11char_traitsIcESaIcEEES6_SaIS5_EET0_T_S9_S8_RT1_ = comdat any

$_ZSt14__relocate_a_1IPNSt7__cxx1112basic_stringIcSt11char_traitsIcESaIcEEES6_SaIS5_EET0_T_S9_S8_RT1_ = comdat any

$_ZSt12__niter_baseIPNSt7__cxx1112basic_stringIcSt11char_traitsIcESaIcEEEET_S7_ = comdat any

$_ZSt19__relocate_object_aINSt7__cxx1112basic_stringIcSt11char_traitsIcESaIcEEES5_SaIS5_EEvPT_PT0_RT1_ = comdat any

$_ZNSt16allocator_traitsISaINSt7__cxx1112basic_stringIcSt11char_traitsIcESaIcEEEEE7destroyIS5_EEvRS6_PT_ = comdat any

$_ZNSt15__new_allocatorINSt7__cxx1112basic_stringIcSt11char_traitsIcESaIcEEEE7destroyIS5_EEvPT_ = comdat any

$_ZNK9__gnu_cxx17__normal_iteratorIPNSt7__cxx1112basic_stringIcSt11char_traitsIcESaIcEEESt6vectorIS6_SaIS6_EEEmiEl = comdat any

$_ZNK9__gnu_cxx17__normal_iteratorIPNSt7__cxx1112basic_stringIcSt11char_traitsIcESaIcEEESt6vectorIS6_SaIS6_EEEdeEv = comdat any

$_ZNSt16allocator_traitsISaINSt7__cxx1112basic_stringIcSt11char_traitsIcESaIcEEEEE9constructIS5_JRKS5_EEEvRS6_PT_DpOT0_ = comdat any

$_ZNSt6vectorINSt7__cxx1112basic_stringIcSt11char_traitsIcESaIcEEESaIS5_EE17_M_realloc_insertIJRKS5_EEEvN9__gnu_cxx17__normal_iteratorIPS5_S7_EEDpOT_ = comdat any

$_ZNSt15__new_allocatorINSt7__cxx1112basic_stringIcSt11char_traitsIcESaIcEEEE9constructIS5_JRKS5_EEEvPT_DpOT0_ = comdat any

$_ZZN5Eigen9EigenTest20get_registered_testsEvE19ms_registered_tests = comdat any

$_ZGVZN5Eigen9EigenTest20get_registered_testsEvE19ms_registered_tests = comdat any

$_ZTVN5Eigen15ThreadPoolTemplINS_20StlThreadEnvironmentEEE = comdat any

$_ZTSN5Eigen15ThreadPoolTemplINS_20StlThreadEnvironmentEEE = comdat any

$_ZTSN5Eigen19ThreadPoolInterfaceE = comdat any

$_ZTIN5Eigen19ThreadPoolInterfaceE = comdat any

$_ZTIN5Eigen15ThreadPoolTemplINS_20StlThreadEnvironmentEEE = comdat any

$_ZTVN5Eigen19ThreadPoolInterfaceE = comdat any

$_ZTSN5Eigen22eigen_assert_exceptionE = comdat any

$_ZTIN5Eigen22eigen_assert_exceptionE = comdat any

$_ZTVNSt6thread11_State_implINS_8_InvokerISt5tupleIJSt8functionIFvvEEEEEEEE = comdat any

$_ZTSNSt6thread11_State_implINS_8_InvokerISt5tupleIJSt8functionIFvvEEEEEEEE = comdat any

$_ZTINSt6thread11_State_implINS_8_InvokerISt5tupleIJSt8functionIFvvEEEEEEEE = comdat any

$_ZZN5Eigen15ThreadPoolTemplINS_20StlThreadEnvironmentEE12GetPerThreadEvE11per_thread_ = comdat any

$_ZTSZN5Eigen15ThreadPoolTemplINS_20StlThreadEnvironmentEEC1EibS1_EUlvE_ = comdat any

$_ZTIZN5Eigen15ThreadPoolTemplINS_20StlThreadEnvironmentEEC1EibS1_EUlvE_ = comdat any

@_ZStL8__ioinit = internal global %"class.std::ios_base::Init" zeroinitializer, align 1
@__dso_handle = external hidden global i8
@_ZN5EigenL12g_test_stackB5cxx11E = internal global %"class.std::vector" zeroinitializer, align 8
@.str = private unnamed_addr constant [6 x i8] c"float\00", align 1
@.str.2 = private unnamed_addr constant [7 x i8] c"double\00", align 1
@.str.3 = private unnamed_addr constant [12 x i8] c"long double\00", align 1
@.str.4 = private unnamed_addr constant [5 x i8] c"half\00", align 1
@.str.5 = private unnamed_addr constant [9 x i8] c"bfloat16\00", align 1
@.str.6 = private unnamed_addr constant [7 x i8] c"int8_t\00", align 1
@.str.7 = private unnamed_addr constant [8 x i8] c"int16_t\00", align 1
@.str.8 = private unnamed_addr constant [8 x i8] c"int32_t\00", align 1
@.str.9 = private unnamed_addr constant [8 x i8] c"int64_t\00", align 1
@.str.10 = private unnamed_addr constant [8 x i8] c"uint8_t\00", align 1
@.str.11 = private unnamed_addr constant [9 x i8] c"uint16_t\00", align 1
@.str.12 = private unnamed_addr constant [9 x i8] c"uint32_t\00", align 1
@.str.13 = private unnamed_addr constant [9 x i8] c"uint64_t\00", align 1
@.str.14 = private unnamed_addr constant [15 x i8] c"complex<float>\00", align 1
@.str.15 = private unnamed_addr constant [16 x i8] c"complex<double>\00", align 1
@.str.16 = private unnamed_addr constant [21 x i8] c"complex<long double>\00", align 1
@.str.17 = private unnamed_addr constant [13 x i8] c"complex<int>\00", align 1
@_ZN5EigenL16g_has_set_repeatE = internal global i8 0, align 1
@_ZN5EigenL14g_has_set_seedE = internal global i8 0, align 1
@_ZSt4cout = external global %"class.std::basic_ostream", align 8
@.str.18 = private unnamed_addr constant [10 x i8] c"Argument \00", align 1
@.str.19 = private unnamed_addr constant [36 x i8] c" conflicting with a former argument\00", align 1
@.str.20 = private unnamed_addr constant [62 x i8] c"This test application takes the following optional arguments:\00", align 1
@.str.21 = private unnamed_addr constant [45 x i8] c"  rN     Repeat each test N times (default: \00", align 1
@.str.22 = private unnamed_addr constant [2 x i8] c")\00", align 1
@.str.23 = private unnamed_addr constant [75 x i8] c"  sN     Use N as seed for random numbers (default: based on current time)\00", align 1
@.str.24 = private unnamed_addr constant [66 x i8] c"If defined, the environment variables EIGEN_REPEAT and EIGEN_SEED\00", align 1
@.str.25 = private unnamed_addr constant [53 x i8] c"will be used as default values for these parameters.\00", align 1
@.str.26 = private unnamed_addr constant [13 x i8] c"EIGEN_REPEAT\00", align 1
@.str.27 = private unnamed_addr constant [11 x i8] c"EIGEN_SEED\00", align 1
@_ZN5EigenL6g_seedE = internal global i32 0, align 4
@_ZN5EigenL8g_repeatE = internal global i32 1, align 4
@.str.28 = private unnamed_addr constant [48 x i8] c"Initializing random number generator with seed \00", align 1
@.str.29 = private unnamed_addr constant [7 x i8] c"Seed: \00", align 1
@.str.30 = private unnamed_addr constant [21 x i8] c"Repeating each test \00", align 1
@.str.31 = private unnamed_addr constant [7 x i8] c" times\00", align 1
@.str.32 = private unnamed_addr constant [14 x i8] c"./test/main.h\00", align 1
@.str.33 = private unnamed_addr constant [28 x i8] c"EigenTest::all().size() > 0\00", align 1
@_ZL43test_handler_cxx11_non_blocking_thread_pool = internal global %"class.Eigen::EigenTest" zeroinitializer, align 8
@.str.35 = private unnamed_addr constant [31 x i8] c"cxx11_non_blocking_thread_pool\00", align 1
@.str.36 = private unnamed_addr constant [33 x i8] c"test_create_destroy_empty_pool()\00", align 1
@.str.37 = private unnamed_addr constant [23 x i8] c"test_parallelism(true)\00", align 1
@.str.38 = private unnamed_addr constant [24 x i8] c"test_parallelism(false)\00", align 1
@.str.39 = private unnamed_addr constant [14 x i8] c"test_cancel()\00", align 1
@.str.40 = private unnamed_addr constant [23 x i8] c"test_pool_partitions()\00", align 1
@.str.41 = private unnamed_addr constant [22 x i8] c"Invalid repeat value \00", align 1
@.str.42 = private unnamed_addr constant [20 x i8] c"Invalid seed value \00", align 1
@_ZN5EigenL12g_test_levelE = internal global i32 0, align 4
@_ZSt4cerr = external global %"class.std::basic_ostream", align 8
@.str.43 = private unnamed_addr constant [10 x i8] c"WARNING: \00", align 1
@.str.44 = private unnamed_addr constant [6 x i8] c"Test \00", align 1
@.str.45 = private unnamed_addr constant [12 x i8] c" failed in \00", align 1
@.str.46 = private unnamed_addr constant [3 x i8] c" (\00", align 1
@.str.47 = private unnamed_addr constant [5 x i8] c"    \00", align 1
@.str.48 = private unnamed_addr constant [8 x i8] c"Stack:\0A\00", align 1
@.str.49 = private unnamed_addr constant [5 x i8] c"  - \00", align 1
@.str.50 = private unnamed_addr constant [2 x i8] c"\0A\00", align 1
@_ZZN5Eigen9EigenTest20get_registered_testsEvE19ms_registered_tests = linkonce_odr dso_local global ptr null, comdat, align 8
@_ZGVZN5Eigen9EigenTest20get_registered_testsEvE19ms_registered_tests = linkonce_odr dso_local global i64 0, comdat, align 8
@.str.51 = private unnamed_addr constant [26 x i8] c"vector::_M_realloc_insert\00", align 1
@_ZTVN5Eigen15ThreadPoolTemplINS_20StlThreadEnvironmentEEE = linkonce_odr dso_local unnamed_addr constant { [9 x ptr] } { [9 x ptr] [ptr null, ptr @_ZTIN5Eigen15ThreadPoolTemplINS_20StlThreadEnvironmentEEE, ptr @_ZN5Eigen15ThreadPoolTemplINS_20StlThreadEnvironmentEE8ScheduleESt8functionIFvvEE, ptr @_ZN5Eigen15ThreadPoolTemplINS_20StlThreadEnvironmentEE16ScheduleWithHintESt8functionIFvvEEii, ptr @_ZN5Eigen15ThreadPoolTemplINS_20StlThreadEnvironmentEE6CancelEv, ptr @_ZNK5Eigen15ThreadPoolTemplINS_20StlThreadEnvironmentEE10NumThreadsEv, ptr @_ZNK5Eigen15ThreadPoolTemplINS_20StlThreadEnvironmentEE15CurrentThreadIdEv, ptr @_ZN5Eigen15ThreadPoolTemplINS_20StlThreadEnvironmentEED2Ev, ptr @_ZN5Eigen15ThreadPoolTemplINS_20StlThreadEnvironmentEED0Ev] }, comdat, align 8
@.str.52 = private unnamed_addr constant [27 x i8] c"num_threads_ < kMaxThreads\00", align 1
@.str.53 = private unnamed_addr constant [47 x i8] c"./Eigen/src/ThreadPool/NonBlockingThreadPool.h\00", align 1
@__PRETTY_FUNCTION__._ZN5Eigen15ThreadPoolTemplINS_20StlThreadEnvironmentEEC2EibS1_ = private unnamed_addr constant [137 x i8] c"Eigen::ThreadPoolTempl<Eigen::StlThreadEnvironment>::ThreadPoolTempl(int, bool, Environment) [Environment = Eigen::StlThreadEnvironment]\00", align 1
@_ZTVN10__cxxabiv120__si_class_type_infoE = external global ptr
@_ZTSN5Eigen15ThreadPoolTemplINS_20StlThreadEnvironmentEEE = linkonce_odr dso_local constant [54 x i8] c"N5Eigen15ThreadPoolTemplINS_20StlThreadEnvironmentEEE\00", comdat, align 1
@_ZTVN10__cxxabiv117__class_type_infoE = external global ptr
@_ZTSN5Eigen19ThreadPoolInterfaceE = linkonce_odr dso_local constant [30 x i8] c"N5Eigen19ThreadPoolInterfaceE\00", comdat, align 1
@_ZTIN5Eigen19ThreadPoolInterfaceE = linkonce_odr dso_local constant { ptr, ptr } { ptr getelementptr inbounds (ptr, ptr @_ZTVN10__cxxabiv117__class_type_infoE, i64 2), ptr @_ZTSN5Eigen19ThreadPoolInterfaceE }, comdat, align 8
@_ZTIN5Eigen15ThreadPoolTemplINS_20StlThreadEnvironmentEEE = linkonce_odr dso_local constant { ptr, ptr, ptr } { ptr getelementptr inbounds (ptr, ptr @_ZTVN10__cxxabiv120__si_class_type_infoE, i64 2), ptr @_ZTSN5Eigen15ThreadPoolTemplINS_20StlThreadEnvironmentEEE, ptr @_ZTIN5Eigen19ThreadPoolInterfaceE }, comdat, align 8
@_ZTVN5Eigen19ThreadPoolInterfaceE = linkonce_odr dso_local unnamed_addr constant { [9 x ptr] } { [9 x ptr] [ptr null, ptr @_ZTIN5Eigen19ThreadPoolInterfaceE, ptr @__cxa_pure_virtual, ptr @_ZN5Eigen19ThreadPoolInterface16ScheduleWithHintESt8functionIFvvEEii, ptr @_ZN5Eigen19ThreadPoolInterface6CancelEv, ptr @__cxa_pure_virtual, ptr @__cxa_pure_virtual, ptr @_ZN5Eigen19ThreadPoolInterfaceD2Ev, ptr @_ZN5Eigen19ThreadPoolInterfaceD0Ev] }, comdat, align 8
@_ZN5EigenL14no_more_assertE = internal global i8 0, align 1
@_ZN5EigenL32report_on_cerr_on_assert_failureE = internal global i8 1, align 1
@.str.54 = private unnamed_addr constant [86 x i8] c"Alignment must be at least sizeof(void*), less than or equal to 128, and a power of 2\00", align 1
@.str.55 = private unnamed_addr constant [176 x i8] c"alignment >= sizeof(void*) && alignment <= 128 && (alignment & (alignment - 1)) == 0 && \22Alignment must be at least sizeof(void*), less than or equal to 128, and a power of 2\22\00", align 1
@.str.56 = private unnamed_addr constant [31 x i8] c"./Eigen/src/Core/util/Memory.h\00", align 1
@__PRETTY_FUNCTION__._ZN5Eigen8internal23handmade_aligned_mallocEmm = private unnamed_addr constant [73 x i8] c"void *Eigen::internal::handmade_aligned_malloc(std::size_t, std::size_t)\00", align 1
@_ZTSN5Eigen22eigen_assert_exceptionE = linkonce_odr dso_local constant [33 x i8] c"N5Eigen22eigen_assert_exceptionE\00", comdat, align 1
@_ZTIN5Eigen22eigen_assert_exceptionE = linkonce_odr dso_local constant { ptr, ptr } { ptr getelementptr inbounds (ptr, ptr @_ZTVN10__cxxabiv117__class_type_infoE, i64 2), ptr @_ZTSN5Eigen22eigen_assert_exceptionE }, comdat, align 8
@.str.57 = private unnamed_addr constant [40 x i8] c"waiters.size() < (1 << kWaiterBits) - 1\00", align 1
@.str.58 = private unnamed_addr constant [36 x i8] c"./Eigen/src/ThreadPool/EventCount.h\00", align 1
@__PRETTY_FUNCTION__._ZN5Eigen10EventCountC2ERNS_13MaxSizeVectorINS0_6WaiterEEE = private unnamed_addr constant [74 x i8] c"Eigen::EventCount::EventCount(MaxSizeVector<Eigen::EventCount::Waiter> &)\00", align 1
@.str.59 = private unnamed_addr constant [14 x i8] c"n <= reserve_\00", align 1
@.str.60 = private unnamed_addr constant [38 x i8] c"./Eigen/src/Core/util/MaxSizeVector.h\00", align 1
@__PRETTY_FUNCTION__._ZN5Eigen13MaxSizeVectorINS_10EventCount6WaiterEE6resizeEm = private unnamed_addr constant [106 x i8] c"void Eigen::MaxSizeVector<Eigen::EventCount::Waiter>::resize(std::size_t) [T = Eigen::EventCount::Waiter]\00", align 1
@.str.61 = private unnamed_addr constant [11 x i8] c"size_ == n\00", align 1
@.str.62 = private unnamed_addr constant [17 x i8] c"size_ < reserve_\00", align 1
@__PRETTY_FUNCTION__._ZN5Eigen13MaxSizeVectorINS0_IjEEE12emplace_backIiEEvRKT_ = private unnamed_addr constant [137 x i8] c"void Eigen::MaxSizeVector<Eigen::MaxSizeVector<unsigned int>>::emplace_back(const X &) [T = Eigen::MaxSizeVector<unsigned int>, X = int]\00", align 1
@__PRETTY_FUNCTION__._ZN5Eigen13MaxSizeVectorIjE9push_backERKj = private unnamed_addr constant [81 x i8] c"void Eigen::MaxSizeVector<unsigned int>::push_back(const T &) [T = unsigned int]\00", align 1
@.str.63 = private unnamed_addr constant [10 x i8] c"size_ > 0\00", align 1
@__PRETTY_FUNCTION__._ZN5Eigen13MaxSizeVectorINS0_IjEEE4backEv = private unnamed_addr constant [109 x i8] c"T &Eigen::MaxSizeVector<Eigen::MaxSizeVector<unsigned int>>::back() [T = Eigen::MaxSizeVector<unsigned int>]\00", align 1
@__PRETTY_FUNCTION__._ZN5Eigen13MaxSizeVectorINS_15ThreadPoolTemplINS_20StlThreadEnvironmentEE10ThreadDataEE6resizeEm = private unnamed_addr constant [182 x i8] c"void Eigen::MaxSizeVector<Eigen::ThreadPoolTempl<Eigen::StlThreadEnvironment>::ThreadData>::resize(std::size_t) [T = Eigen::ThreadPoolTempl<Eigen::StlThreadEnvironment>::ThreadData]\00", align 1
@.str.64 = private unnamed_addr constant [12 x i8] c"Size() == 0\00", align 1
@.str.65 = private unnamed_addr constant [34 x i8] c"./Eigen/src/ThreadPool/RunQueue.h\00", align 1
@__PRETTY_FUNCTION__._ZN5Eigen8RunQueueINS_20StlThreadEnvironment4TaskELj1024EED2Ev = private unnamed_addr constant [127 x i8] c"Eigen::RunQueue<Eigen::StlThreadEnvironment::Task, 1024>::~RunQueue() [Work = Eigen::StlThreadEnvironment::Task, kSize = 1024]\00", align 1
@.str.66 = private unnamed_addr constant [10 x i8] c"i < size_\00", align 1
@__PRETTY_FUNCTION__._ZN5Eigen13MaxSizeVectorINS_15ThreadPoolTemplINS_20StlThreadEnvironmentEE10ThreadDataEEixEm = private unnamed_addr constant [184 x i8] c"T &Eigen::MaxSizeVector<Eigen::ThreadPoolTempl<Eigen::StlThreadEnvironment>::ThreadData>::operator[](std::size_t) [T = Eigen::ThreadPoolTempl<Eigen::StlThreadEnvironment>::ThreadData]\00", align 1
@_ZTVNSt6thread11_State_implINS_8_InvokerISt5tupleIJSt8functionIFvvEEEEEEEE = linkonce_odr dso_local unnamed_addr constant { [5 x ptr] } { [5 x ptr] [ptr null, ptr @_ZTINSt6thread11_State_implINS_8_InvokerISt5tupleIJSt8functionIFvvEEEEEEEE, ptr @_ZNSt6thread11_State_implINS_8_InvokerISt5tupleIJSt8functionIFvvEEEEEEED2Ev, ptr @_ZNSt6thread11_State_implINS_8_InvokerISt5tupleIJSt8functionIFvvEEEEEEED0Ev, ptr @_ZNSt6thread11_State_implINS_8_InvokerISt5tupleIJSt8functionIFvvEEEEEEE6_M_runEv] }, comdat, align 8
@_ZTSNSt6thread11_State_implINS_8_InvokerISt5tupleIJSt8functionIFvvEEEEEEEE = linkonce_odr dso_local constant [71 x i8] c"NSt6thread11_State_implINS_8_InvokerISt5tupleIJSt8functionIFvvEEEEEEEE\00", comdat, align 1
@_ZTINSt6thread6_StateE = external constant ptr
@_ZTINSt6thread11_State_implINS_8_InvokerISt5tupleIJSt8functionIFvvEEEEEEEE = linkonce_odr dso_local constant { ptr, ptr, ptr } { ptr getelementptr inbounds (ptr, ptr @_ZTVN10__cxxabiv120__si_class_type_infoE, i64 2), ptr @_ZTSNSt6thread11_State_implINS_8_InvokerISt5tupleIJSt8functionIFvvEEEEEEEE, ptr @_ZTINSt6thread6_StateE }, comdat, align 8
@_ZTVNSt6thread6_StateE = external unnamed_addr constant { [5 x ptr] }, align 8
@_ZZN5Eigen15ThreadPoolTemplINS_20StlThreadEnvironmentEE12GetPerThreadEvE11per_thread_ = linkonce_odr dso_local thread_local global { ptr, i64, i32 } { ptr null, i64 0, i32 -1 }, comdat, align 8
@__PRETTY_FUNCTION__._ZN5Eigen13MaxSizeVectorINS_10EventCount6WaiterEEixEm = private unnamed_addr constant [108 x i8] c"T &Eigen::MaxSizeVector<Eigen::EventCount::Waiter>::operator[](std::size_t) [T = Eigen::EventCount::Waiter]\00", align 1
@.str.67 = private unnamed_addr constant [11 x i8] c"start >= 0\00", align 1
@__PRETTY_FUNCTION__._ZN5Eigen15ThreadPoolTemplINS_20StlThreadEnvironmentEE12AssertBoundsEii = private unnamed_addr constant [125 x i8] c"void Eigen::ThreadPoolTempl<Eigen::StlThreadEnvironment>::AssertBounds(int, int) [Environment = Eigen::StlThreadEnvironment]\00", align 1
@.str.68 = private unnamed_addr constant [12 x i8] c"start < end\00", align 1
@.str.69 = private unnamed_addr constant [20 x i8] c"end <= num_threads_\00", align 1
@.str.70 = private unnamed_addr constant [43 x i8] c"all_coprimes_[size - 1].size() < (1 << 30)\00", align 1
@__PRETTY_FUNCTION__._ZN5Eigen15ThreadPoolTemplINS_20StlThreadEnvironmentEE5StealEjj = private unnamed_addr constant [160 x i8] c"Eigen::ThreadPoolTempl::Task Eigen::ThreadPoolTempl<Eigen::StlThreadEnvironment>::Steal(unsigned int, unsigned int) [Environment = Eigen::StlThreadEnvironment]\00", align 1
@.str.71 = private unnamed_addr constant [23 x i8] c"start + victim < limit\00", align 1
@__PRETTY_FUNCTION__._ZN5Eigen13MaxSizeVectorINS0_IjEEEixEm = private unnamed_addr constant [126 x i8] c"T &Eigen::MaxSizeVector<Eigen::MaxSizeVector<unsigned int>>::operator[](std::size_t) [T = Eigen::MaxSizeVector<unsigned int>]\00", align 1
@__PRETTY_FUNCTION__._ZN5Eigen13MaxSizeVectorIjEixEm = private unnamed_addr constant [82 x i8] c"T &Eigen::MaxSizeVector<unsigned int>::operator[](std::size_t) [T = unsigned int]\00", align 1
@.str.72 = private unnamed_addr constant [55 x i8] c"(CalculateSize(front, back) == 0) == (maybe_zero == 0)\00", align 1
@__PRETTY_FUNCTION__._ZNK5Eigen8RunQueueINS_20StlThreadEnvironment4TaskELj1024EE14SizeOrNotEmptyILb0EEEjv = private unnamed_addr constant [177 x i8] c"unsigned int Eigen::RunQueue<Eigen::StlThreadEnvironment::Task, 1024>::SizeOrNotEmpty() const [Work = Eigen::StlThreadEnvironment::Task, kSize = 1024, NeedSizeEstimate = false]\00", align 1
@.str.73 = private unnamed_addr constant [36 x i8] c"num_no_notification <= num_spinning\00", align 1
@__PRETTY_FUNCTION__._ZN5Eigen15ThreadPoolTemplINS_20StlThreadEnvironmentEE13SpinningState6DecodeEm = private unnamed_addr constant [174 x i8] c"static Eigen::ThreadPoolTempl::SpinningState Eigen::ThreadPoolTempl<Eigen::StlThreadEnvironment>::SpinningState::Decode(uint64_t) [Environment = Eigen::StlThreadEnvironment]\00", align 1
@__PRETTY_FUNCTION__._ZNK5Eigen15ThreadPoolTemplINS_20StlThreadEnvironmentEE13SpinningState6EncodeEv = private unnamed_addr constant [136 x i8] c"uint64_t Eigen::ThreadPoolTempl<Eigen::StlThreadEnvironment>::SpinningState::Encode() const [Environment = Eigen::StlThreadEnvironment]\00", align 1
@.str.74 = private unnamed_addr constant [6 x i8] c"!t->f\00", align 1
@__PRETTY_FUNCTION__._ZN5Eigen15ThreadPoolTemplINS_20StlThreadEnvironmentEE11WaitForWorkEPNS_10EventCount6WaiterEPNS1_4TaskE = private unnamed_addr constant [168 x i8] c"bool Eigen::ThreadPoolTempl<Eigen::StlThreadEnvironment>::WaitForWork(EventCount::Waiter *, Eigen::ThreadPoolTempl::Task *) [Environment = Eigen::StlThreadEnvironment]\00", align 1
@.str.75 = private unnamed_addr constant [19 x i8] c"waiters >= signals\00", align 1
@__PRETTY_FUNCTION__._ZN5Eigen10EventCount10CheckStateEmb = private unnamed_addr constant [58 x i8] c"static void Eigen::EventCount::CheckState(uint64_t, bool)\00", align 1
@.str.76 = private unnamed_addr constant [33 x i8] c"waiters < (1 << kWaiterBits) - 1\00", align 1
@.str.77 = private unnamed_addr constant [23 x i8] c"!waiter || waiters > 0\00", align 1
@.str.78 = private unnamed_addr constant [39 x i8] c"Index value is too big for target type\00", align 1
@.str.79 = private unnamed_addr constant [83 x i8] c"idx <= NumTraits<IndexDest>::highest() && \22Index value is too big for target type\22\00", align 1
@.str.80 = private unnamed_addr constant [34 x i8] c"./Eigen/src/Core/util/XprHelper.h\00", align 1
@__PRETTY_FUNCTION__._ZN5Eigen8internal18convert_index_implImmLb1ELb0ELb1ELb0EE3runERKm = private unnamed_addr constant [292 x i8] c"static IndexDest Eigen::internal::convert_index_impl<unsigned long, unsigned long, true, false, true, false>::run(const IndexSrc &) [IndexDest = unsigned long, IndexSrc = unsigned long, IndexDestIsInteger = true, IndexDestIsSigned = false, IndexSrcIsInteger = true, IndexSrcIsSigned = false]\00", align 1
@.str.81 = private unnamed_addr constant [30 x i8] c"(w->epoch & ~kEpochMask) == 0\00", align 1
@__PRETTY_FUNCTION__._ZN5Eigen10EventCount10CommitWaitEPNS0_6WaiterE = private unnamed_addr constant [64 x i8] c"void Eigen::EventCount::CommitWait(Eigen::EventCount::Waiter *)\00", align 1
@_ZTSZN5Eigen15ThreadPoolTemplINS_20StlThreadEnvironmentEEC1EibS1_EUlvE_ = linkonce_odr dso_local constant [68 x i8] c"ZN5Eigen15ThreadPoolTemplINS_20StlThreadEnvironmentEEC1EibS1_EUlvE_\00", comdat, align 1
@_ZTIZN5Eigen15ThreadPoolTemplINS_20StlThreadEnvironmentEEC1EibS1_EUlvE_ = linkonce_odr dso_local constant { ptr, ptr } { ptr getelementptr inbounds (ptr, ptr @_ZTVN10__cxxabiv117__class_type_infoE, i64 2), ptr @_ZTSZN5Eigen15ThreadPoolTemplINS_20StlThreadEnvironmentEEC1EibS1_EUlvE_ }, comdat, align 8
@.str.82 = private unnamed_addr constant [28 x i8] c"state_.load() == kStackMask\00", align 1
@__PRETTY_FUNCTION__._ZN5Eigen10EventCountD2Ev = private unnamed_addr constant [33 x i8] c"Eigen::EventCount::~EventCount()\00", align 1
@.str.83 = private unnamed_addr constant [14 x i8] c"start < limit\00", align 1
@__PRETTY_FUNCTION__._ZN5Eigen15ThreadPoolTemplINS_20StlThreadEnvironmentEE16ScheduleWithHintESt8functionIFvvEEii = private unnamed_addr constant [161 x i8] c"virtual void Eigen::ThreadPoolTempl<Eigen::StlThreadEnvironment>::ScheduleWithHint(std::function<void ()>, int, int) [Environment = Eigen::StlThreadEnvironment]\00", align 1
@.str.84 = private unnamed_addr constant [22 x i8] c"limit <= num_threads_\00", align 1
@.str.85 = private unnamed_addr constant [20 x i8] c"start + rnd < limit\00", align 1
@.str.86 = private unnamed_addr constant [44 x i8] c"./test/threads_non_blocking_thread_pool.cpp\00", align 1
@.str.87 = private unnamed_addr constant [47 x i8] c"test_is_equal(tp.NumThreads(), kThreads, true)\00", align 1
@.str.88 = private unnamed_addr constant [46 x i8] c"test_is_equal(tp.CurrentThreadId(), -1, true)\00", align 1
@.str.89 = private unnamed_addr constant [17 x i8] c"\0A    actual   = \00", align 1
@.str.90 = private unnamed_addr constant [15 x i8] c"\0A    expected \00", align 1
@.str.91 = private unnamed_addr constant [3 x i8] c"= \00", align 1
@.str.92 = private unnamed_addr constant [3 x i8] c"!=\00", align 1
@.str.93 = private unnamed_addr constant [3 x i8] c"\0A\0A\00", align 1
@.str.94 = private unnamed_addr constant [15 x i8] c"thread_id >= 0\00", align 1
@.str.95 = private unnamed_addr constant [26 x i8] c"thread_id <= kThreads - 1\00", align 1
@"_ZTSZL16test_parallelismbE3$_0" = internal constant [27 x i8] c"ZL16test_parallelismbE3$_0\00", align 1
@"_ZTIZL16test_parallelismbE3$_0" = internal constant { ptr, ptr } { ptr getelementptr inbounds (ptr, ptr @_ZTVN10__cxxabiv117__class_type_infoE, i64 2), ptr @"_ZTSZL16test_parallelismbE3$_0" }, align 8
@"_ZTSZZL16test_parallelismbENK3$_1clEvEUlvE_" = internal constant [40 x i8] c"ZZL16test_parallelismbENK3$_1clEvEUlvE_\00", align 1
@"_ZTIZZL16test_parallelismbENK3$_1clEvEUlvE_" = internal constant { ptr, ptr } { ptr getelementptr inbounds (ptr, ptr @_ZTVN10__cxxabiv117__class_type_infoE, i64 2), ptr @"_ZTSZZL16test_parallelismbENK3$_1clEvEUlvE_" }, align 8
@"_ZTSZL16test_parallelismbE3$_1" = internal constant [27 x i8] c"ZL16test_parallelismbE3$_1\00", align 1
@"_ZTIZL16test_parallelismbE3$_1" = internal constant { ptr, ptr } { ptr getelementptr inbounds (ptr, ptr @_ZTVN10__cxxabiv117__class_type_infoE, i64 2), ptr @"_ZTSZL16test_parallelismbE3$_1" }, align 8
@"_ZTSZL16test_parallelismbE3$_2" = internal constant [27 x i8] c"ZL16test_parallelismbE3$_2\00", align 1
@"_ZTIZL16test_parallelismbE3$_2" = internal constant { ptr, ptr } { ptr getelementptr inbounds (ptr, ptr @_ZTVN10__cxxabiv117__class_type_infoE, i64 2), ptr @"_ZTSZL16test_parallelismbE3$_2" }, align 8
@"_ZTSZL11test_cancelvE3$_3" = internal constant [22 x i8] c"ZL11test_cancelvE3$_3\00", align 1
@"_ZTIZL11test_cancelvE3$_3" = internal constant { ptr, ptr } { ptr getelementptr inbounds (ptr, ptr @_ZTVN10__cxxabiv117__class_type_infoE, i64 2), ptr @"_ZTSZL11test_cancelvE3$_3" }, align 8
@.str.96 = private unnamed_addr constant [49 x i8] c"cannot create std::vector larger than max_size()\00", align 1
@.str.97 = private unnamed_addr constant [60 x i8] c"partitions.size() == static_cast<std::size_t>(num_threads_)\00", align 1
@__PRETTY_FUNCTION__._ZN5Eigen15ThreadPoolTemplINS_20StlThreadEnvironmentEE18SetStealPartitionsERKSt6vectorISt4pairIjjESaIS5_EE = private unnamed_addr constant [181 x i8] c"void Eigen::ThreadPoolTempl<Eigen::StlThreadEnvironment>::SetStealPartitions(const std::vector<std::pair<unsigned int, unsigned int>> &) [Environment = Eigen::StlThreadEnvironment]\00", align 1
@"_ZTSZL20test_pool_partitionsvE3$_4" = internal constant [31 x i8] c"ZL20test_pool_partitionsvE3$_4\00", align 1
@"_ZTIZL20test_pool_partitionsvE3$_4" = internal constant { ptr, ptr } { ptr getelementptr inbounds (ptr, ptr @_ZTVN10__cxxabiv117__class_type_infoE, i64 2), ptr @"_ZTSZL20test_pool_partitionsvE3$_4" }, align 8
@.str.98 = private unnamed_addr constant [34 x i8] c"test_is_equal(thread_id, i, true)\00", align 1
@"_ZTSZL20test_pool_partitionsvE3$_5" = internal constant [31 x i8] c"ZL20test_pool_partitionsvE3$_5\00", align 1
@"_ZTIZL20test_pool_partitionsvE3$_5" = internal constant { ptr, ptr } { ptr getelementptr inbounds (ptr, ptr @_ZTVN10__cxxabiv117__class_type_infoE, i64 2), ptr @"_ZTSZL20test_pool_partitionsvE3$_5" }, align 8
@llvm.global_ctors = appending global [1 x { i32, ptr, ptr }] [{ i32, ptr, ptr } { i32 65535, ptr @_GLOBAL__sub_I_threads_non_blocking_thread_pool.cpp, ptr null }]

; Function Attrs: noinline uwtable
define internal void @__cxx_global_var_init() #0 section ".text.startup" {
  call void @_ZNSt8ios_base4InitC1Ev(ptr noundef nonnull align 1 dereferenceable(1) @_ZStL8__ioinit)
  %1 = call i32 @__cxa_atexit(ptr @_ZNSt8ios_base4InitD1Ev, ptr @_ZStL8__ioinit, ptr @__dso_handle) #3
  ret void
}

declare void @_ZNSt8ios_base4InitC1Ev(ptr noundef nonnull align 1 dereferenceable(1)) unnamed_addr #1

; Function Attrs: nounwind
declare void @_ZNSt8ios_base4InitD1Ev(ptr noundef nonnull align 1 dereferenceable(1)) unnamed_addr #2

; Function Attrs: nounwind
declare i32 @__cxa_atexit(ptr, ptr, ptr) #3

; Function Attrs: noinline uwtable
define internal void @__cxx_global_var_init.1() #0 section ".text.startup" {
  call void @_ZNSt6vectorINSt7__cxx1112basic_stringIcSt11char_traitsIcESaIcEEESaIS5_EEC2Ev(ptr noundef nonnull align 8 dereferenceable(24) @_ZN5EigenL12g_test_stackB5cxx11E) #3
  %1 = call i32 @__cxa_atexit(ptr @_ZNSt6vectorINSt7__cxx1112basic_stringIcSt11char_traitsIcESaIcEEESaIS5_EED2Ev, ptr @_ZN5EigenL12g_test_stackB5cxx11E, ptr @__dso_handle) #3
  ret void
}

; Function Attrs: noinline nounwind optnone uwtable
define linkonce_odr dso_local void @_ZNSt6vectorINSt7__cxx1112basic_stringIcSt11char_traitsIcESaIcEEESaIS5_EEC2Ev(ptr noundef nonnull align 8 dereferenceable(24) %0) unnamed_addr #4 comdat align 2 !prof !35 {
  %2 = alloca ptr, align 8
  store ptr %0, ptr %2, align 8
  %3 = load ptr, ptr %2, align 8
  call void @_ZNSt12_Vector_baseINSt7__cxx1112basic_stringIcSt11char_traitsIcESaIcEEESaIS5_EEC2Ev(ptr noundef nonnull align 8 dereferenceable(24) %3) #3
  ret void
}

; Function Attrs: noinline nounwind optnone uwtable
define linkonce_odr dso_local void @_ZNSt6vectorINSt7__cxx1112basic_stringIcSt11char_traitsIcESaIcEEESaIS5_EED2Ev(ptr noundef nonnull align 8 dereferenceable(24) %0) unnamed_addr #4 comdat align 2 personality ptr @__gxx_personality_v0 !prof !36 {
  %2 = alloca ptr, align 8
  store ptr %0, ptr %2, align 8
  %3 = load ptr, ptr %2, align 8
  %4 = getelementptr inbounds %"struct.std::_Vector_base", ptr %3, i32 0, i32 0
  %5 = getelementptr inbounds %"struct.std::_Vector_base<std::__cxx11::basic_string<char>, std::allocator<std::__cxx11::basic_string<char>>>::_Vector_impl_data", ptr %4, i32 0, i32 0
  %6 = load ptr, ptr %5, align 8
  %7 = getelementptr inbounds %"struct.std::_Vector_base", ptr %3, i32 0, i32 0
  %8 = getelementptr inbounds %"struct.std::_Vector_base<std::__cxx11::basic_string<char>, std::allocator<std::__cxx11::basic_string<char>>>::_Vector_impl_data", ptr %7, i32 0, i32 1
  %9 = load ptr, ptr %8, align 8
  %10 = call noundef nonnull align 1 dereferenceable(1) ptr @_ZNSt12_Vector_baseINSt7__cxx1112basic_stringIcSt11char_traitsIcESaIcEEESaIS5_EE19_M_get_Tp_allocatorEv(ptr noundef nonnull align 8 dereferenceable(24) %3) #3
  invoke void @_ZSt8_DestroyIPNSt7__cxx1112basic_stringIcSt11char_traitsIcESaIcEEES5_EvT_S7_RSaIT0_E(ptr noundef %6, ptr noundef %9, ptr noundef nonnull align 1 dereferenceable(1) %10)
          to label %11 unwind label %12

11:                                               ; preds = %1
  call void @_ZNSt12_Vector_baseINSt7__cxx1112basic_stringIcSt11char_traitsIcESaIcEEESaIS5_EED2Ev(ptr noundef nonnull align 8 dereferenceable(24) %3) #3
  ret void

12:                                               ; preds = %1
  %13 = landingpad { ptr, i32 }
          catch ptr null
  %14 = extractvalue { ptr, i32 } %13, 0
  call void @__clang_call_terminate(ptr %14) #20
  unreachable
}

; Function Attrs: mustprogress noinline optnone uwtable
define dso_local void @_Z9type_nameIfENSt7__cxx1112basic_stringIcSt11char_traitsIcESaIcEEET_(ptr noalias sret(%"class.std::__cxx11::basic_string") align 8 %0, float noundef %1) #5 personality ptr @__gxx_personality_v0 !prof !36 {
  %3 = alloca ptr, align 8
  %4 = alloca float, align 4
  %5 = alloca %"class.std::allocator.0", align 1
  %6 = alloca ptr, align 8
  %7 = alloca i32, align 4
  store ptr %0, ptr %3, align 8
  store float %1, ptr %4, align 4
  call void @_ZNSaIcEC1Ev(ptr noundef nonnull align 1 dereferenceable(1) %5) #3
  invoke void @_ZNSt7__cxx1112basic_stringIcSt11char_traitsIcESaIcEEC1EPKcRKS3_(ptr noundef nonnull align 8 dereferenceable(32) %0, ptr noundef @.str, ptr noundef nonnull align 1 dereferenceable(1) %5)
          to label %8 unwind label %9

8:                                                ; preds = %2
  call void @_ZNSaIcED1Ev(ptr noundef nonnull align 1 dereferenceable(1) %5) #3
  ret void

9:                                                ; preds = %2
  %10 = landingpad { ptr, i32 }
          cleanup
  %11 = extractvalue { ptr, i32 } %10, 0
  store ptr %11, ptr %6, align 8
  %12 = extractvalue { ptr, i32 } %10, 1
  store i32 %12, ptr %7, align 4
  call void @_ZNSaIcED1Ev(ptr noundef nonnull align 1 dereferenceable(1) %5) #3
  br label %13

13:                                               ; preds = %9
  %14 = load ptr, ptr %6, align 8
  %15 = load i32, ptr %7, align 4
  %16 = insertvalue { ptr, i32 } undef, ptr %14, 0
  %17 = insertvalue { ptr, i32 } %16, i32 %15, 1
  resume { ptr, i32 } %17
}

; Function Attrs: nounwind
declare void @_ZNSaIcEC1Ev(ptr noundef nonnull align 1 dereferenceable(1)) unnamed_addr #2

declare void @_ZNSt7__cxx1112basic_stringIcSt11char_traitsIcESaIcEEC1EPKcRKS3_(ptr noundef nonnull align 8 dereferenceable(32), ptr noundef, ptr noundef nonnull align 1 dereferenceable(1)) unnamed_addr #1

declare i32 @__gxx_personality_v0(...)

; Function Attrs: nounwind
declare void @_ZNSaIcED1Ev(ptr noundef nonnull align 1 dereferenceable(1)) unnamed_addr #2

; Function Attrs: mustprogress noinline optnone uwtable
define dso_local void @_Z9type_nameIdENSt7__cxx1112basic_stringIcSt11char_traitsIcESaIcEEET_(ptr noalias sret(%"class.std::__cxx11::basic_string") align 8 %0, double noundef %1) #5 personality ptr @__gxx_personality_v0 !prof !36 {
  %3 = alloca ptr, align 8
  %4 = alloca double, align 8
  %5 = alloca %"class.std::allocator.0", align 1
  %6 = alloca ptr, align 8
  %7 = alloca i32, align 4
  store ptr %0, ptr %3, align 8
  store double %1, ptr %4, align 8
  call void @_ZNSaIcEC1Ev(ptr noundef nonnull align 1 dereferenceable(1) %5) #3
  invoke void @_ZNSt7__cxx1112basic_stringIcSt11char_traitsIcESaIcEEC1EPKcRKS3_(ptr noundef nonnull align 8 dereferenceable(32) %0, ptr noundef @.str.2, ptr noundef nonnull align 1 dereferenceable(1) %5)
          to label %8 unwind label %9

8:                                                ; preds = %2
  call void @_ZNSaIcED1Ev(ptr noundef nonnull align 1 dereferenceable(1) %5) #3
  ret void

9:                                                ; preds = %2
  %10 = landingpad { ptr, i32 }
          cleanup
  %11 = extractvalue { ptr, i32 } %10, 0
  store ptr %11, ptr %6, align 8
  %12 = extractvalue { ptr, i32 } %10, 1
  store i32 %12, ptr %7, align 4
  call void @_ZNSaIcED1Ev(ptr noundef nonnull align 1 dereferenceable(1) %5) #3
  br label %13

13:                                               ; preds = %9
  %14 = load ptr, ptr %6, align 8
  %15 = load i32, ptr %7, align 4
  %16 = insertvalue { ptr, i32 } undef, ptr %14, 0
  %17 = insertvalue { ptr, i32 } %16, i32 %15, 1
  resume { ptr, i32 } %17
}

; Function Attrs: mustprogress noinline optnone uwtable
define dso_local void @_Z9type_nameIeENSt7__cxx1112basic_stringIcSt11char_traitsIcESaIcEEET_(ptr noalias sret(%"class.std::__cxx11::basic_string") align 8 %0, x86_fp80 noundef %1) #5 personality ptr @__gxx_personality_v0 !prof !36 {
  %3 = alloca ptr, align 8
  %4 = alloca x86_fp80, align 16
  %5 = alloca %"class.std::allocator.0", align 1
  %6 = alloca ptr, align 8
  %7 = alloca i32, align 4
  store ptr %0, ptr %3, align 8
  store x86_fp80 %1, ptr %4, align 16
  call void @_ZNSaIcEC1Ev(ptr noundef nonnull align 1 dereferenceable(1) %5) #3
  invoke void @_ZNSt7__cxx1112basic_stringIcSt11char_traitsIcESaIcEEC1EPKcRKS3_(ptr noundef nonnull align 8 dereferenceable(32) %0, ptr noundef @.str.3, ptr noundef nonnull align 1 dereferenceable(1) %5)
          to label %8 unwind label %9

8:                                                ; preds = %2
  call void @_ZNSaIcED1Ev(ptr noundef nonnull align 1 dereferenceable(1) %5) #3
  ret void

9:                                                ; preds = %2
  %10 = landingpad { ptr, i32 }
          cleanup
  %11 = extractvalue { ptr, i32 } %10, 0
  store ptr %11, ptr %6, align 8
  %12 = extractvalue { ptr, i32 } %10, 1
  store i32 %12, ptr %7, align 4
  call void @_ZNSaIcED1Ev(ptr noundef nonnull align 1 dereferenceable(1) %5) #3
  br label %13

13:                                               ; preds = %9
  %14 = load ptr, ptr %6, align 8
  %15 = load i32, ptr %7, align 4
  %16 = insertvalue { ptr, i32 } undef, ptr %14, 0
  %17 = insertvalue { ptr, i32 } %16, i32 %15, 1
  resume { ptr, i32 } %17
}

; Function Attrs: mustprogress noinline optnone uwtable
define dso_local void @_Z9type_nameIN5Eigen4halfEENSt7__cxx1112basic_stringIcSt11char_traitsIcESaIcEEET_(ptr noalias sret(%"class.std::__cxx11::basic_string") align 8 %0, i16 %1) #5 personality ptr @__gxx_personality_v0 !prof !36 {
  %3 = alloca ptr, align 8
  %4 = alloca %"struct.Eigen::half", align 2
  %5 = alloca %"class.std::allocator.0", align 1
  %6 = alloca ptr, align 8
  %7 = alloca i32, align 4
  store ptr %0, ptr %3, align 8
  %8 = getelementptr inbounds %"struct.Eigen::half", ptr %4, i32 0, i32 0
  %9 = getelementptr inbounds %"struct.Eigen::half_impl::half_base", ptr %8, i32 0, i32 0
  %10 = getelementptr inbounds %"struct.Eigen::half_impl::__half_raw", ptr %9, i32 0, i32 0
  store i16 %1, ptr %10, align 2
  call void @_ZNSaIcEC1Ev(ptr noundef nonnull align 1 dereferenceable(1) %5) #3
  invoke void @_ZNSt7__cxx1112basic_stringIcSt11char_traitsIcESaIcEEC1EPKcRKS3_(ptr noundef nonnull align 8 dereferenceable(32) %0, ptr noundef @.str.4, ptr noundef nonnull align 1 dereferenceable(1) %5)
          to label %11 unwind label %12

11:                                               ; preds = %2
  call void @_ZNSaIcED1Ev(ptr noundef nonnull align 1 dereferenceable(1) %5) #3
  ret void

12:                                               ; preds = %2
  %13 = landingpad { ptr, i32 }
          cleanup
  %14 = extractvalue { ptr, i32 } %13, 0
  store ptr %14, ptr %6, align 8
  %15 = extractvalue { ptr, i32 } %13, 1
  store i32 %15, ptr %7, align 4
  call void @_ZNSaIcED1Ev(ptr noundef nonnull align 1 dereferenceable(1) %5) #3
  br label %16

16:                                               ; preds = %12
  %17 = load ptr, ptr %6, align 8
  %18 = load i32, ptr %7, align 4
  %19 = insertvalue { ptr, i32 } undef, ptr %17, 0
  %20 = insertvalue { ptr, i32 } %19, i32 %18, 1
  resume { ptr, i32 } %20
}

; Function Attrs: mustprogress noinline optnone uwtable
define dso_local void @_Z9type_nameIN5Eigen8bfloat16EENSt7__cxx1112basic_stringIcSt11char_traitsIcESaIcEEET_(ptr noalias sret(%"class.std::__cxx11::basic_string") align 8 %0, i16 %1) #5 personality ptr @__gxx_personality_v0 !prof !36 {
  %3 = alloca ptr, align 8
  %4 = alloca %"struct.Eigen::bfloat16", align 2
  %5 = alloca %"class.std::allocator.0", align 1
  %6 = alloca ptr, align 8
  %7 = alloca i32, align 4
  store ptr %0, ptr %3, align 8
  %8 = getelementptr inbounds %"struct.Eigen::bfloat16", ptr %4, i32 0, i32 0
  %9 = getelementptr inbounds %"struct.Eigen::bfloat16_impl::bfloat16_base", ptr %8, i32 0, i32 0
  %10 = getelementptr inbounds %"struct.Eigen::bfloat16_impl::__bfloat16_raw", ptr %9, i32 0, i32 0
  store i16 %1, ptr %10, align 2
  call void @_ZNSaIcEC1Ev(ptr noundef nonnull align 1 dereferenceable(1) %5) #3
  invoke void @_ZNSt7__cxx1112basic_stringIcSt11char_traitsIcESaIcEEC1EPKcRKS3_(ptr noundef nonnull align 8 dereferenceable(32) %0, ptr noundef @.str.5, ptr noundef nonnull align 1 dereferenceable(1) %5)
          to label %11 unwind label %12

11:                                               ; preds = %2
  call void @_ZNSaIcED1Ev(ptr noundef nonnull align 1 dereferenceable(1) %5) #3
  ret void

12:                                               ; preds = %2
  %13 = landingpad { ptr, i32 }
          cleanup
  %14 = extractvalue { ptr, i32 } %13, 0
  store ptr %14, ptr %6, align 8
  %15 = extractvalue { ptr, i32 } %13, 1
  store i32 %15, ptr %7, align 4
  call void @_ZNSaIcED1Ev(ptr noundef nonnull align 1 dereferenceable(1) %5) #3
  br label %16

16:                                               ; preds = %12
  %17 = load ptr, ptr %6, align 8
  %18 = load i32, ptr %7, align 4
  %19 = insertvalue { ptr, i32 } undef, ptr %17, 0
  %20 = insertvalue { ptr, i32 } %19, i32 %18, 1
  resume { ptr, i32 } %20
}

; Function Attrs: mustprogress noinline optnone uwtable
define dso_local void @_Z9type_nameIaENSt7__cxx1112basic_stringIcSt11char_traitsIcESaIcEEET_(ptr noalias sret(%"class.std::__cxx11::basic_string") align 8 %0, i8 noundef signext %1) #5 personality ptr @__gxx_personality_v0 !prof !36 {
  %3 = alloca ptr, align 8
  %4 = alloca i8, align 1
  %5 = alloca %"class.std::allocator.0", align 1
  %6 = alloca ptr, align 8
  %7 = alloca i32, align 4
  store ptr %0, ptr %3, align 8
  store i8 %1, ptr %4, align 1
  call void @_ZNSaIcEC1Ev(ptr noundef nonnull align 1 dereferenceable(1) %5) #3
  invoke void @_ZNSt7__cxx1112basic_stringIcSt11char_traitsIcESaIcEEC1EPKcRKS3_(ptr noundef nonnull align 8 dereferenceable(32) %0, ptr noundef @.str.6, ptr noundef nonnull align 1 dereferenceable(1) %5)
          to label %8 unwind label %9

8:                                                ; preds = %2
  call void @_ZNSaIcED1Ev(ptr noundef nonnull align 1 dereferenceable(1) %5) #3
  ret void

9:                                                ; preds = %2
  %10 = landingpad { ptr, i32 }
          cleanup
  %11 = extractvalue { ptr, i32 } %10, 0
  store ptr %11, ptr %6, align 8
  %12 = extractvalue { ptr, i32 } %10, 1
  store i32 %12, ptr %7, align 4
  call void @_ZNSaIcED1Ev(ptr noundef nonnull align 1 dereferenceable(1) %5) #3
  br label %13

13:                                               ; preds = %9
  %14 = load ptr, ptr %6, align 8
  %15 = load i32, ptr %7, align 4
  %16 = insertvalue { ptr, i32 } undef, ptr %14, 0
  %17 = insertvalue { ptr, i32 } %16, i32 %15, 1
  resume { ptr, i32 } %17
}

; Function Attrs: mustprogress noinline optnone uwtable
define dso_local void @_Z9type_nameIsENSt7__cxx1112basic_stringIcSt11char_traitsIcESaIcEEET_(ptr noalias sret(%"class.std::__cxx11::basic_string") align 8 %0, i16 noundef signext %1) #5 personality ptr @__gxx_personality_v0 !prof !36 {
  %3 = alloca ptr, align 8
  %4 = alloca i16, align 2
  %5 = alloca %"class.std::allocator.0", align 1
  %6 = alloca ptr, align 8
  %7 = alloca i32, align 4
  store ptr %0, ptr %3, align 8
  store i16 %1, ptr %4, align 2
  call void @_ZNSaIcEC1Ev(ptr noundef nonnull align 1 dereferenceable(1) %5) #3
  invoke void @_ZNSt7__cxx1112basic_stringIcSt11char_traitsIcESaIcEEC1EPKcRKS3_(ptr noundef nonnull align 8 dereferenceable(32) %0, ptr noundef @.str.7, ptr noundef nonnull align 1 dereferenceable(1) %5)
          to label %8 unwind label %9

8:                                                ; preds = %2
  call void @_ZNSaIcED1Ev(ptr noundef nonnull align 1 dereferenceable(1) %5) #3
  ret void

9:                                                ; preds = %2
  %10 = landingpad { ptr, i32 }
          cleanup
  %11 = extractvalue { ptr, i32 } %10, 0
  store ptr %11, ptr %6, align 8
  %12 = extractvalue { ptr, i32 } %10, 1
  store i32 %12, ptr %7, align 4
  call void @_ZNSaIcED1Ev(ptr noundef nonnull align 1 dereferenceable(1) %5) #3
  br label %13

13:                                               ; preds = %9
  %14 = load ptr, ptr %6, align 8
  %15 = load i32, ptr %7, align 4
  %16 = insertvalue { ptr, i32 } undef, ptr %14, 0
  %17 = insertvalue { ptr, i32 } %16, i32 %15, 1
  resume { ptr, i32 } %17
}

; Function Attrs: mustprogress noinline optnone uwtable
define dso_local void @_Z9type_nameIiENSt7__cxx1112basic_stringIcSt11char_traitsIcESaIcEEET_(ptr noalias sret(%"class.std::__cxx11::basic_string") align 8 %0, i32 noundef %1) #5 personality ptr @__gxx_personality_v0 !prof !36 {
  %3 = alloca ptr, align 8
  %4 = alloca i32, align 4
  %5 = alloca %"class.std::allocator.0", align 1
  %6 = alloca ptr, align 8
  %7 = alloca i32, align 4
  store ptr %0, ptr %3, align 8
  store i32 %1, ptr %4, align 4
  call void @_ZNSaIcEC1Ev(ptr noundef nonnull align 1 dereferenceable(1) %5) #3
  invoke void @_ZNSt7__cxx1112basic_stringIcSt11char_traitsIcESaIcEEC1EPKcRKS3_(ptr noundef nonnull align 8 dereferenceable(32) %0, ptr noundef @.str.8, ptr noundef nonnull align 1 dereferenceable(1) %5)
          to label %8 unwind label %9

8:                                                ; preds = %2
  call void @_ZNSaIcED1Ev(ptr noundef nonnull align 1 dereferenceable(1) %5) #3
  ret void

9:                                                ; preds = %2
  %10 = landingpad { ptr, i32 }
          cleanup
  %11 = extractvalue { ptr, i32 } %10, 0
  store ptr %11, ptr %6, align 8
  %12 = extractvalue { ptr, i32 } %10, 1
  store i32 %12, ptr %7, align 4
  call void @_ZNSaIcED1Ev(ptr noundef nonnull align 1 dereferenceable(1) %5) #3
  br label %13

13:                                               ; preds = %9
  %14 = load ptr, ptr %6, align 8
  %15 = load i32, ptr %7, align 4
  %16 = insertvalue { ptr, i32 } undef, ptr %14, 0
  %17 = insertvalue { ptr, i32 } %16, i32 %15, 1
  resume { ptr, i32 } %17
}

; Function Attrs: mustprogress noinline optnone uwtable
define dso_local void @_Z9type_nameIlENSt7__cxx1112basic_stringIcSt11char_traitsIcESaIcEEET_(ptr noalias sret(%"class.std::__cxx11::basic_string") align 8 %0, i64 noundef %1) #5 personality ptr @__gxx_personality_v0 !prof !36 {
  %3 = alloca ptr, align 8
  %4 = alloca i64, align 8
  %5 = alloca %"class.std::allocator.0", align 1
  %6 = alloca ptr, align 8
  %7 = alloca i32, align 4
  store ptr %0, ptr %3, align 8
  store i64 %1, ptr %4, align 8
  call void @_ZNSaIcEC1Ev(ptr noundef nonnull align 1 dereferenceable(1) %5) #3
  invoke void @_ZNSt7__cxx1112basic_stringIcSt11char_traitsIcESaIcEEC1EPKcRKS3_(ptr noundef nonnull align 8 dereferenceable(32) %0, ptr noundef @.str.9, ptr noundef nonnull align 1 dereferenceable(1) %5)
          to label %8 unwind label %9

8:                                                ; preds = %2
  call void @_ZNSaIcED1Ev(ptr noundef nonnull align 1 dereferenceable(1) %5) #3
  ret void

9:                                                ; preds = %2
  %10 = landingpad { ptr, i32 }
          cleanup
  %11 = extractvalue { ptr, i32 } %10, 0
  store ptr %11, ptr %6, align 8
  %12 = extractvalue { ptr, i32 } %10, 1
  store i32 %12, ptr %7, align 4
  call void @_ZNSaIcED1Ev(ptr noundef nonnull align 1 dereferenceable(1) %5) #3
  br label %13

13:                                               ; preds = %9
  %14 = load ptr, ptr %6, align 8
  %15 = load i32, ptr %7, align 4
  %16 = insertvalue { ptr, i32 } undef, ptr %14, 0
  %17 = insertvalue { ptr, i32 } %16, i32 %15, 1
  resume { ptr, i32 } %17
}

; Function Attrs: mustprogress noinline optnone uwtable
define dso_local void @_Z9type_nameIhENSt7__cxx1112basic_stringIcSt11char_traitsIcESaIcEEET_(ptr noalias sret(%"class.std::__cxx11::basic_string") align 8 %0, i8 noundef zeroext %1) #5 personality ptr @__gxx_personality_v0 !prof !36 {
  %3 = alloca ptr, align 8
  %4 = alloca i8, align 1
  %5 = alloca %"class.std::allocator.0", align 1
  %6 = alloca ptr, align 8
  %7 = alloca i32, align 4
  store ptr %0, ptr %3, align 8
  store i8 %1, ptr %4, align 1
  call void @_ZNSaIcEC1Ev(ptr noundef nonnull align 1 dereferenceable(1) %5) #3
  invoke void @_ZNSt7__cxx1112basic_stringIcSt11char_traitsIcESaIcEEC1EPKcRKS3_(ptr noundef nonnull align 8 dereferenceable(32) %0, ptr noundef @.str.10, ptr noundef nonnull align 1 dereferenceable(1) %5)
          to label %8 unwind label %9

8:                                                ; preds = %2
  call void @_ZNSaIcED1Ev(ptr noundef nonnull align 1 dereferenceable(1) %5) #3
  ret void

9:                                                ; preds = %2
  %10 = landingpad { ptr, i32 }
          cleanup
  %11 = extractvalue { ptr, i32 } %10, 0
  store ptr %11, ptr %6, align 8
  %12 = extractvalue { ptr, i32 } %10, 1
  store i32 %12, ptr %7, align 4
  call void @_ZNSaIcED1Ev(ptr noundef nonnull align 1 dereferenceable(1) %5) #3
  br label %13

13:                                               ; preds = %9
  %14 = load ptr, ptr %6, align 8
  %15 = load i32, ptr %7, align 4
  %16 = insertvalue { ptr, i32 } undef, ptr %14, 0
  %17 = insertvalue { ptr, i32 } %16, i32 %15, 1
  resume { ptr, i32 } %17
}

; Function Attrs: mustprogress noinline optnone uwtable
define dso_local void @_Z9type_nameItENSt7__cxx1112basic_stringIcSt11char_traitsIcESaIcEEET_(ptr noalias sret(%"class.std::__cxx11::basic_string") align 8 %0, i16 noundef zeroext %1) #5 personality ptr @__gxx_personality_v0 !prof !36 {
  %3 = alloca ptr, align 8
  %4 = alloca i16, align 2
  %5 = alloca %"class.std::allocator.0", align 1
  %6 = alloca ptr, align 8
  %7 = alloca i32, align 4
  store ptr %0, ptr %3, align 8
  store i16 %1, ptr %4, align 2
  call void @_ZNSaIcEC1Ev(ptr noundef nonnull align 1 dereferenceable(1) %5) #3
  invoke void @_ZNSt7__cxx1112basic_stringIcSt11char_traitsIcESaIcEEC1EPKcRKS3_(ptr noundef nonnull align 8 dereferenceable(32) %0, ptr noundef @.str.11, ptr noundef nonnull align 1 dereferenceable(1) %5)
          to label %8 unwind label %9

8:                                                ; preds = %2
  call void @_ZNSaIcED1Ev(ptr noundef nonnull align 1 dereferenceable(1) %5) #3
  ret void

9:                                                ; preds = %2
  %10 = landingpad { ptr, i32 }
          cleanup
  %11 = extractvalue { ptr, i32 } %10, 0
  store ptr %11, ptr %6, align 8
  %12 = extractvalue { ptr, i32 } %10, 1
  store i32 %12, ptr %7, align 4
  call void @_ZNSaIcED1Ev(ptr noundef nonnull align 1 dereferenceable(1) %5) #3
  br label %13

13:                                               ; preds = %9
  %14 = load ptr, ptr %6, align 8
  %15 = load i32, ptr %7, align 4
  %16 = insertvalue { ptr, i32 } undef, ptr %14, 0
  %17 = insertvalue { ptr, i32 } %16, i32 %15, 1
  resume { ptr, i32 } %17
}

; Function Attrs: mustprogress noinline optnone uwtable
define dso_local void @_Z9type_nameIjENSt7__cxx1112basic_stringIcSt11char_traitsIcESaIcEEET_(ptr noalias sret(%"class.std::__cxx11::basic_string") align 8 %0, i32 noundef %1) #5 personality ptr @__gxx_personality_v0 !prof !36 {
  %3 = alloca ptr, align 8
  %4 = alloca i32, align 4
  %5 = alloca %"class.std::allocator.0", align 1
  %6 = alloca ptr, align 8
  %7 = alloca i32, align 4
  store ptr %0, ptr %3, align 8
  store i32 %1, ptr %4, align 4
  call void @_ZNSaIcEC1Ev(ptr noundef nonnull align 1 dereferenceable(1) %5) #3
  invoke void @_ZNSt7__cxx1112basic_stringIcSt11char_traitsIcESaIcEEC1EPKcRKS3_(ptr noundef nonnull align 8 dereferenceable(32) %0, ptr noundef @.str.12, ptr noundef nonnull align 1 dereferenceable(1) %5)
          to label %8 unwind label %9

8:                                                ; preds = %2
  call void @_ZNSaIcED1Ev(ptr noundef nonnull align 1 dereferenceable(1) %5) #3
  ret void

9:                                                ; preds = %2
  %10 = landingpad { ptr, i32 }
          cleanup
  %11 = extractvalue { ptr, i32 } %10, 0
  store ptr %11, ptr %6, align 8
  %12 = extractvalue { ptr, i32 } %10, 1
  store i32 %12, ptr %7, align 4
  call void @_ZNSaIcED1Ev(ptr noundef nonnull align 1 dereferenceable(1) %5) #3
  br label %13

13:                                               ; preds = %9
  %14 = load ptr, ptr %6, align 8
  %15 = load i32, ptr %7, align 4
  %16 = insertvalue { ptr, i32 } undef, ptr %14, 0
  %17 = insertvalue { ptr, i32 } %16, i32 %15, 1
  resume { ptr, i32 } %17
}

; Function Attrs: mustprogress noinline optnone uwtable
define dso_local void @_Z9type_nameImENSt7__cxx1112basic_stringIcSt11char_traitsIcESaIcEEET_(ptr noalias sret(%"class.std::__cxx11::basic_string") align 8 %0, i64 noundef %1) #5 personality ptr @__gxx_personality_v0 !prof !36 {
  %3 = alloca ptr, align 8
  %4 = alloca i64, align 8
  %5 = alloca %"class.std::allocator.0", align 1
  %6 = alloca ptr, align 8
  %7 = alloca i32, align 4
  store ptr %0, ptr %3, align 8
  store i64 %1, ptr %4, align 8
  call void @_ZNSaIcEC1Ev(ptr noundef nonnull align 1 dereferenceable(1) %5) #3
  invoke void @_ZNSt7__cxx1112basic_stringIcSt11char_traitsIcESaIcEEC1EPKcRKS3_(ptr noundef nonnull align 8 dereferenceable(32) %0, ptr noundef @.str.13, ptr noundef nonnull align 1 dereferenceable(1) %5)
          to label %8 unwind label %9

8:                                                ; preds = %2
  call void @_ZNSaIcED1Ev(ptr noundef nonnull align 1 dereferenceable(1) %5) #3
  ret void

9:                                                ; preds = %2
  %10 = landingpad { ptr, i32 }
          cleanup
  %11 = extractvalue { ptr, i32 } %10, 0
  store ptr %11, ptr %6, align 8
  %12 = extractvalue { ptr, i32 } %10, 1
  store i32 %12, ptr %7, align 4
  call void @_ZNSaIcED1Ev(ptr noundef nonnull align 1 dereferenceable(1) %5) #3
  br label %13

13:                                               ; preds = %9
  %14 = load ptr, ptr %6, align 8
  %15 = load i32, ptr %7, align 4
  %16 = insertvalue { ptr, i32 } undef, ptr %14, 0
  %17 = insertvalue { ptr, i32 } %16, i32 %15, 1
  resume { ptr, i32 } %17
}

; Function Attrs: mustprogress noinline optnone uwtable
define dso_local void @_Z9type_nameISt7complexIfEENSt7__cxx1112basic_stringIcSt11char_traitsIcESaIcEEET_(ptr noalias sret(%"class.std::__cxx11::basic_string") align 8 %0, <2 x float> %1) #6 personality ptr @__gxx_personality_v0 !prof !36 {
  %3 = alloca ptr, align 8
  %4 = alloca %"class.std::complex", align 4
  %5 = alloca %"class.std::allocator.0", align 1
  %6 = alloca ptr, align 8
  %7 = alloca i32, align 4
  store ptr %0, ptr %3, align 8
  %8 = getelementptr inbounds %"class.std::complex", ptr %4, i32 0, i32 0
  store <2 x float> %1, ptr %8, align 4
  call void @_ZNSaIcEC1Ev(ptr noundef nonnull align 1 dereferenceable(1) %5) #3
  invoke void @_ZNSt7__cxx1112basic_stringIcSt11char_traitsIcESaIcEEC1EPKcRKS3_(ptr noundef nonnull align 8 dereferenceable(32) %0, ptr noundef @.str.14, ptr noundef nonnull align 1 dereferenceable(1) %5)
          to label %9 unwind label %10

9:                                                ; preds = %2
  call void @_ZNSaIcED1Ev(ptr noundef nonnull align 1 dereferenceable(1) %5) #3
  ret void

10:                                               ; preds = %2
  %11 = landingpad { ptr, i32 }
          cleanup
  %12 = extractvalue { ptr, i32 } %11, 0
  store ptr %12, ptr %6, align 8
  %13 = extractvalue { ptr, i32 } %11, 1
  store i32 %13, ptr %7, align 4
  call void @_ZNSaIcED1Ev(ptr noundef nonnull align 1 dereferenceable(1) %5) #3
  br label %14

14:                                               ; preds = %10
  %15 = load ptr, ptr %6, align 8
  %16 = load i32, ptr %7, align 4
  %17 = insertvalue { ptr, i32 } undef, ptr %15, 0
  %18 = insertvalue { ptr, i32 } %17, i32 %16, 1
  resume { ptr, i32 } %18
}

; Function Attrs: mustprogress noinline optnone uwtable
define dso_local void @_Z9type_nameISt7complexIdEENSt7__cxx1112basic_stringIcSt11char_traitsIcESaIcEEET_(ptr noalias sret(%"class.std::__cxx11::basic_string") align 8 %0, double %1, double %2) #5 personality ptr @__gxx_personality_v0 !prof !36 {
  %4 = alloca ptr, align 8
  %5 = alloca %"class.std::complex.3", align 8
  %6 = alloca %"class.std::allocator.0", align 1
  %7 = alloca ptr, align 8
  %8 = alloca i32, align 4
  store ptr %0, ptr %4, align 8
  %9 = getelementptr inbounds { double, double }, ptr %5, i32 0, i32 0
  store double %1, ptr %9, align 8
  %10 = getelementptr inbounds { double, double }, ptr %5, i32 0, i32 1
  store double %2, ptr %10, align 8
  call void @_ZNSaIcEC1Ev(ptr noundef nonnull align 1 dereferenceable(1) %6) #3
  invoke void @_ZNSt7__cxx1112basic_stringIcSt11char_traitsIcESaIcEEC1EPKcRKS3_(ptr noundef nonnull align 8 dereferenceable(32) %0, ptr noundef @.str.15, ptr noundef nonnull align 1 dereferenceable(1) %6)
          to label %11 unwind label %12

11:                                               ; preds = %3
  call void @_ZNSaIcED1Ev(ptr noundef nonnull align 1 dereferenceable(1) %6) #3
  ret void

12:                                               ; preds = %3
  %13 = landingpad { ptr, i32 }
          cleanup
  %14 = extractvalue { ptr, i32 } %13, 0
  store ptr %14, ptr %7, align 8
  %15 = extractvalue { ptr, i32 } %13, 1
  store i32 %15, ptr %8, align 4
  call void @_ZNSaIcED1Ev(ptr noundef nonnull align 1 dereferenceable(1) %6) #3
  br label %16

16:                                               ; preds = %12
  %17 = load ptr, ptr %7, align 8
  %18 = load i32, ptr %8, align 4
  %19 = insertvalue { ptr, i32 } undef, ptr %17, 0
  %20 = insertvalue { ptr, i32 } %19, i32 %18, 1
  resume { ptr, i32 } %20
}

; Function Attrs: mustprogress noinline optnone uwtable
define dso_local void @_Z9type_nameISt7complexIeEENSt7__cxx1112basic_stringIcSt11char_traitsIcESaIcEEET_(ptr noalias sret(%"class.std::__cxx11::basic_string") align 8 %0, ptr noundef byval(%"class.std::complex.4") align 16 %1) #5 personality ptr @__gxx_personality_v0 !prof !36 {
  %3 = alloca ptr, align 8
  %4 = alloca %"class.std::allocator.0", align 1
  %5 = alloca ptr, align 8
  %6 = alloca i32, align 4
  store ptr %0, ptr %3, align 8
  call void @_ZNSaIcEC1Ev(ptr noundef nonnull align 1 dereferenceable(1) %4) #3
  invoke void @_ZNSt7__cxx1112basic_stringIcSt11char_traitsIcESaIcEEC1EPKcRKS3_(ptr noundef nonnull align 8 dereferenceable(32) %0, ptr noundef @.str.16, ptr noundef nonnull align 1 dereferenceable(1) %4)
          to label %7 unwind label %8

7:                                                ; preds = %2
  call void @_ZNSaIcED1Ev(ptr noundef nonnull align 1 dereferenceable(1) %4) #3
  ret void

8:                                                ; preds = %2
  %9 = landingpad { ptr, i32 }
          cleanup
  %10 = extractvalue { ptr, i32 } %9, 0
  store ptr %10, ptr %5, align 8
  %11 = extractvalue { ptr, i32 } %9, 1
  store i32 %11, ptr %6, align 4
  call void @_ZNSaIcED1Ev(ptr noundef nonnull align 1 dereferenceable(1) %4) #3
  br label %12

12:                                               ; preds = %8
  %13 = load ptr, ptr %5, align 8
  %14 = load i32, ptr %6, align 4
  %15 = insertvalue { ptr, i32 } undef, ptr %13, 0
  %16 = insertvalue { ptr, i32 } %15, i32 %14, 1
  resume { ptr, i32 } %16
}

; Function Attrs: mustprogress noinline optnone uwtable
define dso_local void @_Z9type_nameISt7complexIiEENSt7__cxx1112basic_stringIcSt11char_traitsIcESaIcEEET_(ptr noalias sret(%"class.std::__cxx11::basic_string") align 8 %0, i64 %1) #5 personality ptr @__gxx_personality_v0 !prof !36 {
  %3 = alloca ptr, align 8
  %4 = alloca %"class.std::complex.5", align 4
  %5 = alloca %"class.std::allocator.0", align 1
  %6 = alloca ptr, align 8
  %7 = alloca i32, align 4
  store ptr %0, ptr %3, align 8
  store i64 %1, ptr %4, align 4
  call void @_ZNSaIcEC1Ev(ptr noundef nonnull align 1 dereferenceable(1) %5) #3
  invoke void @_ZNSt7__cxx1112basic_stringIcSt11char_traitsIcESaIcEEC1EPKcRKS3_(ptr noundef nonnull align 8 dereferenceable(32) %0, ptr noundef @.str.17, ptr noundef nonnull align 1 dereferenceable(1) %5)
          to label %8 unwind label %9

8:                                                ; preds = %2
  call void @_ZNSaIcED1Ev(ptr noundef nonnull align 1 dereferenceable(1) %5) #3
  ret void

9:                                                ; preds = %2
  %10 = landingpad { ptr, i32 }
          cleanup
  %11 = extractvalue { ptr, i32 } %10, 0
  store ptr %11, ptr %6, align 8
  %12 = extractvalue { ptr, i32 } %10, 1
  store i32 %12, ptr %7, align 4
  call void @_ZNSaIcED1Ev(ptr noundef nonnull align 1 dereferenceable(1) %5) #3
  br label %13

13:                                               ; preds = %9
  %14 = load ptr, ptr %6, align 8
  %15 = load i32, ptr %7, align 4
  %16 = insertvalue { ptr, i32 } undef, ptr %14, 0
  %17 = insertvalue { ptr, i32 } %16, i32 %15, 1
  resume { ptr, i32 } %17
}

; Function Attrs: mustprogress noinline norecurse optnone uwtable
define dso_local noundef i32 @main(i32 noundef %0, ptr noundef %1) #7 personality ptr @__gxx_personality_v0 !prof !35 {
  %3 = alloca i32, align 4
  %4 = alloca i32, align 4
  %5 = alloca ptr, align 8
  %6 = alloca i8, align 1
  %7 = alloca i32, align 4
  %8 = alloca ptr, align 8
  %9 = alloca ptr, align 8
  %10 = alloca %"class.std::__cxx11::basic_stringstream", align 8
  %11 = alloca ptr, align 8
  %12 = alloca i32, align 4
  %13 = alloca %"class.std::__cxx11::basic_string", align 8
  %14 = alloca i64, align 8
  %15 = alloca ptr, align 8
  store i32 0, ptr %3, align 4
  store i32 %0, ptr %4, align 4
  store ptr %1, ptr %5, align 8
  store i8 0, ptr @_ZN5EigenL16g_has_set_repeatE, align 1
  store i8 0, ptr @_ZN5EigenL14g_has_set_seedE, align 1
  store i8 0, ptr %6, align 1
  store i32 1, ptr %7, align 4
  br label %16

16:                                               ; preds = %83, %2
  %17 = load i32, ptr %7, align 4
  %18 = load i32, ptr %4, align 4
  %19 = icmp slt i32 %17, %18
  br i1 %19, label %20, label %86, !prof !37

20:                                               ; preds = %16
  %21 = load ptr, ptr %5, align 8
  %22 = load i32, ptr %7, align 4
  %23 = sext i32 %22 to i64
  %24 = getelementptr inbounds ptr, ptr %21, i64 %23
  %25 = load ptr, ptr %24, align 8
  %26 = getelementptr inbounds i8, ptr %25, i64 0
  %27 = load i8, ptr %26, align 1
  %28 = sext i8 %27 to i32
  %29 = icmp eq i32 %28, 114
  br i1 %29, label %30, label %50

30:                                               ; preds = %20
  %31 = load i8, ptr @_ZN5EigenL16g_has_set_repeatE, align 1
  %32 = trunc i8 %31 to i1
  br i1 %32, label %33, label %43

33:                                               ; preds = %30
  %34 = call noundef nonnull align 8 dereferenceable(8) ptr @_ZStlsISt11char_traitsIcEERSt13basic_ostreamIcT_ES5_PKc(ptr noundef nonnull align 8 dereferenceable(8) @_ZSt4cout, ptr noundef @.str.18)
  %35 = load ptr, ptr %5, align 8
  %36 = load i32, ptr %7, align 4
  %37 = sext i32 %36 to i64
  %38 = getelementptr inbounds ptr, ptr %35, i64 %37
  %39 = load ptr, ptr %38, align 8
  %40 = call noundef nonnull align 8 dereferenceable(8) ptr @_ZStlsISt11char_traitsIcEERSt13basic_ostreamIcT_ES5_PKc(ptr noundef nonnull align 8 dereferenceable(8) %34, ptr noundef %39)
  %41 = call noundef nonnull align 8 dereferenceable(8) ptr @_ZStlsISt11char_traitsIcEERSt13basic_ostreamIcT_ES5_PKc(ptr noundef nonnull align 8 dereferenceable(8) %40, ptr noundef @.str.19)
  %42 = call noundef nonnull align 8 dereferenceable(8) ptr @_ZNSolsEPFRSoS_E(ptr noundef nonnull align 8 dereferenceable(8) %41, ptr noundef @_ZSt4endlIcSt11char_traitsIcEERSt13basic_ostreamIT_T0_ES6_)
  store i32 1, ptr %3, align 4
  br label %192

43:                                               ; preds = %30
  %44 = load ptr, ptr %5, align 8
  %45 = load i32, ptr %7, align 4
  %46 = sext i32 %45 to i64
  %47 = getelementptr inbounds ptr, ptr %44, i64 %46
  %48 = load ptr, ptr %47, align 8
  %49 = getelementptr inbounds i8, ptr %48, i64 1
  call void @_Z22set_repeat_from_stringPKc(ptr noundef %49)
  br label %82

50:                                               ; preds = %20
  %51 = load ptr, ptr %5, align 8
  %52 = load i32, ptr %7, align 4
  %53 = sext i32 %52 to i64
  %54 = getelementptr inbounds ptr, ptr %51, i64 %53
  %55 = load ptr, ptr %54, align 8
  %56 = getelementptr inbounds i8, ptr %55, i64 0
  %57 = load i8, ptr %56, align 1
  %58 = sext i8 %57 to i32
  %59 = icmp eq i32 %58, 115
  br i1 %59, label %60, label %80

60:                                               ; preds = %50
  %61 = load i8, ptr @_ZN5EigenL14g_has_set_seedE, align 1
  %62 = trunc i8 %61 to i1
  br i1 %62, label %63, label %73

63:                                               ; preds = %60
  %64 = call noundef nonnull align 8 dereferenceable(8) ptr @_ZStlsISt11char_traitsIcEERSt13basic_ostreamIcT_ES5_PKc(ptr noundef nonnull align 8 dereferenceable(8) @_ZSt4cout, ptr noundef @.str.18)
  %65 = load ptr, ptr %5, align 8
  %66 = load i32, ptr %7, align 4
  %67 = sext i32 %66 to i64
  %68 = getelementptr inbounds ptr, ptr %65, i64 %67
  %69 = load ptr, ptr %68, align 8
  %70 = call noundef nonnull align 8 dereferenceable(8) ptr @_ZStlsISt11char_traitsIcEERSt13basic_ostreamIcT_ES5_PKc(ptr noundef nonnull align 8 dereferenceable(8) %64, ptr noundef %69)
  %71 = call noundef nonnull align 8 dereferenceable(8) ptr @_ZStlsISt11char_traitsIcEERSt13basic_ostreamIcT_ES5_PKc(ptr noundef nonnull align 8 dereferenceable(8) %70, ptr noundef @.str.19)
  %72 = call noundef nonnull align 8 dereferenceable(8) ptr @_ZNSolsEPFRSoS_E(ptr noundef nonnull align 8 dereferenceable(8) %71, ptr noundef @_ZSt4endlIcSt11char_traitsIcEERSt13basic_ostreamIT_T0_ES6_)
  store i32 1, ptr %3, align 4
  br label %192

73:                                               ; preds = %60
  %74 = load ptr, ptr %5, align 8
  %75 = load i32, ptr %7, align 4
  %76 = sext i32 %75 to i64
  %77 = getelementptr inbounds ptr, ptr %74, i64 %76
  %78 = load ptr, ptr %77, align 8
  %79 = getelementptr inbounds i8, ptr %78, i64 1
  call void @_Z20set_seed_from_stringPKc(ptr noundef %79)
  br label %81

80:                                               ; preds = %50
  store i8 1, ptr %6, align 1
  br label %81

81:                                               ; preds = %80, %73
  br label %82

82:                                               ; preds = %81, %43
  br label %83

83:                                               ; preds = %82
  %84 = load i32, ptr %7, align 4
  %85 = add nsw i32 %84, 1
  store i32 %85, ptr %7, align 4
  br label %16, !llvm.loop !38

86:                                               ; preds = %16
  %87 = load i8, ptr %6, align 1
  %88 = trunc i8 %87 to i1
  br i1 %88, label %89, label %103, !prof !37

89:                                               ; preds = %86
  %90 = call noundef nonnull align 8 dereferenceable(8) ptr @_ZStlsISt11char_traitsIcEERSt13basic_ostreamIcT_ES5_PKc(ptr noundef nonnull align 8 dereferenceable(8) @_ZSt4cout, ptr noundef @.str.20)
  %91 = call noundef nonnull align 8 dereferenceable(8) ptr @_ZNSolsEPFRSoS_E(ptr noundef nonnull align 8 dereferenceable(8) %90, ptr noundef @_ZSt4endlIcSt11char_traitsIcEERSt13basic_ostreamIT_T0_ES6_)
  %92 = call noundef nonnull align 8 dereferenceable(8) ptr @_ZStlsISt11char_traitsIcEERSt13basic_ostreamIcT_ES5_PKc(ptr noundef nonnull align 8 dereferenceable(8) @_ZSt4cout, ptr noundef @.str.21)
  %93 = call noundef nonnull align 8 dereferenceable(8) ptr @_ZNSolsEi(ptr noundef nonnull align 8 dereferenceable(8) %92, i32 noundef 10)
  %94 = call noundef nonnull align 8 dereferenceable(8) ptr @_ZStlsISt11char_traitsIcEERSt13basic_ostreamIcT_ES5_PKc(ptr noundef nonnull align 8 dereferenceable(8) %93, ptr noundef @.str.22)
  %95 = call noundef nonnull align 8 dereferenceable(8) ptr @_ZNSolsEPFRSoS_E(ptr noundef nonnull align 8 dereferenceable(8) %94, ptr noundef @_ZSt4endlIcSt11char_traitsIcEERSt13basic_ostreamIT_T0_ES6_)
  %96 = call noundef nonnull align 8 dereferenceable(8) ptr @_ZStlsISt11char_traitsIcEERSt13basic_ostreamIcT_ES5_PKc(ptr noundef nonnull align 8 dereferenceable(8) @_ZSt4cout, ptr noundef @.str.23)
  %97 = call noundef nonnull align 8 dereferenceable(8) ptr @_ZNSolsEPFRSoS_E(ptr noundef nonnull align 8 dereferenceable(8) %96, ptr noundef @_ZSt4endlIcSt11char_traitsIcEERSt13basic_ostreamIT_T0_ES6_)
  %98 = call noundef nonnull align 8 dereferenceable(8) ptr @_ZNSolsEPFRSoS_E(ptr noundef nonnull align 8 dereferenceable(8) @_ZSt4cout, ptr noundef @_ZSt4endlIcSt11char_traitsIcEERSt13basic_ostreamIT_T0_ES6_)
  %99 = call noundef nonnull align 8 dereferenceable(8) ptr @_ZStlsISt11char_traitsIcEERSt13basic_ostreamIcT_ES5_PKc(ptr noundef nonnull align 8 dereferenceable(8) @_ZSt4cout, ptr noundef @.str.24)
  %100 = call noundef nonnull align 8 dereferenceable(8) ptr @_ZNSolsEPFRSoS_E(ptr noundef nonnull align 8 dereferenceable(8) %99, ptr noundef @_ZSt4endlIcSt11char_traitsIcEERSt13basic_ostreamIT_T0_ES6_)
  %101 = call noundef nonnull align 8 dereferenceable(8) ptr @_ZStlsISt11char_traitsIcEERSt13basic_ostreamIcT_ES5_PKc(ptr noundef nonnull align 8 dereferenceable(8) @_ZSt4cout, ptr noundef @.str.25)
  %102 = call noundef nonnull align 8 dereferenceable(8) ptr @_ZNSolsEPFRSoS_E(ptr noundef nonnull align 8 dereferenceable(8) %101, ptr noundef @_ZSt4endlIcSt11char_traitsIcEERSt13basic_ostreamIT_T0_ES6_)
  store i32 1, ptr %3, align 4
  br label %192

103:                                              ; preds = %86
  %104 = call ptr @getenv(ptr noundef @.str.26) #3
  store ptr %104, ptr %8, align 8
  %105 = load i8, ptr @_ZN5EigenL16g_has_set_repeatE, align 1
  %106 = trunc i8 %105 to i1
  br i1 %106, label %112, label %107, !prof !37

107:                                              ; preds = %103
  %108 = load ptr, ptr %8, align 8
  %109 = icmp ne ptr %108, null
  br i1 %109, label %110, label %112, !prof !37

110:                                              ; preds = %107
  %111 = load ptr, ptr %8, align 8
  call void @_Z22set_repeat_from_stringPKc(ptr noundef %111)
  br label %112

112:                                              ; preds = %110, %107, %103
  %113 = call ptr @getenv(ptr noundef @.str.27) #3
  store ptr %113, ptr %9, align 8
  %114 = load i8, ptr @_ZN5EigenL14g_has_set_seedE, align 1
  %115 = trunc i8 %114 to i1
  br i1 %115, label %121, label %116, !prof !37

116:                                              ; preds = %112
  %117 = load ptr, ptr %9, align 8
  %118 = icmp ne ptr %117, null
  br i1 %118, label %119, label %121, !prof !37

119:                                              ; preds = %116
  %120 = load ptr, ptr %9, align 8
  call void @_Z20set_seed_from_stringPKc(ptr noundef %120)
  br label %121

121:                                              ; preds = %119, %116, %112
  %122 = load i8, ptr @_ZN5EigenL14g_has_set_seedE, align 1
  %123 = trunc i8 %122 to i1
  br i1 %123, label %127, label %124, !prof !37

124:                                              ; preds = %121
  %125 = call i64 @time(ptr noundef null) #3
  %126 = trunc i64 %125 to i32
  store i32 %126, ptr @_ZN5EigenL6g_seedE, align 4
  br label %127

127:                                              ; preds = %124, %121
  %128 = load i8, ptr @_ZN5EigenL16g_has_set_repeatE, align 1
  %129 = trunc i8 %128 to i1
  br i1 %129, label %131, label %130, !prof !37

130:                                              ; preds = %127
  store i32 10, ptr @_ZN5EigenL8g_repeatE, align 4
  br label %131

131:                                              ; preds = %130, %127
  %132 = call noundef nonnull align 8 dereferenceable(8) ptr @_ZStlsISt11char_traitsIcEERSt13basic_ostreamIcT_ES5_PKc(ptr noundef nonnull align 8 dereferenceable(8) @_ZSt4cout, ptr noundef @.str.28)
  %133 = load i32, ptr @_ZN5EigenL6g_seedE, align 4
  %134 = call noundef nonnull align 8 dereferenceable(8) ptr @_ZNSolsEj(ptr noundef nonnull align 8 dereferenceable(8) %132, i32 noundef %133)
  %135 = call noundef nonnull align 8 dereferenceable(8) ptr @_ZNSolsEPFRSoS_E(ptr noundef nonnull align 8 dereferenceable(8) %134, ptr noundef @_ZSt4endlIcSt11char_traitsIcEERSt13basic_ostreamIT_T0_ES6_)
  call void @_ZNSt7__cxx1118basic_stringstreamIcSt11char_traitsIcESaIcEEC1Ev(ptr noundef nonnull align 8 dereferenceable(128) %10)
  %136 = getelementptr inbounds i8, ptr %10, i64 16
  %137 = invoke noundef nonnull align 8 dereferenceable(8) ptr @_ZStlsISt11char_traitsIcEERSt13basic_ostreamIcT_ES5_PKc(ptr noundef nonnull align 8 dereferenceable(8) %136, ptr noundef @.str.29)
          to label %138 unwind label %182

138:                                              ; preds = %131
  %139 = load i32, ptr @_ZN5EigenL6g_seedE, align 4
  %140 = invoke noundef nonnull align 8 dereferenceable(8) ptr @_ZNSolsEj(ptr noundef nonnull align 8 dereferenceable(8) %137, i32 noundef %139)
          to label %141 unwind label %182

141:                                              ; preds = %138
  invoke void @_ZNKSt7__cxx1118basic_stringstreamIcSt11char_traitsIcESaIcEE3strEv(ptr sret(%"class.std::__cxx11::basic_string") align 8 %13, ptr noundef nonnull align 8 dereferenceable(128) %10)
          to label %142 unwind label %182

142:                                              ; preds = %141
  invoke void @_ZNSt6vectorINSt7__cxx1112basic_stringIcSt11char_traitsIcESaIcEEESaIS5_EE9push_backEOS5_(ptr noundef nonnull align 8 dereferenceable(24) @_ZN5EigenL12g_test_stackB5cxx11E, ptr noundef nonnull align 8 dereferenceable(32) %13)
          to label %143 unwind label %186

143:                                              ; preds = %142
  call void @_ZNSt7__cxx1112basic_stringIcSt11char_traitsIcESaIcEED1Ev(ptr noundef nonnull align 8 dereferenceable(32) %13) #3
  %144 = load i32, ptr @_ZN5EigenL6g_seedE, align 4
  call void @srand(i32 noundef %144) #3
  %145 = invoke noundef nonnull align 8 dereferenceable(8) ptr @_ZStlsISt11char_traitsIcEERSt13basic_ostreamIcT_ES5_PKc(ptr noundef nonnull align 8 dereferenceable(8) @_ZSt4cout, ptr noundef @.str.30)
          to label %146 unwind label %182

146:                                              ; preds = %143
  %147 = load i32, ptr @_ZN5EigenL8g_repeatE, align 4
  %148 = invoke noundef nonnull align 8 dereferenceable(8) ptr @_ZNSolsEi(ptr noundef nonnull align 8 dereferenceable(8) %145, i32 noundef %147)
          to label %149 unwind label %182

149:                                              ; preds = %146
  %150 = invoke noundef nonnull align 8 dereferenceable(8) ptr @_ZStlsISt11char_traitsIcEERSt13basic_ostreamIcT_ES5_PKc(ptr noundef nonnull align 8 dereferenceable(8) %148, ptr noundef @.str.31)
          to label %151 unwind label %182

151:                                              ; preds = %149
  %152 = invoke noundef nonnull align 8 dereferenceable(8) ptr @_ZNSolsEPFRSoS_E(ptr noundef nonnull align 8 dereferenceable(8) %150, ptr noundef @_ZSt4endlIcSt11char_traitsIcEERSt13basic_ostreamIT_T0_ES6_)
          to label %153 unwind label %182

153:                                              ; preds = %151
  %154 = invoke noundef nonnull align 8 dereferenceable(24) ptr @_ZN5Eigen9EigenTest3allEv()
          to label %155 unwind label %182

155:                                              ; preds = %153
  %156 = call noundef i64 @_ZNKSt6vectorIPN5Eigen9EigenTestESaIS2_EE4sizeEv(ptr noundef nonnull align 8 dereferenceable(24) %154) #3
  %157 = icmp ugt i64 %156, 0
  %158 = call noundef nonnull align 8 dereferenceable(32) ptr @_ZNSt6vectorINSt7__cxx1112basic_stringIcSt11char_traitsIcESaIcEEESaIS5_EE4backEv(ptr noundef nonnull align 8 dereferenceable(24) @_ZN5EigenL12g_test_stackB5cxx11E) #3
  %159 = call noundef ptr @_ZNKSt7__cxx1112basic_stringIcSt11char_traitsIcESaIcEE5c_strEv(ptr noundef nonnull align 8 dereferenceable(32) %158) #3
  invoke void @_Z11verify_implbPKcS0_iS0_(i1 noundef zeroext %157, ptr noundef %159, ptr noundef @.str.32, i32 noundef 908, ptr noundef @.str.33)
          to label %160 unwind label %182

160:                                              ; preds = %155
  store i64 0, ptr %14, align 8
  br label %161

161:                                              ; preds = %179, %160
  %162 = load i64, ptr %14, align 8
  %163 = invoke noundef nonnull align 8 dereferenceable(24) ptr @_ZN5Eigen9EigenTest3allEv()
          to label %164 unwind label %182

164:                                              ; preds = %161
  %165 = call noundef i64 @_ZNKSt6vectorIPN5Eigen9EigenTestESaIS2_EE4sizeEv(ptr noundef nonnull align 8 dereferenceable(24) %163) #3
  %166 = icmp ult i64 %162, %165
  br i1 %166, label %167, label %190, !prof !40

167:                                              ; preds = %164
  %168 = invoke noundef nonnull align 8 dereferenceable(24) ptr @_ZN5Eigen9EigenTest3allEv()
          to label %169 unwind label %182

169:                                              ; preds = %167
  %170 = load i64, ptr %14, align 8
  %171 = call noundef nonnull align 8 dereferenceable(8) ptr @_ZNKSt6vectorIPN5Eigen9EigenTestESaIS2_EEixEm(ptr noundef nonnull align 8 dereferenceable(24) %168, i64 noundef %170) #3
  %172 = load ptr, ptr %171, align 8
  store ptr %172, ptr %15, align 8
  %173 = load ptr, ptr %15, align 8
  %174 = invoke noundef nonnull align 8 dereferenceable(32) ptr @_ZNK5Eigen9EigenTest4nameB5cxx11Ev(ptr noundef nonnull align 8 dereferenceable(40) %173)
          to label %175 unwind label %182

175:                                              ; preds = %169
  invoke void @_ZNSt6vectorINSt7__cxx1112basic_stringIcSt11char_traitsIcESaIcEEESaIS5_EE9push_backERKS5_(ptr noundef nonnull align 8 dereferenceable(24) @_ZN5EigenL12g_test_stackB5cxx11E, ptr noundef nonnull align 8 dereferenceable(32) %174)
          to label %176 unwind label %182

176:                                              ; preds = %175
  %177 = load ptr, ptr %15, align 8
  invoke void @_ZNK5Eigen9EigenTestclEv(ptr noundef nonnull align 8 dereferenceable(40) %177)
          to label %178 unwind label %182

178:                                              ; preds = %176
  call void @_ZNSt6vectorINSt7__cxx1112basic_stringIcSt11char_traitsIcESaIcEEESaIS5_EE8pop_backEv(ptr noundef nonnull align 8 dereferenceable(24) @_ZN5EigenL12g_test_stackB5cxx11E) #3
  br label %179

179:                                              ; preds = %178
  %180 = load i64, ptr %14, align 8
  %181 = add i64 %180, 1
  store i64 %181, ptr %14, align 8
  br label %161, !llvm.loop !41

182:                                              ; preds = %176, %175, %169, %167, %161, %155, %153, %151, %149, %146, %143, %141, %138, %131
  %183 = landingpad { ptr, i32 }
          cleanup
  %184 = extractvalue { ptr, i32 } %183, 0
  store ptr %184, ptr %11, align 8
  %185 = extractvalue { ptr, i32 } %183, 1
  store i32 %185, ptr %12, align 4
  br label %191

186:                                              ; preds = %142
  %187 = landingpad { ptr, i32 }
          cleanup
  %188 = extractvalue { ptr, i32 } %187, 0
  store ptr %188, ptr %11, align 8
  %189 = extractvalue { ptr, i32 } %187, 1
  store i32 %189, ptr %12, align 4
  call void @_ZNSt7__cxx1112basic_stringIcSt11char_traitsIcESaIcEED1Ev(ptr noundef nonnull align 8 dereferenceable(32) %13) #3
  br label %191

190:                                              ; preds = %164
  store i32 0, ptr %3, align 4
  call void @_ZNSt7__cxx1118basic_stringstreamIcSt11char_traitsIcESaIcEED1Ev(ptr noundef nonnull align 8 dereferenceable(128) %10) #3
  br label %192

191:                                              ; preds = %186, %182
  call void @_ZNSt7__cxx1118basic_stringstreamIcSt11char_traitsIcESaIcEED1Ev(ptr noundef nonnull align 8 dereferenceable(128) %10) #3
  br label %194

192:                                              ; preds = %190, %89, %63, %33
  %193 = load i32, ptr %3, align 4
  ret i32 %193

194:                                              ; preds = %191
  %195 = load ptr, ptr %11, align 8
  %196 = load i32, ptr %12, align 4
  %197 = insertvalue { ptr, i32 } undef, ptr %195, 0
  %198 = insertvalue { ptr, i32 } %197, i32 %196, 1
  resume { ptr, i32 } %198
}

declare noundef nonnull align 8 dereferenceable(8) ptr @_ZStlsISt11char_traitsIcEERSt13basic_ostreamIcT_ES5_PKc(ptr noundef nonnull align 8 dereferenceable(8), ptr noundef) #1

declare noundef nonnull align 8 dereferenceable(8) ptr @_ZNSolsEPFRSoS_E(ptr noundef nonnull align 8 dereferenceable(8), ptr noundef) #1

declare noundef nonnull align 8 dereferenceable(8) ptr @_ZSt4endlIcSt11char_traitsIcEERSt13basic_ostreamIT_T0_ES6_(ptr noundef nonnull align 8 dereferenceable(8)) #1

; Function Attrs: mustprogress noinline optnone uwtable
define linkonce_odr dso_local void @_Z22set_repeat_from_stringPKc(ptr noundef %0) #5 comdat !prof !36 {
  %2 = alloca ptr, align 8
  store ptr %0, ptr %2, align 8
  %3 = call ptr @__errno_location() #21
  store i32 0, ptr %3, align 4
  %4 = load ptr, ptr %2, align 8
  %5 = call i64 @strtoul(ptr noundef %4, ptr noundef null, i32 noundef 10) #3
  %6 = trunc i64 %5 to i32
  store i32 %6, ptr @_ZN5EigenL8g_repeatE, align 4
  %7 = call ptr @__errno_location() #21
  %8 = load i32, ptr %7, align 4
  %9 = icmp ne i32 %8, 0
  br i1 %9, label %13, label %10

10:                                               ; preds = %1
  %11 = load i32, ptr @_ZN5EigenL8g_repeatE, align 4
  %12 = icmp sle i32 %11, 0
  br i1 %12, label %13, label %18

13:                                               ; preds = %10, %1
  %14 = call noundef nonnull align 8 dereferenceable(8) ptr @_ZStlsISt11char_traitsIcEERSt13basic_ostreamIcT_ES5_PKc(ptr noundef nonnull align 8 dereferenceable(8) @_ZSt4cout, ptr noundef @.str.41)
  %15 = load ptr, ptr %2, align 8
  %16 = call noundef nonnull align 8 dereferenceable(8) ptr @_ZStlsISt11char_traitsIcEERSt13basic_ostreamIcT_ES5_PKc(ptr noundef nonnull align 8 dereferenceable(8) %14, ptr noundef %15)
  %17 = call noundef nonnull align 8 dereferenceable(8) ptr @_ZNSolsEPFRSoS_E(ptr noundef nonnull align 8 dereferenceable(8) %16, ptr noundef @_ZSt4endlIcSt11char_traitsIcEERSt13basic_ostreamIT_T0_ES6_)
  call void @exit(i32 noundef 1) #20
  unreachable

18:                                               ; preds = %10
  store i8 1, ptr @_ZN5EigenL16g_has_set_repeatE, align 1
  ret void
}

; Function Attrs: mustprogress noinline optnone uwtable
define linkonce_odr dso_local void @_Z20set_seed_from_stringPKc(ptr noundef %0) #5 comdat !prof !36 {
  %2 = alloca ptr, align 8
  store ptr %0, ptr %2, align 8
  %3 = call ptr @__errno_location() #21
  store i32 0, ptr %3, align 4
  %4 = load ptr, ptr %2, align 8
  %5 = call i64 @strtoul(ptr noundef %4, ptr noundef null, i32 noundef 10) #3
  %6 = trunc i64 %5 to i32
  store i32 %6, ptr @_ZN5EigenL6g_seedE, align 4
  %7 = call ptr @__errno_location() #21
  %8 = load i32, ptr %7, align 4
  %9 = icmp ne i32 %8, 0
  br i1 %9, label %13, label %10

10:                                               ; preds = %1
  %11 = load i32, ptr @_ZN5EigenL6g_seedE, align 4
  %12 = icmp eq i32 %11, 0
  br i1 %12, label %13, label %18

13:                                               ; preds = %10, %1
  %14 = call noundef nonnull align 8 dereferenceable(8) ptr @_ZStlsISt11char_traitsIcEERSt13basic_ostreamIcT_ES5_PKc(ptr noundef nonnull align 8 dereferenceable(8) @_ZSt4cout, ptr noundef @.str.42)
  %15 = load ptr, ptr %2, align 8
  %16 = call noundef nonnull align 8 dereferenceable(8) ptr @_ZStlsISt11char_traitsIcEERSt13basic_ostreamIcT_ES5_PKc(ptr noundef nonnull align 8 dereferenceable(8) %14, ptr noundef %15)
  %17 = call noundef nonnull align 8 dereferenceable(8) ptr @_ZNSolsEPFRSoS_E(ptr noundef nonnull align 8 dereferenceable(8) %16, ptr noundef @_ZSt4endlIcSt11char_traitsIcEERSt13basic_ostreamIT_T0_ES6_)
  call void @exit(i32 noundef 1) #20
  unreachable

18:                                               ; preds = %10
  store i8 1, ptr @_ZN5EigenL14g_has_set_seedE, align 1
  ret void
}

declare noundef nonnull align 8 dereferenceable(8) ptr @_ZNSolsEi(ptr noundef nonnull align 8 dereferenceable(8), i32 noundef) #1

; Function Attrs: nounwind
declare ptr @getenv(ptr noundef) #2

; Function Attrs: nounwind
declare i64 @time(ptr noundef) #2

declare noundef nonnull align 8 dereferenceable(8) ptr @_ZNSolsEj(ptr noundef nonnull align 8 dereferenceable(8), i32 noundef) #1

declare void @_ZNSt7__cxx1118basic_stringstreamIcSt11char_traitsIcESaIcEEC1Ev(ptr noundef nonnull align 8 dereferenceable(128)) unnamed_addr #1

; Function Attrs: mustprogress noinline optnone uwtable
define linkonce_odr dso_local void @_ZNSt6vectorINSt7__cxx1112basic_stringIcSt11char_traitsIcESaIcEEESaIS5_EE9push_backEOS5_(ptr noundef nonnull align 8 dereferenceable(24) %0, ptr noundef nonnull align 8 dereferenceable(32) %1) #5 comdat align 2 !prof !42 {
  %3 = alloca ptr, align 8
  %4 = alloca ptr, align 8
  store ptr %0, ptr %3, align 8
  store ptr %1, ptr %4, align 8
  %5 = load ptr, ptr %3, align 8
  %6 = load ptr, ptr %4, align 8
  call void @_ZNSt6vectorINSt7__cxx1112basic_stringIcSt11char_traitsIcESaIcEEESaIS5_EE12emplace_backIJS5_EEEvDpOT_(ptr noundef nonnull align 8 dereferenceable(24) %5, ptr noundef nonnull align 8 dereferenceable(32) %6)
  ret void
}

declare void @_ZNKSt7__cxx1118basic_stringstreamIcSt11char_traitsIcESaIcEE3strEv(ptr sret(%"class.std::__cxx11::basic_string") align 8, ptr noundef nonnull align 8 dereferenceable(128)) #1

; Function Attrs: nounwind
declare void @_ZNSt7__cxx1112basic_stringIcSt11char_traitsIcESaIcEED1Ev(ptr noundef nonnull align 8 dereferenceable(32)) unnamed_addr #2

; Function Attrs: nounwind
declare void @srand(i32 noundef) #2

; Function Attrs: mustprogress noinline optnone uwtable
define linkonce_odr dso_local void @_Z11verify_implbPKcS0_iS0_(i1 noundef zeroext %0, ptr noundef %1, ptr noundef %2, i32 noundef %3, ptr noundef %4) #5 comdat !prof !43 {
  %6 = alloca i8, align 1
  %7 = alloca ptr, align 8
  %8 = alloca ptr, align 8
  %9 = alloca i32, align 4
  %10 = alloca ptr, align 8
  %11 = alloca i32, align 4
  %12 = alloca i32, align 4
  %13 = zext i1 %0 to i8
  store i8 %13, ptr %6, align 1
  store ptr %1, ptr %7, align 8
  store ptr %2, ptr %8, align 8
  store i32 %3, ptr %9, align 4
  store ptr %4, ptr %10, align 8
  %14 = load i8, ptr %6, align 1
  %15 = trunc i8 %14 to i1
  br i1 %15, label %61, label %16, !prof !44

16:                                               ; preds = %5
  %17 = load i32, ptr @_ZN5EigenL12g_test_levelE, align 4
  %18 = icmp sgt i32 %17, 0
  br i1 %18, label %19, label %21

19:                                               ; preds = %16
  %20 = call noundef nonnull align 8 dereferenceable(8) ptr @_ZStlsISt11char_traitsIcEERSt13basic_ostreamIcT_ES5_PKc(ptr noundef nonnull align 8 dereferenceable(8) @_ZSt4cerr, ptr noundef @.str.43)
  br label %21

21:                                               ; preds = %19, %16
  %22 = call noundef nonnull align 8 dereferenceable(8) ptr @_ZStlsISt11char_traitsIcEERSt13basic_ostreamIcT_ES5_PKc(ptr noundef nonnull align 8 dereferenceable(8) @_ZSt4cerr, ptr noundef @.str.44)
  %23 = load ptr, ptr %7, align 8
  %24 = call noundef nonnull align 8 dereferenceable(8) ptr @_ZStlsISt11char_traitsIcEERSt13basic_ostreamIcT_ES5_PKc(ptr noundef nonnull align 8 dereferenceable(8) %22, ptr noundef %23)
  %25 = call noundef nonnull align 8 dereferenceable(8) ptr @_ZStlsISt11char_traitsIcEERSt13basic_ostreamIcT_ES5_PKc(ptr noundef nonnull align 8 dereferenceable(8) %24, ptr noundef @.str.45)
  %26 = load ptr, ptr %8, align 8
  %27 = call noundef nonnull align 8 dereferenceable(8) ptr @_ZStlsISt11char_traitsIcEERSt13basic_ostreamIcT_ES5_PKc(ptr noundef nonnull align 8 dereferenceable(8) %25, ptr noundef %26)
  %28 = call noundef nonnull align 8 dereferenceable(8) ptr @_ZStlsISt11char_traitsIcEERSt13basic_ostreamIcT_ES5_PKc(ptr noundef nonnull align 8 dereferenceable(8) %27, ptr noundef @.str.46)
  %29 = load i32, ptr %9, align 4
  %30 = call noundef nonnull align 8 dereferenceable(8) ptr @_ZNSolsEi(ptr noundef nonnull align 8 dereferenceable(8) %28, i32 noundef %29)
  %31 = call noundef nonnull align 8 dereferenceable(8) ptr @_ZStlsISt11char_traitsIcEERSt13basic_ostreamIcT_ES5_PKc(ptr noundef nonnull align 8 dereferenceable(8) %30, ptr noundef @.str.22)
  %32 = call noundef nonnull align 8 dereferenceable(8) ptr @_ZNSolsEPFRSoS_E(ptr noundef nonnull align 8 dereferenceable(8) %31, ptr noundef @_ZSt4endlIcSt11char_traitsIcEERSt13basic_ostreamIT_T0_ES6_)
  %33 = call noundef nonnull align 8 dereferenceable(8) ptr @_ZStlsISt11char_traitsIcEERSt13basic_ostreamIcT_ES5_PKc(ptr noundef nonnull align 8 dereferenceable(8) %32, ptr noundef @.str.47)
  %34 = load ptr, ptr %10, align 8
  %35 = call noundef nonnull align 8 dereferenceable(8) ptr @_ZStlsISt11char_traitsIcEERSt13basic_ostreamIcT_ES5_PKc(ptr noundef nonnull align 8 dereferenceable(8) %33, ptr noundef %34)
  %36 = call noundef nonnull align 8 dereferenceable(8) ptr @_ZNSolsEPFRSoS_E(ptr noundef nonnull align 8 dereferenceable(8) %35, ptr noundef @_ZSt4endlIcSt11char_traitsIcEERSt13basic_ostreamIT_T0_ES6_)
  %37 = call noundef nonnull align 8 dereferenceable(8) ptr @_ZStlsISt11char_traitsIcEERSt13basic_ostreamIcT_ES5_PKc(ptr noundef nonnull align 8 dereferenceable(8) @_ZSt4cerr, ptr noundef @.str.48)
  %38 = call noundef i64 @_ZNKSt6vectorINSt7__cxx1112basic_stringIcSt11char_traitsIcESaIcEEESaIS5_EE4sizeEv(ptr noundef nonnull align 8 dereferenceable(24) @_ZN5EigenL12g_test_stackB5cxx11E) #3
  %39 = trunc i64 %38 to i32
  store i32 %39, ptr %11, align 4
  %40 = load i32, ptr %11, align 4
  %41 = sub nsw i32 %40, 1
  store i32 %41, ptr %12, align 4
  br label %42

42:                                               ; preds = %52, %21
  %43 = load i32, ptr %12, align 4
  %44 = icmp sge i32 %43, 0
  br i1 %44, label %45, label %55

45:                                               ; preds = %42
  %46 = call noundef nonnull align 8 dereferenceable(8) ptr @_ZStlsISt11char_traitsIcEERSt13basic_ostreamIcT_ES5_PKc(ptr noundef nonnull align 8 dereferenceable(8) @_ZSt4cerr, ptr noundef @.str.49)
  %47 = load i32, ptr %12, align 4
  %48 = sext i32 %47 to i64
  %49 = call noundef nonnull align 8 dereferenceable(32) ptr @_ZNSt6vectorINSt7__cxx1112basic_stringIcSt11char_traitsIcESaIcEEESaIS5_EEixEm(ptr noundef nonnull align 8 dereferenceable(24) @_ZN5EigenL12g_test_stackB5cxx11E, i64 noundef %48) #3
  %50 = call noundef nonnull align 8 dereferenceable(8) ptr @_ZStlsIcSt11char_traitsIcESaIcEERSt13basic_ostreamIT_T0_ES7_RKNSt7__cxx1112basic_stringIS4_S5_T1_EE(ptr noundef nonnull align 8 dereferenceable(8) %46, ptr noundef nonnull align 8 dereferenceable(32) %49)
  %51 = call noundef nonnull align 8 dereferenceable(8) ptr @_ZStlsISt11char_traitsIcEERSt13basic_ostreamIcT_ES5_PKc(ptr noundef nonnull align 8 dereferenceable(8) %50, ptr noundef @.str.50)
  br label %52

52:                                               ; preds = %45
  %53 = load i32, ptr %12, align 4
  %54 = add nsw i32 %53, -1
  store i32 %54, ptr %12, align 4
  br label %42, !llvm.loop !45

55:                                               ; preds = %42
  %56 = call noundef nonnull align 8 dereferenceable(8) ptr @_ZStlsISt11char_traitsIcEERSt13basic_ostreamIcT_ES5_PKc(ptr noundef nonnull align 8 dereferenceable(8) @_ZSt4cerr, ptr noundef @.str.50)
  %57 = load i32, ptr @_ZN5EigenL12g_test_levelE, align 4
  %58 = icmp eq i32 %57, 0
  br i1 %58, label %59, label %60

59:                                               ; preds = %55
  call void @abort() #20
  unreachable

60:                                               ; preds = %55
  br label %61

61:                                               ; preds = %60, %5
  ret void
}

; Function Attrs: mustprogress noinline optnone uwtable
define linkonce_odr dso_local noundef nonnull align 8 dereferenceable(24) ptr @_ZN5Eigen9EigenTest3allEv() #5 comdat align 2 !prof !46 {
  %1 = call noundef nonnull align 8 dereferenceable(24) ptr @_ZN5Eigen9EigenTest20get_registered_testsEv()
  ret ptr %1
}

; Function Attrs: mustprogress noinline nounwind optnone uwtable
define linkonce_odr dso_local noundef i64 @_ZNKSt6vectorIPN5Eigen9EigenTestESaIS2_EE4sizeEv(ptr noundef nonnull align 8 dereferenceable(24) %0) #8 comdat align 2 !prof !47 {
  %2 = alloca ptr, align 8
  store ptr %0, ptr %2, align 8
  %3 = load ptr, ptr %2, align 8
  %4 = getelementptr inbounds %"struct.std::_Vector_base.7", ptr %3, i32 0, i32 0
  %5 = getelementptr inbounds %"struct.std::_Vector_base<Eigen::EigenTest *, std::allocator<Eigen::EigenTest *>>::_Vector_impl_data", ptr %4, i32 0, i32 1
  %6 = load ptr, ptr %5, align 8
  %7 = getelementptr inbounds %"struct.std::_Vector_base.7", ptr %3, i32 0, i32 0
  %8 = getelementptr inbounds %"struct.std::_Vector_base<Eigen::EigenTest *, std::allocator<Eigen::EigenTest *>>::_Vector_impl_data", ptr %7, i32 0, i32 0
  %9 = load ptr, ptr %8, align 8
  %10 = ptrtoint ptr %6 to i64
  %11 = ptrtoint ptr %9 to i64
  %12 = sub i64 %10, %11
  %13 = sdiv exact i64 %12, 8
  ret i64 %13
}

; Function Attrs: mustprogress noinline nounwind optnone uwtable
define linkonce_odr dso_local noundef nonnull align 8 dereferenceable(32) ptr @_ZNSt6vectorINSt7__cxx1112basic_stringIcSt11char_traitsIcESaIcEEESaIS5_EE4backEv(ptr noundef nonnull align 8 dereferenceable(24) %0) #8 comdat align 2 !prof !48 {
  %2 = alloca ptr, align 8
  %3 = alloca %"class.__gnu_cxx::__normal_iterator.56", align 8
  %4 = alloca %"class.__gnu_cxx::__normal_iterator.56", align 8
  store ptr %0, ptr %2, align 8
  %5 = load ptr, ptr %2, align 8
  %6 = call ptr @_ZNSt6vectorINSt7__cxx1112basic_stringIcSt11char_traitsIcESaIcEEESaIS5_EE3endEv(ptr noundef nonnull align 8 dereferenceable(24) %5) #3
  %7 = getelementptr inbounds %"class.__gnu_cxx::__normal_iterator.56", ptr %4, i32 0, i32 0
  store ptr %6, ptr %7, align 8
  %8 = call ptr @_ZNK9__gnu_cxx17__normal_iteratorIPNSt7__cxx1112basic_stringIcSt11char_traitsIcESaIcEEESt6vectorIS6_SaIS6_EEEmiEl(ptr noundef nonnull align 8 dereferenceable(8) %4, i64 noundef 1) #3
  %9 = getelementptr inbounds %"class.__gnu_cxx::__normal_iterator.56", ptr %3, i32 0, i32 0
  store ptr %8, ptr %9, align 8
  %10 = call noundef nonnull align 8 dereferenceable(32) ptr @_ZNK9__gnu_cxx17__normal_iteratorIPNSt7__cxx1112basic_stringIcSt11char_traitsIcESaIcEEESt6vectorIS6_SaIS6_EEEdeEv(ptr noundef nonnull align 8 dereferenceable(8) %3) #3
  ret ptr %10
}

; Function Attrs: nounwind
declare noundef ptr @_ZNKSt7__cxx1112basic_stringIcSt11char_traitsIcESaIcEE5c_strEv(ptr noundef nonnull align 8 dereferenceable(32)) #2

; Function Attrs: mustprogress noinline nounwind optnone uwtable
define linkonce_odr dso_local noundef nonnull align 8 dereferenceable(8) ptr @_ZNKSt6vectorIPN5Eigen9EigenTestESaIS2_EEixEm(ptr noundef nonnull align 8 dereferenceable(24) %0, i64 noundef %1) #8 comdat align 2 !prof !35 {
  %3 = alloca ptr, align 8
  %4 = alloca i64, align 8
  store ptr %0, ptr %3, align 8
  store i64 %1, ptr %4, align 8
  %5 = load ptr, ptr %3, align 8
  %6 = getelementptr inbounds %"struct.std::_Vector_base.7", ptr %5, i32 0, i32 0
  %7 = getelementptr inbounds %"struct.std::_Vector_base<Eigen::EigenTest *, std::allocator<Eigen::EigenTest *>>::_Vector_impl_data", ptr %6, i32 0, i32 0
  %8 = load ptr, ptr %7, align 8
  %9 = load i64, ptr %4, align 8
  %10 = getelementptr inbounds ptr, ptr %8, i64 %9
  ret ptr %10
}

; Function Attrs: mustprogress noinline optnone uwtable
define linkonce_odr dso_local void @_ZNSt6vectorINSt7__cxx1112basic_stringIcSt11char_traitsIcESaIcEEESaIS5_EE9push_backERKS5_(ptr noundef nonnull align 8 dereferenceable(24) %0, ptr noundef nonnull align 8 dereferenceable(32) %1) #5 comdat align 2 !prof !35 {
  %3 = alloca ptr, align 8
  %4 = alloca ptr, align 8
  %5 = alloca %"class.__gnu_cxx::__normal_iterator.56", align 8
  store ptr %0, ptr %3, align 8
  store ptr %1, ptr %4, align 8
  %6 = load ptr, ptr %3, align 8
  %7 = getelementptr inbounds %"struct.std::_Vector_base", ptr %6, i32 0, i32 0
  %8 = getelementptr inbounds %"struct.std::_Vector_base<std::__cxx11::basic_string<char>, std::allocator<std::__cxx11::basic_string<char>>>::_Vector_impl_data", ptr %7, i32 0, i32 1
  %9 = load ptr, ptr %8, align 8
  %10 = getelementptr inbounds %"struct.std::_Vector_base", ptr %6, i32 0, i32 0
  %11 = getelementptr inbounds %"struct.std::_Vector_base<std::__cxx11::basic_string<char>, std::allocator<std::__cxx11::basic_string<char>>>::_Vector_impl_data", ptr %10, i32 0, i32 2
  %12 = load ptr, ptr %11, align 8
  %13 = icmp ne ptr %9, %12
  br i1 %13, label %14, label %24, !prof !37

14:                                               ; preds = %2
  %15 = getelementptr inbounds %"struct.std::_Vector_base", ptr %6, i32 0, i32 0
  %16 = getelementptr inbounds %"struct.std::_Vector_base", ptr %6, i32 0, i32 0
  %17 = getelementptr inbounds %"struct.std::_Vector_base<std::__cxx11::basic_string<char>, std::allocator<std::__cxx11::basic_string<char>>>::_Vector_impl_data", ptr %16, i32 0, i32 1
  %18 = load ptr, ptr %17, align 8
  %19 = load ptr, ptr %4, align 8
  call void @_ZNSt16allocator_traitsISaINSt7__cxx1112basic_stringIcSt11char_traitsIcESaIcEEEEE9constructIS5_JRKS5_EEEvRS6_PT_DpOT0_(ptr noundef nonnull align 1 dereferenceable(1) %15, ptr noundef %18, ptr noundef nonnull align 8 dereferenceable(32) %19)
  %20 = getelementptr inbounds %"struct.std::_Vector_base", ptr %6, i32 0, i32 0
  %21 = getelementptr inbounds %"struct.std::_Vector_base<std::__cxx11::basic_string<char>, std::allocator<std::__cxx11::basic_string<char>>>::_Vector_impl_data", ptr %20, i32 0, i32 1
  %22 = load ptr, ptr %21, align 8
  %23 = getelementptr inbounds %"class.std::__cxx11::basic_string", ptr %22, i32 1
  store ptr %23, ptr %21, align 8
  br label %30

24:                                               ; preds = %2
  %25 = call ptr @_ZNSt6vectorINSt7__cxx1112basic_stringIcSt11char_traitsIcESaIcEEESaIS5_EE3endEv(ptr noundef nonnull align 8 dereferenceable(24) %6) #3
  %26 = getelementptr inbounds %"class.__gnu_cxx::__normal_iterator.56", ptr %5, i32 0, i32 0
  store ptr %25, ptr %26, align 8
  %27 = load ptr, ptr %4, align 8
  %28 = getelementptr inbounds %"class.__gnu_cxx::__normal_iterator.56", ptr %5, i32 0, i32 0
  %29 = load ptr, ptr %28, align 8
  call void @_ZNSt6vectorINSt7__cxx1112basic_stringIcSt11char_traitsIcESaIcEEESaIS5_EE17_M_realloc_insertIJRKS5_EEEvN9__gnu_cxx17__normal_iteratorIPS5_S7_EEDpOT_(ptr noundef nonnull align 8 dereferenceable(24) %6, ptr %29, ptr noundef nonnull align 8 dereferenceable(32) %27)
  br label %30

30:                                               ; preds = %24, %14
  ret void
}

; Function Attrs: mustprogress noinline nounwind optnone uwtable
define linkonce_odr dso_local noundef nonnull align 8 dereferenceable(32) ptr @_ZNK5Eigen9EigenTest4nameB5cxx11Ev(ptr noundef nonnull align 8 dereferenceable(40) %0) #8 comdat align 2 !prof !35 {
  %2 = alloca ptr, align 8
  store ptr %0, ptr %2, align 8
  %3 = load ptr, ptr %2, align 8
  %4 = getelementptr inbounds %"class.Eigen::EigenTest", ptr %3, i32 0, i32 0
  ret ptr %4
}

; Function Attrs: mustprogress noinline optnone uwtable
define linkonce_odr dso_local void @_ZNK5Eigen9EigenTestclEv(ptr noundef nonnull align 8 dereferenceable(40) %0) #5 comdat align 2 !prof !35 {
  %2 = alloca ptr, align 8
  store ptr %0, ptr %2, align 8
  %3 = load ptr, ptr %2, align 8
  %4 = getelementptr inbounds %"class.Eigen::EigenTest", ptr %3, i32 0, i32 1
  %5 = load ptr, ptr %4, align 8
  call void %5()
  ret void
}

; Function Attrs: mustprogress noinline nounwind optnone uwtable
define linkonce_odr dso_local void @_ZNSt6vectorINSt7__cxx1112basic_stringIcSt11char_traitsIcESaIcEEESaIS5_EE8pop_backEv(ptr noundef nonnull align 8 dereferenceable(24) %0) #8 comdat align 2 !prof !42 {
  %2 = alloca ptr, align 8
  store ptr %0, ptr %2, align 8
  %3 = load ptr, ptr %2, align 8
  %4 = getelementptr inbounds %"struct.std::_Vector_base", ptr %3, i32 0, i32 0
  %5 = getelementptr inbounds %"struct.std::_Vector_base<std::__cxx11::basic_string<char>, std::allocator<std::__cxx11::basic_string<char>>>::_Vector_impl_data", ptr %4, i32 0, i32 1
  %6 = load ptr, ptr %5, align 8
  %7 = getelementptr inbounds %"class.std::__cxx11::basic_string", ptr %6, i32 -1
  store ptr %7, ptr %5, align 8
  %8 = getelementptr inbounds %"struct.std::_Vector_base", ptr %3, i32 0, i32 0
  %9 = getelementptr inbounds %"struct.std::_Vector_base", ptr %3, i32 0, i32 0
  %10 = getelementptr inbounds %"struct.std::_Vector_base<std::__cxx11::basic_string<char>, std::allocator<std::__cxx11::basic_string<char>>>::_Vector_impl_data", ptr %9, i32 0, i32 1
  %11 = load ptr, ptr %10, align 8
  call void @_ZNSt16allocator_traitsISaINSt7__cxx1112basic_stringIcSt11char_traitsIcESaIcEEEEE7destroyIS5_EEvRS6_PT_(ptr noundef nonnull align 1 dereferenceable(1) %8, ptr noundef %11) #3
  ret void
}

; Function Attrs: nounwind
declare void @_ZNSt7__cxx1118basic_stringstreamIcSt11char_traitsIcESaIcEED1Ev(ptr noundef nonnull align 8 dereferenceable(128)) unnamed_addr #2

; Function Attrs: noinline uwtable
define internal void @__cxx_global_var_init.34() #0 section ".text.startup" {
  call void @_ZN5Eigen9EigenTestC2EPKcPFvvE(ptr noundef nonnull align 8 dereferenceable(40) @_ZL43test_handler_cxx11_non_blocking_thread_pool, ptr noundef @.str.35, ptr noundef @_Z35test_cxx11_non_blocking_thread_poolv)
  %1 = call i32 @__cxa_atexit(ptr @_ZN5Eigen9EigenTestD2Ev, ptr @_ZL43test_handler_cxx11_non_blocking_thread_pool, ptr @__dso_handle) #3
  ret void
}

; Function Attrs: mustprogress noinline optnone uwtable
define dso_local void @_Z35test_cxx11_non_blocking_thread_poolv() #5 personality ptr @__gxx_personality_v0 !prof !35 {
  %1 = alloca %"class.std::__cxx11::basic_string", align 8
  %2 = alloca %"class.std::allocator.0", align 1
  %3 = alloca ptr, align 8
  %4 = alloca i32, align 4
  %5 = alloca %"class.std::__cxx11::basic_string", align 8
  %6 = alloca %"class.std::allocator.0", align 1
  %7 = alloca %"class.std::__cxx11::basic_string", align 8
  %8 = alloca %"class.std::allocator.0", align 1
  %9 = alloca %"class.std::__cxx11::basic_string", align 8
  %10 = alloca %"class.std::allocator.0", align 1
  %11 = alloca %"class.std::__cxx11::basic_string", align 8
  %12 = alloca %"class.std::allocator.0", align 1
  br label %13

13:                                               ; preds = %0
  call void @_ZNSaIcEC1Ev(ptr noundef nonnull align 1 dereferenceable(1) %2) #3
  invoke void @_ZNSt7__cxx1112basic_stringIcSt11char_traitsIcESaIcEEC1EPKcRKS3_(ptr noundef nonnull align 8 dereferenceable(32) %1, ptr noundef @.str.36, ptr noundef nonnull align 1 dereferenceable(1) %2)
          to label %14 unwind label %33

14:                                               ; preds = %13
  invoke void @_ZNSt6vectorINSt7__cxx1112basic_stringIcSt11char_traitsIcESaIcEEESaIS5_EE9push_backEOS5_(ptr noundef nonnull align 8 dereferenceable(24) @_ZN5EigenL12g_test_stackB5cxx11E, ptr noundef nonnull align 8 dereferenceable(32) %1)
          to label %15 unwind label %37

15:                                               ; preds = %14
  call void @_ZNSt7__cxx1112basic_stringIcSt11char_traitsIcESaIcEED1Ev(ptr noundef nonnull align 8 dereferenceable(32) %1) #3
  call void @_ZNSaIcED1Ev(ptr noundef nonnull align 1 dereferenceable(1) %2) #3
  call void @_ZL30test_create_destroy_empty_poolv()
  call void @_ZNSt6vectorINSt7__cxx1112basic_stringIcSt11char_traitsIcESaIcEEESaIS5_EE8pop_backEv(ptr noundef nonnull align 8 dereferenceable(24) @_ZN5EigenL12g_test_stackB5cxx11E) #3
  br label %16

16:                                               ; preds = %15
  br label %17

17:                                               ; preds = %16
  call void @_ZNSaIcEC1Ev(ptr noundef nonnull align 1 dereferenceable(1) %6) #3
  invoke void @_ZNSt7__cxx1112basic_stringIcSt11char_traitsIcESaIcEEC1EPKcRKS3_(ptr noundef nonnull align 8 dereferenceable(32) %5, ptr noundef @.str.37, ptr noundef nonnull align 1 dereferenceable(1) %6)
          to label %18 unwind label %42

18:                                               ; preds = %17
  invoke void @_ZNSt6vectorINSt7__cxx1112basic_stringIcSt11char_traitsIcESaIcEEESaIS5_EE9push_backEOS5_(ptr noundef nonnull align 8 dereferenceable(24) @_ZN5EigenL12g_test_stackB5cxx11E, ptr noundef nonnull align 8 dereferenceable(32) %5)
          to label %19 unwind label %46

19:                                               ; preds = %18
  call void @_ZNSt7__cxx1112basic_stringIcSt11char_traitsIcESaIcEED1Ev(ptr noundef nonnull align 8 dereferenceable(32) %5) #3
  call void @_ZNSaIcED1Ev(ptr noundef nonnull align 1 dereferenceable(1) %6) #3
  call void @_ZL16test_parallelismb(i1 noundef zeroext true)
  call void @_ZNSt6vectorINSt7__cxx1112basic_stringIcSt11char_traitsIcESaIcEEESaIS5_EE8pop_backEv(ptr noundef nonnull align 8 dereferenceable(24) @_ZN5EigenL12g_test_stackB5cxx11E) #3
  br label %20

20:                                               ; preds = %19
  br label %21

21:                                               ; preds = %20
  call void @_ZNSaIcEC1Ev(ptr noundef nonnull align 1 dereferenceable(1) %8) #3
  invoke void @_ZNSt7__cxx1112basic_stringIcSt11char_traitsIcESaIcEEC1EPKcRKS3_(ptr noundef nonnull align 8 dereferenceable(32) %7, ptr noundef @.str.38, ptr noundef nonnull align 1 dereferenceable(1) %8)
          to label %22 unwind label %51

22:                                               ; preds = %21
  invoke void @_ZNSt6vectorINSt7__cxx1112basic_stringIcSt11char_traitsIcESaIcEEESaIS5_EE9push_backEOS5_(ptr noundef nonnull align 8 dereferenceable(24) @_ZN5EigenL12g_test_stackB5cxx11E, ptr noundef nonnull align 8 dereferenceable(32) %7)
          to label %23 unwind label %55

23:                                               ; preds = %22
  call void @_ZNSt7__cxx1112basic_stringIcSt11char_traitsIcESaIcEED1Ev(ptr noundef nonnull align 8 dereferenceable(32) %7) #3
  call void @_ZNSaIcED1Ev(ptr noundef nonnull align 1 dereferenceable(1) %8) #3
  call void @_ZL16test_parallelismb(i1 noundef zeroext false)
  call void @_ZNSt6vectorINSt7__cxx1112basic_stringIcSt11char_traitsIcESaIcEEESaIS5_EE8pop_backEv(ptr noundef nonnull align 8 dereferenceable(24) @_ZN5EigenL12g_test_stackB5cxx11E) #3
  br label %24

24:                                               ; preds = %23
  br label %25

25:                                               ; preds = %24
  call void @_ZNSaIcEC1Ev(ptr noundef nonnull align 1 dereferenceable(1) %10) #3
  invoke void @_ZNSt7__cxx1112basic_stringIcSt11char_traitsIcESaIcEEC1EPKcRKS3_(ptr noundef nonnull align 8 dereferenceable(32) %9, ptr noundef @.str.39, ptr noundef nonnull align 1 dereferenceable(1) %10)
          to label %26 unwind label %60

26:                                               ; preds = %25
  invoke void @_ZNSt6vectorINSt7__cxx1112basic_stringIcSt11char_traitsIcESaIcEEESaIS5_EE9push_backEOS5_(ptr noundef nonnull align 8 dereferenceable(24) @_ZN5EigenL12g_test_stackB5cxx11E, ptr noundef nonnull align 8 dereferenceable(32) %9)
          to label %27 unwind label %64

27:                                               ; preds = %26
  call void @_ZNSt7__cxx1112basic_stringIcSt11char_traitsIcESaIcEED1Ev(ptr noundef nonnull align 8 dereferenceable(32) %9) #3
  call void @_ZNSaIcED1Ev(ptr noundef nonnull align 1 dereferenceable(1) %10) #3
  call void @_ZL11test_cancelv()
  call void @_ZNSt6vectorINSt7__cxx1112basic_stringIcSt11char_traitsIcESaIcEEESaIS5_EE8pop_backEv(ptr noundef nonnull align 8 dereferenceable(24) @_ZN5EigenL12g_test_stackB5cxx11E) #3
  br label %28

28:                                               ; preds = %27
  br label %29

29:                                               ; preds = %28
  call void @_ZNSaIcEC1Ev(ptr noundef nonnull align 1 dereferenceable(1) %12) #3
  invoke void @_ZNSt7__cxx1112basic_stringIcSt11char_traitsIcESaIcEEC1EPKcRKS3_(ptr noundef nonnull align 8 dereferenceable(32) %11, ptr noundef @.str.40, ptr noundef nonnull align 1 dereferenceable(1) %12)
          to label %30 unwind label %69

30:                                               ; preds = %29
  invoke void @_ZNSt6vectorINSt7__cxx1112basic_stringIcSt11char_traitsIcESaIcEEESaIS5_EE9push_backEOS5_(ptr noundef nonnull align 8 dereferenceable(24) @_ZN5EigenL12g_test_stackB5cxx11E, ptr noundef nonnull align 8 dereferenceable(32) %11)
          to label %31 unwind label %73

31:                                               ; preds = %30
  call void @_ZNSt7__cxx1112basic_stringIcSt11char_traitsIcESaIcEED1Ev(ptr noundef nonnull align 8 dereferenceable(32) %11) #3
  call void @_ZNSaIcED1Ev(ptr noundef nonnull align 1 dereferenceable(1) %12) #3
  call void @_ZL20test_pool_partitionsv()
  call void @_ZNSt6vectorINSt7__cxx1112basic_stringIcSt11char_traitsIcESaIcEEESaIS5_EE8pop_backEv(ptr noundef nonnull align 8 dereferenceable(24) @_ZN5EigenL12g_test_stackB5cxx11E) #3
  br label %32

32:                                               ; preds = %31
  ret void

33:                                               ; preds = %13
  %34 = landingpad { ptr, i32 }
          cleanup
  %35 = extractvalue { ptr, i32 } %34, 0
  store ptr %35, ptr %3, align 8
  %36 = extractvalue { ptr, i32 } %34, 1
  store i32 %36, ptr %4, align 4
  br label %41

37:                                               ; preds = %14
  %38 = landingpad { ptr, i32 }
          cleanup
  %39 = extractvalue { ptr, i32 } %38, 0
  store ptr %39, ptr %3, align 8
  %40 = extractvalue { ptr, i32 } %38, 1
  store i32 %40, ptr %4, align 4
  call void @_ZNSt7__cxx1112basic_stringIcSt11char_traitsIcESaIcEED1Ev(ptr noundef nonnull align 8 dereferenceable(32) %1) #3
  br label %41

41:                                               ; preds = %37, %33
  call void @_ZNSaIcED1Ev(ptr noundef nonnull align 1 dereferenceable(1) %2) #3
  br label %78

42:                                               ; preds = %17
  %43 = landingpad { ptr, i32 }
          cleanup
  %44 = extractvalue { ptr, i32 } %43, 0
  store ptr %44, ptr %3, align 8
  %45 = extractvalue { ptr, i32 } %43, 1
  store i32 %45, ptr %4, align 4
  br label %50

46:                                               ; preds = %18
  %47 = landingpad { ptr, i32 }
          cleanup
  %48 = extractvalue { ptr, i32 } %47, 0
  store ptr %48, ptr %3, align 8
  %49 = extractvalue { ptr, i32 } %47, 1
  store i32 %49, ptr %4, align 4
  call void @_ZNSt7__cxx1112basic_stringIcSt11char_traitsIcESaIcEED1Ev(ptr noundef nonnull align 8 dereferenceable(32) %5) #3
  br label %50

50:                                               ; preds = %46, %42
  call void @_ZNSaIcED1Ev(ptr noundef nonnull align 1 dereferenceable(1) %6) #3
  br label %78

51:                                               ; preds = %21
  %52 = landingpad { ptr, i32 }
          cleanup
  %53 = extractvalue { ptr, i32 } %52, 0
  store ptr %53, ptr %3, align 8
  %54 = extractvalue { ptr, i32 } %52, 1
  store i32 %54, ptr %4, align 4
  br label %59

55:                                               ; preds = %22
  %56 = landingpad { ptr, i32 }
          cleanup
  %57 = extractvalue { ptr, i32 } %56, 0
  store ptr %57, ptr %3, align 8
  %58 = extractvalue { ptr, i32 } %56, 1
  store i32 %58, ptr %4, align 4
  call void @_ZNSt7__cxx1112basic_stringIcSt11char_traitsIcESaIcEED1Ev(ptr noundef nonnull align 8 dereferenceable(32) %7) #3
  br label %59

59:                                               ; preds = %55, %51
  call void @_ZNSaIcED1Ev(ptr noundef nonnull align 1 dereferenceable(1) %8) #3
  br label %78

60:                                               ; preds = %25
  %61 = landingpad { ptr, i32 }
          cleanup
  %62 = extractvalue { ptr, i32 } %61, 0
  store ptr %62, ptr %3, align 8
  %63 = extractvalue { ptr, i32 } %61, 1
  store i32 %63, ptr %4, align 4
  br label %68

64:                                               ; preds = %26
  %65 = landingpad { ptr, i32 }
          cleanup
  %66 = extractvalue { ptr, i32 } %65, 0
  store ptr %66, ptr %3, align 8
  %67 = extractvalue { ptr, i32 } %65, 1
  store i32 %67, ptr %4, align 4
  call void @_ZNSt7__cxx1112basic_stringIcSt11char_traitsIcESaIcEED1Ev(ptr noundef nonnull align 8 dereferenceable(32) %9) #3
  br label %68

68:                                               ; preds = %64, %60
  call void @_ZNSaIcED1Ev(ptr noundef nonnull align 1 dereferenceable(1) %10) #3
  br label %78

69:                                               ; preds = %29
  %70 = landingpad { ptr, i32 }
          cleanup
  %71 = extractvalue { ptr, i32 } %70, 0
  store ptr %71, ptr %3, align 8
  %72 = extractvalue { ptr, i32 } %70, 1
  store i32 %72, ptr %4, align 4
  br label %77

73:                                               ; preds = %30
  %74 = landingpad { ptr, i32 }
          cleanup
  %75 = extractvalue { ptr, i32 } %74, 0
  store ptr %75, ptr %3, align 8
  %76 = extractvalue { ptr, i32 } %74, 1
  store i32 %76, ptr %4, align 4
  call void @_ZNSt7__cxx1112basic_stringIcSt11char_traitsIcESaIcEED1Ev(ptr noundef nonnull align 8 dereferenceable(32) %11) #3
  br label %77

77:                                               ; preds = %73, %69
  call void @_ZNSaIcED1Ev(ptr noundef nonnull align 1 dereferenceable(1) %12) #3
  br label %78

78:                                               ; preds = %77, %68, %59, %50, %41
  %79 = load ptr, ptr %3, align 8
  %80 = load i32, ptr %4, align 4
  %81 = insertvalue { ptr, i32 } undef, ptr %79, 0
  %82 = insertvalue { ptr, i32 } %81, i32 %80, 1
  resume { ptr, i32 } %82
}

; Function Attrs: noinline optnone uwtable
define linkonce_odr dso_local void @_ZN5Eigen9EigenTestC2EPKcPFvvE(ptr noundef nonnull align 8 dereferenceable(40) %0, ptr noundef %1, ptr noundef %2) unnamed_addr #9 comdat align 2 personality ptr @__gxx_personality_v0 !prof !35 {
  %4 = alloca ptr, align 8
  %5 = alloca ptr, align 8
  %6 = alloca ptr, align 8
  %7 = alloca %"class.std::allocator.0", align 1
  %8 = alloca ptr, align 8
  %9 = alloca i32, align 4
  %10 = alloca ptr, align 8
  store ptr %0, ptr %4, align 8
  store ptr %1, ptr %5, align 8
  store ptr %2, ptr %6, align 8
  %11 = load ptr, ptr %4, align 8
  %12 = getelementptr inbounds %"class.Eigen::EigenTest", ptr %11, i32 0, i32 0
  %13 = load ptr, ptr %5, align 8
  call void @_ZNSaIcEC1Ev(ptr noundef nonnull align 1 dereferenceable(1) %7) #3
  invoke void @_ZNSt7__cxx1112basic_stringIcSt11char_traitsIcESaIcEEC1EPKcRKS3_(ptr noundef nonnull align 8 dereferenceable(32) %12, ptr noundef %13, ptr noundef nonnull align 1 dereferenceable(1) %7)
          to label %14 unwind label %20

14:                                               ; preds = %3
  call void @_ZNSaIcED1Ev(ptr noundef nonnull align 1 dereferenceable(1) %7) #3
  %15 = getelementptr inbounds %"class.Eigen::EigenTest", ptr %11, i32 0, i32 1
  %16 = load ptr, ptr %6, align 8
  store ptr %16, ptr %15, align 8
  %17 = invoke noundef nonnull align 8 dereferenceable(24) ptr @_ZN5Eigen9EigenTest20get_registered_testsEv()
          to label %18 unwind label %24

18:                                               ; preds = %14
  store ptr %11, ptr %10, align 8
  invoke void @_ZNSt6vectorIPN5Eigen9EigenTestESaIS2_EE9push_backEOS2_(ptr noundef nonnull align 8 dereferenceable(24) %17, ptr noundef nonnull align 8 dereferenceable(8) %10)
          to label %19 unwind label %24

19:                                               ; preds = %18
  ret void

20:                                               ; preds = %3
  %21 = landingpad { ptr, i32 }
          cleanup
  %22 = extractvalue { ptr, i32 } %21, 0
  store ptr %22, ptr %8, align 8
  %23 = extractvalue { ptr, i32 } %21, 1
  store i32 %23, ptr %9, align 4
  call void @_ZNSaIcED1Ev(ptr noundef nonnull align 1 dereferenceable(1) %7) #3
  br label %28

24:                                               ; preds = %18, %14
  %25 = landingpad { ptr, i32 }
          cleanup
  %26 = extractvalue { ptr, i32 } %25, 0
  store ptr %26, ptr %8, align 8
  %27 = extractvalue { ptr, i32 } %25, 1
  store i32 %27, ptr %9, align 4
  call void @_ZNSt7__cxx1112basic_stringIcSt11char_traitsIcESaIcEED1Ev(ptr noundef nonnull align 8 dereferenceable(32) %12) #3
  br label %28

28:                                               ; preds = %24, %20
  %29 = load ptr, ptr %8, align 8
  %30 = load i32, ptr %9, align 4
  %31 = insertvalue { ptr, i32 } undef, ptr %29, 0
  %32 = insertvalue { ptr, i32 } %31, i32 %30, 1
  resume { ptr, i32 } %32
}

; Function Attrs: noinline nounwind optnone uwtable
define linkonce_odr dso_local void @_ZN5Eigen9EigenTestD2Ev(ptr noundef nonnull align 8 dereferenceable(40) %0) unnamed_addr #4 comdat align 2 {
  %2 = alloca ptr, align 8
  store ptr %0, ptr %2, align 8
  %3 = load ptr, ptr %2, align 8
  %4 = getelementptr inbounds %"class.Eigen::EigenTest", ptr %3, i32 0, i32 0
  call void @_ZNSt7__cxx1112basic_stringIcSt11char_traitsIcESaIcEED1Ev(ptr noundef nonnull align 8 dereferenceable(32) %4) #3
  ret void
}

; Function Attrs: mustprogress noinline optnone uwtable
define internal void @_ZL30test_create_destroy_empty_poolv() #5 !prof !35 !PGOFuncName !49 {
  %1 = alloca i32, align 4
  %2 = alloca %"class.Eigen::ThreadPoolTempl", align 8
  %3 = alloca %"struct.Eigen::StlThreadEnvironment", align 1
  store i32 0, ptr %1, align 4
  br label %4

4:                                                ; preds = %9, %0
  %5 = load i32, ptr %1, align 4
  %6 = icmp slt i32 %5, 16
  br i1 %6, label %7, label %12, !prof !50

7:                                                ; preds = %4
  %8 = load i32, ptr %1, align 4
  call void @_ZN5Eigen15ThreadPoolTemplINS_20StlThreadEnvironmentEEC2EiS1_(ptr noundef nonnull align 8 dereferenceable(136) %2, i32 noundef %8)
  call void @_ZN5Eigen15ThreadPoolTemplINS_20StlThreadEnvironmentEED2Ev(ptr noundef nonnull align 8 dereferenceable(136) %2) #3
  br label %9

9:                                                ; preds = %7
  %10 = load i32, ptr %1, align 4
  %11 = add nsw i32 %10, 1
  store i32 %11, ptr %1, align 4
  br label %4, !llvm.loop !51

12:                                               ; preds = %4
  ret void
}

; Function Attrs: mustprogress noinline optnone uwtable
define internal void @_ZL16test_parallelismb(i1 noundef zeroext %0) #5 personality ptr @__gxx_personality_v0 !prof !52 !PGOFuncName !53 {
  %2 = alloca i8, align 1
  %3 = alloca i32, align 4
  %4 = alloca %"class.Eigen::ThreadPoolTempl", align 8
  %5 = alloca %"struct.Eigen::StlThreadEnvironment", align 1
  %6 = alloca i32, align 4
  %7 = alloca ptr, align 8
  %8 = alloca i32, align 4
  %9 = alloca i32, align 4
  %10 = alloca i32, align 4
  %11 = alloca i32, align 4
  %12 = alloca %"struct.std::atomic.35", align 4
  %13 = alloca %"struct.std::atomic.35", align 4
  %14 = alloca %"struct.std::atomic.35", align 4
  %15 = alloca i32, align 4
  %16 = alloca %"class.std::function", align 8
  %17 = alloca %class.anon.37, align 8
  %18 = alloca i32, align 4
  %19 = alloca %"class.std::function", align 8
  %20 = alloca %class.anon.38, align 8
  %21 = alloca i32, align 4
  %22 = alloca %"class.std::function", align 8
  %23 = alloca %class.anon.39, align 8
  %24 = zext i1 %0 to i8
  store i8 %24, ptr %2, align 1
  store i32 16, ptr %3, align 4
  %25 = load i8, ptr %2, align 1
  %26 = trunc i8 %25 to i1
  call void @_ZN5Eigen15ThreadPoolTemplINS_20StlThreadEnvironmentEEC2EibS1_(ptr noundef nonnull align 8 dereferenceable(136) %4, i32 noundef 16, i1 noundef zeroext %26)
  %27 = call noundef i32 @_ZNK5Eigen15ThreadPoolTemplINS_20StlThreadEnvironmentEE10NumThreadsEv(ptr noundef nonnull align 8 dereferenceable(136) %4)
  store i32 %27, ptr %6, align 4
  %28 = invoke noundef zeroext i1 @_ZN5Eigen13test_is_equalIiiEEbRKT_RKT0_b(ptr noundef nonnull align 4 dereferenceable(4) %6, ptr noundef nonnull align 4 dereferenceable(4) %3, i1 noundef zeroext true)
          to label %29 unwind label %56

29:                                               ; preds = %1
  %30 = call noundef nonnull align 8 dereferenceable(32) ptr @_ZNSt6vectorINSt7__cxx1112basic_stringIcSt11char_traitsIcESaIcEEESaIS5_EE4backEv(ptr noundef nonnull align 8 dereferenceable(24) @_ZN5EigenL12g_test_stackB5cxx11E) #3
  %31 = call noundef ptr @_ZNKSt7__cxx1112basic_stringIcSt11char_traitsIcESaIcEE5c_strEv(ptr noundef nonnull align 8 dereferenceable(32) %30) #3
  invoke void @_Z11verify_implbPKcS0_iS0_(i1 noundef zeroext %28, ptr noundef %31, ptr noundef @.str.86, i32 noundef 27, ptr noundef @.str.87)
          to label %32 unwind label %56

32:                                               ; preds = %29
  %33 = call noundef i32 @_ZNK5Eigen15ThreadPoolTemplINS_20StlThreadEnvironmentEE15CurrentThreadIdEv(ptr noundef nonnull align 8 dereferenceable(136) %4)
  store i32 %33, ptr %9, align 4
  store i32 -1, ptr %10, align 4
  %34 = invoke noundef zeroext i1 @_ZN5Eigen13test_is_equalIiiEEbRKT_RKT0_b(ptr noundef nonnull align 4 dereferenceable(4) %9, ptr noundef nonnull align 4 dereferenceable(4) %10, i1 noundef zeroext true)
          to label %35 unwind label %56

35:                                               ; preds = %32
  %36 = call noundef nonnull align 8 dereferenceable(32) ptr @_ZNSt6vectorINSt7__cxx1112basic_stringIcSt11char_traitsIcESaIcEEESaIS5_EE4backEv(ptr noundef nonnull align 8 dereferenceable(24) @_ZN5EigenL12g_test_stackB5cxx11E) #3
  %37 = call noundef ptr @_ZNKSt7__cxx1112basic_stringIcSt11char_traitsIcESaIcEE5c_strEv(ptr noundef nonnull align 8 dereferenceable(32) %36) #3
  invoke void @_Z11verify_implbPKcS0_iS0_(i1 noundef zeroext %34, ptr noundef %37, ptr noundef @.str.86, i32 noundef 28, ptr noundef @.str.88)
          to label %38 unwind label %56

38:                                               ; preds = %35
  store i32 0, ptr %11, align 4
  br label %39

39:                                               ; preds = %127, %38
  %40 = load i32, ptr %11, align 4
  %41 = icmp slt i32 %40, 100
  br i1 %41, label %42, label %130, !prof !54

42:                                               ; preds = %39
  call void @llvm.memset.p0.i64(ptr align 4 %12, i8 0, i64 4, i1 false)
  call void @llvm.memset.p0.i64(ptr align 4 %13, i8 0, i64 4, i1 false)
  call void @llvm.memset.p0.i64(ptr align 4 %14, i8 0, i64 4, i1 false)
  store i32 0, ptr %15, align 4
  br label %43

43:                                               ; preds = %53, %42
  %44 = load i32, ptr %15, align 4
  %45 = icmp slt i32 %44, 16
  br i1 %45, label %46, label %64, !prof !55

46:                                               ; preds = %43
  %47 = getelementptr inbounds %class.anon.37, ptr %17, i32 0, i32 0
  store ptr %4, ptr %47, align 8
  %48 = getelementptr inbounds %class.anon.37, ptr %17, i32 0, i32 1
  store ptr %12, ptr %48, align 8
  %49 = getelementptr inbounds %class.anon.37, ptr %17, i32 0, i32 2
  store ptr %14, ptr %49, align 8
  %50 = getelementptr inbounds %class.anon.37, ptr %17, i32 0, i32 3
  store ptr %13, ptr %50, align 8
  invoke void @"_ZNSt8functionIFvvEEC2IZL16test_parallelismbE3$_0vEEOT_"(ptr noundef nonnull align 8 dereferenceable(32) %16, ptr noundef nonnull align 8 dereferenceable(32) %17)
          to label %51 unwind label %56

51:                                               ; preds = %46
  invoke void @_ZN5Eigen15ThreadPoolTemplINS_20StlThreadEnvironmentEE8ScheduleESt8functionIFvvEE(ptr noundef nonnull align 8 dereferenceable(136) %4, ptr noundef %16)
          to label %52 unwind label %60

52:                                               ; preds = %51
  call void @_ZNSt8functionIFvvEED2Ev(ptr noundef nonnull align 8 dereferenceable(32) %16) #3
  br label %53

53:                                               ; preds = %52
  %54 = load i32, ptr %15, align 4
  %55 = add nsw i32 %54, 1
  store i32 %55, ptr %15, align 4
  br label %43, !llvm.loop !56

56:                                               ; preds = %102, %75, %46, %35, %32, %29, %1
  %57 = landingpad { ptr, i32 }
          cleanup
  %58 = extractvalue { ptr, i32 } %57, 0
  store ptr %58, ptr %7, align 8
  %59 = extractvalue { ptr, i32 } %57, 1
  store i32 %59, ptr %8, align 4
  br label %131

60:                                               ; preds = %51
  %61 = landingpad { ptr, i32 }
          cleanup
  %62 = extractvalue { ptr, i32 } %61, 0
  store ptr %62, ptr %7, align 8
  %63 = extractvalue { ptr, i32 } %61, 1
  store i32 %63, ptr %8, align 4
  call void @_ZNSt8functionIFvvEED2Ev(ptr noundef nonnull align 8 dereferenceable(32) %16) #3
  br label %131

64:                                               ; preds = %43
  br label %65

65:                                               ; preds = %68, %64
  %66 = call noundef i32 @_ZNKSt13__atomic_baseIiEcviEv(ptr noundef nonnull align 4 dereferenceable(4) %12) #3
  %67 = icmp ne i32 %66, 16
  br i1 %67, label %68, label %69, !prof !57

68:                                               ; preds = %65
  br label %65, !llvm.loop !58

69:                                               ; preds = %65
  %70 = call noundef i32 @_ZNSt13__atomic_baseIiEaSEi(ptr noundef nonnull align 4 dereferenceable(4) %12, i32 noundef 0) #3
  %71 = call noundef i32 @_ZNSt13__atomic_baseIiEaSEi(ptr noundef nonnull align 4 dereferenceable(4) %14, i32 noundef 1) #3
  store i32 0, ptr %18, align 4
  br label %72

72:                                               ; preds = %84, %69
  %73 = load i32, ptr %18, align 4
  %74 = icmp slt i32 %73, 16
  br i1 %74, label %75, label %91, !prof !55

75:                                               ; preds = %72
  %76 = getelementptr inbounds %class.anon.38, ptr %20, i32 0, i32 0
  %77 = load i32, ptr %18, align 4
  store i32 %77, ptr %76, align 8
  %78 = getelementptr inbounds %class.anon.38, ptr %20, i32 0, i32 1
  store ptr %12, ptr %78, align 8
  %79 = getelementptr inbounds %class.anon.38, ptr %20, i32 0, i32 2
  store ptr %14, ptr %79, align 8
  %80 = getelementptr inbounds %class.anon.38, ptr %20, i32 0, i32 3
  store ptr %13, ptr %80, align 8
  %81 = getelementptr inbounds %class.anon.38, ptr %20, i32 0, i32 4
  store ptr %4, ptr %81, align 8
  invoke void @"_ZNSt8functionIFvvEEC2IZL16test_parallelismbE3$_1vEEOT_"(ptr noundef nonnull align 8 dereferenceable(32) %19, ptr noundef nonnull align 8 dereferenceable(40) %20)
          to label %82 unwind label %56

82:                                               ; preds = %75
  invoke void @_ZN5Eigen15ThreadPoolTemplINS_20StlThreadEnvironmentEE8ScheduleESt8functionIFvvEE(ptr noundef nonnull align 8 dereferenceable(136) %4, ptr noundef %19)
          to label %83 unwind label %87

83:                                               ; preds = %82
  call void @_ZNSt8functionIFvvEED2Ev(ptr noundef nonnull align 8 dereferenceable(32) %19) #3
  br label %84

84:                                               ; preds = %83
  %85 = load i32, ptr %18, align 4
  %86 = add nsw i32 %85, 1
  store i32 %86, ptr %18, align 4
  br label %72, !llvm.loop !59

87:                                               ; preds = %82
  %88 = landingpad { ptr, i32 }
          cleanup
  %89 = extractvalue { ptr, i32 } %88, 0
  store ptr %89, ptr %7, align 8
  %90 = extractvalue { ptr, i32 } %88, 1
  store i32 %90, ptr %8, align 4
  call void @_ZNSt8functionIFvvEED2Ev(ptr noundef nonnull align 8 dereferenceable(32) %19) #3
  br label %131

91:                                               ; preds = %72
  br label %92

92:                                               ; preds = %95, %91
  %93 = call noundef i32 @_ZNKSt13__atomic_baseIiEcviEv(ptr noundef nonnull align 4 dereferenceable(4) %12) #3
  %94 = icmp ne i32 %93, 16
  br i1 %94, label %95, label %96, !prof !60

95:                                               ; preds = %92
  br label %92, !llvm.loop !61

96:                                               ; preds = %92
  %97 = call noundef i32 @_ZNSt13__atomic_baseIiEaSEi(ptr noundef nonnull align 4 dereferenceable(4) %12, i32 noundef 0) #3
  %98 = call noundef i32 @_ZNSt13__atomic_baseIiEaSEi(ptr noundef nonnull align 4 dereferenceable(4) %14, i32 noundef 2) #3
  store i32 0, ptr %21, align 4
  br label %99

99:                                               ; preds = %108, %96
  %100 = load i32, ptr %21, align 4
  %101 = icmp slt i32 %100, 4
  br i1 %101, label %102, label %115, !prof !62

102:                                              ; preds = %99
  %103 = getelementptr inbounds %class.anon.39, ptr %23, i32 0, i32 0
  store ptr %12, ptr %103, align 8
  %104 = getelementptr inbounds %class.anon.39, ptr %23, i32 0, i32 1
  store ptr %14, ptr %104, align 8
  %105 = getelementptr inbounds %class.anon.39, ptr %23, i32 0, i32 2
  store ptr %13, ptr %105, align 8
  invoke void @"_ZNSt8functionIFvvEEC2IZL16test_parallelismbE3$_2vEEOT_"(ptr noundef nonnull align 8 dereferenceable(32) %22, ptr noundef nonnull align 8 dereferenceable(24) %23)
          to label %106 unwind label %56

106:                                              ; preds = %102
  invoke void @_ZN5Eigen15ThreadPoolTemplINS_20StlThreadEnvironmentEE8ScheduleESt8functionIFvvEE(ptr noundef nonnull align 8 dereferenceable(136) %4, ptr noundef %22)
          to label %107 unwind label %111

107:                                              ; preds = %106
  call void @_ZNSt8functionIFvvEED2Ev(ptr noundef nonnull align 8 dereferenceable(32) %22) #3
  br label %108

108:                                              ; preds = %107
  %109 = load i32, ptr %21, align 4
  %110 = add nsw i32 %109, 1
  store i32 %110, ptr %21, align 4
  br label %99, !llvm.loop !63

111:                                              ; preds = %106
  %112 = landingpad { ptr, i32 }
          cleanup
  %113 = extractvalue { ptr, i32 } %112, 0
  store ptr %113, ptr %7, align 8
  %114 = extractvalue { ptr, i32 } %112, 1
  store i32 %114, ptr %8, align 4
  call void @_ZNSt8functionIFvvEED2Ev(ptr noundef nonnull align 8 dereferenceable(32) %22) #3
  br label %131

115:                                              ; preds = %99
  br label %116

116:                                              ; preds = %119, %115
  %117 = call noundef i32 @_ZNKSt13__atomic_baseIiEcviEv(ptr noundef nonnull align 4 dereferenceable(4) %12) #3
  %118 = icmp ne i32 %117, 16
  br i1 %118, label %119, label %120, !prof !64

119:                                              ; preds = %116
  br label %116, !llvm.loop !65

120:                                              ; preds = %116
  %121 = call noundef i32 @_ZNSt13__atomic_baseIiEaSEi(ptr noundef nonnull align 4 dereferenceable(4) %14, i32 noundef 3) #3
  br label %122

122:                                              ; preds = %125, %120
  %123 = call noundef i32 @_ZNKSt13__atomic_baseIiEcviEv(ptr noundef nonnull align 4 dereferenceable(4) %13) #3
  %124 = icmp ne i32 %123, 48
  br i1 %124, label %125, label %126, !prof !66

125:                                              ; preds = %122
  br label %122, !llvm.loop !67

126:                                              ; preds = %122
  br label %127

127:                                              ; preds = %126
  %128 = load i32, ptr %11, align 4
  %129 = add nsw i32 %128, 1
  store i32 %129, ptr %11, align 4
  br label %39, !llvm.loop !68

130:                                              ; preds = %39
  call void @_ZN5Eigen15ThreadPoolTemplINS_20StlThreadEnvironmentEED2Ev(ptr noundef nonnull align 8 dereferenceable(136) %4) #3
  ret void

131:                                              ; preds = %111, %87, %60, %56
  call void @_ZN5Eigen15ThreadPoolTemplINS_20StlThreadEnvironmentEED2Ev(ptr noundef nonnull align 8 dereferenceable(136) %4) #3
  br label %132

132:                                              ; preds = %131
  %133 = load ptr, ptr %7, align 8
  %134 = load i32, ptr %8, align 4
  %135 = insertvalue { ptr, i32 } undef, ptr %133, 0
  %136 = insertvalue { ptr, i32 } %135, i32 %134, 1
  resume { ptr, i32 } %136
}

; Function Attrs: mustprogress noinline optnone uwtable
define internal void @_ZL11test_cancelv() #5 personality ptr @__gxx_personality_v0 !prof !35 !PGOFuncName !69 {
  %1 = alloca %"class.Eigen::ThreadPoolTempl", align 8
  %2 = alloca %"struct.Eigen::StlThreadEnvironment", align 1
  %3 = alloca i32, align 4
  %4 = alloca %"class.std::function", align 8
  %5 = alloca %class.anon.42, align 1
  %6 = alloca ptr, align 8
  %7 = alloca i32, align 4
  call void @_ZN5Eigen15ThreadPoolTemplINS_20StlThreadEnvironmentEEC2EiS1_(ptr noundef nonnull align 8 dereferenceable(136) %1, i32 noundef 2)
  store i32 0, ptr %3, align 4
  br label %8

8:                                                ; preds = %13, %0
  %9 = load i32, ptr %3, align 4
  %10 = icmp slt i32 %9, 1000
  br i1 %10, label %11, label %20, !prof !70

11:                                               ; preds = %8
  call void @"_ZNSt8functionIFvvEEC2IZL11test_cancelvE3$_3vEEOT_"(ptr noundef nonnull align 8 dereferenceable(32) %4, ptr noundef nonnull align 1 dereferenceable(1) %5) #3
  invoke void @_ZN5Eigen15ThreadPoolTemplINS_20StlThreadEnvironmentEE8ScheduleESt8functionIFvvEE(ptr noundef nonnull align 8 dereferenceable(136) %1, ptr noundef %4)
          to label %12 unwind label %16

12:                                               ; preds = %11
  call void @_ZNSt8functionIFvvEED2Ev(ptr noundef nonnull align 8 dereferenceable(32) %4) #3
  br label %13

13:                                               ; preds = %12
  %14 = load i32, ptr %3, align 4
  %15 = add nsw i32 %14, 1
  store i32 %15, ptr %3, align 4
  br label %8, !llvm.loop !71

16:                                               ; preds = %11
  %17 = landingpad { ptr, i32 }
          cleanup
  %18 = extractvalue { ptr, i32 } %17, 0
  store ptr %18, ptr %6, align 8
  %19 = extractvalue { ptr, i32 } %17, 1
  store i32 %19, ptr %7, align 4
  call void @_ZNSt8functionIFvvEED2Ev(ptr noundef nonnull align 8 dereferenceable(32) %4) #3
  br label %26

20:                                               ; preds = %8
  invoke void @_ZN5Eigen15ThreadPoolTemplINS_20StlThreadEnvironmentEE6CancelEv(ptr noundef nonnull align 8 dereferenceable(136) %1)
          to label %21 unwind label %22

21:                                               ; preds = %20
  call void @_ZN5Eigen15ThreadPoolTemplINS_20StlThreadEnvironmentEED2Ev(ptr noundef nonnull align 8 dereferenceable(136) %1) #3
  ret void

22:                                               ; preds = %20
  %23 = landingpad { ptr, i32 }
          cleanup
  %24 = extractvalue { ptr, i32 } %23, 0
  store ptr %24, ptr %6, align 8
  %25 = extractvalue { ptr, i32 } %23, 1
  store i32 %25, ptr %7, align 4
  br label %26

26:                                               ; preds = %22, %16
  call void @_ZN5Eigen15ThreadPoolTemplINS_20StlThreadEnvironmentEED2Ev(ptr noundef nonnull align 8 dereferenceable(136) %1) #3
  br label %27

27:                                               ; preds = %26
  %28 = load ptr, ptr %6, align 8
  %29 = load i32, ptr %7, align 4
  %30 = insertvalue { ptr, i32 } undef, ptr %28, 0
  %31 = insertvalue { ptr, i32 } %30, i32 %29, 1
  resume { ptr, i32 } %31
}

; Function Attrs: mustprogress noinline optnone uwtable
define internal void @_ZL20test_pool_partitionsv() #5 personality ptr @__gxx_personality_v0 !prof !35 !PGOFuncName !72 {
  %1 = alloca i32, align 4
  %2 = alloca %"struct.std::atomic.35", align 4
  %3 = alloca %"struct.std::atomic.35", align 4
  %4 = alloca %"struct.std::atomic.35", align 4
  %5 = alloca %"class.Eigen::ThreadPoolTempl", align 8
  %6 = alloca %"struct.Eigen::StlThreadEnvironment", align 1
  %7 = alloca %"class.std::vector.46", align 8
  %8 = alloca %"class.std::allocator.48", align 1
  %9 = alloca ptr, align 8
  %10 = alloca i32, align 4
  %11 = alloca i32, align 4
  %12 = alloca %"struct.std::pair.51", align 4
  %13 = alloca i32, align 4
  %14 = alloca i32, align 4
  %15 = alloca %"class.std::function", align 8
  %16 = alloca %class.anon.54, align 8
  %17 = alloca i32, align 4
  %18 = alloca %"class.std::function", align 8
  %19 = alloca %class.anon.55, align 8
  store i32 2, ptr %1, align 4
  call void @llvm.memset.p0.i64(ptr align 4 %2, i8 0, i64 4, i1 false)
  call void @llvm.memset.p0.i64(ptr align 4 %3, i8 0, i64 4, i1 false)
  call void @llvm.memset.p0.i64(ptr align 4 %4, i8 0, i64 4, i1 false)
  call void @_ZN5Eigen15ThreadPoolTemplINS_20StlThreadEnvironmentEEC2EiS1_(ptr noundef nonnull align 8 dereferenceable(136) %5, i32 noundef 2)
  call void @_ZNSaISt4pairIjjEEC2Ev(ptr noundef nonnull align 1 dereferenceable(1) %8) #3
  invoke void @_ZNSt6vectorISt4pairIjjESaIS1_EEC2EmRKS2_(ptr noundef nonnull align 8 dereferenceable(24) %7, i64 noundef 2, ptr noundef nonnull align 1 dereferenceable(1) %8)
          to label %20 unwind label %37

20:                                               ; preds = %0
  call void @_ZNSaISt4pairIjjEED2Ev(ptr noundef nonnull align 1 dereferenceable(1) %8) #3
  store i32 0, ptr %11, align 4
  br label %21

21:                                               ; preds = %34, %20
  %22 = load i32, ptr %11, align 4
  %23 = icmp slt i32 %22, 2
  br i1 %23, label %24, label %45, !prof !73

24:                                               ; preds = %21
  %25 = load i32, ptr %11, align 4
  %26 = add nsw i32 %25, 1
  store i32 %26, ptr %13, align 4
  %27 = invoke i64 @_ZSt9make_pairIRiiESt4pairINSt25__strip_reference_wrapperINSt5decayIT_E4typeEE6__typeENS2_INS3_IT0_E4typeEE6__typeEEOS4_OS9_(ptr noundef nonnull align 4 dereferenceable(4) %11, ptr noundef nonnull align 4 dereferenceable(4) %13)
          to label %28 unwind label %41

28:                                               ; preds = %24
  store i64 %27, ptr %12, align 4
  %29 = load i32, ptr %11, align 4
  %30 = sext i32 %29 to i64
  %31 = call noundef nonnull align 4 dereferenceable(8) ptr @_ZNSt6vectorISt4pairIjjESaIS1_EEixEm(ptr noundef nonnull align 8 dereferenceable(24) %7, i64 noundef %30) #3
  %32 = invoke noundef nonnull align 4 dereferenceable(8) ptr @_ZNSt4pairIjjEaSIiiEENSt9enable_ifIXsr6__and_ISt13is_assignableIRjOT_ES3_IS4_OT0_EEE5valueERS0_E4typeEOS_IS5_S8_E(ptr noundef nonnull align 4 dereferenceable(8) %31, ptr noundef nonnull align 4 dereferenceable(8) %12)
          to label %33 unwind label %41

33:                                               ; preds = %28
  br label %34

34:                                               ; preds = %33
  %35 = load i32, ptr %11, align 4
  %36 = add nsw i32 %35, 1
  store i32 %36, ptr %11, align 4
  br label %21, !llvm.loop !74

37:                                               ; preds = %0
  %38 = landingpad { ptr, i32 }
          cleanup
  %39 = extractvalue { ptr, i32 } %38, 0
  store ptr %39, ptr %9, align 8
  %40 = extractvalue { ptr, i32 } %38, 1
  store i32 %40, ptr %10, align 4
  call void @_ZNSaISt4pairIjjEED2Ev(ptr noundef nonnull align 1 dereferenceable(1) %8) #3
  br label %103

41:                                               ; preds = %73, %50, %45, %28, %24
  %42 = landingpad { ptr, i32 }
          cleanup
  %43 = extractvalue { ptr, i32 } %42, 0
  store ptr %43, ptr %9, align 8
  %44 = extractvalue { ptr, i32 } %42, 1
  store i32 %44, ptr %10, align 4
  br label %102

45:                                               ; preds = %21
  invoke void @_ZN5Eigen15ThreadPoolTemplINS_20StlThreadEnvironmentEE18SetStealPartitionsERKSt6vectorISt4pairIjjESaIS5_EE(ptr noundef nonnull align 8 dereferenceable(136) %5, ptr noundef nonnull align 8 dereferenceable(24) %7)
          to label %46 unwind label %41

46:                                               ; preds = %45
  store i32 0, ptr %14, align 4
  br label %47

47:                                               ; preds = %57, %46
  %48 = load i32, ptr %14, align 4
  %49 = icmp slt i32 %48, 2
  br i1 %49, label %50, label %64, !prof !73

50:                                               ; preds = %47
  %51 = getelementptr inbounds %class.anon.54, ptr %16, i32 0, i32 0
  store ptr %5, ptr %51, align 8
  %52 = getelementptr inbounds %class.anon.54, ptr %16, i32 0, i32 1
  store ptr %2, ptr %52, align 8
  %53 = getelementptr inbounds %class.anon.54, ptr %16, i32 0, i32 2
  store ptr %4, ptr %53, align 8
  %54 = getelementptr inbounds %class.anon.54, ptr %16, i32 0, i32 3
  store ptr %3, ptr %54, align 8
  invoke void @"_ZNSt8functionIFvvEEC2IZL20test_pool_partitionsvE3$_4vEEOT_"(ptr noundef nonnull align 8 dereferenceable(32) %15, ptr noundef nonnull align 8 dereferenceable(32) %16)
          to label %55 unwind label %41

55:                                               ; preds = %50
  invoke void @_ZN5Eigen15ThreadPoolTemplINS_20StlThreadEnvironmentEE8ScheduleESt8functionIFvvEE(ptr noundef nonnull align 8 dereferenceable(136) %5, ptr noundef %15)
          to label %56 unwind label %60

56:                                               ; preds = %55
  call void @_ZNSt8functionIFvvEED2Ev(ptr noundef nonnull align 8 dereferenceable(32) %15) #3
  br label %57

57:                                               ; preds = %56
  %58 = load i32, ptr %14, align 4
  %59 = add nsw i32 %58, 1
  store i32 %59, ptr %14, align 4
  br label %47, !llvm.loop !75

60:                                               ; preds = %55
  %61 = landingpad { ptr, i32 }
          cleanup
  %62 = extractvalue { ptr, i32 } %61, 0
  store ptr %62, ptr %9, align 8
  %63 = extractvalue { ptr, i32 } %61, 1
  store i32 %63, ptr %10, align 4
  call void @_ZNSt8functionIFvvEED2Ev(ptr noundef nonnull align 8 dereferenceable(32) %15) #3
  br label %102

64:                                               ; preds = %47
  br label %65

65:                                               ; preds = %68, %64
  %66 = call noundef i32 @_ZNKSt13__atomic_baseIiEcviEv(ptr noundef nonnull align 4 dereferenceable(4) %2) #3
  %67 = icmp ne i32 %66, 2
  br i1 %67, label %68, label %69, !prof !76

68:                                               ; preds = %65
  br label %65, !llvm.loop !77

69:                                               ; preds = %65
  store i32 0, ptr %17, align 4
  br label %70

70:                                               ; preds = %85, %69
  %71 = load i32, ptr %17, align 4
  %72 = icmp slt i32 %71, 2
  br i1 %72, label %73, label %92, !prof !73

73:                                               ; preds = %70
  %74 = getelementptr inbounds %class.anon.55, ptr %19, i32 0, i32 0
  %75 = load i32, ptr %17, align 4
  store i32 %75, ptr %74, align 8
  %76 = getelementptr inbounds %class.anon.55, ptr %19, i32 0, i32 1
  store ptr %2, ptr %76, align 8
  %77 = getelementptr inbounds %class.anon.55, ptr %19, i32 0, i32 2
  store ptr %5, ptr %77, align 8
  %78 = getelementptr inbounds %class.anon.55, ptr %19, i32 0, i32 3
  store ptr %4, ptr %78, align 8
  %79 = getelementptr inbounds %class.anon.55, ptr %19, i32 0, i32 4
  store ptr %3, ptr %79, align 8
  invoke void @"_ZNSt8functionIFvvEEC2IZL20test_pool_partitionsvE3$_5vEEOT_"(ptr noundef nonnull align 8 dereferenceable(32) %18, ptr noundef nonnull align 8 dereferenceable(40) %19)
          to label %80 unwind label %41

80:                                               ; preds = %73
  %81 = load i32, ptr %17, align 4
  %82 = load i32, ptr %17, align 4
  %83 = add nsw i32 %82, 1
  invoke void @_ZN5Eigen15ThreadPoolTemplINS_20StlThreadEnvironmentEE16ScheduleWithHintESt8functionIFvvEEii(ptr noundef nonnull align 8 dereferenceable(136) %5, ptr noundef %18, i32 noundef %81, i32 noundef %83)
          to label %84 unwind label %88

84:                                               ; preds = %80
  call void @_ZNSt8functionIFvvEED2Ev(ptr noundef nonnull align 8 dereferenceable(32) %18) #3
  br label %85

85:                                               ; preds = %84
  %86 = load i32, ptr %17, align 4
  %87 = add nsw i32 %86, 1
  store i32 %87, ptr %17, align 4
  br label %70, !llvm.loop !78

88:                                               ; preds = %80
  %89 = landingpad { ptr, i32 }
          cleanup
  %90 = extractvalue { ptr, i32 } %89, 0
  store ptr %90, ptr %9, align 8
  %91 = extractvalue { ptr, i32 } %89, 1
  store i32 %91, ptr %10, align 4
  call void @_ZNSt8functionIFvvEED2Ev(ptr noundef nonnull align 8 dereferenceable(32) %18) #3
  br label %102

92:                                               ; preds = %70
  %93 = call noundef i32 @_ZNSt13__atomic_baseIiEaSEi(ptr noundef nonnull align 4 dereferenceable(4) %2, i32 noundef 0) #3
  %94 = call noundef i32 @_ZNSt13__atomic_baseIiEaSEi(ptr noundef nonnull align 4 dereferenceable(4) %4, i32 noundef 1) #3
  br label %95

95:                                               ; preds = %98, %92
  %96 = call noundef i32 @_ZNKSt13__atomic_baseIiEcviEv(ptr noundef nonnull align 4 dereferenceable(4) %2) #3
  %97 = icmp ne i32 %96, 2
  br i1 %97, label %98, label %99, !prof !79

98:                                               ; preds = %95
  br label %95, !llvm.loop !80

99:                                               ; preds = %95
  %100 = call noundef i32 @_ZNSt13__atomic_baseIiEaSEi(ptr noundef nonnull align 4 dereferenceable(4) %2, i32 noundef 0) #3
  %101 = call noundef i32 @_ZNSt13__atomic_baseIiEaSEi(ptr noundef nonnull align 4 dereferenceable(4) %4, i32 noundef 2) #3
  call void @_ZNSt6vectorISt4pairIjjESaIS1_EED2Ev(ptr noundef nonnull align 8 dereferenceable(24) %7) #3
  call void @_ZN5Eigen15ThreadPoolTemplINS_20StlThreadEnvironmentEED2Ev(ptr noundef nonnull align 8 dereferenceable(136) %5) #3
  ret void

102:                                              ; preds = %88, %60, %41
  call void @_ZNSt6vectorISt4pairIjjESaIS1_EED2Ev(ptr noundef nonnull align 8 dereferenceable(24) %7) #3
  br label %103

103:                                              ; preds = %102, %37
  call void @_ZN5Eigen15ThreadPoolTemplINS_20StlThreadEnvironmentEED2Ev(ptr noundef nonnull align 8 dereferenceable(136) %5) #3
  br label %104

104:                                              ; preds = %103
  %105 = load ptr, ptr %9, align 8
  %106 = load i32, ptr %10, align 4
  %107 = insertvalue { ptr, i32 } undef, ptr %105, 0
  %108 = insertvalue { ptr, i32 } %107, i32 %106, 1
  resume { ptr, i32 } %108
}

; Function Attrs: noinline nounwind optnone uwtable
define linkonce_odr dso_local void @_ZNSt12_Vector_baseINSt7__cxx1112basic_stringIcSt11char_traitsIcESaIcEEESaIS5_EEC2Ev(ptr noundef nonnull align 8 dereferenceable(24) %0) unnamed_addr #4 comdat align 2 !prof !35 {
  %2 = alloca ptr, align 8
  store ptr %0, ptr %2, align 8
  %3 = load ptr, ptr %2, align 8
  %4 = getelementptr inbounds %"struct.std::_Vector_base", ptr %3, i32 0, i32 0
  call void @_ZNSt12_Vector_baseINSt7__cxx1112basic_stringIcSt11char_traitsIcESaIcEEESaIS5_EE12_Vector_implC2Ev(ptr noundef nonnull align 8 dereferenceable(24) %4) #3
  ret void
}

; Function Attrs: noinline nounwind optnone uwtable
define linkonce_odr dso_local void @_ZNSt12_Vector_baseINSt7__cxx1112basic_stringIcSt11char_traitsIcESaIcEEESaIS5_EE12_Vector_implC2Ev(ptr noundef nonnull align 8 dereferenceable(24) %0) unnamed_addr #4 comdat align 2 !prof !35 {
  %2 = alloca ptr, align 8
  store ptr %0, ptr %2, align 8
  %3 = load ptr, ptr %2, align 8
  call void @_ZNSaINSt7__cxx1112basic_stringIcSt11char_traitsIcESaIcEEEEC2Ev(ptr noundef nonnull align 1 dereferenceable(1) %3) #3
  call void @_ZNSt12_Vector_baseINSt7__cxx1112basic_stringIcSt11char_traitsIcESaIcEEESaIS5_EE17_Vector_impl_dataC2Ev(ptr noundef nonnull align 8 dereferenceable(24) %3) #3
  ret void
}

; Function Attrs: noinline nounwind optnone uwtable
define linkonce_odr dso_local void @_ZNSaINSt7__cxx1112basic_stringIcSt11char_traitsIcESaIcEEEEC2Ev(ptr noundef nonnull align 1 dereferenceable(1) %0) unnamed_addr #4 comdat align 2 !prof !35 {
  %2 = alloca ptr, align 8
  store ptr %0, ptr %2, align 8
  %3 = load ptr, ptr %2, align 8
  call void @_ZNSt15__new_allocatorINSt7__cxx1112basic_stringIcSt11char_traitsIcESaIcEEEEC2Ev(ptr noundef nonnull align 1 dereferenceable(1) %3) #3
  ret void
}

; Function Attrs: noinline nounwind optnone uwtable
define linkonce_odr dso_local void @_ZNSt12_Vector_baseINSt7__cxx1112basic_stringIcSt11char_traitsIcESaIcEEESaIS5_EE17_Vector_impl_dataC2Ev(ptr noundef nonnull align 8 dereferenceable(24) %0) unnamed_addr #4 comdat align 2 !prof !35 {
  %2 = alloca ptr, align 8
  store ptr %0, ptr %2, align 8
  %3 = load ptr, ptr %2, align 8
  %4 = getelementptr inbounds %"struct.std::_Vector_base<std::__cxx11::basic_string<char>, std::allocator<std::__cxx11::basic_string<char>>>::_Vector_impl_data", ptr %3, i32 0, i32 0
  store ptr null, ptr %4, align 8
  %5 = getelementptr inbounds %"struct.std::_Vector_base<std::__cxx11::basic_string<char>, std::allocator<std::__cxx11::basic_string<char>>>::_Vector_impl_data", ptr %3, i32 0, i32 1
  store ptr null, ptr %5, align 8
  %6 = getelementptr inbounds %"struct.std::_Vector_base<std::__cxx11::basic_string<char>, std::allocator<std::__cxx11::basic_string<char>>>::_Vector_impl_data", ptr %3, i32 0, i32 2
  store ptr null, ptr %6, align 8
  ret void
}

; Function Attrs: noinline nounwind optnone uwtable
define linkonce_odr dso_local void @_ZNSt15__new_allocatorINSt7__cxx1112basic_stringIcSt11char_traitsIcESaIcEEEEC2Ev(ptr noundef nonnull align 1 dereferenceable(1) %0) unnamed_addr #4 comdat align 2 !prof !35 {
  %2 = alloca ptr, align 8
  store ptr %0, ptr %2, align 8
  %3 = load ptr, ptr %2, align 8
  ret void
}

; Function Attrs: nounwind readnone willreturn
declare ptr @__errno_location() #10

; Function Attrs: nounwind
declare i64 @strtoul(ptr noundef, ptr noundef, i32 noundef) #2

; Function Attrs: noreturn nounwind
declare void @exit(i32 noundef) #11

; Function Attrs: mustprogress noinline nounwind optnone uwtable
define linkonce_odr dso_local noundef i64 @_ZNKSt6vectorINSt7__cxx1112basic_stringIcSt11char_traitsIcESaIcEEESaIS5_EE4sizeEv(ptr noundef nonnull align 8 dereferenceable(24) %0) #8 comdat align 2 !prof !81 {
  %2 = alloca ptr, align 8
  store ptr %0, ptr %2, align 8
  %3 = load ptr, ptr %2, align 8
  %4 = getelementptr inbounds %"struct.std::_Vector_base", ptr %3, i32 0, i32 0
  %5 = getelementptr inbounds %"struct.std::_Vector_base<std::__cxx11::basic_string<char>, std::allocator<std::__cxx11::basic_string<char>>>::_Vector_impl_data", ptr %4, i32 0, i32 1
  %6 = load ptr, ptr %5, align 8
  %7 = getelementptr inbounds %"struct.std::_Vector_base", ptr %3, i32 0, i32 0
  %8 = getelementptr inbounds %"struct.std::_Vector_base<std::__cxx11::basic_string<char>, std::allocator<std::__cxx11::basic_string<char>>>::_Vector_impl_data", ptr %7, i32 0, i32 0
  %9 = load ptr, ptr %8, align 8
  %10 = ptrtoint ptr %6 to i64
  %11 = ptrtoint ptr %9 to i64
  %12 = sub i64 %10, %11
  %13 = sdiv exact i64 %12, 32
  ret i64 %13
}

declare noundef nonnull align 8 dereferenceable(8) ptr @_ZStlsIcSt11char_traitsIcESaIcEERSt13basic_ostreamIT_T0_ES7_RKNSt7__cxx1112basic_stringIS4_S5_T1_EE(ptr noundef nonnull align 8 dereferenceable(8), ptr noundef nonnull align 8 dereferenceable(32)) #1

; Function Attrs: mustprogress noinline nounwind optnone uwtable
define linkonce_odr dso_local noundef nonnull align 8 dereferenceable(32) ptr @_ZNSt6vectorINSt7__cxx1112basic_stringIcSt11char_traitsIcESaIcEEESaIS5_EEixEm(ptr noundef nonnull align 8 dereferenceable(24) %0, i64 noundef %1) #8 comdat align 2 !prof !36 {
  %3 = alloca ptr, align 8
  %4 = alloca i64, align 8
  store ptr %0, ptr %3, align 8
  store i64 %1, ptr %4, align 8
  %5 = load ptr, ptr %3, align 8
  %6 = getelementptr inbounds %"struct.std::_Vector_base", ptr %5, i32 0, i32 0
  %7 = getelementptr inbounds %"struct.std::_Vector_base<std::__cxx11::basic_string<char>, std::allocator<std::__cxx11::basic_string<char>>>::_Vector_impl_data", ptr %6, i32 0, i32 0
  %8 = load ptr, ptr %7, align 8
  %9 = load i64, ptr %4, align 8
  %10 = getelementptr inbounds %"class.std::__cxx11::basic_string", ptr %8, i64 %9
  ret ptr %10
}

; Function Attrs: noreturn nounwind
declare void @abort() #11

; Function Attrs: mustprogress noinline optnone uwtable
define linkonce_odr dso_local noundef nonnull align 8 dereferenceable(24) ptr @_ZN5Eigen9EigenTest20get_registered_testsEv() #5 comdat align 2 personality ptr @__gxx_personality_v0 !prof !82 {
  %1 = alloca ptr, align 8
  %2 = alloca i32, align 4
  %3 = load atomic i8, ptr @_ZGVZN5Eigen9EigenTest20get_registered_testsEvE19ms_registered_tests acquire, align 8
  %4 = icmp eq i8 %3, 0
  br i1 %4, label %5, label %11, !prof !83

5:                                                ; preds = %0
  %6 = call i32 @__cxa_guard_acquire(ptr @_ZGVZN5Eigen9EigenTest20get_registered_testsEvE19ms_registered_tests) #3
  %7 = icmp ne i32 %6, 0
  br i1 %7, label %8, label %11

8:                                                ; preds = %5
  %9 = invoke noalias noundef nonnull ptr @_Znwm(i64 noundef 24) #22
          to label %10 unwind label %13

10:                                               ; preds = %8
  call void @llvm.memset.p0.i64(ptr align 16 %9, i8 0, i64 24, i1 false)
  call void @_ZNSt6vectorIPN5Eigen9EigenTestESaIS2_EEC2Ev(ptr noundef nonnull align 8 dereferenceable(24) %9) #3
  store ptr %9, ptr @_ZZN5Eigen9EigenTest20get_registered_testsEvE19ms_registered_tests, align 8
  call void @__cxa_guard_release(ptr @_ZGVZN5Eigen9EigenTest20get_registered_testsEvE19ms_registered_tests) #3
  br label %11

11:                                               ; preds = %10, %5, %0
  %12 = load ptr, ptr @_ZZN5Eigen9EigenTest20get_registered_testsEvE19ms_registered_tests, align 8
  ret ptr %12

13:                                               ; preds = %8
  %14 = landingpad { ptr, i32 }
          cleanup
  %15 = extractvalue { ptr, i32 } %14, 0
  store ptr %15, ptr %1, align 8
  %16 = extractvalue { ptr, i32 } %14, 1
  store i32 %16, ptr %2, align 4
  call void @__cxa_guard_abort(ptr @_ZGVZN5Eigen9EigenTest20get_registered_testsEvE19ms_registered_tests) #3
  br label %17

17:                                               ; preds = %13
  %18 = load ptr, ptr %1, align 8
  %19 = load i32, ptr %2, align 4
  %20 = insertvalue { ptr, i32 } undef, ptr %18, 0
  %21 = insertvalue { ptr, i32 } %20, i32 %19, 1
  resume { ptr, i32 } %21
}

; Function Attrs: nounwind
declare i32 @__cxa_guard_acquire(ptr) #3

; Function Attrs: nobuiltin allocsize(0)
declare noundef nonnull ptr @_Znwm(i64 noundef) #12

; Function Attrs: argmemonly nocallback nofree nounwind willreturn writeonly
declare void @llvm.memset.p0.i64(ptr nocapture writeonly, i8, i64, i1 immarg) #13

; Function Attrs: noinline nounwind optnone uwtable
define linkonce_odr dso_local void @_ZNSt6vectorIPN5Eigen9EigenTestESaIS2_EEC2Ev(ptr noundef nonnull align 8 dereferenceable(24) %0) unnamed_addr #4 comdat align 2 !prof !35 {
  %2 = alloca ptr, align 8
  store ptr %0, ptr %2, align 8
  %3 = load ptr, ptr %2, align 8
  call void @_ZNSt12_Vector_baseIPN5Eigen9EigenTestESaIS2_EEC2Ev(ptr noundef nonnull align 8 dereferenceable(24) %3) #3
  ret void
}

; Function Attrs: nounwind
declare void @__cxa_guard_abort(ptr) #3

; Function Attrs: nounwind
declare void @__cxa_guard_release(ptr) #3

; Function Attrs: noinline nounwind optnone uwtable
define linkonce_odr dso_local void @_ZNSt12_Vector_baseIPN5Eigen9EigenTestESaIS2_EEC2Ev(ptr noundef nonnull align 8 dereferenceable(24) %0) unnamed_addr #4 comdat align 2 !prof !35 {
  %2 = alloca ptr, align 8
  store ptr %0, ptr %2, align 8
  %3 = load ptr, ptr %2, align 8
  %4 = getelementptr inbounds %"struct.std::_Vector_base.7", ptr %3, i32 0, i32 0
  call void @_ZNSt12_Vector_baseIPN5Eigen9EigenTestESaIS2_EE12_Vector_implC2Ev(ptr noundef nonnull align 8 dereferenceable(24) %4) #3
  ret void
}

; Function Attrs: noinline nounwind optnone uwtable
define linkonce_odr dso_local void @_ZNSt12_Vector_baseIPN5Eigen9EigenTestESaIS2_EE12_Vector_implC2Ev(ptr noundef nonnull align 8 dereferenceable(24) %0) unnamed_addr #4 comdat align 2 !prof !35 {
  %2 = alloca ptr, align 8
  store ptr %0, ptr %2, align 8
  %3 = load ptr, ptr %2, align 8
  call void @_ZNSaIPN5Eigen9EigenTestEEC2Ev(ptr noundef nonnull align 1 dereferenceable(1) %3) #3
  call void @_ZNSt12_Vector_baseIPN5Eigen9EigenTestESaIS2_EE17_Vector_impl_dataC2Ev(ptr noundef nonnull align 8 dereferenceable(24) %3) #3
  ret void
}

; Function Attrs: noinline nounwind optnone uwtable
define linkonce_odr dso_local void @_ZNSaIPN5Eigen9EigenTestEEC2Ev(ptr noundef nonnull align 1 dereferenceable(1) %0) unnamed_addr #4 comdat align 2 !prof !35 {
  %2 = alloca ptr, align 8
  store ptr %0, ptr %2, align 8
  %3 = load ptr, ptr %2, align 8
  call void @_ZNSt15__new_allocatorIPN5Eigen9EigenTestEEC2Ev(ptr noundef nonnull align 1 dereferenceable(1) %3) #3
  ret void
}

; Function Attrs: noinline nounwind optnone uwtable
define linkonce_odr dso_local void @_ZNSt12_Vector_baseIPN5Eigen9EigenTestESaIS2_EE17_Vector_impl_dataC2Ev(ptr noundef nonnull align 8 dereferenceable(24) %0) unnamed_addr #4 comdat align 2 !prof !35 {
  %2 = alloca ptr, align 8
  store ptr %0, ptr %2, align 8
  %3 = load ptr, ptr %2, align 8
  %4 = getelementptr inbounds %"struct.std::_Vector_base<Eigen::EigenTest *, std::allocator<Eigen::EigenTest *>>::_Vector_impl_data", ptr %3, i32 0, i32 0
  store ptr null, ptr %4, align 8
  %5 = getelementptr inbounds %"struct.std::_Vector_base<Eigen::EigenTest *, std::allocator<Eigen::EigenTest *>>::_Vector_impl_data", ptr %3, i32 0, i32 1
  store ptr null, ptr %5, align 8
  %6 = getelementptr inbounds %"struct.std::_Vector_base<Eigen::EigenTest *, std::allocator<Eigen::EigenTest *>>::_Vector_impl_data", ptr %3, i32 0, i32 2
  store ptr null, ptr %6, align 8
  ret void
}

; Function Attrs: noinline nounwind optnone uwtable
define linkonce_odr dso_local void @_ZNSt15__new_allocatorIPN5Eigen9EigenTestEEC2Ev(ptr noundef nonnull align 1 dereferenceable(1) %0) unnamed_addr #4 comdat align 2 !prof !35 {
  %2 = alloca ptr, align 8
  store ptr %0, ptr %2, align 8
  %3 = load ptr, ptr %2, align 8
  ret void
}

; Function Attrs: mustprogress noinline optnone uwtable
define linkonce_odr dso_local void @_ZNSt6vectorIPN5Eigen9EigenTestESaIS2_EE9push_backEOS2_(ptr noundef nonnull align 8 dereferenceable(24) %0, ptr noundef nonnull align 8 dereferenceable(8) %1) #5 comdat align 2 !prof !35 {
  %3 = alloca ptr, align 8
  %4 = alloca ptr, align 8
  store ptr %0, ptr %3, align 8
  store ptr %1, ptr %4, align 8
  %5 = load ptr, ptr %3, align 8
  %6 = load ptr, ptr %4, align 8
  call void @_ZNSt6vectorIPN5Eigen9EigenTestESaIS2_EE12emplace_backIJS2_EEEvDpOT_(ptr noundef nonnull align 8 dereferenceable(24) %5, ptr noundef nonnull align 8 dereferenceable(8) %6)
  ret void
}

; Function Attrs: mustprogress noinline optnone uwtable
define linkonce_odr dso_local void @_ZNSt6vectorIPN5Eigen9EigenTestESaIS2_EE12emplace_backIJS2_EEEvDpOT_(ptr noundef nonnull align 8 dereferenceable(24) %0, ptr noundef nonnull align 8 dereferenceable(8) %1) #5 comdat align 2 !prof !35 {
  %3 = alloca ptr, align 8
  %4 = alloca ptr, align 8
  %5 = alloca %"class.__gnu_cxx::__normal_iterator", align 8
  store ptr %0, ptr %3, align 8
  store ptr %1, ptr %4, align 8
  %6 = load ptr, ptr %3, align 8
  %7 = getelementptr inbounds %"struct.std::_Vector_base.7", ptr %6, i32 0, i32 0
  %8 = getelementptr inbounds %"struct.std::_Vector_base<Eigen::EigenTest *, std::allocator<Eigen::EigenTest *>>::_Vector_impl_data", ptr %7, i32 0, i32 1
  %9 = load ptr, ptr %8, align 8
  %10 = getelementptr inbounds %"struct.std::_Vector_base.7", ptr %6, i32 0, i32 0
  %11 = getelementptr inbounds %"struct.std::_Vector_base<Eigen::EigenTest *, std::allocator<Eigen::EigenTest *>>::_Vector_impl_data", ptr %10, i32 0, i32 2
  %12 = load ptr, ptr %11, align 8
  %13 = icmp ne ptr %9, %12
  br i1 %13, label %14, label %24, !prof !37

14:                                               ; preds = %2
  %15 = getelementptr inbounds %"struct.std::_Vector_base.7", ptr %6, i32 0, i32 0
  %16 = getelementptr inbounds %"struct.std::_Vector_base.7", ptr %6, i32 0, i32 0
  %17 = getelementptr inbounds %"struct.std::_Vector_base<Eigen::EigenTest *, std::allocator<Eigen::EigenTest *>>::_Vector_impl_data", ptr %16, i32 0, i32 1
  %18 = load ptr, ptr %17, align 8
  %19 = load ptr, ptr %4, align 8
  call void @_ZNSt16allocator_traitsISaIPN5Eigen9EigenTestEEE9constructIS2_JS2_EEEvRS3_PT_DpOT0_(ptr noundef nonnull align 1 dereferenceable(1) %15, ptr noundef %18, ptr noundef nonnull align 8 dereferenceable(8) %19) #3
  %20 = getelementptr inbounds %"struct.std::_Vector_base.7", ptr %6, i32 0, i32 0
  %21 = getelementptr inbounds %"struct.std::_Vector_base<Eigen::EigenTest *, std::allocator<Eigen::EigenTest *>>::_Vector_impl_data", ptr %20, i32 0, i32 1
  %22 = load ptr, ptr %21, align 8
  %23 = getelementptr inbounds ptr, ptr %22, i32 1
  store ptr %23, ptr %21, align 8
  br label %30

24:                                               ; preds = %2
  %25 = call ptr @_ZNSt6vectorIPN5Eigen9EigenTestESaIS2_EE3endEv(ptr noundef nonnull align 8 dereferenceable(24) %6) #3
  %26 = getelementptr inbounds %"class.__gnu_cxx::__normal_iterator", ptr %5, i32 0, i32 0
  store ptr %25, ptr %26, align 8
  %27 = load ptr, ptr %4, align 8
  %28 = getelementptr inbounds %"class.__gnu_cxx::__normal_iterator", ptr %5, i32 0, i32 0
  %29 = load ptr, ptr %28, align 8
  call void @_ZNSt6vectorIPN5Eigen9EigenTestESaIS2_EE17_M_realloc_insertIJS2_EEEvN9__gnu_cxx17__normal_iteratorIPS2_S4_EEDpOT_(ptr noundef nonnull align 8 dereferenceable(24) %6, ptr %29, ptr noundef nonnull align 8 dereferenceable(8) %27)
  br label %30

30:                                               ; preds = %24, %14
  ret void
}

; Function Attrs: mustprogress noinline nounwind optnone uwtable
define linkonce_odr dso_local void @_ZNSt16allocator_traitsISaIPN5Eigen9EigenTestEEE9constructIS2_JS2_EEEvRS3_PT_DpOT0_(ptr noundef nonnull align 1 dereferenceable(1) %0, ptr noundef %1, ptr noundef nonnull align 8 dereferenceable(8) %2) #8 comdat align 2 !prof !35 {
  %4 = alloca ptr, align 8
  %5 = alloca ptr, align 8
  %6 = alloca ptr, align 8
  store ptr %0, ptr %4, align 8
  store ptr %1, ptr %5, align 8
  store ptr %2, ptr %6, align 8
  %7 = load ptr, ptr %4, align 8
  %8 = load ptr, ptr %5, align 8
  %9 = load ptr, ptr %6, align 8
  call void @_ZNSt15__new_allocatorIPN5Eigen9EigenTestEE9constructIS2_JS2_EEEvPT_DpOT0_(ptr noundef nonnull align 1 dereferenceable(1) %7, ptr noundef %8, ptr noundef nonnull align 8 dereferenceable(8) %9) #3
  ret void
}

; Function Attrs: mustprogress noinline optnone uwtable
define linkonce_odr dso_local void @_ZNSt6vectorIPN5Eigen9EigenTestESaIS2_EE17_M_realloc_insertIJS2_EEEvN9__gnu_cxx17__normal_iteratorIPS2_S4_EEDpOT_(ptr noundef nonnull align 8 dereferenceable(24) %0, ptr %1, ptr noundef nonnull align 8 dereferenceable(8) %2) #5 comdat align 2 !prof !35 {
  %4 = alloca %"class.__gnu_cxx::__normal_iterator", align 8
  %5 = alloca ptr, align 8
  %6 = alloca ptr, align 8
  %7 = alloca i64, align 8
  %8 = alloca ptr, align 8
  %9 = alloca ptr, align 8
  %10 = alloca i64, align 8
  %11 = alloca %"class.__gnu_cxx::__normal_iterator", align 8
  %12 = alloca ptr, align 8
  %13 = alloca ptr, align 8
  %14 = getelementptr inbounds %"class.__gnu_cxx::__normal_iterator", ptr %4, i32 0, i32 0
  store ptr %1, ptr %14, align 8
  store ptr %0, ptr %5, align 8
  store ptr %2, ptr %6, align 8
  %15 = load ptr, ptr %5, align 8
  %16 = call noundef i64 @_ZNKSt6vectorIPN5Eigen9EigenTestESaIS2_EE12_M_check_lenEmPKc(ptr noundef nonnull align 8 dereferenceable(24) %15, i64 noundef 1, ptr noundef @.str.51)
  store i64 %16, ptr %7, align 8
  %17 = getelementptr inbounds %"struct.std::_Vector_base.7", ptr %15, i32 0, i32 0
  %18 = getelementptr inbounds %"struct.std::_Vector_base<Eigen::EigenTest *, std::allocator<Eigen::EigenTest *>>::_Vector_impl_data", ptr %17, i32 0, i32 0
  %19 = load ptr, ptr %18, align 8
  store ptr %19, ptr %8, align 8
  %20 = getelementptr inbounds %"struct.std::_Vector_base.7", ptr %15, i32 0, i32 0
  %21 = getelementptr inbounds %"struct.std::_Vector_base<Eigen::EigenTest *, std::allocator<Eigen::EigenTest *>>::_Vector_impl_data", ptr %20, i32 0, i32 1
  %22 = load ptr, ptr %21, align 8
  store ptr %22, ptr %9, align 8
  %23 = call ptr @_ZNSt6vectorIPN5Eigen9EigenTestESaIS2_EE5beginEv(ptr noundef nonnull align 8 dereferenceable(24) %15) #3
  %24 = getelementptr inbounds %"class.__gnu_cxx::__normal_iterator", ptr %11, i32 0, i32 0
  store ptr %23, ptr %24, align 8
  %25 = call noundef i64 @_ZN9__gnu_cxxmiIPPN5Eigen9EigenTestESt6vectorIS3_SaIS3_EEEENS_17__normal_iteratorIT_T0_E15difference_typeERKSB_SE_(ptr noundef nonnull align 8 dereferenceable(8) %4, ptr noundef nonnull align 8 dereferenceable(8) %11) #3
  store i64 %25, ptr %10, align 8
  %26 = load i64, ptr %7, align 8
  %27 = call noundef ptr @_ZNSt12_Vector_baseIPN5Eigen9EigenTestESaIS2_EE11_M_allocateEm(ptr noundef nonnull align 8 dereferenceable(24) %15, i64 noundef %26)
  store ptr %27, ptr %12, align 8
  %28 = load ptr, ptr %12, align 8
  store ptr %28, ptr %13, align 8
  %29 = getelementptr inbounds %"struct.std::_Vector_base.7", ptr %15, i32 0, i32 0
  %30 = load ptr, ptr %12, align 8
  %31 = load i64, ptr %10, align 8
  %32 = getelementptr inbounds ptr, ptr %30, i64 %31
  %33 = load ptr, ptr %6, align 8
  call void @_ZNSt16allocator_traitsISaIPN5Eigen9EigenTestEEE9constructIS2_JS2_EEEvRS3_PT_DpOT0_(ptr noundef nonnull align 1 dereferenceable(1) %29, ptr noundef %32, ptr noundef nonnull align 8 dereferenceable(8) %33) #3
  store ptr null, ptr %13, align 8
  %34 = load ptr, ptr %8, align 8
  %35 = call noundef nonnull align 8 dereferenceable(8) ptr @_ZNK9__gnu_cxx17__normal_iteratorIPPN5Eigen9EigenTestESt6vectorIS3_SaIS3_EEE4baseEv(ptr noundef nonnull align 8 dereferenceable(8) %4) #3
  %36 = load ptr, ptr %35, align 8
  %37 = load ptr, ptr %12, align 8
  %38 = call noundef nonnull align 1 dereferenceable(1) ptr @_ZNSt12_Vector_baseIPN5Eigen9EigenTestESaIS2_EE19_M_get_Tp_allocatorEv(ptr noundef nonnull align 8 dereferenceable(24) %15) #3
  %39 = call noundef ptr @_ZNSt6vectorIPN5Eigen9EigenTestESaIS2_EE11_S_relocateEPS2_S5_S5_RS3_(ptr noundef %34, ptr noundef %36, ptr noundef %37, ptr noundef nonnull align 1 dereferenceable(1) %38) #3
  store ptr %39, ptr %13, align 8
  %40 = load ptr, ptr %13, align 8
  %41 = getelementptr inbounds ptr, ptr %40, i32 1
  store ptr %41, ptr %13, align 8
  %42 = call noundef nonnull align 8 dereferenceable(8) ptr @_ZNK9__gnu_cxx17__normal_iteratorIPPN5Eigen9EigenTestESt6vectorIS3_SaIS3_EEE4baseEv(ptr noundef nonnull align 8 dereferenceable(8) %4) #3
  %43 = load ptr, ptr %42, align 8
  %44 = load ptr, ptr %9, align 8
  %45 = load ptr, ptr %13, align 8
  %46 = call noundef nonnull align 1 dereferenceable(1) ptr @_ZNSt12_Vector_baseIPN5Eigen9EigenTestESaIS2_EE19_M_get_Tp_allocatorEv(ptr noundef nonnull align 8 dereferenceable(24) %15) #3
  %47 = call noundef ptr @_ZNSt6vectorIPN5Eigen9EigenTestESaIS2_EE11_S_relocateEPS2_S5_S5_RS3_(ptr noundef %43, ptr noundef %44, ptr noundef %45, ptr noundef nonnull align 1 dereferenceable(1) %46) #3
  store ptr %47, ptr %13, align 8
  %48 = load ptr, ptr %8, align 8
  %49 = getelementptr inbounds %"struct.std::_Vector_base.7", ptr %15, i32 0, i32 0
  %50 = getelementptr inbounds %"struct.std::_Vector_base<Eigen::EigenTest *, std::allocator<Eigen::EigenTest *>>::_Vector_impl_data", ptr %49, i32 0, i32 2
  %51 = load ptr, ptr %50, align 8
  %52 = load ptr, ptr %8, align 8
  %53 = ptrtoint ptr %51 to i64
  %54 = ptrtoint ptr %52 to i64
  %55 = sub i64 %53, %54
  %56 = sdiv exact i64 %55, 8
  call void @_ZNSt12_Vector_baseIPN5Eigen9EigenTestESaIS2_EE13_M_deallocateEPS2_m(ptr noundef nonnull align 8 dereferenceable(24) %15, ptr noundef %48, i64 noundef %56)
  %57 = load ptr, ptr %12, align 8
  %58 = getelementptr inbounds %"struct.std::_Vector_base.7", ptr %15, i32 0, i32 0
  %59 = getelementptr inbounds %"struct.std::_Vector_base<Eigen::EigenTest *, std::allocator<Eigen::EigenTest *>>::_Vector_impl_data", ptr %58, i32 0, i32 0
  store ptr %57, ptr %59, align 8
  %60 = load ptr, ptr %13, align 8
  %61 = getelementptr inbounds %"struct.std::_Vector_base.7", ptr %15, i32 0, i32 0
  %62 = getelementptr inbounds %"struct.std::_Vector_base<Eigen::EigenTest *, std::allocator<Eigen::EigenTest *>>::_Vector_impl_data", ptr %61, i32 0, i32 1
  store ptr %60, ptr %62, align 8
  %63 = load ptr, ptr %12, align 8
  %64 = load i64, ptr %7, align 8
  %65 = getelementptr inbounds ptr, ptr %63, i64 %64
  %66 = getelementptr inbounds %"struct.std::_Vector_base.7", ptr %15, i32 0, i32 0
  %67 = getelementptr inbounds %"struct.std::_Vector_base<Eigen::EigenTest *, std::allocator<Eigen::EigenTest *>>::_Vector_impl_data", ptr %66, i32 0, i32 2
  store ptr %65, ptr %67, align 8
  ret void
}

; Function Attrs: mustprogress noinline nounwind optnone uwtable
define linkonce_odr dso_local ptr @_ZNSt6vectorIPN5Eigen9EigenTestESaIS2_EE3endEv(ptr noundef nonnull align 8 dereferenceable(24) %0) #8 comdat align 2 !prof !35 {
  %2 = alloca %"class.__gnu_cxx::__normal_iterator", align 8
  %3 = alloca ptr, align 8
  store ptr %0, ptr %3, align 8
  %4 = load ptr, ptr %3, align 8
  %5 = getelementptr inbounds %"struct.std::_Vector_base.7", ptr %4, i32 0, i32 0
  %6 = getelementptr inbounds %"struct.std::_Vector_base<Eigen::EigenTest *, std::allocator<Eigen::EigenTest *>>::_Vector_impl_data", ptr %5, i32 0, i32 1
  call void @_ZN9__gnu_cxx17__normal_iteratorIPPN5Eigen9EigenTestESt6vectorIS3_SaIS3_EEEC2ERKS4_(ptr noundef nonnull align 8 dereferenceable(8) %2, ptr noundef nonnull align 8 dereferenceable(8) %6) #3
  %7 = getelementptr inbounds %"class.__gnu_cxx::__normal_iterator", ptr %2, i32 0, i32 0
  %8 = load ptr, ptr %7, align 8
  ret ptr %8
}

; Function Attrs: mustprogress noinline nounwind optnone uwtable
define linkonce_odr dso_local void @_ZNSt15__new_allocatorIPN5Eigen9EigenTestEE9constructIS2_JS2_EEEvPT_DpOT0_(ptr noundef nonnull align 1 dereferenceable(1) %0, ptr noundef %1, ptr noundef nonnull align 8 dereferenceable(8) %2) #8 comdat align 2 !prof !35 {
  %4 = alloca ptr, align 8
  %5 = alloca ptr, align 8
  %6 = alloca ptr, align 8
  store ptr %0, ptr %4, align 8
  store ptr %1, ptr %5, align 8
  store ptr %2, ptr %6, align 8
  %7 = load ptr, ptr %4, align 8
  %8 = load ptr, ptr %5, align 8
  %9 = load ptr, ptr %6, align 8
  %10 = load ptr, ptr %9, align 8
  store ptr %10, ptr %8, align 8
  ret void
}

; Function Attrs: mustprogress noinline optnone uwtable
define linkonce_odr dso_local noundef i64 @_ZNKSt6vectorIPN5Eigen9EigenTestESaIS2_EE12_M_check_lenEmPKc(ptr noundef nonnull align 8 dereferenceable(24) %0, i64 noundef %1, ptr noundef %2) #5 comdat align 2 !prof !35 {
  %4 = alloca ptr, align 8
  %5 = alloca i64, align 8
  %6 = alloca ptr, align 8
  %7 = alloca i64, align 8
  %8 = alloca i64, align 8
  store ptr %0, ptr %4, align 8
  store i64 %1, ptr %5, align 8
  store ptr %2, ptr %6, align 8
  %9 = load ptr, ptr %4, align 8
  %10 = call noundef i64 @_ZNKSt6vectorIPN5Eigen9EigenTestESaIS2_EE8max_sizeEv(ptr noundef nonnull align 8 dereferenceable(24) %9) #3
  %11 = call noundef i64 @_ZNKSt6vectorIPN5Eigen9EigenTestESaIS2_EE4sizeEv(ptr noundef nonnull align 8 dereferenceable(24) %9) #3
  %12 = sub i64 %10, %11
  %13 = load i64, ptr %5, align 8
  %14 = icmp ult i64 %12, %13
  br i1 %14, label %15, label %17, !prof !37

15:                                               ; preds = %3
  %16 = load ptr, ptr %6, align 8
  call void @_ZSt20__throw_length_errorPKc(ptr noundef %16) #23
  unreachable

17:                                               ; preds = %3
  %18 = call noundef i64 @_ZNKSt6vectorIPN5Eigen9EigenTestESaIS2_EE4sizeEv(ptr noundef nonnull align 8 dereferenceable(24) %9) #3
  %19 = call noundef i64 @_ZNKSt6vectorIPN5Eigen9EigenTestESaIS2_EE4sizeEv(ptr noundef nonnull align 8 dereferenceable(24) %9) #3
  store i64 %19, ptr %8, align 8
  %20 = call noundef nonnull align 8 dereferenceable(8) ptr @_ZSt3maxImERKT_S2_S2_(ptr noundef nonnull align 8 dereferenceable(8) %8, ptr noundef nonnull align 8 dereferenceable(8) %5)
  %21 = load i64, ptr %20, align 8
  %22 = add i64 %18, %21
  store i64 %22, ptr %7, align 8
  %23 = load i64, ptr %7, align 8
  %24 = call noundef i64 @_ZNKSt6vectorIPN5Eigen9EigenTestESaIS2_EE4sizeEv(ptr noundef nonnull align 8 dereferenceable(24) %9) #3
  %25 = icmp ult i64 %23, %24
  br i1 %25, label %30, label %26, !prof !37

26:                                               ; preds = %17
  %27 = load i64, ptr %7, align 8
  %28 = call noundef i64 @_ZNKSt6vectorIPN5Eigen9EigenTestESaIS2_EE8max_sizeEv(ptr noundef nonnull align 8 dereferenceable(24) %9) #3
  %29 = icmp ugt i64 %27, %28
  br i1 %29, label %30, label %32, !prof !37

30:                                               ; preds = %26, %17
  %31 = call noundef i64 @_ZNKSt6vectorIPN5Eigen9EigenTestESaIS2_EE8max_sizeEv(ptr noundef nonnull align 8 dereferenceable(24) %9) #3
  br label %34

32:                                               ; preds = %26
  %33 = load i64, ptr %7, align 8
  br label %34

34:                                               ; preds = %32, %30
  %35 = phi i64 [ %31, %30 ], [ %33, %32 ]
  ret i64 %35
}

; Function Attrs: mustprogress noinline nounwind optnone uwtable
define linkonce_odr dso_local noundef i64 @_ZN9__gnu_cxxmiIPPN5Eigen9EigenTestESt6vectorIS3_SaIS3_EEEENS_17__normal_iteratorIT_T0_E15difference_typeERKSB_SE_(ptr noundef nonnull align 8 dereferenceable(8) %0, ptr noundef nonnull align 8 dereferenceable(8) %1) #8 comdat !prof !35 {
  %3 = alloca ptr, align 8
  %4 = alloca ptr, align 8
  store ptr %0, ptr %3, align 8
  store ptr %1, ptr %4, align 8
  %5 = load ptr, ptr %3, align 8
  %6 = call noundef nonnull align 8 dereferenceable(8) ptr @_ZNK9__gnu_cxx17__normal_iteratorIPPN5Eigen9EigenTestESt6vectorIS3_SaIS3_EEE4baseEv(ptr noundef nonnull align 8 dereferenceable(8) %5) #3
  %7 = load ptr, ptr %6, align 8
  %8 = load ptr, ptr %4, align 8
  %9 = call noundef nonnull align 8 dereferenceable(8) ptr @_ZNK9__gnu_cxx17__normal_iteratorIPPN5Eigen9EigenTestESt6vectorIS3_SaIS3_EEE4baseEv(ptr noundef nonnull align 8 dereferenceable(8) %8) #3
  %10 = load ptr, ptr %9, align 8
  %11 = ptrtoint ptr %7 to i64
  %12 = ptrtoint ptr %10 to i64
  %13 = sub i64 %11, %12
  %14 = sdiv exact i64 %13, 8
  ret i64 %14
}

; Function Attrs: mustprogress noinline nounwind optnone uwtable
define linkonce_odr dso_local ptr @_ZNSt6vectorIPN5Eigen9EigenTestESaIS2_EE5beginEv(ptr noundef nonnull align 8 dereferenceable(24) %0) #8 comdat align 2 !prof !35 {
  %2 = alloca %"class.__gnu_cxx::__normal_iterator", align 8
  %3 = alloca ptr, align 8
  store ptr %0, ptr %3, align 8
  %4 = load ptr, ptr %3, align 8
  %5 = getelementptr inbounds %"struct.std::_Vector_base.7", ptr %4, i32 0, i32 0
  %6 = getelementptr inbounds %"struct.std::_Vector_base<Eigen::EigenTest *, std::allocator<Eigen::EigenTest *>>::_Vector_impl_data", ptr %5, i32 0, i32 0
  call void @_ZN9__gnu_cxx17__normal_iteratorIPPN5Eigen9EigenTestESt6vectorIS3_SaIS3_EEEC2ERKS4_(ptr noundef nonnull align 8 dereferenceable(8) %2, ptr noundef nonnull align 8 dereferenceable(8) %6) #3
  %7 = getelementptr inbounds %"class.__gnu_cxx::__normal_iterator", ptr %2, i32 0, i32 0
  %8 = load ptr, ptr %7, align 8
  ret ptr %8
}

; Function Attrs: mustprogress noinline optnone uwtable
define linkonce_odr dso_local noundef ptr @_ZNSt12_Vector_baseIPN5Eigen9EigenTestESaIS2_EE11_M_allocateEm(ptr noundef nonnull align 8 dereferenceable(24) %0, i64 noundef %1) #5 comdat align 2 !prof !35 {
  %3 = alloca ptr, align 8
  %4 = alloca i64, align 8
  store ptr %0, ptr %3, align 8
  store i64 %1, ptr %4, align 8
  %5 = load ptr, ptr %3, align 8
  %6 = load i64, ptr %4, align 8
  %7 = icmp ne i64 %6, 0
  br i1 %7, label %8, label %12, !prof !84

8:                                                ; preds = %2
  %9 = getelementptr inbounds %"struct.std::_Vector_base.7", ptr %5, i32 0, i32 0
  %10 = load i64, ptr %4, align 8
  %11 = call noundef ptr @_ZNSt16allocator_traitsISaIPN5Eigen9EigenTestEEE8allocateERS3_m(ptr noundef nonnull align 1 dereferenceable(1) %9, i64 noundef %10)
  br label %13

12:                                               ; preds = %2
  br label %13

13:                                               ; preds = %12, %8
  %14 = phi ptr [ %11, %8 ], [ null, %12 ]
  ret ptr %14
}

; Function Attrs: mustprogress noinline nounwind optnone uwtable
define linkonce_odr dso_local noundef ptr @_ZNSt6vectorIPN5Eigen9EigenTestESaIS2_EE11_S_relocateEPS2_S5_S5_RS3_(ptr noundef %0, ptr noundef %1, ptr noundef %2, ptr noundef nonnull align 1 dereferenceable(1) %3) #8 comdat align 2 !prof !52 {
  %5 = alloca ptr, align 8
  %6 = alloca ptr, align 8
  %7 = alloca ptr, align 8
  %8 = alloca ptr, align 8
  %9 = alloca %"struct.std::integral_constant", align 1
  store ptr %0, ptr %5, align 8
  store ptr %1, ptr %6, align 8
  store ptr %2, ptr %7, align 8
  store ptr %3, ptr %8, align 8
  %10 = load ptr, ptr %5, align 8
  %11 = load ptr, ptr %6, align 8
  %12 = load ptr, ptr %7, align 8
  %13 = load ptr, ptr %8, align 8
  %14 = call noundef ptr @_ZNSt6vectorIPN5Eigen9EigenTestESaIS2_EE14_S_do_relocateEPS2_S5_S5_RS3_St17integral_constantIbLb1EE(ptr noundef %10, ptr noundef %11, ptr noundef %12, ptr noundef nonnull align 1 dereferenceable(1) %13) #3
  ret ptr %14
}

; Function Attrs: mustprogress noinline nounwind optnone uwtable
define linkonce_odr dso_local noundef nonnull align 8 dereferenceable(8) ptr @_ZNK9__gnu_cxx17__normal_iteratorIPPN5Eigen9EigenTestESt6vectorIS3_SaIS3_EEE4baseEv(ptr noundef nonnull align 8 dereferenceable(8) %0) #8 comdat align 2 !prof !46 {
  %2 = alloca ptr, align 8
  store ptr %0, ptr %2, align 8
  %3 = load ptr, ptr %2, align 8
  %4 = getelementptr inbounds %"class.__gnu_cxx::__normal_iterator", ptr %3, i32 0, i32 0
  ret ptr %4
}

; Function Attrs: mustprogress noinline nounwind optnone uwtable
define linkonce_odr dso_local noundef nonnull align 1 dereferenceable(1) ptr @_ZNSt12_Vector_baseIPN5Eigen9EigenTestESaIS2_EE19_M_get_Tp_allocatorEv(ptr noundef nonnull align 8 dereferenceable(24) %0) #8 comdat align 2 !prof !52 {
  %2 = alloca ptr, align 8
  store ptr %0, ptr %2, align 8
  %3 = load ptr, ptr %2, align 8
  %4 = getelementptr inbounds %"struct.std::_Vector_base.7", ptr %3, i32 0, i32 0
  ret ptr %4
}

; Function Attrs: mustprogress noinline optnone uwtable
define linkonce_odr dso_local void @_ZNSt12_Vector_baseIPN5Eigen9EigenTestESaIS2_EE13_M_deallocateEPS2_m(ptr noundef nonnull align 8 dereferenceable(24) %0, ptr noundef %1, i64 noundef %2) #5 comdat align 2 !prof !35 {
  %4 = alloca ptr, align 8
  %5 = alloca ptr, align 8
  %6 = alloca i64, align 8
  store ptr %0, ptr %4, align 8
  store ptr %1, ptr %5, align 8
  store i64 %2, ptr %6, align 8
  %7 = load ptr, ptr %4, align 8
  %8 = load ptr, ptr %5, align 8
  %9 = icmp ne ptr %8, null
  br i1 %9, label %10, label %14, !prof !37

10:                                               ; preds = %3
  %11 = getelementptr inbounds %"struct.std::_Vector_base.7", ptr %7, i32 0, i32 0
  %12 = load ptr, ptr %5, align 8
  %13 = load i64, ptr %6, align 8
  call void @_ZNSt16allocator_traitsISaIPN5Eigen9EigenTestEEE10deallocateERS3_PS2_m(ptr noundef nonnull align 1 dereferenceable(1) %11, ptr noundef %12, i64 noundef %13)
  br label %14

14:                                               ; preds = %10, %3
  ret void
}

; Function Attrs: mustprogress noinline nounwind optnone uwtable
define linkonce_odr dso_local noundef i64 @_ZNKSt6vectorIPN5Eigen9EigenTestESaIS2_EE8max_sizeEv(ptr noundef nonnull align 8 dereferenceable(24) %0) #8 comdat align 2 !prof !52 {
  %2 = alloca ptr, align 8
  store ptr %0, ptr %2, align 8
  %3 = load ptr, ptr %2, align 8
  %4 = call noundef nonnull align 1 dereferenceable(1) ptr @_ZNKSt12_Vector_baseIPN5Eigen9EigenTestESaIS2_EE19_M_get_Tp_allocatorEv(ptr noundef nonnull align 8 dereferenceable(24) %3) #3
  %5 = call noundef i64 @_ZNSt6vectorIPN5Eigen9EigenTestESaIS2_EE11_S_max_sizeERKS3_(ptr noundef nonnull align 1 dereferenceable(1) %4) #3
  ret i64 %5
}

; Function Attrs: noreturn
declare void @_ZSt20__throw_length_errorPKc(ptr noundef) #14

; Function Attrs: mustprogress noinline nounwind optnone uwtable
define linkonce_odr dso_local noundef nonnull align 8 dereferenceable(8) ptr @_ZSt3maxImERKT_S2_S2_(ptr noundef nonnull align 8 dereferenceable(8) %0, ptr noundef nonnull align 8 dereferenceable(8) %1) #8 comdat !prof !46 {
  %3 = alloca ptr, align 8
  %4 = alloca ptr, align 8
  %5 = alloca ptr, align 8
  store ptr %0, ptr %4, align 8
  store ptr %1, ptr %5, align 8
  %6 = load ptr, ptr %4, align 8
  %7 = load i64, ptr %6, align 8
  %8 = load ptr, ptr %5, align 8
  %9 = load i64, ptr %8, align 8
  %10 = icmp ult i64 %7, %9
  br i1 %10, label %11, label %13, !prof !85

11:                                               ; preds = %2
  %12 = load ptr, ptr %5, align 8
  store ptr %12, ptr %3, align 8
  br label %15

13:                                               ; preds = %2
  %14 = load ptr, ptr %4, align 8
  store ptr %14, ptr %3, align 8
  br label %15

15:                                               ; preds = %13, %11
  %16 = load ptr, ptr %3, align 8
  ret ptr %16
}

; Function Attrs: mustprogress noinline nounwind optnone uwtable
define linkonce_odr dso_local noundef i64 @_ZNSt6vectorIPN5Eigen9EigenTestESaIS2_EE11_S_max_sizeERKS3_(ptr noundef nonnull align 1 dereferenceable(1) %0) #8 comdat align 2 personality ptr @__gxx_personality_v0 !prof !52 {
  %2 = alloca ptr, align 8
  %3 = alloca i64, align 8
  %4 = alloca i64, align 8
  store ptr %0, ptr %2, align 8
  store i64 1152921504606846975, ptr %3, align 8
  %5 = load ptr, ptr %2, align 8
  %6 = call noundef i64 @_ZNSt16allocator_traitsISaIPN5Eigen9EigenTestEEE8max_sizeERKS3_(ptr noundef nonnull align 1 dereferenceable(1) %5) #3
  store i64 %6, ptr %4, align 8
  %7 = invoke noundef nonnull align 8 dereferenceable(8) ptr @_ZSt3minImERKT_S2_S2_(ptr noundef nonnull align 8 dereferenceable(8) %3, ptr noundef nonnull align 8 dereferenceable(8) %4)
          to label %8 unwind label %10

8:                                                ; preds = %1
  %9 = load i64, ptr %7, align 8
  ret i64 %9

10:                                               ; preds = %1
  %11 = landingpad { ptr, i32 }
          catch ptr null
  %12 = extractvalue { ptr, i32 } %11, 0
  call void @__clang_call_terminate(ptr %12) #20
  unreachable
}

; Function Attrs: mustprogress noinline nounwind optnone uwtable
define linkonce_odr dso_local noundef nonnull align 1 dereferenceable(1) ptr @_ZNKSt12_Vector_baseIPN5Eigen9EigenTestESaIS2_EE19_M_get_Tp_allocatorEv(ptr noundef nonnull align 8 dereferenceable(24) %0) #8 comdat align 2 !prof !52 {
  %2 = alloca ptr, align 8
  store ptr %0, ptr %2, align 8
  %3 = load ptr, ptr %2, align 8
  %4 = getelementptr inbounds %"struct.std::_Vector_base.7", ptr %3, i32 0, i32 0
  ret ptr %4
}

; Function Attrs: mustprogress noinline nounwind optnone uwtable
define linkonce_odr dso_local noundef i64 @_ZNSt16allocator_traitsISaIPN5Eigen9EigenTestEEE8max_sizeERKS3_(ptr noundef nonnull align 1 dereferenceable(1) %0) #8 comdat align 2 !prof !52 {
  %2 = alloca ptr, align 8
  store ptr %0, ptr %2, align 8
  %3 = load ptr, ptr %2, align 8
  %4 = call noundef i64 @_ZNKSt15__new_allocatorIPN5Eigen9EigenTestEE8max_sizeEv(ptr noundef nonnull align 1 dereferenceable(1) %3) #3
  ret i64 %4
}

; Function Attrs: mustprogress noinline nounwind optnone uwtable
define linkonce_odr dso_local noundef nonnull align 8 dereferenceable(8) ptr @_ZSt3minImERKT_S2_S2_(ptr noundef nonnull align 8 dereferenceable(8) %0, ptr noundef nonnull align 8 dereferenceable(8) %1) #8 comdat !prof !86 {
  %3 = alloca ptr, align 8
  %4 = alloca ptr, align 8
  %5 = alloca ptr, align 8
  store ptr %0, ptr %4, align 8
  store ptr %1, ptr %5, align 8
  %6 = load ptr, ptr %5, align 8
  %7 = load i64, ptr %6, align 8
  %8 = load ptr, ptr %4, align 8
  %9 = load i64, ptr %8, align 8
  %10 = icmp ult i64 %7, %9
  br i1 %10, label %11, label %13, !prof !87

11:                                               ; preds = %2
  %12 = load ptr, ptr %5, align 8
  store ptr %12, ptr %3, align 8
  br label %15

13:                                               ; preds = %2
  %14 = load ptr, ptr %4, align 8
  store ptr %14, ptr %3, align 8
  br label %15

15:                                               ; preds = %13, %11
  %16 = load ptr, ptr %3, align 8
  ret ptr %16
}

; Function Attrs: noinline noreturn nounwind
define linkonce_odr hidden void @__clang_call_terminate(ptr %0) #15 comdat {
  %2 = call ptr @__cxa_begin_catch(ptr %0) #3
  call void @_ZSt9terminatev() #20
  unreachable
}

declare ptr @__cxa_begin_catch(ptr)

declare void @_ZSt9terminatev()

; Function Attrs: mustprogress noinline nounwind optnone uwtable
define linkonce_odr dso_local noundef i64 @_ZNKSt15__new_allocatorIPN5Eigen9EigenTestEE8max_sizeEv(ptr noundef nonnull align 1 dereferenceable(1) %0) #8 comdat align 2 !prof !52 {
  %2 = alloca ptr, align 8
  store ptr %0, ptr %2, align 8
  %3 = load ptr, ptr %2, align 8
  %4 = call noundef i64 @_ZNKSt15__new_allocatorIPN5Eigen9EigenTestEE11_M_max_sizeEv(ptr noundef nonnull align 1 dereferenceable(1) %3) #3
  ret i64 %4
}

; Function Attrs: mustprogress noinline nounwind optnone uwtable
define linkonce_odr dso_local noundef i64 @_ZNKSt15__new_allocatorIPN5Eigen9EigenTestEE11_M_max_sizeEv(ptr noundef nonnull align 1 dereferenceable(1) %0) #8 comdat align 2 !prof !88 {
  %2 = alloca ptr, align 8
  store ptr %0, ptr %2, align 8
  %3 = load ptr, ptr %2, align 8
  ret i64 1152921504606846975
}

; Function Attrs: noinline nounwind optnone uwtable
define linkonce_odr dso_local void @_ZN9__gnu_cxx17__normal_iteratorIPPN5Eigen9EigenTestESt6vectorIS3_SaIS3_EEEC2ERKS4_(ptr noundef nonnull align 8 dereferenceable(8) %0, ptr noundef nonnull align 8 dereferenceable(8) %1) unnamed_addr #4 comdat align 2 !prof !52 {
  %3 = alloca ptr, align 8
  %4 = alloca ptr, align 8
  store ptr %0, ptr %3, align 8
  store ptr %1, ptr %4, align 8
  %5 = load ptr, ptr %3, align 8
  %6 = getelementptr inbounds %"class.__gnu_cxx::__normal_iterator", ptr %5, i32 0, i32 0
  %7 = load ptr, ptr %4, align 8
  %8 = load ptr, ptr %7, align 8
  store ptr %8, ptr %6, align 8
  ret void
}

; Function Attrs: mustprogress noinline optnone uwtable
define linkonce_odr dso_local noundef ptr @_ZNSt16allocator_traitsISaIPN5Eigen9EigenTestEEE8allocateERS3_m(ptr noundef nonnull align 1 dereferenceable(1) %0, i64 noundef %1) #5 comdat align 2 !prof !35 {
  %3 = alloca ptr, align 8
  %4 = alloca i64, align 8
  store ptr %0, ptr %3, align 8
  store i64 %1, ptr %4, align 8
  %5 = load ptr, ptr %3, align 8
  %6 = load i64, ptr %4, align 8
  %7 = call noundef ptr @_ZNSt15__new_allocatorIPN5Eigen9EigenTestEE8allocateEmPKv(ptr noundef nonnull align 1 dereferenceable(1) %5, i64 noundef %6, ptr noundef null)
  ret ptr %7
}

; Function Attrs: mustprogress noinline optnone uwtable
define linkonce_odr dso_local noundef ptr @_ZNSt15__new_allocatorIPN5Eigen9EigenTestEE8allocateEmPKv(ptr noundef nonnull align 1 dereferenceable(1) %0, i64 noundef %1, ptr noundef %2) #5 comdat align 2 !prof !35 {
  %4 = alloca ptr, align 8
  %5 = alloca i64, align 8
  %6 = alloca ptr, align 8
  store ptr %0, ptr %4, align 8
  store i64 %1, ptr %5, align 8
  store ptr %2, ptr %6, align 8
  %7 = load ptr, ptr %4, align 8
  %8 = load i64, ptr %5, align 8
  %9 = call noundef i64 @_ZNKSt15__new_allocatorIPN5Eigen9EigenTestEE11_M_max_sizeEv(ptr noundef nonnull align 1 dereferenceable(1) %7) #3
  %10 = icmp ugt i64 %8, %9
  br i1 %10, label %11, label %16, !prof !37

11:                                               ; preds = %3
  %12 = load i64, ptr %5, align 8
  %13 = icmp ugt i64 %12, 2305843009213693951
  br i1 %13, label %14, label %15

14:                                               ; preds = %11
  call void @_ZSt28__throw_bad_array_new_lengthv() #23
  unreachable

15:                                               ; preds = %11
  call void @_ZSt17__throw_bad_allocv() #23
  unreachable

16:                                               ; preds = %3
  %17 = load i64, ptr %5, align 8
  %18 = mul i64 %17, 8
  %19 = call noalias noundef nonnull ptr @_Znwm(i64 noundef %18) #22
  ret ptr %19
}

; Function Attrs: noreturn
declare void @_ZSt28__throw_bad_array_new_lengthv() #14

; Function Attrs: noreturn
declare void @_ZSt17__throw_bad_allocv() #14

; Function Attrs: mustprogress noinline nounwind optnone uwtable
define linkonce_odr dso_local noundef ptr @_ZNSt6vectorIPN5Eigen9EigenTestESaIS2_EE14_S_do_relocateEPS2_S5_S5_RS3_St17integral_constantIbLb1EE(ptr noundef %0, ptr noundef %1, ptr noundef %2, ptr noundef nonnull align 1 dereferenceable(1) %3) #8 comdat align 2 !prof !52 {
  %5 = alloca %"struct.std::integral_constant", align 1
  %6 = alloca ptr, align 8
  %7 = alloca ptr, align 8
  %8 = alloca ptr, align 8
  %9 = alloca ptr, align 8
  store ptr %0, ptr %6, align 8
  store ptr %1, ptr %7, align 8
  store ptr %2, ptr %8, align 8
  store ptr %3, ptr %9, align 8
  %10 = load ptr, ptr %6, align 8
  %11 = load ptr, ptr %7, align 8
  %12 = load ptr, ptr %8, align 8
  %13 = load ptr, ptr %9, align 8
  %14 = call noundef ptr @_ZSt12__relocate_aIPPN5Eigen9EigenTestES3_SaIS2_EET0_T_S6_S5_RT1_(ptr noundef %10, ptr noundef %11, ptr noundef %12, ptr noundef nonnull align 1 dereferenceable(1) %13) #3
  ret ptr %14
}

; Function Attrs: mustprogress noinline nounwind optnone uwtable
define linkonce_odr dso_local noundef ptr @_ZSt12__relocate_aIPPN5Eigen9EigenTestES3_SaIS2_EET0_T_S6_S5_RT1_(ptr noundef %0, ptr noundef %1, ptr noundef %2, ptr noundef nonnull align 1 dereferenceable(1) %3) #8 comdat !prof !52 {
  %5 = alloca ptr, align 8
  %6 = alloca ptr, align 8
  %7 = alloca ptr, align 8
  %8 = alloca ptr, align 8
  store ptr %0, ptr %5, align 8
  store ptr %1, ptr %6, align 8
  store ptr %2, ptr %7, align 8
  store ptr %3, ptr %8, align 8
  %9 = load ptr, ptr %5, align 8
  %10 = call noundef ptr @_ZSt12__niter_baseIPPN5Eigen9EigenTestEET_S4_(ptr noundef %9) #3
  %11 = load ptr, ptr %6, align 8
  %12 = call noundef ptr @_ZSt12__niter_baseIPPN5Eigen9EigenTestEET_S4_(ptr noundef %11) #3
  %13 = load ptr, ptr %7, align 8
  %14 = call noundef ptr @_ZSt12__niter_baseIPPN5Eigen9EigenTestEET_S4_(ptr noundef %13) #3
  %15 = load ptr, ptr %8, align 8
  %16 = call noundef ptr @_ZSt14__relocate_a_1IPN5Eigen9EigenTestES2_ENSt9enable_ifIXsr3std24__is_bitwise_relocatableIT_EE5valueEPS4_E4typeES5_S5_S5_RSaIT0_E(ptr noundef %10, ptr noundef %12, ptr noundef %14, ptr noundef nonnull align 1 dereferenceable(1) %15) #3
  ret ptr %16
}

; Function Attrs: mustprogress noinline nounwind optnone uwtable
define linkonce_odr dso_local noundef ptr @_ZSt14__relocate_a_1IPN5Eigen9EigenTestES2_ENSt9enable_ifIXsr3std24__is_bitwise_relocatableIT_EE5valueEPS4_E4typeES5_S5_S5_RSaIT0_E(ptr noundef %0, ptr noundef %1, ptr noundef %2, ptr noundef nonnull align 1 dereferenceable(1) %3) #8 comdat !prof !52 {
  %5 = alloca ptr, align 8
  %6 = alloca ptr, align 8
  %7 = alloca ptr, align 8
  %8 = alloca ptr, align 8
  %9 = alloca i64, align 8
  store ptr %0, ptr %5, align 8
  store ptr %1, ptr %6, align 8
  store ptr %2, ptr %7, align 8
  store ptr %3, ptr %8, align 8
  %10 = load ptr, ptr %6, align 8
  %11 = load ptr, ptr %5, align 8
  %12 = ptrtoint ptr %10 to i64
  %13 = ptrtoint ptr %11 to i64
  %14 = sub i64 %12, %13
  %15 = sdiv exact i64 %14, 8
  store i64 %15, ptr %9, align 8
  %16 = load i64, ptr %9, align 8
  %17 = icmp sgt i64 %16, 0
  br i1 %17, label %18, label %23, !prof !89

18:                                               ; preds = %4
  %19 = load ptr, ptr %7, align 8
  %20 = load ptr, ptr %5, align 8
  %21 = load i64, ptr %9, align 8
  %22 = mul i64 %21, 8
  call void @llvm.memmove.p0.p0.i64(ptr align 8 %19, ptr align 8 %20, i64 %22, i1 false)
  br label %23

23:                                               ; preds = %18, %4
  %24 = load ptr, ptr %7, align 8
  %25 = load i64, ptr %9, align 8
  %26 = getelementptr inbounds ptr, ptr %24, i64 %25
  ret ptr %26
}

; Function Attrs: mustprogress noinline nounwind optnone uwtable
define linkonce_odr dso_local noundef ptr @_ZSt12__niter_baseIPPN5Eigen9EigenTestEET_S4_(ptr noundef %0) #8 comdat !prof !42 {
  %2 = alloca ptr, align 8
  store ptr %0, ptr %2, align 8
  %3 = load ptr, ptr %2, align 8
  ret ptr %3
}

; Function Attrs: argmemonly nocallback nofree nounwind willreturn
declare void @llvm.memmove.p0.p0.i64(ptr nocapture writeonly, ptr nocapture readonly, i64, i1 immarg) #16

; Function Attrs: mustprogress noinline optnone uwtable
define linkonce_odr dso_local void @_ZNSt16allocator_traitsISaIPN5Eigen9EigenTestEEE10deallocateERS3_PS2_m(ptr noundef nonnull align 1 dereferenceable(1) %0, ptr noundef %1, i64 noundef %2) #5 comdat align 2 !prof !36 {
  %4 = alloca ptr, align 8
  %5 = alloca ptr, align 8
  %6 = alloca i64, align 8
  store ptr %0, ptr %4, align 8
  store ptr %1, ptr %5, align 8
  store i64 %2, ptr %6, align 8
  %7 = load ptr, ptr %4, align 8
  %8 = load ptr, ptr %5, align 8
  %9 = load i64, ptr %6, align 8
  call void @_ZNSt15__new_allocatorIPN5Eigen9EigenTestEE10deallocateEPS2_m(ptr noundef nonnull align 1 dereferenceable(1) %7, ptr noundef %8, i64 noundef %9)
  ret void
}

; Function Attrs: mustprogress noinline nounwind optnone uwtable
define linkonce_odr dso_local void @_ZNSt15__new_allocatorIPN5Eigen9EigenTestEE10deallocateEPS2_m(ptr noundef nonnull align 1 dereferenceable(1) %0, ptr noundef %1, i64 noundef %2) #8 comdat align 2 !prof !36 {
  %4 = alloca ptr, align 8
  %5 = alloca ptr, align 8
  %6 = alloca i64, align 8
  store ptr %0, ptr %4, align 8
  store ptr %1, ptr %5, align 8
  store i64 %2, ptr %6, align 8
  %7 = load ptr, ptr %4, align 8
  %8 = load ptr, ptr %5, align 8
  call void @_ZdlPv(ptr noundef %8) #24
  ret void
}

; Function Attrs: nobuiltin nounwind
declare void @_ZdlPv(ptr noundef) #17

; Function Attrs: noinline optnone uwtable
define linkonce_odr dso_local void @_ZN5Eigen15ThreadPoolTemplINS_20StlThreadEnvironmentEEC2EiS1_(ptr noundef nonnull align 8 dereferenceable(136) %0, i32 noundef %1) unnamed_addr #9 comdat align 2 !prof !90 {
  %3 = alloca %"struct.Eigen::StlThreadEnvironment", align 1
  %4 = alloca ptr, align 8
  %5 = alloca i32, align 4
  %6 = alloca %"struct.Eigen::StlThreadEnvironment", align 1
  store ptr %0, ptr %4, align 8
  store i32 %1, ptr %5, align 4
  %7 = load ptr, ptr %4, align 8
  %8 = load i32, ptr %5, align 4
  call void @_ZN5Eigen15ThreadPoolTemplINS_20StlThreadEnvironmentEEC2EibS1_(ptr noundef nonnull align 8 dereferenceable(136) %7, i32 noundef %8, i1 noundef zeroext true)
  ret void
}

; Function Attrs: noinline nounwind optnone uwtable
define linkonce_odr dso_local void @_ZN5Eigen15ThreadPoolTemplINS_20StlThreadEnvironmentEED2Ev(ptr noundef nonnull align 8 dereferenceable(136) %0) unnamed_addr #4 comdat align 2 personality ptr @__gxx_personality_v0 !prof !91 {
  %2 = alloca ptr, align 8
  %3 = alloca i64, align 8
  %4 = alloca i64, align 8
  store ptr %0, ptr %2, align 8
  %5 = load ptr, ptr %2, align 8
  store ptr getelementptr inbounds ({ [9 x ptr] }, ptr @_ZTVN5Eigen15ThreadPoolTemplINS_20StlThreadEnvironmentEEE, i32 0, inrange i32 0, i32 2), ptr %5, align 8
  %6 = getelementptr inbounds %"class.Eigen::ThreadPoolTempl", ptr %5, i32 0, i32 11
  %7 = call noundef zeroext i1 @_ZNSt6atomicIbEaSEb(ptr noundef nonnull align 1 dereferenceable(1) %6, i1 noundef zeroext true) #3
  %8 = getelementptr inbounds %"class.Eigen::ThreadPoolTempl", ptr %5, i32 0, i32 12
  %9 = call noundef zeroext i1 @_ZNKSt6atomicIbEcvbEv(ptr noundef nonnull align 1 dereferenceable(1) %8) #3
  br i1 %9, label %13, label %10, !prof !92

10:                                               ; preds = %1
  %11 = getelementptr inbounds %"class.Eigen::ThreadPoolTempl", ptr %5, i32 0, i32 13
  invoke void @_ZN5Eigen10EventCount6NotifyEb(ptr noundef nonnull align 8 dereferenceable(16) %11, i1 noundef zeroext true)
          to label %12 unwind label %50

12:                                               ; preds = %10
  br label %30

13:                                               ; preds = %1
  store i64 0, ptr %3, align 8
  br label %14

14:                                               ; preds = %26, %13
  %15 = load i64, ptr %3, align 8
  %16 = getelementptr inbounds %"class.Eigen::ThreadPoolTempl", ptr %5, i32 0, i32 5
  %17 = call noundef i64 @_ZNK5Eigen13MaxSizeVectorINS_15ThreadPoolTemplINS_20StlThreadEnvironmentEE10ThreadDataEE4sizeEv(ptr noundef nonnull align 8 dereferenceable(24) %16)
  %18 = icmp ult i64 %15, %17
  br i1 %18, label %19, label %29, !prof !73

19:                                               ; preds = %14
  %20 = getelementptr inbounds %"class.Eigen::ThreadPoolTempl", ptr %5, i32 0, i32 5
  %21 = load i64, ptr %3, align 8
  %22 = invoke noundef nonnull align 128 dereferenceable(41344) ptr @_ZN5Eigen13MaxSizeVectorINS_15ThreadPoolTemplINS_20StlThreadEnvironmentEE10ThreadDataEEixEm(ptr noundef nonnull align 8 dereferenceable(24) %20, i64 noundef %21)
          to label %23 unwind label %50

23:                                               ; preds = %19
  %24 = getelementptr inbounds %"struct.Eigen::ThreadPoolTempl<Eigen::StlThreadEnvironment>::ThreadData", ptr %22, i32 0, i32 3
  invoke void @_ZN5Eigen8RunQueueINS_20StlThreadEnvironment4TaskELj1024EE5FlushEv(ptr noundef nonnull align 128 dereferenceable(41216) %24)
          to label %25 unwind label %50

25:                                               ; preds = %23
  br label %26

26:                                               ; preds = %25
  %27 = load i64, ptr %3, align 8
  %28 = add i64 %27, 1
  store i64 %28, ptr %3, align 8
  br label %14, !llvm.loop !93

29:                                               ; preds = %14
  br label %30

30:                                               ; preds = %29, %12
  store i64 0, ptr %4, align 8
  br label %31

31:                                               ; preds = %42, %30
  %32 = load i64, ptr %4, align 8
  %33 = getelementptr inbounds %"class.Eigen::ThreadPoolTempl", ptr %5, i32 0, i32 5
  %34 = call noundef i64 @_ZNK5Eigen13MaxSizeVectorINS_15ThreadPoolTemplINS_20StlThreadEnvironmentEE10ThreadDataEE4sizeEv(ptr noundef nonnull align 8 dereferenceable(24) %33)
  %35 = icmp ult i64 %32, %34
  br i1 %35, label %36, label %45, !prof !94

36:                                               ; preds = %31
  %37 = getelementptr inbounds %"class.Eigen::ThreadPoolTempl", ptr %5, i32 0, i32 5
  %38 = load i64, ptr %4, align 8
  %39 = invoke noundef nonnull align 128 dereferenceable(41344) ptr @_ZN5Eigen13MaxSizeVectorINS_15ThreadPoolTemplINS_20StlThreadEnvironmentEE10ThreadDataEEixEm(ptr noundef nonnull align 8 dereferenceable(24) %37, i64 noundef %38)
          to label %40 unwind label %50

40:                                               ; preds = %36
  %41 = getelementptr inbounds %"struct.Eigen::ThreadPoolTempl<Eigen::StlThreadEnvironment>::ThreadData", ptr %39, i32 0, i32 0
  call void @_ZNSt10unique_ptrIN5Eigen20StlThreadEnvironment9EnvThreadESt14default_deleteIS2_EE5resetEPS2_(ptr noundef nonnull align 8 dereferenceable(8) %41, ptr noundef null) #3
  br label %42

42:                                               ; preds = %40
  %43 = load i64, ptr %4, align 8
  %44 = add i64 %43, 1
  store i64 %44, ptr %4, align 8
  br label %31, !llvm.loop !95

45:                                               ; preds = %31
  %46 = getelementptr inbounds %"class.Eigen::ThreadPoolTempl", ptr %5, i32 0, i32 13
  call void @_ZN5Eigen10EventCountD2Ev(ptr noundef nonnull align 8 dereferenceable(16) %46) #3
  %47 = getelementptr inbounds %"class.Eigen::ThreadPoolTempl", ptr %5, i32 0, i32 7
  call void @_ZN5Eigen13MaxSizeVectorINS_10EventCount6WaiterEED2Ev(ptr noundef nonnull align 8 dereferenceable(24) %47) #3
  %48 = getelementptr inbounds %"class.Eigen::ThreadPoolTempl", ptr %5, i32 0, i32 6
  call void @_ZN5Eigen13MaxSizeVectorINS0_IjEEED2Ev(ptr noundef nonnull align 8 dereferenceable(24) %48) #3
  %49 = getelementptr inbounds %"class.Eigen::ThreadPoolTempl", ptr %5, i32 0, i32 5
  call void @_ZN5Eigen13MaxSizeVectorINS_15ThreadPoolTemplINS_20StlThreadEnvironmentEE10ThreadDataEED2Ev(ptr noundef nonnull align 8 dereferenceable(24) %49) #3
  call void @_ZN5Eigen19ThreadPoolInterfaceD2Ev(ptr noundef nonnull align 8 dereferenceable(8) %5) #3
  ret void

50:                                               ; preds = %36, %23, %19, %10
  %51 = landingpad { ptr, i32 }
          catch ptr null
  %52 = extractvalue { ptr, i32 } %51, 0
  call void @__clang_call_terminate(ptr %52) #20
  unreachable
}

; Function Attrs: noinline nounwind optnone uwtable
define linkonce_odr dso_local void @_ZN5Eigen19ThreadPoolInterfaceC2Ev(ptr noundef nonnull align 8 dereferenceable(8) %0) unnamed_addr #4 comdat align 2 {
  %2 = alloca ptr, align 8
  store ptr %0, ptr %2, align 8
  %3 = load ptr, ptr %2, align 8
  store ptr getelementptr inbounds ({ [9 x ptr] }, ptr @_ZTVN5Eigen19ThreadPoolInterfaceE, i32 0, inrange i32 0, i32 2), ptr %3, align 8
  ret void
}

; Function Attrs: noinline optnone uwtable
define linkonce_odr dso_local void @_ZN5Eigen13MaxSizeVectorINS_15ThreadPoolTemplINS_20StlThreadEnvironmentEE10ThreadDataEEC2Em(ptr noundef nonnull align 8 dereferenceable(24) %0, i64 noundef %1) unnamed_addr #9 comdat align 2 !prof !91 {
  %3 = alloca ptr, align 8
  %4 = alloca i64, align 8
  store ptr %0, ptr %3, align 8
  store i64 %1, ptr %4, align 8
  %5 = load ptr, ptr %3, align 8
  %6 = getelementptr inbounds %"class.Eigen::MaxSizeVector", ptr %5, i32 0, i32 0
  %7 = load i64, ptr %4, align 8
  store i64 %7, ptr %6, align 8
  %8 = getelementptr inbounds %"class.Eigen::MaxSizeVector", ptr %5, i32 0, i32 1
  store i64 0, ptr %8, align 8
  %9 = getelementptr inbounds %"class.Eigen::MaxSizeVector", ptr %5, i32 0, i32 2
  %10 = load i64, ptr %4, align 8
  %11 = mul i64 %10, 41344
  %12 = call noundef ptr @_ZN5Eigen8internal23handmade_aligned_mallocEmm(i64 noundef %11, i64 noundef 128)
  store ptr %12, ptr %9, align 8
  ret void
}

; Function Attrs: noinline optnone uwtable
define linkonce_odr dso_local void @_ZN5Eigen13MaxSizeVectorINS0_IjEEEC2Em(ptr noundef nonnull align 8 dereferenceable(24) %0, i64 noundef %1) unnamed_addr #9 comdat align 2 !prof !91 {
  %3 = alloca ptr, align 8
  %4 = alloca i64, align 8
  store ptr %0, ptr %3, align 8
  store i64 %1, ptr %4, align 8
  %5 = load ptr, ptr %3, align 8
  %6 = getelementptr inbounds %"class.Eigen::MaxSizeVector.15", ptr %5, i32 0, i32 0
  %7 = load i64, ptr %4, align 8
  store i64 %7, ptr %6, align 8
  %8 = getelementptr inbounds %"class.Eigen::MaxSizeVector.15", ptr %5, i32 0, i32 1
  store i64 0, ptr %8, align 8
  %9 = getelementptr inbounds %"class.Eigen::MaxSizeVector.15", ptr %5, i32 0, i32 2
  %10 = load i64, ptr %4, align 8
  %11 = mul i64 %10, 24
  %12 = call noundef ptr @_ZN5Eigen8internal23handmade_aligned_mallocEmm(i64 noundef %11, i64 noundef 8)
  store ptr %12, ptr %9, align 8
  ret void
}

; Function Attrs: noinline optnone uwtable
define linkonce_odr dso_local void @_ZN5Eigen13MaxSizeVectorINS_10EventCount6WaiterEEC2Em(ptr noundef nonnull align 8 dereferenceable(24) %0, i64 noundef %1) unnamed_addr #9 comdat align 2 !prof !91 {
  %3 = alloca ptr, align 8
  %4 = alloca i64, align 8
  store ptr %0, ptr %3, align 8
  store i64 %1, ptr %4, align 8
  %5 = load ptr, ptr %3, align 8
  %6 = getelementptr inbounds %"class.Eigen::MaxSizeVector.17", ptr %5, i32 0, i32 0
  %7 = load i64, ptr %4, align 8
  store i64 %7, ptr %6, align 8
  %8 = getelementptr inbounds %"class.Eigen::MaxSizeVector.17", ptr %5, i32 0, i32 1
  store i64 0, ptr %8, align 8
  %9 = getelementptr inbounds %"class.Eigen::MaxSizeVector.17", ptr %5, i32 0, i32 2
  %10 = load i64, ptr %4, align 8
  %11 = mul i64 %10, 128
  %12 = call noundef ptr @_ZN5Eigen8internal23handmade_aligned_mallocEmm(i64 noundef %11, i64 noundef 128)
  store ptr %12, ptr %9, align 8
  ret void
}

; Function Attrs: mustprogress noinline nounwind optnone uwtable
define linkonce_odr dso_local noundef i32 @_ZN5Eigen15ThreadPoolTemplINS_20StlThreadEnvironmentEE15EncodePartitionEjj(ptr noundef nonnull align 8 dereferenceable(136) %0, i32 noundef %1, i32 noundef %2) #8 comdat align 2 !prof !96 {
  %4 = alloca ptr, align 8
  %5 = alloca i32, align 4
  %6 = alloca i32, align 4
  store ptr %0, ptr %4, align 8
  store i32 %1, ptr %5, align 4
  store i32 %2, ptr %6, align 4
  %7 = load ptr, ptr %4, align 8
  %8 = load i32, ptr %5, align 4
  %9 = shl i32 %8, 16
  %10 = load i32, ptr %6, align 4
  %11 = or i32 %9, %10
  ret i32 %11
}

; Function Attrs: noinline nounwind optnone uwtable
define linkonce_odr dso_local void @_ZNSt6atomicImEC2Em(ptr noundef nonnull align 8 dereferenceable(8) %0, i64 noundef %1) unnamed_addr #4 comdat align 2 !prof !97 {
  %3 = alloca ptr, align 8
  %4 = alloca i64, align 8
  store ptr %0, ptr %3, align 8
  store i64 %1, ptr %4, align 8
  %5 = load ptr, ptr %3, align 8
  %6 = load i64, ptr %4, align 8
  call void @_ZNSt13__atomic_baseImEC2Em(ptr noundef nonnull align 8 dereferenceable(8) %5, i64 noundef %6) #3
  ret void
}

; Function Attrs: noinline nounwind optnone uwtable
define linkonce_odr dso_local void @_ZNSt6atomicIjEC2Ej(ptr noundef nonnull align 4 dereferenceable(4) %0, i32 noundef %1) unnamed_addr #4 comdat align 2 !prof !98 {
  %3 = alloca ptr, align 8
  %4 = alloca i32, align 4
  store ptr %0, ptr %3, align 8
  store i32 %1, ptr %4, align 4
  %5 = load ptr, ptr %3, align 8
  %6 = load i32, ptr %4, align 4
  call void @_ZNSt13__atomic_baseIjEC2Ej(ptr noundef nonnull align 4 dereferenceable(4) %5, i32 noundef %6) #3
  ret void
}

; Function Attrs: noinline nounwind optnone uwtable
define linkonce_odr dso_local void @_ZNSt6atomicIbEC2Eb(ptr noundef nonnull align 1 dereferenceable(1) %0, i1 noundef zeroext %1) unnamed_addr #4 comdat align 2 !prof !99 {
  %3 = alloca ptr, align 8
  %4 = alloca i8, align 1
  store ptr %0, ptr %3, align 8
  %5 = zext i1 %1 to i8
  store i8 %5, ptr %4, align 1
  %6 = load ptr, ptr %3, align 8
  %7 = getelementptr inbounds %"struct.std::atomic.20", ptr %6, i32 0, i32 0
  %8 = load i8, ptr %4, align 1
  %9 = trunc i8 %8 to i1
  call void @_ZNSt13__atomic_baseIbEC2Eb(ptr noundef nonnull align 1 dereferenceable(1) %7, i1 noundef zeroext %9) #3
  ret void
}

; Function Attrs: noinline optnone uwtable
define linkonce_odr dso_local void @_ZN5Eigen10EventCountC2ERNS_13MaxSizeVectorINS0_6WaiterEEE(ptr noundef nonnull align 8 dereferenceable(16) %0, ptr noundef nonnull align 8 dereferenceable(24) %1) unnamed_addr #9 comdat align 2 !prof !91 {
  %3 = alloca ptr, align 8
  %4 = alloca ptr, align 8
  store ptr %0, ptr %3, align 8
  store ptr %1, ptr %4, align 8
  %5 = load ptr, ptr %3, align 8
  %6 = getelementptr inbounds %"class.Eigen::EventCount", ptr %5, i32 0, i32 0
  call void @_ZNSt6atomicImEC2Em(ptr noundef nonnull align 8 dereferenceable(8) %6, i64 noundef 16383) #3
  %7 = getelementptr inbounds %"class.Eigen::EventCount", ptr %5, i32 0, i32 1
  %8 = load ptr, ptr %4, align 8
  store ptr %8, ptr %7, align 8
  %9 = load ptr, ptr %4, align 8
  %10 = call noundef i64 @_ZNK5Eigen13MaxSizeVectorINS_10EventCount6WaiterEE4sizeEv(ptr noundef nonnull align 8 dereferenceable(24) %9)
  %11 = icmp ult i64 %10, 16383
  br i1 %11, label %12, label %13, !prof !100

12:                                               ; preds = %2
  br label %15

13:                                               ; preds = %2
  call void @__assert_fail(ptr noundef @.str.57, ptr noundef @.str.58, i32 noundef 57, ptr noundef @__PRETTY_FUNCTION__._ZN5Eigen10EventCountC2ERNS_13MaxSizeVectorINS0_6WaiterEEE) #20
  unreachable

14:                                               ; No predecessors!
  br label %15

15:                                               ; preds = %14, %12
  ret void
}

; Function Attrs: mustprogress noinline optnone uwtable
define linkonce_odr dso_local void @_ZN5Eigen13MaxSizeVectorINS_10EventCount6WaiterEE6resizeEm(ptr noundef nonnull align 8 dereferenceable(24) %0, i64 noundef %1) #5 comdat align 2 personality ptr @__gxx_personality_v0 !prof !91 {
  %3 = alloca ptr, align 8
  %4 = alloca i64, align 8
  %5 = alloca ptr, align 8
  %6 = alloca i32, align 4
  store ptr %0, ptr %3, align 8
  store i64 %1, ptr %4, align 8
  %7 = load ptr, ptr %3, align 8
  %8 = load i64, ptr %4, align 8
  %9 = getelementptr inbounds %"class.Eigen::MaxSizeVector.17", ptr %7, i32 0, i32 0
  %10 = load i64, ptr %9, align 8
  %11 = icmp ule i64 %8, %10
  br i1 %11, label %35, label %12, !prof !100

12:                                               ; preds = %2
  %13 = load i8, ptr @_ZN5EigenL14no_more_assertE, align 1
  %14 = trunc i8 %13 to i1
  br i1 %14, label %35, label %15

15:                                               ; preds = %12
  store i8 1, ptr @_ZN5EigenL14no_more_assertE, align 1
  %16 = load i8, ptr @_ZN5EigenL32report_on_cerr_on_assert_failureE, align 1
  %17 = trunc i8 %16 to i1
  br i1 %17, label %18, label %27

18:                                               ; preds = %15
  %19 = load i64, ptr %4, align 8
  %20 = getelementptr inbounds %"class.Eigen::MaxSizeVector.17", ptr %7, i32 0, i32 0
  %21 = load i64, ptr %20, align 8
  %22 = icmp ule i64 %19, %21
  br i1 %22, label %23, label %24

23:                                               ; preds = %18
  br label %26

24:                                               ; preds = %18
  call void @__assert_fail(ptr noundef @.str.59, ptr noundef @.str.60, i32 noundef 67, ptr noundef @__PRETTY_FUNCTION__._ZN5Eigen13MaxSizeVectorINS_10EventCount6WaiterEE6resizeEm) #20
  unreachable

25:                                               ; No predecessors!
  br label %26

26:                                               ; preds = %25, %23
  br label %34

