; ModuleID = './greedy_algorithms/binary_addition.cpp'
source_filename = "./greedy_algorithms/binary_addition.cpp"
target datalayout = "e-m:e-p270:32:32-p271:32:32-p272:64:64-i64:64-f80:128-n8:16:32:64-S128"
target triple = "x86_64-pc-linux-gnu"

%"class.std::ios_base::Init" = type { i8 }
%"class.greedy_algorithms::BinaryAddition" = type { i8 }
%"class.std::__cxx11::basic_string" = type { %"struct.std::__cxx11::basic_string<char>::_Alloc_hider", i64, %union.anon }
%"struct.std::__cxx11::basic_string<char>::_Alloc_hider" = type { ptr }
%union.anon = type { i64, [8 x i8] }
%"class.std::allocator" = type { i8 }
%"class.__gnu_cxx::__normal_iterator" = type { ptr }
%"class.__gnu_cxx::__normal_iterator.0" = type { ptr }
%class.anon = type { i8 }
%"struct.std::random_access_iterator_tag" = type { i8 }
%"struct.__gnu_cxx::__ops::_Iter_pred" = type { %class.anon }
%"struct.__gnu_cxx::__ops::_Iter_negate" = type { %class.anon }

$_ZSteqIcSt11char_traitsIcESaIcEEbRKNSt7__cxx1112basic_stringIT_T0_T1_EEPKS5_ = comdat any

$_ZN17greedy_algorithms14BinaryAddition9addBinaryERKNSt7__cxx1112basic_stringIcSt11char_traitsIcESaIcEEES8_ = comdat any

$_ZNK17greedy_algorithms14BinaryAddition19isValidBinaryStringERKNSt7__cxx1112basic_stringIcSt11char_traitsIcESaIcEEE = comdat any

$_ZSt3maxImERKT_S2_S2_ = comdat any

$_ZSt7reverseIN9__gnu_cxx17__normal_iteratorIPcNSt7__cxx1112basic_stringIcSt11char_traitsIcESaIcEEEEEEvT_SA_ = comdat any

$_ZSt6all_ofIN9__gnu_cxx17__normal_iteratorIPKcNSt7__cxx1112basic_stringIcSt11char_traitsIcESaIcEEEEEZNK17greedy_algorithms14BinaryAddition19isValidBinaryStringERKS9_EUlcE_EbT_SG_T0_ = comdat any

$_ZN9__gnu_cxxeqIPKcNSt7__cxx1112basic_stringIcSt11char_traitsIcESaIcEEEEEbRKNS_17__normal_iteratorIT_T0_EESE_ = comdat any

$_ZSt11find_if_notIN9__gnu_cxx17__normal_iteratorIPKcNSt7__cxx1112basic_stringIcSt11char_traitsIcESaIcEEEEEZNK17greedy_algorithms14BinaryAddition19isValidBinaryStringERKS9_EUlcE_ET_SG_SG_T0_ = comdat any

$_ZNK9__gnu_cxx17__normal_iteratorIPKcNSt7__cxx1112basic_stringIcSt11char_traitsIcESaIcEEEE4baseEv = comdat any

$_ZSt13__find_if_notIN9__gnu_cxx17__normal_iteratorIPKcNSt7__cxx1112basic_stringIcSt11char_traitsIcESaIcEEEEENS0_5__ops10_Iter_predIZNK17greedy_algorithms14BinaryAddition19isValidBinaryStringERKS9_EUlcE_EEET_SJ_SJ_T0_ = comdat any

$_ZN9__gnu_cxx5__ops11__pred_iterIZNK17greedy_algorithms14BinaryAddition19isValidBinaryStringERKNSt7__cxx1112basic_stringIcSt11char_traitsIcESaIcEEEEUlcE_EENS0_10_Iter_predIT_EESE_ = comdat any

$_ZSt9__find_ifIN9__gnu_cxx17__normal_iteratorIPKcNSt7__cxx1112basic_stringIcSt11char_traitsIcESaIcEEEEENS0_5__ops12_Iter_negateIZNK17greedy_algorithms14BinaryAddition19isValidBinaryStringERKS9_EUlcE_EEET_SJ_SJ_T0_St26random_access_iterator_tag = comdat any

$_ZN9__gnu_cxx5__ops8__negateIZNK17greedy_algorithms14BinaryAddition19isValidBinaryStringERKNSt7__cxx1112basic_stringIcSt11char_traitsIcESaIcEEEEUlcE_EENS0_12_Iter_negateIT_EENS0_10_Iter_predISE_EE = comdat any

$_ZSt19__iterator_categoryIN9__gnu_cxx17__normal_iteratorIPKcNSt7__cxx1112basic_stringIcSt11char_traitsIcESaIcEEEEEENSt15iterator_traitsIT_E17iterator_categoryERKSC_ = comdat any

$_ZN9__gnu_cxxmiIPKcNSt7__cxx1112basic_stringIcSt11char_traitsIcESaIcEEEEENS_17__normal_iteratorIT_T0_E15difference_typeERKSC_SF_ = comdat any

$_ZN9__gnu_cxx5__ops12_Iter_negateIZNK17greedy_algorithms14BinaryAddition19isValidBinaryStringERKNSt7__cxx1112basic_stringIcSt11char_traitsIcESaIcEEEEUlcE_EclINS_17__normal_iteratorIPKcS9_EEEEbT_ = comdat any

$_ZN9__gnu_cxx17__normal_iteratorIPKcNSt7__cxx1112basic_stringIcSt11char_traitsIcESaIcEEEEppEv = comdat any

$_ZZNK17greedy_algorithms14BinaryAddition19isValidBinaryStringERKNSt7__cxx1112basic_stringIcSt11char_traitsIcESaIcEEEENKUlcE_clEc = comdat any

$_ZNK9__gnu_cxx17__normal_iteratorIPKcNSt7__cxx1112basic_stringIcSt11char_traitsIcESaIcEEEEdeEv = comdat any

$_ZN9__gnu_cxx5__ops12_Iter_negateIZNK17greedy_algorithms14BinaryAddition19isValidBinaryStringERKNSt7__cxx1112basic_stringIcSt11char_traitsIcESaIcEEEEUlcE_EC2ESC_ = comdat any

$_ZN9__gnu_cxx5__ops10_Iter_predIZNK17greedy_algorithms14BinaryAddition19isValidBinaryStringERKNSt7__cxx1112basic_stringIcSt11char_traitsIcESaIcEEEEUlcE_EC2ESC_ = comdat any

$_ZSt9__reverseIN9__gnu_cxx17__normal_iteratorIPcNSt7__cxx1112basic_stringIcSt11char_traitsIcESaIcEEEEEEvT_SA_St26random_access_iterator_tag = comdat any

$_ZSt19__iterator_categoryIN9__gnu_cxx17__normal_iteratorIPcNSt7__cxx1112basic_stringIcSt11char_traitsIcESaIcEEEEEENSt15iterator_traitsIT_E17iterator_categoryERKSB_ = comdat any

$_ZN9__gnu_cxxeqIPcNSt7__cxx1112basic_stringIcSt11char_traitsIcESaIcEEEEEbRKNS_17__normal_iteratorIT_T0_EESD_ = comdat any

$_ZN9__gnu_cxx17__normal_iteratorIPcNSt7__cxx1112basic_stringIcSt11char_traitsIcESaIcEEEEmmEv = comdat any

$_ZN9__gnu_cxxltIPcNSt7__cxx1112basic_stringIcSt11char_traitsIcESaIcEEEEEbRKNS_17__normal_iteratorIT_T0_EESD_ = comdat any

$_ZSt9iter_swapIN9__gnu_cxx17__normal_iteratorIPcNSt7__cxx1112basic_stringIcSt11char_traitsIcESaIcEEEEES9_EvT_T0_ = comdat any

$_ZN9__gnu_cxx17__normal_iteratorIPcNSt7__cxx1112basic_stringIcSt11char_traitsIcESaIcEEEEppEv = comdat any

$_ZNK9__gnu_cxx17__normal_iteratorIPcNSt7__cxx1112basic_stringIcSt11char_traitsIcESaIcEEEE4baseEv = comdat any

$_ZSt4swapIcENSt9enable_ifIXsr6__and_ISt6__not_ISt15__is_tuple_likeIT_EESt21is_move_constructibleIS3_ESt18is_move_assignableIS3_EEE5valueEvE4typeERS3_SC_ = comdat any

$_ZNK9__gnu_cxx17__normal_iteratorIPcNSt7__cxx1112basic_stringIcSt11char_traitsIcESaIcEEEEdeEv = comdat any

@_ZStL8__ioinit = internal global %"class.std::ios_base::Init" zeroinitializer, align 1
@__dso_handle = external hidden global i8
@.str = private unnamed_addr constant [5 x i8] c"1010\00", align 1
@.str.1 = private unnamed_addr constant [5 x i8] c"1101\00", align 1
@.str.2 = private unnamed_addr constant [6 x i8] c"10111\00", align 1
@.str.3 = private unnamed_addr constant [52 x i8] c"binaryAddition.addBinary(\221010\22, \221101\22) == \2210111\22\00", align 1
@.str.4 = private unnamed_addr constant [40 x i8] c"./greedy_algorithms/binary_addition.cpp\00", align 1
@__PRETTY_FUNCTION__._ZL5testsv = private unnamed_addr constant [13 x i8] c"void tests()\00", align 1
@.str.5 = private unnamed_addr constant [5 x i8] c"1111\00", align 1
@.str.6 = private unnamed_addr constant [6 x i8] c"11110\00", align 1
@.str.7 = private unnamed_addr constant [52 x i8] c"binaryAddition.addBinary(\221111\22, \221111\22) == \2211110\22\00", align 1
@.str.8 = private unnamed_addr constant [4 x i8] c"101\00", align 1
@.str.9 = private unnamed_addr constant [3 x i8] c"11\00", align 1
@.str.10 = private unnamed_addr constant [5 x i8] c"1000\00", align 1
@.str.11 = private unnamed_addr constant [48 x i8] c"binaryAddition.addBinary(\22101\22, \2211\22) == \221000\22\00", align 1
@.str.12 = private unnamed_addr constant [2 x i8] c"0\00", align 1
@.str.13 = private unnamed_addr constant [42 x i8] c"binaryAddition.addBinary(\220\22, \220\22) == \220\22\00", align 1
@.str.14 = private unnamed_addr constant [6 x i8] c"10101\00", align 1
@.str.15 = private unnamed_addr constant [50 x i8] c"binaryAddition.addBinary(\220\22, \2210101\22) == \2210101\22\00", align 1
@.str.16 = private unnamed_addr constant [50 x i8] c"binaryAddition.addBinary(\2210101\22, \220\22) == \2210101\22\00", align 1
@.str.17 = private unnamed_addr constant [31 x i8] c"101010101010101010101010101010\00", align 1
@.str.18 = private unnamed_addr constant [31 x i8] c"110110110110110110110110110110\00", align 1
@.str.19 = private unnamed_addr constant [32 x i8] c"1100001100001100001100001100000\00", align 1
@.str.20 = private unnamed_addr constant [130 x i8] c"binaryAddition.addBinary(\22101010101010101010101010101010\22, \22110110110110110110110110110110\22) == \221100001100001100001100001100000\22\00", align 1
@.str.21 = private unnamed_addr constant [2 x i8] c"1\00", align 1
@.str.22 = private unnamed_addr constant [9 x i8] c"11111111\00", align 1
@.str.23 = private unnamed_addr constant [10 x i8] c"100000000\00", align 1
@.str.24 = private unnamed_addr constant [57 x i8] c"binaryAddition.addBinary(\221\22, \2211111111\22) == \22100000000\22\00", align 1
@.str.25 = private unnamed_addr constant [9 x i8] c"10101010\00", align 1
@.str.26 = private unnamed_addr constant [9 x i8] c"01010101\00", align 1
@.str.27 = private unnamed_addr constant [63 x i8] c"binaryAddition.addBinary(\2210101010\22, \2201010101\22) == \2211111111\22\00", align 1
@.str.28 = private unnamed_addr constant [6 x i8] c"10102\00", align 1
@.str.29 = private unnamed_addr constant [1 x i8] zeroinitializer, align 1
@.str.30 = private unnamed_addr constant [48 x i8] c"binaryAddition.addBinary(\2210102\22, \221101\22) == \22\22\00", align 1
@.str.31 = private unnamed_addr constant [4 x i8] c"ABC\00", align 1
@.str.32 = private unnamed_addr constant [46 x i8] c"binaryAddition.addBinary(\22ABC\22, \221101\22) == \22\22\00", align 1
@.str.33 = private unnamed_addr constant [5 x i8] c"1102\00", align 1
@.str.34 = private unnamed_addr constant [47 x i8] c"binaryAddition.addBinary(\221010\22, \221102\22) == \22\22\00", align 1
@.str.35 = private unnamed_addr constant [4 x i8] c"111\00", align 1
@.str.36 = private unnamed_addr constant [4 x i8] c"1x1\00", align 1
@.str.37 = private unnamed_addr constant [45 x i8] c"binaryAddition.addBinary(\22111\22, \221x1\22) == \22\22\00", align 1
@.str.38 = private unnamed_addr constant [45 x i8] c"binaryAddition.addBinary(\221x1\22, \22111\22) == \22\22\00", align 1
@.str.39 = private unnamed_addr constant [5 x i8] c"1234\00", align 1
@.str.40 = private unnamed_addr constant [47 x i8] c"binaryAddition.addBinary(\221234\22, \221101\22) == \22\22\00", align 1
@llvm.global_ctors = appending global [1 x { i32, ptr, ptr }] [{ i32, ptr, ptr } { i32 65535, ptr @_GLOBAL__sub_I_binary_addition.cpp, ptr null }]

; Function Attrs: noinline uwtable
define internal void @__cxx_global_var_init() #0 section ".text.startup" {
  call void @_ZNSt8ios_base4InitC1Ev(ptr noundef nonnull align 1 dereferenceable(1) @_ZStL8__ioinit)
  %1 = call i32 @__cxa_atexit(ptr @_ZNSt8ios_base4InitD1Ev, ptr @_ZStL8__ioinit, ptr @__dso_handle) #3
  ret void
}

declare void @_ZNSt8ios_base4InitC1Ev(ptr noundef nonnull align 1 dereferenceable(1)) unnamed_addr #1

; Function Attrs: nounwind
declare void @_ZNSt8ios_base4InitD1Ev(ptr noundef nonnull align 1 dereferenceable(1)) unnamed_addr #2

; Function Attrs: nounwind
declare i32 @__cxa_atexit(ptr, ptr, ptr) #3

; Function Attrs: mustprogress noinline norecurse optnone uwtable
define dso_local noundef i32 @main() #4 {
  %1 = alloca i32, align 4
  store i32 0, ptr %1, align 4
  call void @_ZL5testsv()
  ret i32 0
}

; Function Attrs: mustprogress noinline optnone uwtable
define internal void @_ZL5testsv() #5 personality ptr @__gxx_personality_v0 {
  %1 = alloca %"class.greedy_algorithms::BinaryAddition", align 1
  %2 = alloca %"class.std::__cxx11::basic_string", align 8
  %3 = alloca %"class.std::__cxx11::basic_string", align 8
  %4 = alloca %"class.std::allocator", align 1
  %5 = alloca ptr, align 8
  %6 = alloca i32, align 4
  %7 = alloca %"class.std::__cxx11::basic_string", align 8
  %8 = alloca %"class.std::allocator", align 1
  %9 = alloca %"class.std::__cxx11::basic_string", align 8
  %10 = alloca %"class.std::__cxx11::basic_string", align 8
  %11 = alloca %"class.std::allocator", align 1
  %12 = alloca %"class.std::__cxx11::basic_string", align 8
  %13 = alloca %"class.std::allocator", align 1
  %14 = alloca %"class.std::__cxx11::basic_string", align 8
  %15 = alloca %"class.std::__cxx11::basic_string", align 8
  %16 = alloca %"class.std::allocator", align 1
  %17 = alloca %"class.std::__cxx11::basic_string", align 8
  %18 = alloca %"class.std::allocator", align 1
  %19 = alloca %"class.std::__cxx11::basic_string", align 8
  %20 = alloca %"class.std::__cxx11::basic_string", align 8
  %21 = alloca %"class.std::allocator", align 1
  %22 = alloca %"class.std::__cxx11::basic_string", align 8
  %23 = alloca %"class.std::allocator", align 1
  %24 = alloca %"class.std::__cxx11::basic_string", align 8
  %25 = alloca %"class.std::__cxx11::basic_string", align 8
  %26 = alloca %"class.std::allocator", align 1
  %27 = alloca %"class.std::__cxx11::basic_string", align 8
  %28 = alloca %"class.std::allocator", align 1
  %29 = alloca %"class.std::__cxx11::basic_string", align 8
  %30 = alloca %"class.std::__cxx11::basic_string", align 8
  %31 = alloca %"class.std::allocator", align 1
  %32 = alloca %"class.std::__cxx11::basic_string", align 8
  %33 = alloca %"class.std::allocator", align 1
  %34 = alloca %"class.std::__cxx11::basic_string", align 8
  %35 = alloca %"class.std::__cxx11::basic_string", align 8
  %36 = alloca %"class.std::allocator", align 1
  %37 = alloca %"class.std::__cxx11::basic_string", align 8
  %38 = alloca %"class.std::allocator", align 1
  %39 = alloca %"class.std::__cxx11::basic_string", align 8
  %40 = alloca %"class.std::__cxx11::basic_string", align 8
  %41 = alloca %"class.std::allocator", align 1
  %42 = alloca %"class.std::__cxx11::basic_string", align 8
  %43 = alloca %"class.std::allocator", align 1
  %44 = alloca %"class.std::__cxx11::basic_string", align 8
  %45 = alloca %"class.std::__cxx11::basic_string", align 8
  %46 = alloca %"class.std::allocator", align 1
  %47 = alloca %"class.std::__cxx11::basic_string", align 8
  %48 = alloca %"class.std::allocator", align 1
  %49 = alloca %"class.std::__cxx11::basic_string", align 8
  %50 = alloca %"class.std::__cxx11::basic_string", align 8
  %51 = alloca %"class.std::allocator", align 1
  %52 = alloca %"class.std::__cxx11::basic_string", align 8
  %53 = alloca %"class.std::allocator", align 1
  %54 = alloca %"class.std::__cxx11::basic_string", align 8
  %55 = alloca %"class.std::__cxx11::basic_string", align 8
  %56 = alloca %"class.std::allocator", align 1
  %57 = alloca %"class.std::__cxx11::basic_string", align 8
  %58 = alloca %"class.std::allocator", align 1
  %59 = alloca %"class.std::__cxx11::basic_string", align 8
  %60 = alloca %"class.std::__cxx11::basic_string", align 8
  %61 = alloca %"class.std::allocator", align 1
  %62 = alloca %"class.std::__cxx11::basic_string", align 8
  %63 = alloca %"class.std::allocator", align 1
  %64 = alloca %"class.std::__cxx11::basic_string", align 8
  %65 = alloca %"class.std::__cxx11::basic_string", align 8
  %66 = alloca %"class.std::allocator", align 1
  %67 = alloca %"class.std::__cxx11::basic_string", align 8
  %68 = alloca %"class.std::allocator", align 1
  %69 = alloca %"class.std::__cxx11::basic_string", align 8
  %70 = alloca %"class.std::__cxx11::basic_string", align 8
  %71 = alloca %"class.std::allocator", align 1
  %72 = alloca %"class.std::__cxx11::basic_string", align 8
  %73 = alloca %"class.std::allocator", align 1
  %74 = alloca %"class.std::__cxx11::basic_string", align 8
  %75 = alloca %"class.std::__cxx11::basic_string", align 8
  %76 = alloca %"class.std::allocator", align 1
  %77 = alloca %"class.std::__cxx11::basic_string", align 8
  %78 = alloca %"class.std::allocator", align 1
  %79 = alloca %"class.std::__cxx11::basic_string", align 8
  %80 = alloca %"class.std::__cxx11::basic_string", align 8
  %81 = alloca %"class.std::allocator", align 1
  %82 = alloca %"class.std::__cxx11::basic_string", align 8
  %83 = alloca %"class.std::allocator", align 1
  call void @_ZNSaIcEC1Ev(ptr noundef nonnull align 1 dereferenceable(1) %4) #3
  invoke void @_ZNSt7__cxx1112basic_stringIcSt11char_traitsIcESaIcEEC1EPKcRKS3_(ptr noundef nonnull align 8 dereferenceable(32) %3, ptr noundef @.str, ptr noundef nonnull align 1 dereferenceable(1) %4)
          to label %84 unwind label %91

84:                                               ; preds = %0
  call void @_ZNSaIcEC1Ev(ptr noundef nonnull align 1 dereferenceable(1) %8) #3
  invoke void @_ZNSt7__cxx1112basic_stringIcSt11char_traitsIcESaIcEEC1EPKcRKS3_(ptr noundef nonnull align 8 dereferenceable(32) %7, ptr noundef @.str.1, ptr noundef nonnull align 1 dereferenceable(1) %8)
          to label %85 unwind label %95

85:                                               ; preds = %84
  invoke void @_ZN17greedy_algorithms14BinaryAddition9addBinaryERKNSt7__cxx1112basic_stringIcSt11char_traitsIcESaIcEEES8_(ptr sret(%"class.std::__cxx11::basic_string") align 8 %2, ptr noundef nonnull align 1 dereferenceable(1) %1, ptr noundef nonnull align 8 dereferenceable(32) %3, ptr noundef nonnull align 8 dereferenceable(32) %7)
          to label %86 unwind label %99

86:                                               ; preds = %85
  %87 = invoke noundef zeroext i1 @_ZSteqIcSt11char_traitsIcESaIcEEbRKNSt7__cxx1112basic_stringIT_T0_T1_EEPKS5_(ptr noundef nonnull align 8 dereferenceable(32) %2, ptr noundef @.str.2)
          to label %88 unwind label %103

88:                                               ; preds = %86
  br i1 %87, label %89, label %90

89:                                               ; preds = %88
  br label %108

90:                                               ; preds = %88
  call void @__assert_fail(ptr noundef @.str.3, ptr noundef @.str.4, i32 noundef 90, ptr noundef @__PRETTY_FUNCTION__._ZL5testsv) #10
  unreachable

91:                                               ; preds = %0
  %92 = landingpad { ptr, i32 }
          cleanup
  %93 = extractvalue { ptr, i32 } %92, 0
  store ptr %93, ptr %5, align 8
  %94 = extractvalue { ptr, i32 } %92, 1
  store i32 %94, ptr %6, align 4
  br label %118

95:                                               ; preds = %84
  %96 = landingpad { ptr, i32 }
          cleanup
  %97 = extractvalue { ptr, i32 } %96, 0
  store ptr %97, ptr %5, align 8
  %98 = extractvalue { ptr, i32 } %96, 1
  store i32 %98, ptr %6, align 4
  br label %117

99:                                               ; preds = %85
  %100 = landingpad { ptr, i32 }
          cleanup
  %101 = extractvalue { ptr, i32 } %100, 0
  store ptr %101, ptr %5, align 8
  %102 = extractvalue { ptr, i32 } %100, 1
  store i32 %102, ptr %6, align 4
  br label %116

103:                                              ; preds = %86
  %104 = landingpad { ptr, i32 }
          cleanup
  %105 = extractvalue { ptr, i32 } %104, 0
  store ptr %105, ptr %5, align 8
  %106 = extractvalue { ptr, i32 } %104, 1
  store i32 %106, ptr %6, align 4
  call void @_ZNSt7__cxx1112basic_stringIcSt11char_traitsIcESaIcEED1Ev(ptr noundef nonnull align 8 dereferenceable(32) %2) #3
  br label %116

107:                                              ; No predecessors!
  br label %108

108:                                              ; preds = %107, %89
  call void @_ZNSt7__cxx1112basic_stringIcSt11char_traitsIcESaIcEED1Ev(ptr noundef nonnull align 8 dereferenceable(32) %2) #3
  call void @_ZNSt7__cxx1112basic_stringIcSt11char_traitsIcESaIcEED1Ev(ptr noundef nonnull align 8 dereferenceable(32) %7) #3
  call void @_ZNSaIcED1Ev(ptr noundef nonnull align 1 dereferenceable(1) %8) #3
  call void @_ZNSt7__cxx1112basic_stringIcSt11char_traitsIcESaIcEED1Ev(ptr noundef nonnull align 8 dereferenceable(32) %3) #3
  call void @_ZNSaIcED1Ev(ptr noundef nonnull align 1 dereferenceable(1) %4) #3
  call void @_ZNSaIcEC1Ev(ptr noundef nonnull align 1 dereferenceable(1) %11) #3
  invoke void @_ZNSt7__cxx1112basic_stringIcSt11char_traitsIcESaIcEEC1EPKcRKS3_(ptr noundef nonnull align 8 dereferenceable(32) %10, ptr noundef @.str.5, ptr noundef nonnull align 1 dereferenceable(1) %11)
          to label %109 unwind label %119

109:                                              ; preds = %108
  call void @_ZNSaIcEC1Ev(ptr noundef nonnull align 1 dereferenceable(1) %13) #3
  invoke void @_ZNSt7__cxx1112basic_stringIcSt11char_traitsIcESaIcEEC1EPKcRKS3_(ptr noundef nonnull align 8 dereferenceable(32) %12, ptr noundef @.str.5, ptr noundef nonnull align 1 dereferenceable(1) %13)
          to label %110 unwind label %123

110:                                              ; preds = %109
  invoke void @_ZN17greedy_algorithms14BinaryAddition9addBinaryERKNSt7__cxx1112basic_stringIcSt11char_traitsIcESaIcEEES8_(ptr sret(%"class.std::__cxx11::basic_string") align 8 %9, ptr noundef nonnull align 1 dereferenceable(1) %1, ptr noundef nonnull align 8 dereferenceable(32) %10, ptr noundef nonnull align 8 dereferenceable(32) %12)
          to label %111 unwind label %127

111:                                              ; preds = %110
  %112 = invoke noundef zeroext i1 @_ZSteqIcSt11char_traitsIcESaIcEEbRKNSt7__cxx1112basic_stringIT_T0_T1_EEPKS5_(ptr noundef nonnull align 8 dereferenceable(32) %9, ptr noundef @.str.6)
          to label %113 unwind label %131

113:                                              ; preds = %111
  br i1 %112, label %114, label %115

114:                                              ; preds = %113
  br label %136

115:                                              ; preds = %113
  call void @__assert_fail(ptr noundef @.str.7, ptr noundef @.str.4, i32 noundef 91, ptr noundef @__PRETTY_FUNCTION__._ZL5testsv) #10
  unreachable

116:                                              ; preds = %103, %99
  call void @_ZNSt7__cxx1112basic_stringIcSt11char_traitsIcESaIcEED1Ev(ptr noundef nonnull align 8 dereferenceable(32) %7) #3
  br label %117

117:                                              ; preds = %116, %95
  call void @_ZNSaIcED1Ev(ptr noundef nonnull align 1 dereferenceable(1) %8) #3
  call void @_ZNSt7__cxx1112basic_stringIcSt11char_traitsIcESaIcEED1Ev(ptr noundef nonnull align 8 dereferenceable(32) %3) #3
  br label %118

118:                                              ; preds = %117, %91
  call void @_ZNSaIcED1Ev(ptr noundef nonnull align 1 dereferenceable(1) %4) #3
  br label %532

119:                                              ; preds = %108
  %120 = landingpad { ptr, i32 }
          cleanup
  %121 = extractvalue { ptr, i32 } %120, 0
  store ptr %121, ptr %5, align 8
  %122 = extractvalue { ptr, i32 } %120, 1
  store i32 %122, ptr %6, align 4
  br label %146

123:                                              ; preds = %109
  %124 = landingpad { ptr, i32 }
          cleanup
  %125 = extractvalue { ptr, i32 } %124, 0
  store ptr %125, ptr %5, align 8
  %126 = extractvalue { ptr, i32 } %124, 1
  store i32 %126, ptr %6, align 4
  br label %145

127:                                              ; preds = %110
  %128 = landingpad { ptr, i32 }
          cleanup
  %129 = extractvalue { ptr, i32 } %128, 0
  store ptr %129, ptr %5, align 8
  %130 = extractvalue { ptr, i32 } %128, 1
  store i32 %130, ptr %6, align 4
  br label %144

131:                                              ; preds = %111
  %132 = landingpad { ptr, i32 }
          cleanup
  %133 = extractvalue { ptr, i32 } %132, 0
  store ptr %133, ptr %5, align 8
  %134 = extractvalue { ptr, i32 } %132, 1
  store i32 %134, ptr %6, align 4
  call void @_ZNSt7__cxx1112basic_stringIcSt11char_traitsIcESaIcEED1Ev(ptr noundef nonnull align 8 dereferenceable(32) %9) #3
  br label %144

135:                                              ; No predecessors!
  br label %136

136:                                              ; preds = %135, %114
  call void @_ZNSt7__cxx1112basic_stringIcSt11char_traitsIcESaIcEED1Ev(ptr noundef nonnull align 8 dereferenceable(32) %9) #3
  call void @_ZNSt7__cxx1112basic_stringIcSt11char_traitsIcESaIcEED1Ev(ptr noundef nonnull align 8 dereferenceable(32) %12) #3
  call void @_ZNSaIcED1Ev(ptr noundef nonnull align 1 dereferenceable(1) %13) #3
  call void @_ZNSt7__cxx1112basic_stringIcSt11char_traitsIcESaIcEED1Ev(ptr noundef nonnull align 8 dereferenceable(32) %10) #3
  call void @_ZNSaIcED1Ev(ptr noundef nonnull align 1 dereferenceable(1) %11) #3
  call void @_ZNSaIcEC1Ev(ptr noundef nonnull align 1 dereferenceable(1) %16) #3
  invoke void @_ZNSt7__cxx1112basic_stringIcSt11char_traitsIcESaIcEEC1EPKcRKS3_(ptr noundef nonnull align 8 dereferenceable(32) %15, ptr noundef @.str.8, ptr noundef nonnull align 1 dereferenceable(1) %16)
          to label %137 unwind label %147

137:                                              ; preds = %136
  call void @_ZNSaIcEC1Ev(ptr noundef nonnull align 1 dereferenceable(1) %18) #3
  invoke void @_ZNSt7__cxx1112basic_stringIcSt11char_traitsIcESaIcEEC1EPKcRKS3_(ptr noundef nonnull align 8 dereferenceable(32) %17, ptr noundef @.str.9, ptr noundef nonnull align 1 dereferenceable(1) %18)
          to label %138 unwind label %151

138:                                              ; preds = %137
  invoke void @_ZN17greedy_algorithms14BinaryAddition9addBinaryERKNSt7__cxx1112basic_stringIcSt11char_traitsIcESaIcEEES8_(ptr sret(%"class.std::__cxx11::basic_string") align 8 %14, ptr noundef nonnull align 1 dereferenceable(1) %1, ptr noundef nonnull align 8 dereferenceable(32) %15, ptr noundef nonnull align 8 dereferenceable(32) %17)
          to label %139 unwind label %155

139:                                              ; preds = %138
  %140 = invoke noundef zeroext i1 @_ZSteqIcSt11char_traitsIcESaIcEEbRKNSt7__cxx1112basic_stringIT_T0_T1_EEPKS5_(ptr noundef nonnull align 8 dereferenceable(32) %14, ptr noundef @.str.10)
          to label %141 unwind label %159

141:                                              ; preds = %139
  br i1 %140, label %142, label %143

142:                                              ; preds = %141
  br label %164

143:                                              ; preds = %141
  call void @__assert_fail(ptr noundef @.str.11, ptr noundef @.str.4, i32 noundef 92, ptr noundef @__PRETTY_FUNCTION__._ZL5testsv) #10
  unreachable

144:                                              ; preds = %131, %127
  call void @_ZNSt7__cxx1112basic_stringIcSt11char_traitsIcESaIcEED1Ev(ptr noundef nonnull align 8 dereferenceable(32) %12) #3
  br label %145

145:                                              ; preds = %144, %123
  call void @_ZNSaIcED1Ev(ptr noundef nonnull align 1 dereferenceable(1) %13) #3
  call void @_ZNSt7__cxx1112basic_stringIcSt11char_traitsIcESaIcEED1Ev(ptr noundef nonnull align 8 dereferenceable(32) %10) #3
  br label %146

146:                                              ; preds = %145, %119
  call void @_ZNSaIcED1Ev(ptr noundef nonnull align 1 dereferenceable(1) %11) #3
  br label %532

147:                                              ; preds = %136
  %148 = landingpad { ptr, i32 }
          cleanup
  %149 = extractvalue { ptr, i32 } %148, 0
  store ptr %149, ptr %5, align 8
  %150 = extractvalue { ptr, i32 } %148, 1
  store i32 %150, ptr %6, align 4
  br label %174

151:                                              ; preds = %137
  %152 = landingpad { ptr, i32 }
          cleanup
  %153 = extractvalue { ptr, i32 } %152, 0
  store ptr %153, ptr %5, align 8
  %154 = extractvalue { ptr, i32 } %152, 1
  store i32 %154, ptr %6, align 4
  br label %173

155:                                              ; preds = %138
  %156 = landingpad { ptr, i32 }
          cleanup
  %157 = extractvalue { ptr, i32 } %156, 0
  store ptr %157, ptr %5, align 8
  %158 = extractvalue { ptr, i32 } %156, 1
  store i32 %158, ptr %6, align 4
  br label %172

159:                                              ; preds = %139
  %160 = landingpad { ptr, i32 }
          cleanup
  %161 = extractvalue { ptr, i32 } %160, 0
  store ptr %161, ptr %5, align 8
  %162 = extractvalue { ptr, i32 } %160, 1
  store i32 %162, ptr %6, align 4
  call void @_ZNSt7__cxx1112basic_stringIcSt11char_traitsIcESaIcEED1Ev(ptr noundef nonnull align 8 dereferenceable(32) %14) #3
  br label %172

163:                                              ; No predecessors!
  br label %164

164:                                              ; preds = %163, %142
  call void @_ZNSt7__cxx1112basic_stringIcSt11char_traitsIcESaIcEED1Ev(ptr noundef nonnull align 8 dereferenceable(32) %14) #3
  call void @_ZNSt7__cxx1112basic_stringIcSt11char_traitsIcESaIcEED1Ev(ptr noundef nonnull align 8 dereferenceable(32) %17) #3
  call void @_ZNSaIcED1Ev(ptr noundef nonnull align 1 dereferenceable(1) %18) #3
  call void @_ZNSt7__cxx1112basic_stringIcSt11char_traitsIcESaIcEED1Ev(ptr noundef nonnull align 8 dereferenceable(32) %15) #3
  call void @_ZNSaIcED1Ev(ptr noundef nonnull align 1 dereferenceable(1) %16) #3
  call void @_ZNSaIcEC1Ev(ptr noundef nonnull align 1 dereferenceable(1) %21) #3
  invoke void @_ZNSt7__cxx1112basic_stringIcSt11char_traitsIcESaIcEEC1EPKcRKS3_(ptr noundef nonnull align 8 dereferenceable(32) %20, ptr noundef @.str.12, ptr noundef nonnull align 1 dereferenceable(1) %21)
          to label %165 unwind label %175

165:                                              ; preds = %164
  call void @_ZNSaIcEC1Ev(ptr noundef nonnull align 1 dereferenceable(1) %23) #3
  invoke void @_ZNSt7__cxx1112basic_stringIcSt11char_traitsIcESaIcEEC1EPKcRKS3_(ptr noundef nonnull align 8 dereferenceable(32) %22, ptr noundef @.str.12, ptr noundef nonnull align 1 dereferenceable(1) %23)
          to label %166 unwind label %179

166:                                              ; preds = %165
  invoke void @_ZN17greedy_algorithms14BinaryAddition9addBinaryERKNSt7__cxx1112basic_stringIcSt11char_traitsIcESaIcEEES8_(ptr sret(%"class.std::__cxx11::basic_string") align 8 %19, ptr noundef nonnull align 1 dereferenceable(1) %1, ptr noundef nonnull align 8 dereferenceable(32) %20, ptr noundef nonnull align 8 dereferenceable(32) %22)
          to label %167 unwind label %183

167:                                              ; preds = %166
  %168 = invoke noundef zeroext i1 @_ZSteqIcSt11char_traitsIcESaIcEEbRKNSt7__cxx1112basic_stringIT_T0_T1_EEPKS5_(ptr noundef nonnull align 8 dereferenceable(32) %19, ptr noundef @.str.12)
          to label %169 unwind label %187

169:                                              ; preds = %167
  br i1 %168, label %170, label %171

170:                                              ; preds = %169
  br label %192

171:                                              ; preds = %169
  call void @__assert_fail(ptr noundef @.str.13, ptr noundef @.str.4, i32 noundef 93, ptr noundef @__PRETTY_FUNCTION__._ZL5testsv) #10
  unreachable

172:                                              ; preds = %159, %155
  call void @_ZNSt7__cxx1112basic_stringIcSt11char_traitsIcESaIcEED1Ev(ptr noundef nonnull align 8 dereferenceable(32) %17) #3
  br label %173

173:                                              ; preds = %172, %151
  call void @_ZNSaIcED1Ev(ptr noundef nonnull align 1 dereferenceable(1) %18) #3
  call void @_ZNSt7__cxx1112basic_stringIcSt11char_traitsIcESaIcEED1Ev(ptr noundef nonnull align 8 dereferenceable(32) %15) #3
  br label %174

174:                                              ; preds = %173, %147
  call void @_ZNSaIcED1Ev(ptr noundef nonnull align 1 dereferenceable(1) %16) #3
  br label %532

175:                                              ; preds = %164
  %176 = landingpad { ptr, i32 }
          cleanup
  %177 = extractvalue { ptr, i32 } %176, 0
  store ptr %177, ptr %5, align 8
  %178 = extractvalue { ptr, i32 } %176, 1
  store i32 %178, ptr %6, align 4
  br label %202

179:                                              ; preds = %165
  %180 = landingpad { ptr, i32 }
          cleanup
  %181 = extractvalue { ptr, i32 } %180, 0
  store ptr %181, ptr %5, align 8
  %182 = extractvalue { ptr, i32 } %180, 1
  store i32 %182, ptr %6, align 4
  br label %201

183:                                              ; preds = %166
  %184 = landingpad { ptr, i32 }
          cleanup
  %185 = extractvalue { ptr, i32 } %184, 0
  store ptr %185, ptr %5, align 8
  %186 = extractvalue { ptr, i32 } %184, 1
  store i32 %186, ptr %6, align 4
  br label %200

187:                                              ; preds = %167
  %188 = landingpad { ptr, i32 }
          cleanup
  %189 = extractvalue { ptr, i32 } %188, 0
  store ptr %189, ptr %5, align 8
  %190 = extractvalue { ptr, i32 } %188, 1
  store i32 %190, ptr %6, align 4
  call void @_ZNSt7__cxx1112basic_stringIcSt11char_traitsIcESaIcEED1Ev(ptr noundef nonnull align 8 dereferenceable(32) %19) #3
  br label %200

191:                                              ; No predecessors!
  br label %192

192:                                              ; preds = %191, %170
  call void @_ZNSt7__cxx1112basic_stringIcSt11char_traitsIcESaIcEED1Ev(ptr noundef nonnull align 8 dereferenceable(32) %19) #3
  call void @_ZNSt7__cxx1112basic_stringIcSt11char_traitsIcESaIcEED1Ev(ptr noundef nonnull align 8 dereferenceable(32) %22) #3
  call void @_ZNSaIcED1Ev(ptr noundef nonnull align 1 dereferenceable(1) %23) #3
  call void @_ZNSt7__cxx1112basic_stringIcSt11char_traitsIcESaIcEED1Ev(ptr noundef nonnull align 8 dereferenceable(32) %20) #3
  call void @_ZNSaIcED1Ev(ptr noundef nonnull align 1 dereferenceable(1) %21) #3
  call void @_ZNSaIcEC1Ev(ptr noundef nonnull align 1 dereferenceable(1) %26) #3
  invoke void @_ZNSt7__cxx1112basic_stringIcSt11char_traitsIcESaIcEEC1EPKcRKS3_(ptr noundef nonnull align 8 dereferenceable(32) %25, ptr noundef @.str.5, ptr noundef nonnull align 1 dereferenceable(1) %26)
          to label %193 unwind label %203

193:                                              ; preds = %192
  call void @_ZNSaIcEC1Ev(ptr noundef nonnull align 1 dereferenceable(1) %28) #3
  invoke void @_ZNSt7__cxx1112basic_stringIcSt11char_traitsIcESaIcEEC1EPKcRKS3_(ptr noundef nonnull align 8 dereferenceable(32) %27, ptr noundef @.str.5, ptr noundef nonnull align 1 dereferenceable(1) %28)
          to label %194 unwind label %207

194:                                              ; preds = %193
  invoke void @_ZN17greedy_algorithms14BinaryAddition9addBinaryERKNSt7__cxx1112basic_stringIcSt11char_traitsIcESaIcEEES8_(ptr sret(%"class.std::__cxx11::basic_string") align 8 %24, ptr noundef nonnull align 1 dereferenceable(1) %1, ptr noundef nonnull align 8 dereferenceable(32) %25, ptr noundef nonnull align 8 dereferenceable(32) %27)
          to label %195 unwind label %211

195:                                              ; preds = %194
  %196 = invoke noundef zeroext i1 @_ZSteqIcSt11char_traitsIcESaIcEEbRKNSt7__cxx1112basic_stringIT_T0_T1_EEPKS5_(ptr noundef nonnull align 8 dereferenceable(32) %24, ptr noundef @.str.6)
          to label %197 unwind label %215

197:                                              ; preds = %195
  br i1 %196, label %198, label %199

198:                                              ; preds = %197
  br label %220

199:                                              ; preds = %197
  call void @__assert_fail(ptr noundef @.str.7, ptr noundef @.str.4, i32 noundef 94, ptr noundef @__PRETTY_FUNCTION__._ZL5testsv) #10
  unreachable

200:                                              ; preds = %187, %183
  call void @_ZNSt7__cxx1112basic_stringIcSt11char_traitsIcESaIcEED1Ev(ptr noundef nonnull align 8 dereferenceable(32) %22) #3
  br label %201

201:                                              ; preds = %200, %179
  call void @_ZNSaIcED1Ev(ptr noundef nonnull align 1 dereferenceable(1) %23) #3
  call void @_ZNSt7__cxx1112basic_stringIcSt11char_traitsIcESaIcEED1Ev(ptr noundef nonnull align 8 dereferenceable(32) %20) #3
  br label %202

202:                                              ; preds = %201, %175
  call void @_ZNSaIcED1Ev(ptr noundef nonnull align 1 dereferenceable(1) %21) #3
  br label %532

203:                                              ; preds = %192
  %204 = landingpad { ptr, i32 }
          cleanup
  %205 = extractvalue { ptr, i32 } %204, 0
  store ptr %205, ptr %5, align 8
  %206 = extractvalue { ptr, i32 } %204, 1
  store i32 %206, ptr %6, align 4
  br label %230

207:                                              ; preds = %193
  %208 = landingpad { ptr, i32 }
          cleanup
  %209 = extractvalue { ptr, i32 } %208, 0
  store ptr %209, ptr %5, align 8
  %210 = extractvalue { ptr, i32 } %208, 1
  store i32 %210, ptr %6, align 4
  br label %229

211:                                              ; preds = %194
  %212 = landingpad { ptr, i32 }
          cleanup
  %213 = extractvalue { ptr, i32 } %212, 0
  store ptr %213, ptr %5, align 8
  %214 = extractvalue { ptr, i32 } %212, 1
  store i32 %214, ptr %6, align 4
  br label %228

215:                                              ; preds = %195
  %216 = landingpad { ptr, i32 }
          cleanup
  %217 = extractvalue { ptr, i32 } %216, 0
  store ptr %217, ptr %5, align 8
  %218 = extractvalue { ptr, i32 } %216, 1
  store i32 %218, ptr %6, align 4
  call void @_ZNSt7__cxx1112basic_stringIcSt11char_traitsIcESaIcEED1Ev(ptr noundef nonnull align 8 dereferenceable(32) %24) #3
  br label %228

219:                                              ; No predecessors!
  br label %220

220:                                              ; preds = %219, %198
  call void @_ZNSt7__cxx1112basic_stringIcSt11char_traitsIcESaIcEED1Ev(ptr noundef nonnull align 8 dereferenceable(32) %24) #3
  call void @_ZNSt7__cxx1112basic_stringIcSt11char_traitsIcESaIcEED1Ev(ptr noundef nonnull align 8 dereferenceable(32) %27) #3
  call void @_ZNSaIcED1Ev(ptr noundef nonnull align 1 dereferenceable(1) %28) #3
  call void @_ZNSt7__cxx1112basic_stringIcSt11char_traitsIcESaIcEED1Ev(ptr noundef nonnull align 8 dereferenceable(32) %25) #3
  call void @_ZNSaIcED1Ev(ptr noundef nonnull align 1 dereferenceable(1) %26) #3
  call void @_ZNSaIcEC1Ev(ptr noundef nonnull align 1 dereferenceable(1) %31) #3
  invoke void @_ZNSt7__cxx1112basic_stringIcSt11char_traitsIcESaIcEEC1EPKcRKS3_(ptr noundef nonnull align 8 dereferenceable(32) %30, ptr noundef @.str.12, ptr noundef nonnull align 1 dereferenceable(1) %31)
          to label %221 unwind label %231

221:                                              ; preds = %220
  call void @_ZNSaIcEC1Ev(ptr noundef nonnull align 1 dereferenceable(1) %33) #3
  invoke void @_ZNSt7__cxx1112basic_stringIcSt11char_traitsIcESaIcEEC1EPKcRKS3_(ptr noundef nonnull align 8 dereferenceable(32) %32, ptr noundef @.str.14, ptr noundef nonnull align 1 dereferenceable(1) %33)
          to label %222 unwind label %235

222:                                              ; preds = %221
  invoke void @_ZN17greedy_algorithms14BinaryAddition9addBinaryERKNSt7__cxx1112basic_stringIcSt11char_traitsIcESaIcEEES8_(ptr sret(%"class.std::__cxx11::basic_string") align 8 %29, ptr noundef nonnull align 1 dereferenceable(1) %1, ptr noundef nonnull align 8 dereferenceable(32) %30, ptr noundef nonnull align 8 dereferenceable(32) %32)
          to label %223 unwind label %239

223:                                              ; preds = %222
  %224 = invoke noundef zeroext i1 @_ZSteqIcSt11char_traitsIcESaIcEEbRKNSt7__cxx1112basic_stringIT_T0_T1_EEPKS5_(ptr noundef nonnull align 8 dereferenceable(32) %29, ptr noundef @.str.14)
          to label %225 unwind label %243

225:                                              ; preds = %223
  br i1 %224, label %226, label %227

226:                                              ; preds = %225
  br label %248

227:                                              ; preds = %225
  call void @__assert_fail(ptr noundef @.str.15, ptr noundef @.str.4, i32 noundef 95, ptr noundef @__PRETTY_FUNCTION__._ZL5testsv) #10
  unreachable

228:                                              ; preds = %215, %211
  call void @_ZNSt7__cxx1112basic_stringIcSt11char_traitsIcESaIcEED1Ev(ptr noundef nonnull align 8 dereferenceable(32) %27) #3
  br label %229

229:                                              ; preds = %228, %207
  call void @_ZNSaIcED1Ev(ptr noundef nonnull align 1 dereferenceable(1) %28) #3
  call void @_ZNSt7__cxx1112basic_stringIcSt11char_traitsIcESaIcEED1Ev(ptr noundef nonnull align 8 dereferenceable(32) %25) #3
  br label %230

230:                                              ; preds = %229, %203
  call void @_ZNSaIcED1Ev(ptr noundef nonnull align 1 dereferenceable(1) %26) #3
  br label %532

231:                                              ; preds = %220
  %232 = landingpad { ptr, i32 }
          cleanup
  %233 = extractvalue { ptr, i32 } %232, 0
  store ptr %233, ptr %5, align 8
  %234 = extractvalue { ptr, i32 } %232, 1
  store i32 %234, ptr %6, align 4
  br label %258

235:                                              ; preds = %221
  %236 = landingpad { ptr, i32 }
          cleanup
  %237 = extractvalue { ptr, i32 } %236, 0
  store ptr %237, ptr %5, align 8
  %238 = extractvalue { ptr, i32 } %236, 1
  store i32 %238, ptr %6, align 4
  br label %257

239:                                              ; preds = %222
  %240 = landingpad { ptr, i32 }
          cleanup
  %241 = extractvalue { ptr, i32 } %240, 0
  store ptr %241, ptr %5, align 8
  %242 = extractvalue { ptr, i32 } %240, 1
  store i32 %242, ptr %6, align 4
  br label %256

243:                                              ; preds = %223
  %244 = landingpad { ptr, i32 }
          cleanup
  %245 = extractvalue { ptr, i32 } %244, 0
  store ptr %245, ptr %5, align 8
  %246 = extractvalue { ptr, i32 } %244, 1
  store i32 %246, ptr %6, align 4
  call void @_ZNSt7__cxx1112basic_stringIcSt11char_traitsIcESaIcEED1Ev(ptr noundef nonnull align 8 dereferenceable(32) %29) #3
  br label %256

247:                                              ; No predecessors!
  br label %248

248:                                              ; preds = %247, %226
  call void @_ZNSt7__cxx1112basic_stringIcSt11char_traitsIcESaIcEED1Ev(ptr noundef nonnull align 8 dereferenceable(32) %29) #3
  call void @_ZNSt7__cxx1112basic_stringIcSt11char_traitsIcESaIcEED1Ev(ptr noundef nonnull align 8 dereferenceable(32) %32) #3
  call void @_ZNSaIcED1Ev(ptr noundef nonnull align 1 dereferenceable(1) %33) #3
  call void @_ZNSt7__cxx1112basic_stringIcSt11char_traitsIcESaIcEED1Ev(ptr noundef nonnull align 8 dereferenceable(32) %30) #3
  call void @_ZNSaIcED1Ev(ptr noundef nonnull align 1 dereferenceable(1) %31) #3
  call void @_ZNSaIcEC1Ev(ptr noundef nonnull align 1 dereferenceable(1) %36) #3
  invoke void @_ZNSt7__cxx1112basic_stringIcSt11char_traitsIcESaIcEEC1EPKcRKS3_(ptr noundef nonnull align 8 dereferenceable(32) %35, ptr noundef @.str.14, ptr noundef nonnull align 1 dereferenceable(1) %36)
          to label %249 unwind label %259

249:                                              ; preds = %248
  call void @_ZNSaIcEC1Ev(ptr noundef nonnull align 1 dereferenceable(1) %38) #3
  invoke void @_ZNSt7__cxx1112basic_stringIcSt11char_traitsIcESaIcEEC1EPKcRKS3_(ptr noundef nonnull align 8 dereferenceable(32) %37, ptr noundef @.str.12, ptr noundef nonnull align 1 dereferenceable(1) %38)
          to label %250 unwind label %263

250:                                              ; preds = %249
  invoke void @_ZN17greedy_algorithms14BinaryAddition9addBinaryERKNSt7__cxx1112basic_stringIcSt11char_traitsIcESaIcEEES8_(ptr sret(%"class.std::__cxx11::basic_string") align 8 %34, ptr noundef nonnull align 1 dereferenceable(1) %1, ptr noundef nonnull align 8 dereferenceable(32) %35, ptr noundef nonnull align 8 dereferenceable(32) %37)
          to label %251 unwind label %267

251:                                              ; preds = %250
  %252 = invoke noundef zeroext i1 @_ZSteqIcSt11char_traitsIcESaIcEEbRKNSt7__cxx1112basic_stringIT_T0_T1_EEPKS5_(ptr noundef nonnull align 8 dereferenceable(32) %34, ptr noundef @.str.14)
          to label %253 unwind label %271

253:                                              ; preds = %251
  br i1 %252, label %254, label %255

254:                                              ; preds = %253
  br label %276

255:                                              ; preds = %253
  call void @__assert_fail(ptr noundef @.str.16, ptr noundef @.str.4, i32 noundef 96, ptr noundef @__PRETTY_FUNCTION__._ZL5testsv) #10
  unreachable

256:                                              ; preds = %243, %239
  call void @_ZNSt7__cxx1112basic_stringIcSt11char_traitsIcESaIcEED1Ev(ptr noundef nonnull align 8 dereferenceable(32) %32) #3
  br label %257

257:                                              ; preds = %256, %235
  call void @_ZNSaIcED1Ev(ptr noundef nonnull align 1 dereferenceable(1) %33) #3
  call void @_ZNSt7__cxx1112basic_stringIcSt11char_traitsIcESaIcEED1Ev(ptr noundef nonnull align 8 dereferenceable(32) %30) #3
  br label %258

258:                                              ; preds = %257, %231
  call void @_ZNSaIcED1Ev(ptr noundef nonnull align 1 dereferenceable(1) %31) #3
  br label %532

259:                                              ; preds = %248
  %260 = landingpad { ptr, i32 }
          cleanup
  %261 = extractvalue { ptr, i32 } %260, 0
  store ptr %261, ptr %5, align 8
  %262 = extractvalue { ptr, i32 } %260, 1
  store i32 %262, ptr %6, align 4
  br label %286

263:                                              ; preds = %249
  %264 = landingpad { ptr, i32 }
          cleanup
  %265 = extractvalue { ptr, i32 } %264, 0
  store ptr %265, ptr %5, align 8
  %266 = extractvalue { ptr, i32 } %264, 1
  store i32 %266, ptr %6, align 4
  br label %285

267:                                              ; preds = %250
  %268 = landingpad { ptr, i32 }
          cleanup
  %269 = extractvalue { ptr, i32 } %268, 0
  store ptr %269, ptr %5, align 8
  %270 = extractvalue { ptr, i32 } %268, 1
  store i32 %270, ptr %6, align 4
  br label %284

271:                                              ; preds = %251
  %272 = landingpad { ptr, i32 }
          cleanup
  %273 = extractvalue { ptr, i32 } %272, 0
  store ptr %273, ptr %5, align 8
  %274 = extractvalue { ptr, i32 } %272, 1
  store i32 %274, ptr %6, align 4
  call void @_ZNSt7__cxx1112basic_stringIcSt11char_traitsIcESaIcEED1Ev(ptr noundef nonnull align 8 dereferenceable(32) %34) #3
  br label %284

275:                                              ; No predecessors!
  br label %276

276:                                              ; preds = %275, %254
  call void @_ZNSt7__cxx1112basic_stringIcSt11char_traitsIcESaIcEED1Ev(ptr noundef nonnull align 8 dereferenceable(32) %34) #3
  call void @_ZNSt7__cxx1112basic_stringIcSt11char_traitsIcESaIcEED1Ev(ptr noundef nonnull align 8 dereferenceable(32) %37) #3
  call void @_ZNSaIcED1Ev(ptr noundef nonnull align 1 dereferenceable(1) %38) #3
  call void @_ZNSt7__cxx1112basic_stringIcSt11char_traitsIcESaIcEED1Ev(ptr noundef nonnull align 8 dereferenceable(32) %35) #3
  call void @_ZNSaIcED1Ev(ptr noundef nonnull align 1 dereferenceable(1) %36) #3
  call void @_ZNSaIcEC1Ev(ptr noundef nonnull align 1 dereferenceable(1) %41) #3
  invoke void @_ZNSt7__cxx1112basic_stringIcSt11char_traitsIcESaIcEEC1EPKcRKS3_(ptr noundef nonnull align 8 dereferenceable(32) %40, ptr noundef @.str.17, ptr noundef nonnull align 1 dereferenceable(1) %41)
          to label %277 unwind label %287

277:                                              ; preds = %276
  call void @_ZNSaIcEC1Ev(ptr noundef nonnull align 1 dereferenceable(1) %43) #3
  invoke void @_ZNSt7__cxx1112basic_stringIcSt11char_traitsIcESaIcEEC1EPKcRKS3_(ptr noundef nonnull align 8 dereferenceable(32) %42, ptr noundef @.str.18, ptr noundef nonnull align 1 dereferenceable(1) %43)
          to label %278 unwind label %291

278:                                              ; preds = %277
  invoke void @_ZN17greedy_algorithms14BinaryAddition9addBinaryERKNSt7__cxx1112basic_stringIcSt11char_traitsIcESaIcEEES8_(ptr sret(%"class.std::__cxx11::basic_string") align 8 %39, ptr noundef nonnull align 1 dereferenceable(1) %1, ptr noundef nonnull align 8 dereferenceable(32) %40, ptr noundef nonnull align 8 dereferenceable(32) %42)
          to label %279 unwind label %295

279:                                              ; preds = %278
  %280 = invoke noundef zeroext i1 @_ZSteqIcSt11char_traitsIcESaIcEEbRKNSt7__cxx1112basic_stringIT_T0_T1_EEPKS5_(ptr noundef nonnull align 8 dereferenceable(32) %39, ptr noundef @.str.19)
          to label %281 unwind label %299

281:                                              ; preds = %279
  br i1 %280, label %282, label %283

282:                                              ; preds = %281
  br label %304

283:                                              ; preds = %281
  call void @__assert_fail(ptr noundef @.str.20, ptr noundef @.str.4, i32 noundef 99, ptr noundef @__PRETTY_FUNCTION__._ZL5testsv) #10
  unreachable

284:                                              ; preds = %271, %267
  call void @_ZNSt7__cxx1112basic_stringIcSt11char_traitsIcESaIcEED1Ev(ptr noundef nonnull align 8 dereferenceable(32) %37) #3
  br label %285

285:                                              ; preds = %284, %263
  call void @_ZNSaIcED1Ev(ptr noundef nonnull align 1 dereferenceable(1) %38) #3
  call void @_ZNSt7__cxx1112basic_stringIcSt11char_traitsIcESaIcEED1Ev(ptr noundef nonnull align 8 dereferenceable(32) %35) #3
  br label %286

286:                                              ; preds = %285, %259
  call void @_ZNSaIcED1Ev(ptr noundef nonnull align 1 dereferenceable(1) %36) #3
  br label %532

287:                                              ; preds = %276
  %288 = landingpad { ptr, i32 }
          cleanup
  %289 = extractvalue { ptr, i32 } %288, 0
  store ptr %289, ptr %5, align 8
  %290 = extractvalue { ptr, i32 } %288, 1
  store i32 %290, ptr %6, align 4
  br label %314

291:                                              ; preds = %277
  %292 = landingpad { ptr, i32 }
          cleanup
  %293 = extractvalue { ptr, i32 } %292, 0
  store ptr %293, ptr %5, align 8
  %294 = extractvalue { ptr, i32 } %292, 1
  store i32 %294, ptr %6, align 4
  br label %313

295:                                              ; preds = %278
  %296 = landingpad { ptr, i32 }
          cleanup
  %297 = extractvalue { ptr, i32 } %296, 0
  store ptr %297, ptr %5, align 8
  %298 = extractvalue { ptr, i32 } %296, 1
  store i32 %298, ptr %6, align 4
  br label %312

299:                                              ; preds = %279
  %300 = landingpad { ptr, i32 }
          cleanup
  %301 = extractvalue { ptr, i32 } %300, 0
  store ptr %301, ptr %5, align 8
  %302 = extractvalue { ptr, i32 } %300, 1
  store i32 %302, ptr %6, align 4
  call void @_ZNSt7__cxx1112basic_stringIcSt11char_traitsIcESaIcEED1Ev(ptr noundef nonnull align 8 dereferenceable(32) %39) #3
  br label %312

303:                                              ; No predecessors!
  br label %304

304:                                              ; preds = %303, %282
  call void @_ZNSt7__cxx1112basic_stringIcSt11char_traitsIcESaIcEED1Ev(ptr noundef nonnull align 8 dereferenceable(32) %39) #3
  call void @_ZNSt7__cxx1112basic_stringIcSt11char_traitsIcESaIcEED1Ev(ptr noundef nonnull align 8 dereferenceable(32) %42) #3
  call void @_ZNSaIcED1Ev(ptr noundef nonnull align 1 dereferenceable(1) %43) #3
  call void @_ZNSt7__cxx1112basic_stringIcSt11char_traitsIcESaIcEED1Ev(ptr noundef nonnull align 8 dereferenceable(32) %40) #3
  call void @_ZNSaIcED1Ev(ptr noundef nonnull align 1 dereferenceable(1) %41) #3
  call void @_ZNSaIcEC1Ev(ptr noundef nonnull align 1 dereferenceable(1) %46) #3
  invoke void @_ZNSt7__cxx1112basic_stringIcSt11char_traitsIcESaIcEEC1EPKcRKS3_(ptr noundef nonnull align 8 dereferenceable(32) %45, ptr noundef @.str.21, ptr noundef nonnull align 1 dereferenceable(1) %46)
          to label %305 unwind label %315

305:                                              ; preds = %304
  call void @_ZNSaIcEC1Ev(ptr noundef nonnull align 1 dereferenceable(1) %48) #3
  invoke void @_ZNSt7__cxx1112basic_stringIcSt11char_traitsIcESaIcEEC1EPKcRKS3_(ptr noundef nonnull align 8 dereferenceable(32) %47, ptr noundef @.str.22, ptr noundef nonnull align 1 dereferenceable(1) %48)
          to label %306 unwind label %319

306:                                              ; preds = %305
  invoke void @_ZN17greedy_algorithms14BinaryAddition9addBinaryERKNSt7__cxx1112basic_stringIcSt11char_traitsIcESaIcEEES8_(ptr sret(%"class.std::__cxx11::basic_string") align 8 %44, ptr noundef nonnull align 1 dereferenceable(1) %1, ptr noundef nonnull align 8 dereferenceable(32) %45, ptr noundef nonnull align 8 dereferenceable(32) %47)
          to label %307 unwind label %323

307:                                              ; preds = %306
  %308 = invoke noundef zeroext i1 @_ZSteqIcSt11char_traitsIcESaIcEEbRKNSt7__cxx1112basic_stringIT_T0_T1_EEPKS5_(ptr noundef nonnull align 8 dereferenceable(32) %44, ptr noundef @.str.23)
          to label %309 unwind label %327

309:                                              ; preds = %307
  br i1 %308, label %310, label %311

310:                                              ; preds = %309
  br label %332

311:                                              ; preds = %309
  call void @__assert_fail(ptr noundef @.str.24, ptr noundef @.str.4, i32 noundef 100, ptr noundef @__PRETTY_FUNCTION__._ZL5testsv) #10
  unreachable

312:                                              ; preds = %299, %295
  call void @_ZNSt7__cxx1112basic_stringIcSt11char_traitsIcESaIcEED1Ev(ptr noundef nonnull align 8 dereferenceable(32) %42) #3
  br label %313

313:                                              ; preds = %312, %291
  call void @_ZNSaIcED1Ev(ptr noundef nonnull align 1 dereferenceable(1) %43) #3
  call void @_ZNSt7__cxx1112basic_stringIcSt11char_traitsIcESaIcEED1Ev(ptr noundef nonnull align 8 dereferenceable(32) %40) #3
  br label %314

314:                                              ; preds = %313, %287
  call void @_ZNSaIcED1Ev(ptr noundef nonnull align 1 dereferenceable(1) %41) #3
  br label %532

315:                                              ; preds = %304
  %316 = landingpad { ptr, i32 }
          cleanup
  %317 = extractvalue { ptr, i32 } %316, 0
  store ptr %317, ptr %5, align 8
  %318 = extractvalue { ptr, i32 } %316, 1
  store i32 %318, ptr %6, align 4
  br label %342

319:                                              ; preds = %305
  %320 = landingpad { ptr, i32 }
          cleanup
  %321 = extractvalue { ptr, i32 } %320, 0
  store ptr %321, ptr %5, align 8
  %322 = extractvalue { ptr, i32 } %320, 1
  store i32 %322, ptr %6, align 4
  br label %341

323:                                              ; preds = %306
  %324 = landingpad { ptr, i32 }
          cleanup
  %325 = extractvalue { ptr, i32 } %324, 0
  store ptr %325, ptr %5, align 8
  %326 = extractvalue { ptr, i32 } %324, 1
  store i32 %326, ptr %6, align 4
  br label %340

327:                                              ; preds = %307
  %328 = landingpad { ptr, i32 }
          cleanup
  %329 = extractvalue { ptr, i32 } %328, 0
  store ptr %329, ptr %5, align 8
  %330 = extractvalue { ptr, i32 } %328, 1
  store i32 %330, ptr %6, align 4
  call void @_ZNSt7__cxx1112basic_stringIcSt11char_traitsIcESaIcEED1Ev(ptr noundef nonnull align 8 dereferenceable(32) %44) #3
  br label %340

331:                                              ; No predecessors!
  br label %332

332:                                              ; preds = %331, %310
  call void @_ZNSt7__cxx1112basic_stringIcSt11char_traitsIcESaIcEED1Ev(ptr noundef nonnull align 8 dereferenceable(32) %44) #3
  call void @_ZNSt7__cxx1112basic_stringIcSt11char_traitsIcESaIcEED1Ev(ptr noundef nonnull align 8 dereferenceable(32) %47) #3
  call void @_ZNSaIcED1Ev(ptr noundef nonnull align 1 dereferenceable(1) %48) #3
  call void @_ZNSt7__cxx1112basic_stringIcSt11char_traitsIcESaIcEED1Ev(ptr noundef nonnull align 8 dereferenceable(32) %45) #3
  call void @_ZNSaIcED1Ev(ptr noundef nonnull align 1 dereferenceable(1) %46) #3
  call void @_ZNSaIcEC1Ev(ptr noundef nonnull align 1 dereferenceable(1) %51) #3
  invoke void @_ZNSt7__cxx1112basic_stringIcSt11char_traitsIcESaIcEEC1EPKcRKS3_(ptr noundef nonnull align 8 dereferenceable(32) %50, ptr noundef @.str.25, ptr noundef nonnull align 1 dereferenceable(1) %51)
          to label %333 unwind label %343

333:                                              ; preds = %332
  call void @_ZNSaIcEC1Ev(ptr noundef nonnull align 1 dereferenceable(1) %53) #3
  invoke void @_ZNSt7__cxx1112basic_stringIcSt11char_traitsIcESaIcEEC1EPKcRKS3_(ptr noundef nonnull align 8 dereferenceable(32) %52, ptr noundef @.str.26, ptr noundef nonnull align 1 dereferenceable(1) %53)
          to label %334 unwind label %347

334:                                              ; preds = %333
  invoke void @_ZN17greedy_algorithms14BinaryAddition9addBinaryERKNSt7__cxx1112basic_stringIcSt11char_traitsIcESaIcEEES8_(ptr sret(%"class.std::__cxx11::basic_string") align 8 %49, ptr noundef nonnull align 1 dereferenceable(1) %1, ptr noundef nonnull align 8 dereferenceable(32) %50, ptr noundef nonnull align 8 dereferenceable(32) %52)
          to label %335 unwind label %351

335:                                              ; preds = %334
  %336 = invoke noundef zeroext i1 @_ZSteqIcSt11char_traitsIcESaIcEEbRKNSt7__cxx1112basic_stringIT_T0_T1_EEPKS5_(ptr noundef nonnull align 8 dereferenceable(32) %49, ptr noundef @.str.22)
          to label %337 unwind label %355

337:                                              ; preds = %335
  br i1 %336, label %338, label %339

338:                                              ; preds = %337
  br label %360

339:                                              ; preds = %337
  call void @__assert_fail(ptr noundef @.str.27, ptr noundef @.str.4, i32 noundef 101, ptr noundef @__PRETTY_FUNCTION__._ZL5testsv) #10
  unreachable

340:                                              ; preds = %327, %323
  call void @_ZNSt7__cxx1112basic_stringIcSt11char_traitsIcESaIcEED1Ev(ptr noundef nonnull align 8 dereferenceable(32) %47) #3
  br label %341

341:                                              ; preds = %340, %319
  call void @_ZNSaIcED1Ev(ptr noundef nonnull align 1 dereferenceable(1) %48) #3
  call void @_ZNSt7__cxx1112basic_stringIcSt11char_traitsIcESaIcEED1Ev(ptr noundef nonnull align 8 dereferenceable(32) %45) #3
  br label %342

342:                                              ; preds = %341, %315
  call void @_ZNSaIcED1Ev(ptr noundef nonnull align 1 dereferenceable(1) %46) #3
  br label %532

343:                                              ; preds = %332
  %344 = landingpad { ptr, i32 }
          cleanup
  %345 = extractvalue { ptr, i32 } %344, 0
  store ptr %345, ptr %5, align 8
  %346 = extractvalue { ptr, i32 } %344, 1
  store i32 %346, ptr %6, align 4
  br label %370

347:                                              ; preds = %333
  %348 = landingpad { ptr, i32 }
          cleanup
  %349 = extractvalue { ptr, i32 } %348, 0
  store ptr %349, ptr %5, align 8
  %350 = extractvalue { ptr, i32 } %348, 1
  store i32 %350, ptr %6, align 4
  br label %369

351:                                              ; preds = %334
  %352 = landingpad { ptr, i32 }
          cleanup
  %353 = extractvalue { ptr, i32 } %352, 0
  store ptr %353, ptr %5, align 8
  %354 = extractvalue { ptr, i32 } %352, 1
  store i32 %354, ptr %6, align 4
  br label %368

355:                                              ; preds = %335
  %356 = landingpad { ptr, i32 }
          cleanup
  %357 = extractvalue { ptr, i32 } %356, 0
  store ptr %357, ptr %5, align 8
  %358 = extractvalue { ptr, i32 } %356, 1
  store i32 %358, ptr %6, align 4
  call void @_ZNSt7__cxx1112basic_stringIcSt11char_traitsIcESaIcEED1Ev(ptr noundef nonnull align 8 dereferenceable(32) %49) #3
  br label %368

359:                                              ; No predecessors!
  br label %360

360:                                              ; preds = %359, %338
  call void @_ZNSt7__cxx1112basic_stringIcSt11char_traitsIcESaIcEED1Ev(ptr noundef nonnull align 8 dereferenceable(32) %49) #3
  call void @_ZNSt7__cxx1112basic_stringIcSt11char_traitsIcESaIcEED1Ev(ptr noundef nonnull align 8 dereferenceable(32) %52) #3
  call void @_ZNSaIcED1Ev(ptr noundef nonnull align 1 dereferenceable(1) %53) #3
  call void @_ZNSt7__cxx1112basic_stringIcSt11char_traitsIcESaIcEED1Ev(ptr noundef nonnull align 8 dereferenceable(32) %50) #3
  call void @_ZNSaIcED1Ev(ptr noundef nonnull align 1 dereferenceable(1) %51) #3
  call void @_ZNSaIcEC1Ev(ptr noundef nonnull align 1 dereferenceable(1) %56) #3
  invoke void @_ZNSt7__cxx1112basic_stringIcSt11char_traitsIcESaIcEEC1EPKcRKS3_(ptr noundef nonnull align 8 dereferenceable(32) %55, ptr noundef @.str.28, ptr noundef nonnull align 1 dereferenceable(1) %56)
          to label %361 unwind label %371

361:                                              ; preds = %360
  call void @_ZNSaIcEC1Ev(ptr noundef nonnull align 1 dereferenceable(1) %58) #3
  invoke void @_ZNSt7__cxx1112basic_stringIcSt11char_traitsIcESaIcEEC1EPKcRKS3_(ptr noundef nonnull align 8 dereferenceable(32) %57, ptr noundef @.str.1, ptr noundef nonnull align 1 dereferenceable(1) %58)
          to label %362 unwind label %375

362:                                              ; preds = %361
  invoke void @_ZN17greedy_algorithms14BinaryAddition9addBinaryERKNSt7__cxx1112basic_stringIcSt11char_traitsIcESaIcEEES8_(ptr sret(%"class.std::__cxx11::basic_string") align 8 %54, ptr noundef nonnull align 1 dereferenceable(1) %1, ptr noundef nonnull align 8 dereferenceable(32) %55, ptr noundef nonnull align 8 dereferenceable(32) %57)
          to label %363 unwind label %379

363:                                              ; preds = %362
  %364 = invoke noundef zeroext i1 @_ZSteqIcSt11char_traitsIcESaIcEEbRKNSt7__cxx1112basic_stringIT_T0_T1_EEPKS5_(ptr noundef nonnull align 8 dereferenceable(32) %54, ptr noundef @.str.29)
          to label %365 unwind label %383

365:                                              ; preds = %363
  br i1 %364, label %366, label %367

366:                                              ; preds = %365
  br label %388

367:                                              ; preds = %365
  call void @__assert_fail(ptr noundef @.str.30, ptr noundef @.str.4, i32 noundef 104, ptr noundef @__PRETTY_FUNCTION__._ZL5testsv) #10
  unreachable

368:                                              ; preds = %355, %351
  call void @_ZNSt7__cxx1112basic_stringIcSt11char_traitsIcESaIcEED1Ev(ptr noundef nonnull align 8 dereferenceable(32) %52) #3
  br label %369

369:                                              ; preds = %368, %347
  call void @_ZNSaIcED1Ev(ptr noundef nonnull align 1 dereferenceable(1) %53) #3
  call void @_ZNSt7__cxx1112basic_stringIcSt11char_traitsIcESaIcEED1Ev(ptr noundef nonnull align 8 dereferenceable(32) %50) #3
  br label %370

370:                                              ; preds = %369, %343
  call void @_ZNSaIcED1Ev(ptr noundef nonnull align 1 dereferenceable(1) %51) #3
  br label %532

371:                                              ; preds = %360
  %372 = landingpad { ptr, i32 }
          cleanup
  %373 = extractvalue { ptr, i32 } %372, 0
  store ptr %373, ptr %5, align 8
  %374 = extractvalue { ptr, i32 } %372, 1
  store i32 %374, ptr %6, align 4
  br label %398

375:                                              ; preds = %361
  %376 = landingpad { ptr, i32 }
          cleanup
  %377 = extractvalue { ptr, i32 } %376, 0
  store ptr %377, ptr %5, align 8
  %378 = extractvalue { ptr, i32 } %376, 1
  store i32 %378, ptr %6, align 4
  br label %397

379:                                              ; preds = %362
  %380 = landingpad { ptr, i32 }
          cleanup
  %381 = extractvalue { ptr, i32 } %380, 0
  store ptr %381, ptr %5, align 8
  %382 = extractvalue { ptr, i32 } %380, 1
  store i32 %382, ptr %6, align 4
  br label %396

383:                                              ; preds = %363
  %384 = landingpad { ptr, i32 }
          cleanup
  %385 = extractvalue { ptr, i32 } %384, 0
  store ptr %385, ptr %5, align 8
  %386 = extractvalue { ptr, i32 } %384, 1
  store i32 %386, ptr %6, align 4
  call void @_ZNSt7__cxx1112basic_stringIcSt11char_traitsIcESaIcEED1Ev(ptr noundef nonnull align 8 dereferenceable(32) %54) #3
  br label %396

387:                                              ; No predecessors!
  br label %388

388:                                              ; preds = %387, %366
  call void @_ZNSt7__cxx1112basic_stringIcSt11char_traitsIcESaIcEED1Ev(ptr noundef nonnull align 8 dereferenceable(32) %54) #3
  call void @_ZNSt7__cxx1112basic_stringIcSt11char_traitsIcESaIcEED1Ev(ptr noundef nonnull align 8 dereferenceable(32) %57) #3
  call void @_ZNSaIcED1Ev(ptr noundef nonnull align 1 dereferenceable(1) %58) #3
  call void @_ZNSt7__cxx1112basic_stringIcSt11char_traitsIcESaIcEED1Ev(ptr noundef nonnull align 8 dereferenceable(32) %55) #3
  call void @_ZNSaIcED1Ev(ptr noundef nonnull align 1 dereferenceable(1) %56) #3
  call void @_ZNSaIcEC1Ev(ptr noundef nonnull align 1 dereferenceable(1) %61) #3
  invoke void @_ZNSt7__cxx1112basic_stringIcSt11char_traitsIcESaIcEEC1EPKcRKS3_(ptr noundef nonnull align 8 dereferenceable(32) %60, ptr noundef @.str.31, ptr noundef nonnull align 1 dereferenceable(1) %61)
          to label %389 unwind label %399

389:                                              ; preds = %388
  call void @_ZNSaIcEC1Ev(ptr noundef nonnull align 1 dereferenceable(1) %63) #3
  invoke void @_ZNSt7__cxx1112basic_stringIcSt11char_traitsIcESaIcEEC1EPKcRKS3_(ptr noundef nonnull align 8 dereferenceable(32) %62, ptr noundef @.str.1, ptr noundef nonnull align 1 dereferenceable(1) %63)
          to label %390 unwind label %403

390:                                              ; preds = %389
  invoke void @_ZN17greedy_algorithms14BinaryAddition9addBinaryERKNSt7__cxx1112basic_stringIcSt11char_traitsIcESaIcEEES8_(ptr sret(%"class.std::__cxx11::basic_string") align 8 %59, ptr noundef nonnull align 1 dereferenceable(1) %1, ptr noundef nonnull align 8 dereferenceable(32) %60, ptr noundef nonnull align 8 dereferenceable(32) %62)
          to label %391 unwind label %407

391:                                              ; preds = %390
  %392 = invoke noundef zeroext i1 @_ZSteqIcSt11char_traitsIcESaIcEEbRKNSt7__cxx1112basic_stringIT_T0_T1_EEPKS5_(ptr noundef nonnull align 8 dereferenceable(32) %59, ptr noundef @.str.29)
          to label %393 unwind label %411

393:                                              ; preds = %391
  br i1 %392, label %394, label %395

394:                                              ; preds = %393
  br label %416

395:                                              ; preds = %393
  call void @__assert_fail(ptr noundef @.str.32, ptr noundef @.str.4, i32 noundef 105, ptr noundef @__PRETTY_FUNCTION__._ZL5testsv) #10
  unreachable

396:                                              ; preds = %383, %379
  call void @_ZNSt7__cxx1112basic_stringIcSt11char_traitsIcESaIcEED1Ev(ptr noundef nonnull align 8 dereferenceable(32) %57) #3
  br label %397

397:                                              ; preds = %396, %375
  call void @_ZNSaIcED1Ev(ptr noundef nonnull align 1 dereferenceable(1) %58) #3
  call void @_ZNSt7__cxx1112basic_stringIcSt11char_traitsIcESaIcEED1Ev(ptr noundef nonnull align 8 dereferenceable(32) %55) #3
  br label %398

398:                                              ; preds = %397, %371
  call void @_ZNSaIcED1Ev(ptr noundef nonnull align 1 dereferenceable(1) %56) #3
  br label %532

399:                                              ; preds = %388
  %400 = landingpad { ptr, i32 }
          cleanup
  %401 = extractvalue { ptr, i32 } %400, 0
  store ptr %401, ptr %5, align 8
  %402 = extractvalue { ptr, i32 } %400, 1
  store i32 %402, ptr %6, align 4
  br label %426

403:                                              ; preds = %389
  %404 = landingpad { ptr, i32 }
          cleanup
  %405 = extractvalue { ptr, i32 } %404, 0
  store ptr %405, ptr %5, align 8
  %406 = extractvalue { ptr, i32 } %404, 1
  store i32 %406, ptr %6, align 4
  br label %425

407:                                              ; preds = %390
  %408 = landingpad { ptr, i32 }
          cleanup
  %409 = extractvalue { ptr, i32 } %408, 0
  store ptr %409, ptr %5, align 8
  %410 = extractvalue { ptr, i32 } %408, 1
  store i32 %410, ptr %6, align 4
  br label %424

411:                                              ; preds = %391
  %412 = landingpad { ptr, i32 }
          cleanup
  %413 = extractvalue { ptr, i32 } %412, 0
  store ptr %413, ptr %5, align 8
  %414 = extractvalue { ptr, i32 } %412, 1
  store i32 %414, ptr %6, align 4
  call void @_ZNSt7__cxx1112basic_stringIcSt11char_traitsIcESaIcEED1Ev(ptr noundef nonnull align 8 dereferenceable(32) %59) #3
  br label %424

415:                                              ; No predecessors!
  br label %416

416:                                              ; preds = %415, %394
  call void @_ZNSt7__cxx1112basic_stringIcSt11char_traitsIcESaIcEED1Ev(ptr noundef nonnull align 8 dereferenceable(32) %59) #3
  call void @_ZNSt7__cxx1112basic_stringIcSt11char_traitsIcESaIcEED1Ev(ptr noundef nonnull align 8 dereferenceable(32) %62) #3
  call void @_ZNSaIcED1Ev(ptr noundef nonnull align 1 dereferenceable(1) %63) #3
  call void @_ZNSt7__cxx1112basic_stringIcSt11char_traitsIcESaIcEED1Ev(ptr noundef nonnull align 8 dereferenceable(32) %60) #3
  call void @_ZNSaIcED1Ev(ptr noundef nonnull align 1 dereferenceable(1) %61) #3
  call void @_ZNSaIcEC1Ev(ptr noundef nonnull align 1 dereferenceable(1) %66) #3
  invoke void @_ZNSt7__cxx1112basic_stringIcSt11char_traitsIcESaIcEEC1EPKcRKS3_(ptr noundef nonnull align 8 dereferenceable(32) %65, ptr noundef @.str, ptr noundef nonnull align 1 dereferenceable(1) %66)
          to label %417 unwind label %427

417:                                              ; preds = %416
  call void @_ZNSaIcEC1Ev(ptr noundef nonnull align 1 dereferenceable(1) %68) #3
  invoke void @_ZNSt7__cxx1112basic_stringIcSt11char_traitsIcESaIcEEC1EPKcRKS3_(ptr noundef nonnull align 8 dereferenceable(32) %67, ptr noundef @.str.33, ptr noundef nonnull align 1 dereferenceable(1) %68)
          to label %418 unwind label %431

418:                                              ; preds = %417
  invoke void @_ZN17greedy_algorithms14BinaryAddition9addBinaryERKNSt7__cxx1112basic_stringIcSt11char_traitsIcESaIcEEES8_(ptr sret(%"class.std::__cxx11::basic_string") align 8 %64, ptr noundef nonnull align 1 dereferenceable(1) %1, ptr noundef nonnull align 8 dereferenceable(32) %65, ptr noundef nonnull align 8 dereferenceable(32) %67)
          to label %419 unwind label %435

419:                                              ; preds = %418
  %420 = invoke noundef zeroext i1 @_ZSteqIcSt11char_traitsIcESaIcEEbRKNSt7__cxx1112basic_stringIT_T0_T1_EEPKS5_(ptr noundef nonnull align 8 dereferenceable(32) %64, ptr noundef @.str.29)
          to label %421 unwind label %439

421:                                              ; preds = %419
  br i1 %420, label %422, label %423

422:                                              ; preds = %421
  br label %444

423:                                              ; preds = %421
  call void @__assert_fail(ptr noundef @.str.34, ptr noundef @.str.4, i32 noundef 106, ptr noundef @__PRETTY_FUNCTION__._ZL5testsv) #10
  unreachable

424:                                              ; preds = %411, %407
  call void @_ZNSt7__cxx1112basic_stringIcSt11char_traitsIcESaIcEED1Ev(ptr noundef nonnull align 8 dereferenceable(32) %62) #3
  br label %425

425:                                              ; preds = %424, %403
  call void @_ZNSaIcED1Ev(ptr noundef nonnull align 1 dereferenceable(1) %63) #3
  call void @_ZNSt7__cxx1112basic_stringIcSt11char_traitsIcESaIcEED1Ev(ptr noundef nonnull align 8 dereferenceable(32) %60) #3
  br label %426

426:                                              ; preds = %425, %399
  call void @_ZNSaIcED1Ev(ptr noundef nonnull align 1 dereferenceable(1) %61) #3
  br label %532

427:                                              ; preds = %416
  %428 = landingpad { ptr, i32 }
          cleanup
  %429 = extractvalue { ptr, i32 } %428, 0
  store ptr %429, ptr %5, align 8
  %430 = extractvalue { ptr, i32 } %428, 1
  store i32 %430, ptr %6, align 4
  br label %454

431:                                              ; preds = %417
  %432 = landingpad { ptr, i32 }
          cleanup
  %433 = extractvalue { ptr, i32 } %432, 0
  store ptr %433, ptr %5, align 8
  %434 = extractvalue { ptr, i32 } %432, 1
  store i32 %434, ptr %6, align 4
  br label %453

435:                                              ; preds = %418
  %436 = landingpad { ptr, i32 }
          cleanup
  %437 = extractvalue { ptr, i32 } %436, 0
  store ptr %437, ptr %5, align 8
  %438 = extractvalue { ptr, i32 } %436, 1
  store i32 %438, ptr %6, align 4
  br label %452

439:                                              ; preds = %419
  %440 = landingpad { ptr, i32 }
          cleanup
  %441 = extractvalue { ptr, i32 } %440, 0
  store ptr %441, ptr %5, align 8
  %442 = extractvalue { ptr, i32 } %440, 1
  store i32 %442, ptr %6, align 4
  call void @_ZNSt7__cxx1112basic_stringIcSt11char_traitsIcESaIcEED1Ev(ptr noundef nonnull align 8 dereferenceable(32) %64) #3
  br label %452

443:                                              ; No predecessors!
  br label %444

444:                                              ; preds = %443, %422
  call void @_ZNSt7__cxx1112basic_stringIcSt11char_traitsIcESaIcEED1Ev(ptr noundef nonnull align 8 dereferenceable(32) %64) #3
  call void @_ZNSt7__cxx1112basic_stringIcSt11char_traitsIcESaIcEED1Ev(ptr noundef nonnull align 8 dereferenceable(32) %67) #3
  call void @_ZNSaIcED1Ev(ptr noundef nonnull align 1 dereferenceable(1) %68) #3
  call void @_ZNSt7__cxx1112basic_stringIcSt11char_traitsIcESaIcEED1Ev(ptr noundef nonnull align 8 dereferenceable(32) %65) #3
  call void @_ZNSaIcED1Ev(ptr noundef nonnull align 1 dereferenceable(1) %66) #3
  call void @_ZNSaIcEC1Ev(ptr noundef nonnull align 1 dereferenceable(1) %71) #3
  invoke void @_ZNSt7__cxx1112basic_stringIcSt11char_traitsIcESaIcEEC1EPKcRKS3_(ptr noundef nonnull align 8 dereferenceable(32) %70, ptr noundef @.str.35, ptr noundef nonnull align 1 dereferenceable(1) %71)
          to label %445 unwind label %455

445:                                              ; preds = %444
  call void @_ZNSaIcEC1Ev(ptr noundef nonnull align 1 dereferenceable(1) %73) #3
  invoke void @_ZNSt7__cxx1112basic_stringIcSt11char_traitsIcESaIcEEC1EPKcRKS3_(ptr noundef nonnull align 8 dereferenceable(32) %72, ptr noundef @.str.36, ptr noundef nonnull align 1 dereferenceable(1) %73)
          to label %446 unwind label %459

446:                                              ; preds = %445
  invoke void @_ZN17greedy_algorithms14BinaryAddition9addBinaryERKNSt7__cxx1112basic_stringIcSt11char_traitsIcESaIcEEES8_(ptr sret(%"class.std::__cxx11::basic_string") align 8 %69, ptr noundef nonnull align 1 dereferenceable(1) %1, ptr noundef nonnull align 8 dereferenceable(32) %70, ptr noundef nonnull align 8 dereferenceable(32) %72)
          to label %447 unwind label %463

447:                                              ; preds = %446
  %448 = invoke noundef zeroext i1 @_ZSteqIcSt11char_traitsIcESaIcEEbRKNSt7__cxx1112basic_stringIT_T0_T1_EEPKS5_(ptr noundef nonnull align 8 dereferenceable(32) %69, ptr noundef @.str.29)
          to label %449 unwind label %467

449:                                              ; preds = %447
  br i1 %448, label %450, label %451

450:                                              ; preds = %449
  br label %472

451:                                              ; preds = %449
  call void @__assert_fail(ptr noundef @.str.37, ptr noundef @.str.4, i32 noundef 107, ptr noundef @__PRETTY_FUNCTION__._ZL5testsv) #10
  unreachable

452:                                              ; preds = %439, %435
  call void @_ZNSt7__cxx1112basic_stringIcSt11char_traitsIcESaIcEED1Ev(ptr noundef nonnull align 8 dereferenceable(32) %67) #3
  br label %453

453:                                              ; preds = %452, %431
  call void @_ZNSaIcED1Ev(ptr noundef nonnull align 1 dereferenceable(1) %68) #3
  call void @_ZNSt7__cxx1112basic_stringIcSt11char_traitsIcESaIcEED1Ev(ptr noundef nonnull align 8 dereferenceable(32) %65) #3
  br label %454

454:                                              ; preds = %453, %427
  call void @_ZNSaIcED1Ev(ptr noundef nonnull align 1 dereferenceable(1) %66) #3
  br label %532

455:                                              ; preds = %444
  %456 = landingpad { ptr, i32 }
          cleanup
  %457 = extractvalue { ptr, i32 } %456, 0
  store ptr %457, ptr %5, align 8
  %458 = extractvalue { ptr, i32 } %456, 1
  store i32 %458, ptr %6, align 4
  br label %482

459:                                              ; preds = %445
  %460 = landingpad { ptr, i32 }
          cleanup
  %461 = extractvalue { ptr, i32 } %460, 0
  store ptr %461, ptr %5, align 8
  %462 = extractvalue { ptr, i32 } %460, 1
  store i32 %462, ptr %6, align 4
  br label %481

463:                                              ; preds = %446
  %464 = landingpad { ptr, i32 }
          cleanup
  %465 = extractvalue { ptr, i32 } %464, 0
  store ptr %465, ptr %5, align 8
  %466 = extractvalue { ptr, i32 } %464, 1
  store i32 %466, ptr %6, align 4
  br label %480

467:                                              ; preds = %447
  %468 = landingpad { ptr, i32 }
          cleanup
  %469 = extractvalue { ptr, i32 } %468, 0
  store ptr %469, ptr %5, align 8
  %470 = extractvalue { ptr, i32 } %468, 1
  store i32 %470, ptr %6, align 4
  call void @_ZNSt7__cxx1112basic_stringIcSt11char_traitsIcESaIcEED1Ev(ptr noundef nonnull align 8 dereferenceable(32) %69) #3
  br label %480

471:                                              ; No predecessors!
  br label %472

472:                                              ; preds = %471, %450
  call void @_ZNSt7__cxx1112basic_stringIcSt11char_traitsIcESaIcEED1Ev(ptr noundef nonnull align 8 dereferenceable(32) %69) #3
  call void @_ZNSt7__cxx1112basic_stringIcSt11char_traitsIcESaIcEED1Ev(ptr noundef nonnull align 8 dereferenceable(32) %72) #3
  call void @_ZNSaIcED1Ev(ptr noundef nonnull align 1 dereferenceable(1) %73) #3
  call void @_ZNSt7__cxx1112basic_stringIcSt11char_traitsIcESaIcEED1Ev(ptr noundef nonnull align 8 dereferenceable(32) %70) #3
  call void @_ZNSaIcED1Ev(ptr noundef nonnull align 1 dereferenceable(1) %71) #3
  call void @_ZNSaIcEC1Ev(ptr noundef nonnull align 1 dereferenceable(1) %76) #3
  invoke void @_ZNSt7__cxx1112basic_stringIcSt11char_traitsIcESaIcEEC1EPKcRKS3_(ptr noundef nonnull align 8 dereferenceable(32) %75, ptr noundef @.str.36, ptr noundef nonnull align 1 dereferenceable(1) %76)
          to label %473 unwind label %483

473:                                              ; preds = %472
  call void @_ZNSaIcEC1Ev(ptr noundef nonnull align 1 dereferenceable(1) %78) #3
  invoke void @_ZNSt7__cxx1112basic_stringIcSt11char_traitsIcESaIcEEC1EPKcRKS3_(ptr noundef nonnull align 8 dereferenceable(32) %77, ptr noundef @.str.35, ptr noundef nonnull align 1 dereferenceable(1) %78)
          to label %474 unwind label %487

474:                                              ; preds = %473
  invoke void @_ZN17greedy_algorithms14BinaryAddition9addBinaryERKNSt7__cxx1112basic_stringIcSt11char_traitsIcESaIcEEES8_(ptr sret(%"class.std::__cxx11::basic_string") align 8 %74, ptr noundef nonnull align 1 dereferenceable(1) %1, ptr noundef nonnull align 8 dereferenceable(32) %75, ptr noundef nonnull align 8 dereferenceable(32) %77)
          to label %475 unwind label %491

475:                                              ; preds = %474
  %476 = invoke noundef zeroext i1 @_ZSteqIcSt11char_traitsIcESaIcEEbRKNSt7__cxx1112basic_stringIT_T0_T1_EEPKS5_(ptr noundef nonnull align 8 dereferenceable(32) %74, ptr noundef @.str.29)
          to label %477 unwind label %495

477:                                              ; preds = %475
  br i1 %476, label %478, label %479

478:                                              ; preds = %477
  br label %500

479:                                              ; preds = %477
  call void @__assert_fail(ptr noundef @.str.38, ptr noundef @.str.4, i32 noundef 108, ptr noundef @__PRETTY_FUNCTION__._ZL5testsv) #10
  unreachable

480:                                              ; preds = %467, %463
  call void @_ZNSt7__cxx1112basic_stringIcSt11char_traitsIcESaIcEED1Ev(ptr noundef nonnull align 8 dereferenceable(32) %72) #3
  br label %481

481:                                              ; preds = %480, %459
  call void @_ZNSaIcED1Ev(ptr noundef nonnull align 1 dereferenceable(1) %73) #3
  call void @_ZNSt7__cxx1112basic_stringIcSt11char_traitsIcESaIcEED1Ev(ptr noundef nonnull align 8 dereferenceable(32) %70) #3
  br label %482

482:                                              ; preds = %481, %455
  call void @_ZNSaIcED1Ev(ptr noundef nonnull align 1 dereferenceable(1) %71) #3
  br label %532

483:                                              ; preds = %472
  %484 = landingpad { ptr, i32 }
          cleanup
  %485 = extractvalue { ptr, i32 } %484, 0
  store ptr %485, ptr %5, align 8
  %486 = extractvalue { ptr, i32 } %484, 1
  store i32 %486, ptr %6, align 4
  br label %510

487:                                              ; preds = %473
  %488 = landingpad { ptr, i32 }
          cleanup
  %489 = extractvalue { ptr, i32 } %488, 0
  store ptr %489, ptr %5, align 8
  %490 = extractvalue { ptr, i32 } %488, 1
  store i32 %490, ptr %6, align 4
  br label %509

491:                                              ; preds = %474
  %492 = landingpad { ptr, i32 }
          cleanup
  %493 = extractvalue { ptr, i32 } %492, 0
  store ptr %493, ptr %5, align 8
  %494 = extractvalue { ptr, i32 } %492, 1
  store i32 %494, ptr %6, align 4
  br label %508

495:                                              ; preds = %475
  %496 = landingpad { ptr, i32 }
          cleanup
  %497 = extractvalue { ptr, i32 } %496, 0
  store ptr %497, ptr %5, align 8
  %498 = extractvalue { ptr, i32 } %496, 1
  store i32 %498, ptr %6, align 4
  call void @_ZNSt7__cxx1112basic_stringIcSt11char_traitsIcESaIcEED1Ev(ptr noundef nonnull align 8 dereferenceable(32) %74) #3
  br label %508

499:                                              ; No predecessors!
  br label %500

500:                                              ; preds = %499, %478
  call void @_ZNSt7__cxx1112basic_stringIcSt11char_traitsIcESaIcEED1Ev(ptr noundef nonnull align 8 dereferenceable(32) %74) #3
  call void @_ZNSt7__cxx1112basic_stringIcSt11char_traitsIcESaIcEED1Ev(ptr noundef nonnull align 8 dereferenceable(32) %77) #3
  call void @_ZNSaIcED1Ev(ptr noundef nonnull align 1 dereferenceable(1) %78) #3
  call void @_ZNSt7__cxx1112basic_stringIcSt11char_traitsIcESaIcEED1Ev(ptr noundef nonnull align 8 dereferenceable(32) %75) #3
  call void @_ZNSaIcED1Ev(ptr noundef nonnull align 1 dereferenceable(1) %76) #3
  call void @_ZNSaIcEC1Ev(ptr noundef nonnull align 1 dereferenceable(1) %81) #3
  invoke void @_ZNSt7__cxx1112basic_stringIcSt11char_traitsIcESaIcEEC1EPKcRKS3_(ptr noundef nonnull align 8 dereferenceable(32) %80, ptr noundef @.str.39, ptr noundef nonnull align 1 dereferenceable(1) %81)
          to label %501 unwind label %511

501:                                              ; preds = %500
  call void @_ZNSaIcEC1Ev(ptr noundef nonnull align 1 dereferenceable(1) %83) #3
  invoke void @_ZNSt7__cxx1112basic_stringIcSt11char_traitsIcESaIcEEC1EPKcRKS3_(ptr noundef nonnull align 8 dereferenceable(32) %82, ptr noundef @.str.1, ptr noundef nonnull align 1 dereferenceable(1) %83)
          to label %502 unwind label %515

502:                                              ; preds = %501
  invoke void @_ZN17greedy_algorithms14BinaryAddition9addBinaryERKNSt7__cxx1112basic_stringIcSt11char_traitsIcESaIcEEES8_(ptr sret(%"class.std::__cxx11::basic_string") align 8 %79, ptr noundef nonnull align 1 dereferenceable(1) %1, ptr noundef nonnull align 8 dereferenceable(32) %80, ptr noundef nonnull align 8 dereferenceable(32) %82)
          to label %503 unwind label %519

503:                                              ; preds = %502
  %504 = invoke noundef zeroext i1 @_ZSteqIcSt11char_traitsIcESaIcEEbRKNSt7__cxx1112basic_stringIT_T0_T1_EEPKS5_(ptr noundef nonnull align 8 dereferenceable(32) %79, ptr noundef @.str.29)
          to label %505 unwind label %523

505:                                              ; preds = %503
  br i1 %504, label %506, label %507

506:                                              ; preds = %505
  br label %528

507:                                              ; preds = %505
  call void @__assert_fail(ptr noundef @.str.40, ptr noundef @.str.4, i32 noundef 109, ptr noundef @__PRETTY_FUNCTION__._ZL5testsv) #10
  unreachable

508:                                              ; preds = %495, %491
  call void @_ZNSt7__cxx1112basic_stringIcSt11char_traitsIcESaIcEED1Ev(ptr noundef nonnull align 8 dereferenceable(32) %77) #3
  br label %509

509:                                              ; preds = %508, %487
  call void @_ZNSaIcED1Ev(ptr noundef nonnull align 1 dereferenceable(1) %78) #3
  call void @_ZNSt7__cxx1112basic_stringIcSt11char_traitsIcESaIcEED1Ev(ptr noundef nonnull align 8 dereferenceable(32) %75) #3
  br label %510

510:                                              ; preds = %509, %483
  call void @_ZNSaIcED1Ev(ptr noundef nonnull align 1 dereferenceable(1) %76) #3
  br label %532

511:                                              ; preds = %500
  %512 = landingpad { ptr, i32 }
          cleanup
  %513 = extractvalue { ptr, i32 } %512, 0
  store ptr %513, ptr %5, align 8
  %514 = extractvalue { ptr, i32 } %512, 1
  store i32 %514, ptr %6, align 4
  br label %531

515:                                              ; preds = %501
  %516 = landingpad { ptr, i32 }
          cleanup
  %517 = extractvalue { ptr, i32 } %516, 0
  store ptr %517, ptr %5, align 8
  %518 = extractvalue { ptr, i32 } %516, 1
  store i32 %518, ptr %6, align 4
  br label %530

519:                                              ; preds = %502
  %520 = landingpad { ptr, i32 }
          cleanup
  %521 = extractvalue { ptr, i32 } %520, 0
  store ptr %521, ptr %5, align 8
  %522 = extractvalue { ptr, i32 } %520, 1
  store i32 %522, ptr %6, align 4
  br label %529

523:                                              ; preds = %503
  %524 = landingpad { ptr, i32 }
          cleanup
  %525 = extractvalue { ptr, i32 } %524, 0
  store ptr %525, ptr %5, align 8
  %526 = extractvalue { ptr, i32 } %524, 1
  store i32 %526, ptr %6, align 4
  call void @_ZNSt7__cxx1112basic_stringIcSt11char_traitsIcESaIcEED1Ev(ptr noundef nonnull align 8 dereferenceable(32) %79) #3
  br label %529

527:                                              ; No predecessors!
  br label %528

528:                                              ; preds = %527, %506
  call void @_ZNSt7__cxx1112basic_stringIcSt11char_traitsIcESaIcEED1Ev(ptr noundef nonnull align 8 dereferenceable(32) %79) #3
  call void @_ZNSt7__cxx1112basic_stringIcSt11char_traitsIcESaIcEED1Ev(ptr noundef nonnull align 8 dereferenceable(32) %82) #3
  call void @_ZNSaIcED1Ev(ptr noundef nonnull align 1 dereferenceable(1) %83) #3
  call void @_ZNSt7__cxx1112basic_stringIcSt11char_traitsIcESaIcEED1Ev(ptr noundef nonnull align 8 dereferenceable(32) %80) #3
  call void @_ZNSaIcED1Ev(ptr noundef nonnull align 1 dereferenceable(1) %81) #3
  ret void

529:                                              ; preds = %523, %519
  call void @_ZNSt7__cxx1112basic_stringIcSt11char_traitsIcESaIcEED1Ev(ptr noundef nonnull align 8 dereferenceable(32) %82) #3
  br label %530

530:                                              ; preds = %529, %515
  call void @_ZNSaIcED1Ev(ptr noundef nonnull align 1 dereferenceable(1) %83) #3
  call void @_ZNSt7__cxx1112basic_stringIcSt11char_traitsIcESaIcEED1Ev(ptr noundef nonnull align 8 dereferenceable(32) %80) #3
  br label %531

531:                                              ; preds = %530, %511
  call void @_ZNSaIcED1Ev(ptr noundef nonnull align 1 dereferenceable(1) %81) #3
  br label %532

532:                                              ; preds = %531, %510, %482, %454, %426, %398, %370, %342, %314, %286, %258, %230, %202, %174, %146, %118
  %533 = load ptr, ptr %5, align 8
  %534 = load i32, ptr %6, align 4
  %535 = insertvalue { ptr, i32 } undef, ptr %533, 0
  %536 = insertvalue { ptr, i32 } %535, i32 %534, 1
  resume { ptr, i32 } %536
}

; Function Attrs: mustprogress noinline nounwind optnone uwtable
define linkonce_odr dso_local noundef zeroext i1 @_ZSteqIcSt11char_traitsIcESaIcEEbRKNSt7__cxx1112basic_stringIT_T0_T1_EEPKS5_(ptr noundef nonnull align 8 dereferenceable(32) %0, ptr noundef %1) #6 comdat {
  %3 = alloca ptr, align 8
  %4 = alloca ptr, align 8
  store ptr %0, ptr %3, align 8
  store ptr %1, ptr %4, align 8
  %5 = load ptr, ptr %3, align 8
  %6 = load ptr, ptr %4, align 8
  %7 = call noundef i32 @_ZNKSt7__cxx1112basic_stringIcSt11char_traitsIcESaIcEE7compareEPKc(ptr noundef nonnull align 8 dereferenceable(32) %5, ptr noundef %6) #3
  %8 = icmp eq i32 %7, 0
  ret i1 %8
}

; Function Attrs: mustprogress noinline optnone uwtable
define linkonce_odr dso_local void @_ZN17greedy_algorithms14BinaryAddition9addBinaryERKNSt7__cxx1112basic_stringIcSt11char_traitsIcESaIcEEES8_(ptr noalias sret(%"class.std::__cxx11::basic_string") align 8 %0, ptr noundef nonnull align 1 dereferenceable(1) %1, ptr noundef nonnull align 8 dereferenceable(32) %2, ptr noundef nonnull align 8 dereferenceable(32) %3) #5 comdat align 2 personality ptr @__gxx_personality_v0 {
  %5 = alloca ptr, align 8
  %6 = alloca ptr, align 8
  %7 = alloca ptr, align 8
  %8 = alloca ptr, align 8
  %9 = alloca %"class.std::allocator", align 1
  %10 = alloca ptr, align 8
  %11 = alloca i32, align 4
  %12 = alloca i1, align 1
  %13 = alloca i32, align 4
  %14 = alloca i32, align 4
  %15 = alloca i64, align 8
  %16 = alloca i64, align 8
  %17 = alloca i32, align 4
  %18 = alloca i32, align 4
  %19 = alloca i32, align 4
  %20 = alloca i32, align 4
  %21 = alloca %"class.__gnu_cxx::__normal_iterator", align 8
  %22 = alloca %"class.__gnu_cxx::__normal_iterator", align 8
  store ptr %0, ptr %5, align 8
  store ptr %1, ptr %6, align 8
  store ptr %2, ptr %7, align 8
  store ptr %3, ptr %8, align 8
  %23 = load ptr, ptr %6, align 8
  %24 = load ptr, ptr %7, align 8
  %25 = call noundef zeroext i1 @_ZNK17greedy_algorithms14BinaryAddition19isValidBinaryStringERKNSt7__cxx1112basic_stringIcSt11char_traitsIcESaIcEEE(ptr noundef nonnull align 1 dereferenceable(1) %23, ptr noundef nonnull align 8 dereferenceable(32) %24)
  br i1 %25, label %26, label %29

26:                                               ; preds = %4
  %27 = load ptr, ptr %8, align 8
  %28 = call noundef zeroext i1 @_ZNK17greedy_algorithms14BinaryAddition19isValidBinaryStringERKNSt7__cxx1112basic_stringIcSt11char_traitsIcESaIcEEE(ptr noundef nonnull align 1 dereferenceable(1) %23, ptr noundef nonnull align 8 dereferenceable(32) %27)
  br i1 %28, label %35, label %29

29:                                               ; preds = %26, %4
  call void @_ZNSaIcEC1Ev(ptr noundef nonnull align 1 dereferenceable(1) %9) #3
  invoke void @_ZNSt7__cxx1112basic_stringIcSt11char_traitsIcESaIcEEC1EPKcRKS3_(ptr noundef nonnull align 8 dereferenceable(32) %0, ptr noundef @.str.29, ptr noundef nonnull align 1 dereferenceable(1) %9)
          to label %30 unwind label %31

30:                                               ; preds = %29
  call void @_ZNSaIcED1Ev(ptr noundef nonnull align 1 dereferenceable(1) %9) #3
  br label %126

31:                                               ; preds = %29
  %32 = landingpad { ptr, i32 }
          cleanup
  %33 = extractvalue { ptr, i32 } %32, 0
  store ptr %33, ptr %10, align 8
  %34 = extractvalue { ptr, i32 } %32, 1
  store i32 %34, ptr %11, align 4
  call void @_ZNSaIcED1Ev(ptr noundef nonnull align 1 dereferenceable(1) %9) #3
  br label %127

35:                                               ; preds = %26
  store i1 false, ptr %12, align 1
  call void @_ZNSt7__cxx1112basic_stringIcSt11char_traitsIcESaIcEEC1Ev(ptr noundef nonnull align 8 dereferenceable(32) %0) #3
  store i32 0, ptr %13, align 4
  %36 = load ptr, ptr %7, align 8
  %37 = call noundef i64 @_ZNKSt7__cxx1112basic_stringIcSt11char_traitsIcESaIcEE4sizeEv(ptr noundef nonnull align 8 dereferenceable(32) %36) #3
  store i64 %37, ptr %15, align 8
  %38 = load ptr, ptr %8, align 8
  %39 = call noundef i64 @_ZNKSt7__cxx1112basic_stringIcSt11char_traitsIcESaIcEE4sizeEv(ptr noundef nonnull align 8 dereferenceable(32) %38) #3
  store i64 %39, ptr %16, align 8
  %40 = invoke noundef nonnull align 8 dereferenceable(8) ptr @_ZSt3maxImERKT_S2_S2_(ptr noundef nonnull align 8 dereferenceable(8) %15, ptr noundef nonnull align 8 dereferenceable(8) %16)
          to label %41 unwind label %104

41:                                               ; preds = %35
  %42 = load i64, ptr %40, align 8
  %43 = trunc i64 %42 to i32
  store i32 %43, ptr %14, align 4
  store i32 0, ptr %17, align 4
  br label %44

44:                                               ; preds = %101, %41
  %45 = load i32, ptr %17, align 4
  %46 = load i32, ptr %14, align 4
  %47 = icmp slt i32 %45, %46
  br i1 %47, label %48, label %108

48:                                               ; preds = %44
  %49 = load i32, ptr %17, align 4
  %50 = sext i32 %49 to i64
  %51 = load ptr, ptr %7, align 8
  %52 = call noundef i64 @_ZNKSt7__cxx1112basic_stringIcSt11char_traitsIcESaIcEE4sizeEv(ptr noundef nonnull align 8 dereferenceable(32) %51) #3
  %53 = icmp ult i64 %50, %52
  br i1 %53, label %54, label %66

54:                                               ; preds = %48
  %55 = load ptr, ptr %7, align 8
  %56 = load ptr, ptr %7, align 8
  %57 = call noundef i64 @_ZNKSt7__cxx1112basic_stringIcSt11char_traitsIcESaIcEE4sizeEv(ptr noundef nonnull align 8 dereferenceable(32) %56) #3
  %58 = sub i64 %57, 1
  %59 = load i32, ptr %17, align 4
  %60 = sext i32 %59 to i64
  %61 = sub i64 %58, %60
  %62 = call noundef nonnull align 1 dereferenceable(1) ptr @_ZNKSt7__cxx1112basic_stringIcSt11char_traitsIcESaIcEEixEm(ptr noundef nonnull align 8 dereferenceable(32) %55, i64 noundef %61) #3
  %63 = load i8, ptr %62, align 1
  %64 = sext i8 %63 to i32
  %65 = sub nsw i32 %64, 48
  br label %67

66:                                               ; preds = %48
  br label %67

67:                                               ; preds = %66, %54
  %68 = phi i32 [ %65, %54 ], [ 0, %66 ]
  store i32 %68, ptr %18, align 4
  %69 = load i32, ptr %17, align 4
  %70 = sext i32 %69 to i64
  %71 = load ptr, ptr %8, align 8
  %72 = call noundef i64 @_ZNKSt7__cxx1112basic_stringIcSt11char_traitsIcESaIcEE4sizeEv(ptr noundef nonnull align 8 dereferenceable(32) %71) #3
  %73 = icmp ult i64 %70, %72
  br i1 %73, label %74, label %86

74:                                               ; preds = %67
  %75 = load ptr, ptr %8, align 8
  %76 = load ptr, ptr %8, align 8
  %77 = call noundef i64 @_ZNKSt7__cxx1112basic_stringIcSt11char_traitsIcESaIcEE4sizeEv(ptr noundef nonnull align 8 dereferenceable(32) %76) #3
  %78 = sub i64 %77, 1
  %79 = load i32, ptr %17, align 4
  %80 = sext i32 %79 to i64
  %81 = sub i64 %78, %80
  %82 = call noundef nonnull align 1 dereferenceable(1) ptr @_ZNKSt7__cxx1112basic_stringIcSt11char_traitsIcESaIcEEixEm(ptr noundef nonnull align 8 dereferenceable(32) %75, i64 noundef %81) #3
  %83 = load i8, ptr %82, align 1
  %84 = sext i8 %83 to i32
  %85 = sub nsw i32 %84, 48
  br label %87

86:                                               ; preds = %67
  br label %87

87:                                               ; preds = %86, %74
  %88 = phi i32 [ %85, %74 ], [ 0, %86 ]
  store i32 %88, ptr %19, align 4
  %89 = load i32, ptr %18, align 4
  %90 = load i32, ptr %19, align 4
  %91 = add nsw i32 %89, %90
  %92 = load i32, ptr %13, align 4
  %93 = add nsw i32 %91, %92
  store i32 %93, ptr %20, align 4
  %94 = load i32, ptr %20, align 4
  %95 = sdiv i32 %94, 2
  store i32 %95, ptr %13, align 4
  %96 = load i32, ptr %20, align 4
  %97 = srem i32 %96, 2
  %98 = add nsw i32 %97, 48
  %99 = trunc i32 %98 to i8
  invoke void @_ZNSt7__cxx1112basic_stringIcSt11char_traitsIcESaIcEE9push_backEc(ptr noundef nonnull align 8 dereferenceable(32) %0, i8 noundef signext %99)
          to label %100 unwind label %104

100:                                              ; preds = %87
  br label %101

101:                                              ; preds = %100
  %102 = load i32, ptr %17, align 4
  %103 = add nsw i32 %102, 1
  store i32 %103, ptr %17, align 4
  br label %44, !llvm.loop !6

104:                                              ; preds = %113, %111, %87, %35
  %105 = landingpad { ptr, i32 }
          cleanup
  %106 = extractvalue { ptr, i32 } %105, 0
  store ptr %106, ptr %10, align 8
  %107 = extractvalue { ptr, i32 } %105, 1
  store i32 %107, ptr %11, align 4
  call void @_ZNSt7__cxx1112basic_stringIcSt11char_traitsIcESaIcEED1Ev(ptr noundef nonnull align 8 dereferenceable(32) %0) #3
  br label %127

108:                                              ; preds = %44
  %109 = load i32, ptr %13, align 4
  %110 = icmp ne i32 %109, 0
  br i1 %110, label %111, label %113

111:                                              ; preds = %108
  invoke void @_ZNSt7__cxx1112basic_stringIcSt11char_traitsIcESaIcEE9push_backEc(ptr noundef nonnull align 8 dereferenceable(32) %0, i8 noundef signext 49)
          to label %112 unwind label %104

112:                                              ; preds = %111
  br label %113

113:                                              ; preds = %112, %108
  %114 = call ptr @_ZNSt7__cxx1112basic_stringIcSt11char_traitsIcESaIcEE5beginEv(ptr noundef nonnull align 8 dereferenceable(32) %0) #3
  %115 = getelementptr inbounds %"class.__gnu_cxx::__normal_iterator", ptr %21, i32 0, i32 0
  store ptr %114, ptr %115, align 8
  %116 = call ptr @_ZNSt7__cxx1112basic_stringIcSt11char_traitsIcESaIcEE3endEv(ptr noundef nonnull align 8 dereferenceable(32) %0) #3
  %117 = getelementptr inbounds %"class.__gnu_cxx::__normal_iterator", ptr %22, i32 0, i32 0
  store ptr %116, ptr %117, align 8
  %118 = getelementptr inbounds %"class.__gnu_cxx::__normal_iterator", ptr %21, i32 0, i32 0
  %119 = load ptr, ptr %118, align 8
  %120 = getelementptr inbounds %"class.__gnu_cxx::__normal_iterator", ptr %22, i32 0, i32 0
  %121 = load ptr, ptr %120, align 8
  invoke void @_ZSt7reverseIN9__gnu_cxx17__normal_iteratorIPcNSt7__cxx1112basic_stringIcSt11char_traitsIcESaIcEEEEEEvT_SA_(ptr %119, ptr %121)
          to label %122 unwind label %104

122:                                              ; preds = %113
  store i1 true, ptr %12, align 1
  %123 = load i1, ptr %12, align 1
  br i1 %123, label %125, label %124

124:                                              ; preds = %122
  call void @_ZNSt7__cxx1112basic_stringIcSt11char_traitsIcESaIcEED1Ev(ptr noundef nonnull align 8 dereferenceable(32) %0) #3
  br label %125

125:                                              ; preds = %124, %122
  br label %126

126:                                              ; preds = %125, %30
  ret void

127:                                              ; preds = %104, %31
  %128 = load ptr, ptr %10, align 8
  %129 = load i32, ptr %11, align 4
  %130 = insertvalue { ptr, i32 } undef, ptr %128, 0
  %131 = insertvalue { ptr, i32 } %130, i32 %129, 1
  resume { ptr, i32 } %131
}

; Function Attrs: nounwind
declare void @_ZNSaIcEC1Ev(ptr noundef nonnull align 1 dereferenceable(1)) unnamed_addr #2

declare void @_ZNSt7__cxx1112basic_stringIcSt11char_traitsIcESaIcEEC1EPKcRKS3_(ptr noundef nonnull align 8 dereferenceable(32), ptr noundef, ptr noundef nonnull align 1 dereferenceable(1)) unnamed_addr #1

declare i32 @__gxx_personality_v0(...)

; Function Attrs: noreturn nounwind
declare void @__assert_fail(ptr noundef, ptr noundef, i32 noundef, ptr noundef) #7

; Function Attrs: nounwind
declare void @_ZNSt7__cxx1112basic_stringIcSt11char_traitsIcESaIcEED1Ev(ptr noundef nonnull align 8 dereferenceable(32)) unnamed_addr #2

; Function Attrs: nounwind
declare void @_ZNSaIcED1Ev(ptr noundef nonnull align 1 dereferenceable(1)) unnamed_addr #2

; Function Attrs: nounwind
declare noundef i32 @_ZNKSt7__cxx1112basic_stringIcSt11char_traitsIcESaIcEE7compareEPKc(ptr noundef nonnull align 8 dereferenceable(32), ptr noundef) #2

; Function Attrs: mustprogress noinline optnone uwtable
define linkonce_odr dso_local noundef zeroext i1 @_ZNK17greedy_algorithms14BinaryAddition19isValidBinaryStringERKNSt7__cxx1112basic_stringIcSt11char_traitsIcESaIcEEE(ptr noundef nonnull align 1 dereferenceable(1) %0, ptr noundef nonnull align 8 dereferenceable(32) %1) #5 comdat align 2 {
  %3 = alloca ptr, align 8
  %4 = alloca ptr, align 8
  %5 = alloca %"class.__gnu_cxx::__normal_iterator.0", align 8
  %6 = alloca %"class.__gnu_cxx::__normal_iterator.0", align 8
  %7 = alloca %class.anon, align 1
  store ptr %0, ptr %3, align 8
  store ptr %1, ptr %4, align 8
  %8 = load ptr, ptr %3, align 8
  %9 = load ptr, ptr %4, align 8
  %10 = call ptr @_ZNKSt7__cxx1112basic_stringIcSt11char_traitsIcESaIcEE5beginEv(ptr noundef nonnull align 8 dereferenceable(32) %9) #3
  %11 = getelementptr inbounds %"class.__gnu_cxx::__normal_iterator.0", ptr %5, i32 0, i32 0
  store ptr %10, ptr %11, align 8
  %12 = load ptr, ptr %4, align 8
  %13 = call ptr @_ZNKSt7__cxx1112basic_stringIcSt11char_traitsIcESaIcEE3endEv(ptr noundef nonnull align 8 dereferenceable(32) %12) #3
  %14 = getelementptr inbounds %"class.__gnu_cxx::__normal_iterator.0", ptr %6, i32 0, i32 0
  store ptr %13, ptr %14, align 8
  %15 = getelementptr inbounds %"class.__gnu_cxx::__normal_iterator.0", ptr %5, i32 0, i32 0
  %16 = load ptr, ptr %15, align 8
  %17 = getelementptr inbounds %"class.__gnu_cxx::__normal_iterator.0", ptr %6, i32 0, i32 0
  %18 = load ptr, ptr %17, align 8
  %19 = call noundef zeroext i1 @_ZSt6all_ofIN9__gnu_cxx17__normal_iteratorIPKcNSt7__cxx1112basic_stringIcSt11char_traitsIcESaIcEEEEEZNK17greedy_algorithms14BinaryAddition19isValidBinaryStringERKS9_EUlcE_EbT_SG_T0_(ptr %16, ptr %18)
  ret i1 %19
}

; Function Attrs: nounwind
declare void @_ZNSt7__cxx1112basic_stringIcSt11char_traitsIcESaIcEEC1Ev(ptr noundef nonnull align 8 dereferenceable(32)) unnamed_addr #2

; Function Attrs: mustprogress noinline nounwind optnone uwtable
define linkonce_odr dso_local noundef nonnull align 8 dereferenceable(8) ptr @_ZSt3maxImERKT_S2_S2_(ptr noundef nonnull align 8 dereferenceable(8) %0, ptr noundef nonnull align 8 dereferenceable(8) %1) #6 comdat {
  %3 = alloca ptr, align 8
  %4 = alloca ptr, align 8
  %5 = alloca ptr, align 8
  store ptr %0, ptr %4, align 8
  store ptr %1, ptr %5, align 8
  %6 = load ptr, ptr %4, align 8
  %7 = load i64, ptr %6, align 8
  %8 = load ptr, ptr %5, align 8
  %9 = load i64, ptr %8, align 8
  %10 = icmp ult i64 %7, %9
  br i1 %10, label %11, label %13

11:                                               ; preds = %2
  %12 = load ptr, ptr %5, align 8
  store ptr %12, ptr %3, align 8
  br label %15

13:                                               ; preds = %2
  %14 = load ptr, ptr %4, align 8
  store ptr %14, ptr %3, align 8
  br label %15

15:                                               ; preds = %13, %11
  %16 = load ptr, ptr %3, align 8
  ret ptr %16
}

; Function Attrs: nounwind
declare noundef i64 @_ZNKSt7__cxx1112basic_stringIcSt11char_traitsIcESaIcEE4sizeEv(ptr noundef nonnull align 8 dereferenceable(32)) #2

; Function Attrs: nounwind
declare noundef nonnull align 1 dereferenceable(1) ptr @_ZNKSt7__cxx1112basic_stringIcSt11char_traitsIcESaIcEEixEm(ptr noundef nonnull align 8 dereferenceable(32), i64 noundef) #2

declare void @_ZNSt7__cxx1112basic_stringIcSt11char_traitsIcESaIcEE9push_backEc(ptr noundef nonnull align 8 dereferenceable(32), i8 noundef signext) #1

; Function Attrs: mustprogress noinline optnone uwtable
define linkonce_odr dso_local void @_ZSt7reverseIN9__gnu_cxx17__normal_iteratorIPcNSt7__cxx1112basic_stringIcSt11char_traitsIcESaIcEEEEEEvT_SA_(ptr %0, ptr %1) #5 comdat {
  %3 = alloca %"class.__gnu_cxx::__normal_iterator", align 8
  %4 = alloca %"class.__gnu_cxx::__normal_iterator", align 8
  %5 = alloca %"class.__gnu_cxx::__normal_iterator", align 8
  %6 = alloca %"class.__gnu_cxx::__normal_iterator", align 8
  %7 = alloca %"struct.std::random_access_iterator_tag", align 1
  %8 = alloca %"struct.std::random_access_iterator_tag", align 1
  %9 = getelementptr inbounds %"class.__gnu_cxx::__normal_iterator", ptr %3, i32 0, i32 0
  store ptr %0, ptr %9, align 8
  %10 = getelementptr inbounds %"class.__gnu_cxx::__normal_iterator", ptr %4, i32 0, i32 0
  store ptr %1, ptr %10, align 8
  call void @llvm.memcpy.p0.p0.i64(ptr align 8 %5, ptr align 8 %3, i64 8, i1 false)
  call void @llvm.memcpy.p0.p0.i64(ptr align 8 %6, ptr align 8 %4, i64 8, i1 false)
  call void @_ZSt19__iterator_categoryIN9__gnu_cxx17__normal_iteratorIPcNSt7__cxx1112basic_stringIcSt11char_traitsIcESaIcEEEEEENSt15iterator_traitsIT_E17iterator_categoryERKSB_(ptr noundef nonnull align 8 dereferenceable(8) %3)
  %11 = getelementptr inbounds %"class.__gnu_cxx::__normal_iterator", ptr %5, i32 0, i32 0
  %12 = load ptr, ptr %11, align 8
  %13 = getelementptr inbounds %"class.__gnu_cxx::__normal_iterator", ptr %6, i32 0, i32 0
  %14 = load ptr, ptr %13, align 8
  call void @_ZSt9__reverseIN9__gnu_cxx17__normal_iteratorIPcNSt7__cxx1112basic_stringIcSt11char_traitsIcESaIcEEEEEEvT_SA_St26random_access_iterator_tag(ptr %12, ptr %14)
  ret void
}

; Function Attrs: nounwind
declare ptr @_ZNSt7__cxx1112basic_stringIcSt11char_traitsIcESaIcEE5beginEv(ptr noundef nonnull align 8 dereferenceable(32)) #2

; Function Attrs: nounwind
declare ptr @_ZNSt7__cxx1112basic_stringIcSt11char_traitsIcESaIcEE3endEv(ptr noundef nonnull align 8 dereferenceable(32)) #2

; Function Attrs: mustprogress noinline optnone uwtable
define linkonce_odr dso_local noundef zeroext i1 @_ZSt6all_ofIN9__gnu_cxx17__normal_iteratorIPKcNSt7__cxx1112basic_stringIcSt11char_traitsIcESaIcEEEEEZNK17greedy_algorithms14BinaryAddition19isValidBinaryStringERKS9_EUlcE_EbT_SG_T0_(ptr %0, ptr %1) #5 comdat {
  %3 = alloca %"class.__gnu_cxx::__normal_iterator.0", align 8
  %4 = alloca %"class.__gnu_cxx::__normal_iterator.0", align 8
  %5 = alloca %class.anon, align 1
  %6 = alloca %"class.__gnu_cxx::__normal_iterator.0", align 8
  %7 = alloca %"class.__gnu_cxx::__normal_iterator.0", align 8
  %8 = alloca %"class.__gnu_cxx::__normal_iterator.0", align 8
  %9 = alloca %class.anon, align 1
  %10 = getelementptr inbounds %"class.__gnu_cxx::__normal_iterator.0", ptr %3, i32 0, i32 0
  store ptr %0, ptr %10, align 8
  %11 = getelementptr inbounds %"class.__gnu_cxx::__normal_iterator.0", ptr %4, i32 0, i32 0
  store ptr %1, ptr %11, align 8
  call void @llvm.memcpy.p0.p0.i64(ptr align 8 %7, ptr align 8 %3, i64 8, i1 false)
  call void @llvm.memcpy.p0.p0.i64(ptr align 8 %8, ptr align 8 %4, i64 8, i1 false)
  %12 = getelementptr inbounds %"class.__gnu_cxx::__normal_iterator.0", ptr %7, i32 0, i32 0
  %13 = load ptr, ptr %12, align 8
  %14 = getelementptr inbounds %"class.__gnu_cxx::__normal_iterator.0", ptr %8, i32 0, i32 0
  %15 = load ptr, ptr %14, align 8
  %16 = call ptr @_ZSt11find_if_notIN9__gnu_cxx17__normal_iteratorIPKcNSt7__cxx1112basic_stringIcSt11char_traitsIcESaIcEEEEEZNK17greedy_algorithms14BinaryAddition19isValidBinaryStringERKS9_EUlcE_ET_SG_SG_T0_(ptr %13, ptr %15)
  %17 = getelementptr inbounds %"class.__gnu_cxx::__normal_iterator.0", ptr %6, i32 0, i32 0
  store ptr %16, ptr %17, align 8
  %18 = call noundef zeroext i1 @_ZN9__gnu_cxxeqIPKcNSt7__cxx1112basic_stringIcSt11char_traitsIcESaIcEEEEEbRKNS_17__normal_iteratorIT_T0_EESE_(ptr noundef nonnull align 8 dereferenceable(8) %4, ptr noundef nonnull align 8 dereferenceable(8) %6) #3
  ret i1 %18
}

; Function Attrs: nounwind
declare ptr @_ZNKSt7__cxx1112basic_stringIcSt11char_traitsIcESaIcEE5beginEv(ptr noundef nonnull align 8 dereferenceable(32)) #2

; Function Attrs: nounwind
declare ptr @_ZNKSt7__cxx1112basic_stringIcSt11char_traitsIcESaIcEE3endEv(ptr noundef nonnull align 8 dereferenceable(32)) #2

; Function Attrs: mustprogress noinline nounwind optnone uwtable
define linkonce_odr dso_local noundef zeroext i1 @_ZN9__gnu_cxxeqIPKcNSt7__cxx1112basic_stringIcSt11char_traitsIcESaIcEEEEEbRKNS_17__normal_iteratorIT_T0_EESE_(ptr noundef nonnull align 8 dereferenceable(8) %0, ptr noundef nonnull align 8 dereferenceable(8) %1) #6 comdat {
  %3 = alloca ptr, align 8
  %4 = alloca ptr, align 8
  store ptr %0, ptr %3, align 8
  store ptr %1, ptr %4, align 8
  %5 = load ptr, ptr %3, align 8
  %6 = call noundef nonnull align 8 dereferenceable(8) ptr @_ZNK9__gnu_cxx17__normal_iteratorIPKcNSt7__cxx1112basic_stringIcSt11char_traitsIcESaIcEEEE4baseEv(ptr noundef nonnull align 8 dereferenceable(8) %5) #3
  %7 = load ptr, ptr %6, align 8
  %8 = load ptr, ptr %4, align 8
  %9 = call noundef nonnull align 8 dereferenceable(8) ptr @_ZNK9__gnu_cxx17__normal_iteratorIPKcNSt7__cxx1112basic_stringIcSt11char_traitsIcESaIcEEEE4baseEv(ptr noundef nonnull align 8 dereferenceable(8) %8) #3
  %10 = load ptr, ptr %9, align 8
  %11 = icmp eq ptr %7, %10
  ret i1 %11
}

; Function Attrs: mustprogress noinline optnone uwtable
define linkonce_odr dso_local ptr @_ZSt11find_if_notIN9__gnu_cxx17__normal_iteratorIPKcNSt7__cxx1112basic_stringIcSt11char_traitsIcESaIcEEEEEZNK17greedy_algorithms14BinaryAddition19isValidBinaryStringERKS9_EUlcE_ET_SG_SG_T0_(ptr %0, ptr %1) #5 comdat {
  %3 = alloca %"class.__gnu_cxx::__normal_iterator.0", align 8
  %4 = alloca %"class.__gnu_cxx::__normal_iterator.0", align 8
  %5 = alloca %"class.__gnu_cxx::__normal_iterator.0", align 8
  %6 = alloca %class.anon, align 1
  %7 = alloca %"class.__gnu_cxx::__normal_iterator.0", align 8
  %8 = alloca %"class.__gnu_cxx::__normal_iterator.0", align 8
  %9 = alloca %"struct.__gnu_cxx::__ops::_Iter_pred", align 1
  %10 = alloca %class.anon, align 1
  %11 = alloca %"struct.__gnu_cxx::__ops::_Iter_pred", align 1
  %12 = getelementptr inbounds %"class.__gnu_cxx::__normal_iterator.0", ptr %4, i32 0, i32 0
  store ptr %0, ptr %12, align 8
  %13 = getelementptr inbounds %"class.__gnu_cxx::__normal_iterator.0", ptr %5, i32 0, i32 0
  store ptr %1, ptr %13, align 8
  call void @llvm.memcpy.p0.p0.i64(ptr align 8 %7, ptr align 8 %4, i64 8, i1 false)
  call void @llvm.memcpy.p0.p0.i64(ptr align 8 %8, ptr align 8 %5, i64 8, i1 false)
  call void @_ZN9__gnu_cxx5__ops11__pred_iterIZNK17greedy_algorithms14BinaryAddition19isValidBinaryStringERKNSt7__cxx1112basic_stringIcSt11char_traitsIcESaIcEEEEUlcE_EENS0_10_Iter_predIT_EESE_()
  %14 = getelementptr inbounds %"class.__gnu_cxx::__normal_iterator.0", ptr %7, i32 0, i32 0
  %15 = load ptr, ptr %14, align 8
  %16 = getelementptr inbounds %"class.__gnu_cxx::__normal_iterator.0", ptr %8, i32 0, i32 0
  %17 = load ptr, ptr %16, align 8
  %18 = call ptr @_ZSt13__find_if_notIN9__gnu_cxx17__normal_iteratorIPKcNSt7__cxx1112basic_stringIcSt11char_traitsIcESaIcEEEEENS0_5__ops10_Iter_predIZNK17greedy_algorithms14BinaryAddition19isValidBinaryStringERKS9_EUlcE_EEET_SJ_SJ_T0_(ptr %15, ptr %17)
  %19 = getelementptr inbounds %"class.__gnu_cxx::__normal_iterator.0", ptr %3, i32 0, i32 0
  store ptr %18, ptr %19, align 8
  %20 = getelementptr inbounds %"class.__gnu_cxx::__normal_iterator.0", ptr %3, i32 0, i32 0
  %21 = load ptr, ptr %20, align 8
  ret ptr %21
}

; Function Attrs: argmemonly nocallback nofree nounwind willreturn
declare void @llvm.memcpy.p0.p0.i64(ptr noalias nocapture writeonly, ptr noalias nocapture readonly, i64, i1 immarg) #8

; Function Attrs: mustprogress noinline nounwind optnone uwtable
define linkonce_odr dso_local noundef nonnull align 8 dereferenceable(8) ptr @_ZNK9__gnu_cxx17__normal_iteratorIPKcNSt7__cxx1112basic_stringIcSt11char_traitsIcESaIcEEEE4baseEv(ptr noundef nonnull align 8 dereferenceable(8) %0) #6 comdat align 2 {
  %2 = alloca ptr, align 8
  store ptr %0, ptr %2, align 8
  %3 = load ptr, ptr %2, align 8
  %4 = getelementptr inbounds %"class.__gnu_cxx::__normal_iterator.0", ptr %3, i32 0, i32 0
  ret ptr %4
}

; Function Attrs: mustprogress noinline optnone uwtable
define linkonce_odr dso_local ptr @_ZSt13__find_if_notIN9__gnu_cxx17__normal_iteratorIPKcNSt7__cxx1112basic_stringIcSt11char_traitsIcESaIcEEEEENS0_5__ops10_Iter_predIZNK17greedy_algorithms14BinaryAddition19isValidBinaryStringERKS9_EUlcE_EEET_SJ_SJ_T0_(ptr %0, ptr %1) #5 comdat {
  %3 = alloca %"class.__gnu_cxx::__normal_iterator.0", align 8
  %4 = alloca %"class.__gnu_cxx::__normal_iterator.0", align 8
  %5 = alloca %"class.__gnu_cxx::__normal_iterator.0", align 8
  %6 = alloca %"struct.__gnu_cxx::__ops::_Iter_pred", align 1
  %7 = alloca %"class.__gnu_cxx::__normal_iterator.0", align 8
  %8 = alloca %"class.__gnu_cxx::__normal_iterator.0", align 8
  %9 = alloca %"struct.__gnu_cxx::__ops::_Iter_negate", align 1
  %10 = alloca %"struct.__gnu_cxx::__ops::_Iter_pred", align 1
  %11 = alloca %"struct.__gnu_cxx::__ops::_Iter_negate", align 1
  %12 = alloca %"struct.std::random_access_iterator_tag", align 1
  %13 = alloca %"struct.std::random_access_iterator_tag", align 1
  %14 = getelementptr inbounds %"class.__gnu_cxx::__normal_iterator.0", ptr %4, i32 0, i32 0
  store ptr %0, ptr %14, align 8
  %15 = getelementptr inbounds %"class.__gnu_cxx::__normal_iterator.0", ptr %5, i32 0, i32 0
  store ptr %1, ptr %15, align 8
  call void @llvm.memcpy.p0.p0.i64(ptr align 8 %7, ptr align 8 %4, i64 8, i1 false)
  call void @llvm.memcpy.p0.p0.i64(ptr align 8 %8, ptr align 8 %5, i64 8, i1 false)
  call void @llvm.memcpy.p0.p0.i64(ptr align 1 %10, ptr align 1 %6, i64 1, i1 false)
  call void @_ZN9__gnu_cxx5__ops8__negateIZNK17greedy_algorithms14BinaryAddition19isValidBinaryStringERKNSt7__cxx1112basic_stringIcSt11char_traitsIcESaIcEEEEUlcE_EENS0_12_Iter_negateIT_EENS0_10_Iter_predISE_EE()
  call void @_ZSt19__iterator_categoryIN9__gnu_cxx17__normal_iteratorIPKcNSt7__cxx1112basic_stringIcSt11char_traitsIcESaIcEEEEEENSt15iterator_traitsIT_E17iterator_categoryERKSC_(ptr noundef nonnull align 8 dereferenceable(8) %4)
  %16 = getelementptr inbounds %"class.__gnu_cxx::__normal_iterator.0", ptr %7, i32 0, i32 0
  %17 = load ptr, ptr %16, align 8
  %18 = getelementptr inbounds %"class.__gnu_cxx::__normal_iterator.0", ptr %8, i32 0, i32 0
  %19 = load ptr, ptr %18, align 8
  %20 = call ptr @_ZSt9__find_ifIN9__gnu_cxx17__normal_iteratorIPKcNSt7__cxx1112basic_stringIcSt11char_traitsIcESaIcEEEEENS0_5__ops12_Iter_negateIZNK17greedy_algorithms14BinaryAddition19isValidBinaryStringERKS9_EUlcE_EEET_SJ_SJ_T0_St26random_access_iterator_tag(ptr %17, ptr %19)
  %21 = getelementptr inbounds %"class.__gnu_cxx::__normal_iterator.0", ptr %3, i32 0, i32 0
  store ptr %20, ptr %21, align 8
  %22 = getelementptr inbounds %"class.__gnu_cxx::__normal_iterator.0", ptr %3, i32 0, i32 0
  %23 = load ptr, ptr %22, align 8
  ret ptr %23
}

; Function Attrs: mustprogress noinline optnone uwtable
define linkonce_odr dso_local void @_ZN9__gnu_cxx5__ops11__pred_iterIZNK17greedy_algorithms14BinaryAddition19isValidBinaryStringERKNSt7__cxx1112basic_stringIcSt11char_traitsIcESaIcEEEEUlcE_EENS0_10_Iter_predIT_EESE_() #5 comdat {
  %1 = alloca %"struct.__gnu_cxx::__ops::_Iter_pred", align 1
  %2 = alloca %class.anon, align 1
  %3 = alloca %class.anon, align 1
  call void @_ZN9__gnu_cxx5__ops10_Iter_predIZNK17greedy_algorithms14BinaryAddition19isValidBinaryStringERKNSt7__cxx1112basic_stringIcSt11char_traitsIcESaIcEEEEUlcE_EC2ESC_(ptr noundef nonnull align 1 dereferenceable(1) %1)
  ret void
}

; Function Attrs: mustprogress noinline optnone uwtable
define linkonce_odr dso_local ptr @_ZSt9__find_ifIN9__gnu_cxx17__normal_iteratorIPKcNSt7__cxx1112basic_stringIcSt11char_traitsIcESaIcEEEEENS0_5__ops12_Iter_negateIZNK17greedy_algorithms14BinaryAddition19isValidBinaryStringERKS9_EUlcE_EEET_SJ_SJ_T0_St26random_access_iterator_tag(ptr %0, ptr %1) #5 comdat {
  %3 = alloca %"class.__gnu_cxx::__normal_iterator.0", align 8
  %4 = alloca %"class.__gnu_cxx::__normal_iterator.0", align 8
  %5 = alloca %"class.__gnu_cxx::__normal_iterator.0", align 8
  %6 = alloca %"struct.__gnu_cxx::__ops::_Iter_negate", align 1
  %7 = alloca %"struct.std::random_access_iterator_tag", align 1
  %8 = alloca i64, align 8
  %9 = alloca %"class.__gnu_cxx::__normal_iterator.0", align 8
  %10 = alloca %"class.__gnu_cxx::__normal_iterator.0", align 8
  %11 = alloca %"class.__gnu_cxx::__normal_iterator.0", align 8
  %12 = alloca %"class.__gnu_cxx::__normal_iterator.0", align 8
  %13 = alloca %"class.__gnu_cxx::__normal_iterator.0", align 8
  %14 = alloca %"class.__gnu_cxx::__normal_iterator.0", align 8
  %15 = alloca %"class.__gnu_cxx::__normal_iterator.0", align 8
  %16 = getelementptr inbounds %"class.__gnu_cxx::__normal_iterator.0", ptr %4, i32 0, i32 0
  store ptr %0, ptr %16, align 8
  %17 = getelementptr inbounds %"class.__gnu_cxx::__normal_iterator.0", ptr %5, i32 0, i32 0
  store ptr %1, ptr %17, align 8
  %18 = call noundef i64 @_ZN9__gnu_cxxmiIPKcNSt7__cxx1112basic_stringIcSt11char_traitsIcESaIcEEEEENS_17__normal_iteratorIT_T0_E15difference_typeERKSC_SF_(ptr noundef nonnull align 8 dereferenceable(8) %5, ptr noundef nonnull align 8 dereferenceable(8) %4) #3
  %19 = ashr i64 %18, 2
  store i64 %19, ptr %8, align 8
  br label %20

20:                                               ; preds = %48, %2
  %21 = load i64, ptr %8, align 8
  %22 = icmp sgt i64 %21, 0
  br i1 %22, label %23, label %51

23:                                               ; preds = %20
  call void @llvm.memcpy.p0.p0.i64(ptr align 8 %9, ptr align 8 %4, i64 8, i1 false)
  %24 = getelementptr inbounds %"class.__gnu_cxx::__normal_iterator.0", ptr %9, i32 0, i32 0
  %25 = load ptr, ptr %24, align 8
  %26 = call noundef zeroext i1 @_ZN9__gnu_cxx5__ops12_Iter_negateIZNK17greedy_algorithms14BinaryAddition19isValidBinaryStringERKNSt7__cxx1112basic_stringIcSt11char_traitsIcESaIcEEEEUlcE_EclINS_17__normal_iteratorIPKcS9_EEEEbT_(ptr noundef nonnull align 1 dereferenceable(1) %6, ptr %25)
  br i1 %26, label %27, label %28

27:                                               ; preds = %23
  call void @llvm.memcpy.p0.p0.i64(ptr align 8 %3, ptr align 8 %4, i64 8, i1 false)
  br label %76

28:                                               ; preds = %23
  %29 = call noundef nonnull align 8 dereferenceable(8) ptr @_ZN9__gnu_cxx17__normal_iteratorIPKcNSt7__cxx1112basic_stringIcSt11char_traitsIcESaIcEEEEppEv(ptr noundef nonnull align 8 dereferenceable(8) %4) #3
  call void @llvm.memcpy.p0.p0.i64(ptr align 8 %10, ptr align 8 %4, i64 8, i1 false)
  %30 = getelementptr inbounds %"class.__gnu_cxx::__normal_iterator.0", ptr %10, i32 0, i32 0
  %31 = load ptr, ptr %30, align 8
  %32 = call noundef zeroext i1 @_ZN9__gnu_cxx5__ops12_Iter_negateIZNK17greedy_algorithms14BinaryAddition19isValidBinaryStringERKNSt7__cxx1112basic_stringIcSt11char_traitsIcESaIcEEEEUlcE_EclINS_17__normal_iteratorIPKcS9_EEEEbT_(ptr noundef nonnull align 1 dereferenceable(1) %6, ptr %31)
  br i1 %32, label %33, label %34

33:                                               ; preds = %28
  call void @llvm.memcpy.p0.p0.i64(ptr align 8 %3, ptr align 8 %4, i64 8, i1 false)
  br label %76

34:                                               ; preds = %28
  %35 = call noundef nonnull align 8 dereferenceable(8) ptr @_ZN9__gnu_cxx17__normal_iteratorIPKcNSt7__cxx1112basic_stringIcSt11char_traitsIcESaIcEEEEppEv(ptr noundef nonnull align 8 dereferenceable(8) %4) #3
  call void @llvm.memcpy.p0.p0.i64(ptr align 8 %11, ptr align 8 %4, i64 8, i1 false)
  %36 = getelementptr inbounds %"class.__gnu_cxx::__normal_iterator.0", ptr %11, i32 0, i32 0
  %37 = load ptr, ptr %36, align 8
  %38 = call noundef zeroext i1 @_ZN9__gnu_cxx5__ops12_Iter_negateIZNK17greedy_algorithms14BinaryAddition19isValidBinaryStringERKNSt7__cxx1112basic_stringIcSt11char_traitsIcESaIcEEEEUlcE_EclINS_17__normal_iteratorIPKcS9_EEEEbT_(ptr noundef nonnull align 1 dereferenceable(1) %6, ptr %37)
  br i1 %38, label %39, label %40

39:                                               ; preds = %34
  call void @llvm.memcpy.p0.p0.i64(ptr align 8 %3, ptr align 8 %4, i64 8, i1 false)
  br label %76

40:                                               ; preds = %34
  %41 = call noundef nonnull align 8 dereferenceable(8) ptr @_ZN9__gnu_cxx17__normal_iteratorIPKcNSt7__cxx1112basic_stringIcSt11char_traitsIcESaIcEEEEppEv(ptr noundef nonnull align 8 dereferenceable(8) %4) #3
  call void @llvm.memcpy.p0.p0.i64(ptr align 8 %12, ptr align 8 %4, i64 8, i1 false)
  %42 = getelementptr inbounds %"class.__gnu_cxx::__normal_iterator.0", ptr %12, i32 0, i32 0
  %43 = load ptr, ptr %42, align 8
  %44 = call noundef zeroext i1 @_ZN9__gnu_cxx5__ops12_Iter_negateIZNK17greedy_algorithms14BinaryAddition19isValidBinaryStringERKNSt7__cxx1112basic_stringIcSt11char_traitsIcESaIcEEEEUlcE_EclINS_17__normal_iteratorIPKcS9_EEEEbT_(ptr noundef nonnull align 1 dereferenceable(1) %6, ptr %43)
  br i1 %44, label %45, label %46

45:                                               ; preds = %40
  call void @llvm.memcpy.p0.p0.i64(ptr align 8 %3, ptr align 8 %4, i64 8, i1 false)
  br label %76

46:                                               ; preds = %40
  %47 = call noundef nonnull align 8 dereferenceable(8) ptr @_ZN9__gnu_cxx17__normal_iteratorIPKcNSt7__cxx1112basic_stringIcSt11char_traitsIcESaIcEEEEppEv(ptr noundef nonnull align 8 dereferenceable(8) %4) #3
  br label %48

48:                                               ; preds = %46
  %49 = load i64, ptr %8, align 8
  %50 = add nsw i64 %49, -1
  store i64 %50, ptr %8, align 8
  br label %20, !llvm.loop !8

51:                                               ; preds = %20
  %52 = call noundef i64 @_ZN9__gnu_cxxmiIPKcNSt7__cxx1112basic_stringIcSt11char_traitsIcESaIcEEEEENS_17__normal_iteratorIT_T0_E15difference_typeERKSC_SF_(ptr noundef nonnull align 8 dereferenceable(8) %5, ptr noundef nonnull align 8 dereferenceable(8) %4) #3
  switch i64 %52, label %75 [
    i64 3, label %53
    i64 2, label %60
    i64 1, label %67
    i64 0, label %74
  ]

53:                                               ; preds = %51
  call void @llvm.memcpy.p0.p0.i64(ptr align 8 %13, ptr align 8 %4, i64 8, i1 false)
  %54 = getelementptr inbounds %"class.__gnu_cxx::__normal_iterator.0", ptr %13, i32 0, i32 0
  %55 = load ptr, ptr %54, align 8
  %56 = call noundef zeroext i1 @_ZN9__gnu_cxx5__ops12_Iter_negateIZNK17greedy_algorithms14BinaryAddition19isValidBinaryStringERKNSt7__cxx1112basic_stringIcSt11char_traitsIcESaIcEEEEUlcE_EclINS_17__normal_iteratorIPKcS9_EEEEbT_(ptr noundef nonnull align 1 dereferenceable(1) %6, ptr %55)
  br i1 %56, label %57, label %58

57:                                               ; preds = %53
  call void @llvm.memcpy.p0.p0.i64(ptr align 8 %3, ptr align 8 %4, i64 8, i1 false)
  br label %76

58:                                               ; preds = %53
  %59 = call noundef nonnull align 8 dereferenceable(8) ptr @_ZN9__gnu_cxx17__normal_iteratorIPKcNSt7__cxx1112basic_stringIcSt11char_traitsIcESaIcEEEEppEv(ptr noundef nonnull align 8 dereferenceable(8) %4) #3
  br label %60

60:                                               ; preds = %51, %58
  call void @llvm.memcpy.p0.p0.i64(ptr align 8 %14, ptr align 8 %4, i64 8, i1 false)
  %61 = getelementptr inbounds %"class.__gnu_cxx::__normal_iterator.0", ptr %14, i32 0, i32 0
  %62 = load ptr, ptr %61, align 8
  %63 = call noundef zeroext i1 @_ZN9__gnu_cxx5__ops12_Iter_negateIZNK17greedy_algorithms14BinaryAddition19isValidBinaryStringERKNSt7__cxx1112basic_stringIcSt11char_traitsIcESaIcEEEEUlcE_EclINS_17__normal_iteratorIPKcS9_EEEEbT_(ptr noundef nonnull align 1 dereferenceable(1) %6, ptr %62)
  br i1 %63, label %64, label %65

64:                                               ; preds = %60
  call void @llvm.memcpy.p0.p0.i64(ptr align 8 %3, ptr align 8 %4, i64 8, i1 false)
  br label %76

65:                                               ; preds = %60
  %66 = call noundef nonnull align 8 dereferenceable(8) ptr @_ZN9__gnu_cxx17__normal_iteratorIPKcNSt7__cxx1112basic_stringIcSt11char_traitsIcESaIcEEEEppEv(ptr noundef nonnull align 8 dereferenceable(8) %4) #3
  br label %67

67:                                               ; preds = %51, %65
  call void @llvm.memcpy.p0.p0.i64(ptr align 8 %15, ptr align 8 %4, i64 8, i1 false)
  %68 = getelementptr inbounds %"class.__gnu_cxx::__normal_iterator.0", ptr %15, i32 0, i32 0
  %69 = load ptr, ptr %68, align 8
  %70 = call noundef zeroext i1 @_ZN9__gnu_cxx5__ops12_Iter_negateIZNK17greedy_algorithms14BinaryAddition19isValidBinaryStringERKNSt7__cxx1112basic_stringIcSt11char_traitsIcESaIcEEEEUlcE_EclINS_17__normal_iteratorIPKcS9_EEEEbT_(ptr noundef nonnull align 1 dereferenceable(1) %6, ptr %69)
  br i1 %70, label %71, label %72

71:                                               ; preds = %67
  call void @llvm.memcpy.p0.p0.i64(ptr align 8 %3, ptr align 8 %4, i64 8, i1 false)
  br label %76

72:                                               ; preds = %67
  %73 = call noundef nonnull align 8 dereferenceable(8) ptr @_ZN9__gnu_cxx17__normal_iteratorIPKcNSt7__cxx1112basic_stringIcSt11char_traitsIcESaIcEEEEppEv(ptr noundef nonnull align 8 dereferenceable(8) %4) #3
  br label %74

74:                                               ; preds = %51, %72
  br label %75

75:                                               ; preds = %51, %74
  call void @llvm.memcpy.p0.p0.i64(ptr align 8 %3, ptr align 8 %5, i64 8, i1 false)
  br label %76

76:                                               ; preds = %75, %71, %64, %57, %45, %39, %33, %27
  %77 = getelementptr inbounds %"class.__gnu_cxx::__normal_iterator.0", ptr %3, i32 0, i32 0
  %78 = load ptr, ptr %77, align 8
  ret ptr %78
}

; Function Attrs: mustprogress noinline optnone uwtable
define linkonce_odr dso_local void @_ZN9__gnu_cxx5__ops8__negateIZNK17greedy_algorithms14BinaryAddition19isValidBinaryStringERKNSt7__cxx1112basic_stringIcSt11char_traitsIcESaIcEEEEUlcE_EENS0_12_Iter_negateIT_EENS0_10_Iter_predISE_EE() #5 comdat {
  %1 = alloca %"struct.__gnu_cxx::__ops::_Iter_negate", align 1
  %2 = alloca %"struct.__gnu_cxx::__ops::_Iter_pred", align 1
  %3 = alloca %class.anon, align 1
  %4 = getelementptr inbounds %"struct.__gnu_cxx::__ops::_Iter_pred", ptr %2, i32 0, i32 0
  call void @_ZN9__gnu_cxx5__ops12_Iter_negateIZNK17greedy_algorithms14BinaryAddition19isValidBinaryStringERKNSt7__cxx1112basic_stringIcSt11char_traitsIcESaIcEEEEUlcE_EC2ESC_(ptr noundef nonnull align 1 dereferenceable(1) %1)
  ret void
}

; Function Attrs: mustprogress noinline nounwind optnone uwtable
define linkonce_odr dso_local void @_ZSt19__iterator_categoryIN9__gnu_cxx17__normal_iteratorIPKcNSt7__cxx1112basic_stringIcSt11char_traitsIcESaIcEEEEEENSt15iterator_traitsIT_E17iterator_categoryERKSC_(ptr noundef nonnull align 8 dereferenceable(8) %0) #6 comdat {
  %2 = alloca ptr, align 8
  store ptr %0, ptr %2, align 8
  ret void
}

; Function Attrs: mustprogress noinline nounwind optnone uwtable
define linkonce_odr dso_local noundef i64 @_ZN9__gnu_cxxmiIPKcNSt7__cxx1112basic_stringIcSt11char_traitsIcESaIcEEEEENS_17__normal_iteratorIT_T0_E15difference_typeERKSC_SF_(ptr noundef nonnull align 8 dereferenceable(8) %0, ptr noundef nonnull align 8 dereferenceable(8) %1) #6 comdat {
  %3 = alloca ptr, align 8
  %4 = alloca ptr, align 8
  store ptr %0, ptr %3, align 8
  store ptr %1, ptr %4, align 8
  %5 = load ptr, ptr %3, align 8
  %6 = call noundef nonnull align 8 dereferenceable(8) ptr @_ZNK9__gnu_cxx17__normal_iteratorIPKcNSt7__cxx1112basic_stringIcSt11char_traitsIcESaIcEEEE4baseEv(ptr noundef nonnull align 8 dereferenceable(8) %5) #3
  %7 = load ptr, ptr %6, align 8
  %8 = load ptr, ptr %4, align 8
  %9 = call noundef nonnull align 8 dereferenceable(8) ptr @_ZNK9__gnu_cxx17__normal_iteratorIPKcNSt7__cxx1112basic_stringIcSt11char_traitsIcESaIcEEEE4baseEv(ptr noundef nonnull align 8 dereferenceable(8) %8) #3
  %10 = load ptr, ptr %9, align 8
  %11 = ptrtoint ptr %7 to i64
  %12 = ptrtoint ptr %10 to i64
  %13 = sub i64 %11, %12
  ret i64 %13
}

; Function Attrs: mustprogress noinline optnone uwtable
define linkonce_odr dso_local noundef zeroext i1 @_ZN9__gnu_cxx5__ops12_Iter_negateIZNK17greedy_algorithms14BinaryAddition19isValidBinaryStringERKNSt7__cxx1112basic_stringIcSt11char_traitsIcESaIcEEEEUlcE_EclINS_17__normal_iteratorIPKcS9_EEEEbT_(ptr noundef nonnull align 1 dereferenceable(1) %0, ptr %1) #5 comdat align 2 {
  %3 = alloca %"class.__gnu_cxx::__normal_iterator.0", align 8
  %4 = alloca ptr, align 8
  %5 = getelementptr inbounds %"class.__gnu_cxx::__normal_iterator.0", ptr %3, i32 0, i32 0
  store ptr %1, ptr %5, align 8
  store ptr %0, ptr %4, align 8
  %6 = load ptr, ptr %4, align 8
  %7 = getelementptr inbounds %"struct.__gnu_cxx::__ops::_Iter_negate", ptr %6, i32 0, i32 0
  %8 = call noundef nonnull align 1 dereferenceable(1) ptr @_ZNK9__gnu_cxx17__normal_iteratorIPKcNSt7__cxx1112basic_stringIcSt11char_traitsIcESaIcEEEEdeEv(ptr noundef nonnull align 8 dereferenceable(8) %3) #3
  %9 = load i8, ptr %8, align 1
  %10 = call noundef zeroext i1 @_ZZNK17greedy_algorithms14BinaryAddition19isValidBinaryStringERKNSt7__cxx1112basic_stringIcSt11char_traitsIcESaIcEEEENKUlcE_clEc(ptr noundef nonnull align 1 dereferenceable(1) %7, i8 noundef signext %9)
  %11 = xor i1 %10, true
  ret i1 %11
}

; Function Attrs: mustprogress noinline nounwind optnone uwtable
define linkonce_odr dso_local noundef nonnull align 8 dereferenceable(8) ptr @_ZN9__gnu_cxx17__normal_iteratorIPKcNSt7__cxx1112basic_stringIcSt11char_traitsIcESaIcEEEEppEv(ptr noundef nonnull align 8 dereferenceable(8) %0) #6 comdat align 2 {
  %2 = alloca ptr, align 8
  store ptr %0, ptr %2, align 8
  %3 = load ptr, ptr %2, align 8
  %4 = getelementptr inbounds %"class.__gnu_cxx::__normal_iterator.0", ptr %3, i32 0, i32 0
  %5 = load ptr, ptr %4, align 8
  %6 = getelementptr inbounds i8, ptr %5, i32 1
  store ptr %6, ptr %4, align 8
  ret ptr %3
}

; Function Attrs: mustprogress noinline nounwind optnone uwtable
define linkonce_odr dso_local noundef zeroext i1 @_ZZNK17greedy_algorithms14BinaryAddition19isValidBinaryStringERKNSt7__cxx1112basic_stringIcSt11char_traitsIcESaIcEEEENKUlcE_clEc(ptr noundef nonnull align 1 dereferenceable(1) %0, i8 noundef signext %1) #6 comdat align 2 {
  %3 = alloca ptr, align 8
  %4 = alloca i8, align 1
  store ptr %0, ptr %3, align 8
  store i8 %1, ptr %4, align 1
  %5 = load ptr, ptr %3, align 8
  %6 = load i8, ptr %4, align 1
  %7 = sext i8 %6 to i32
  %8 = icmp eq i32 %7, 48
  br i1 %8, label %13, label %9

9:                                                ; preds = %2
  %10 = load i8, ptr %4, align 1
  %11 = sext i8 %10 to i32
  %12 = icmp eq i32 %11, 49
  br label %13

13:                                               ; preds = %9, %2
  %14 = phi i1 [ true, %2 ], [ %12, %9 ]
  ret i1 %14
}

; Function Attrs: mustprogress noinline nounwind optnone uwtable
define linkonce_odr dso_local noundef nonnull align 1 dereferenceable(1) ptr @_ZNK9__gnu_cxx17__normal_iteratorIPKcNSt7__cxx1112basic_stringIcSt11char_traitsIcESaIcEEEEdeEv(ptr noundef nonnull align 8 dereferenceable(8) %0) #6 comdat align 2 {
  %2 = alloca ptr, align 8
  store ptr %0, ptr %2, align 8
  %3 = load ptr, ptr %2, align 8
  %4 = getelementptr inbounds %"class.__gnu_cxx::__normal_iterator.0", ptr %3, i32 0, i32 0
  %5 = load ptr, ptr %4, align 8
  ret ptr %5
}

; Function Attrs: noinline nounwind optnone uwtable
define linkonce_odr dso_local void @_ZN9__gnu_cxx5__ops12_Iter_negateIZNK17greedy_algorithms14BinaryAddition19isValidBinaryStringERKNSt7__cxx1112basic_stringIcSt11char_traitsIcESaIcEEEEUlcE_EC2ESC_(ptr noundef nonnull align 1 dereferenceable(1) %0) unnamed_addr #9 comdat align 2 {
  %2 = alloca %class.anon, align 1
  %3 = alloca ptr, align 8
  store ptr %0, ptr %3, align 8
  %4 = load ptr, ptr %3, align 8
  %5 = getelementptr inbounds %"struct.__gnu_cxx::__ops::_Iter_negate", ptr %4, i32 0, i32 0
  ret void
}

; Function Attrs: noinline nounwind optnone uwtable
define linkonce_odr dso_local void @_ZN9__gnu_cxx5__ops10_Iter_predIZNK17greedy_algorithms14BinaryAddition19isValidBinaryStringERKNSt7__cxx1112basic_stringIcSt11char_traitsIcESaIcEEEEUlcE_EC2ESC_(ptr noundef nonnull align 1 dereferenceable(1) %0) unnamed_addr #9 comdat align 2 {
  %2 = alloca %class.anon, align 1
  %3 = alloca ptr, align 8
  store ptr %0, ptr %3, align 8
  %4 = load ptr, ptr %3, align 8
  %5 = getelementptr inbounds %"struct.__gnu_cxx::__ops::_Iter_pred", ptr %4, i32 0, i32 0
  ret void
}

; Function Attrs: mustprogress noinline optnone uwtable
define linkonce_odr dso_local void @_ZSt9__reverseIN9__gnu_cxx17__normal_iteratorIPcNSt7__cxx1112basic_stringIcSt11char_traitsIcESaIcEEEEEEvT_SA_St26random_access_iterator_tag(ptr %0, ptr %1) #5 comdat {
  %3 = alloca %"class.__gnu_cxx::__normal_iterator", align 8
  %4 = alloca %"class.__gnu_cxx::__normal_iterator", align 8
  %5 = alloca %"struct.std::random_access_iterator_tag", align 1
  %6 = alloca %"class.__gnu_cxx::__normal_iterator", align 8
  %7 = alloca %"class.__gnu_cxx::__normal_iterator", align 8
  %8 = getelementptr inbounds %"class.__gnu_cxx::__normal_iterator", ptr %3, i32 0, i32 0
  store ptr %0, ptr %8, align 8
  %9 = getelementptr inbounds %"class.__gnu_cxx::__normal_iterator", ptr %4, i32 0, i32 0
  store ptr %1, ptr %9, align 8
  %10 = call noundef zeroext i1 @_ZN9__gnu_cxxeqIPcNSt7__cxx1112basic_stringIcSt11char_traitsIcESaIcEEEEEbRKNS_17__normal_iteratorIT_T0_EESD_(ptr noundef nonnull align 8 dereferenceable(8) %3, ptr noundef nonnull align 8 dereferenceable(8) %4) #3
  br i1 %10, label %11, label %12

11:                                               ; preds = %2
  br label %23

12:                                               ; preds = %2
  %13 = call noundef nonnull align 8 dereferenceable(8) ptr @_ZN9__gnu_cxx17__normal_iteratorIPcNSt7__cxx1112basic_stringIcSt11char_traitsIcESaIcEEEEmmEv(ptr noundef nonnull align 8 dereferenceable(8) %4) #3
  br label %14

14:                                               ; preds = %16, %12
  %15 = call noundef zeroext i1 @_ZN9__gnu_cxxltIPcNSt7__cxx1112basic_stringIcSt11char_traitsIcESaIcEEEEEbRKNS_17__normal_iteratorIT_T0_EESD_(ptr noundef nonnull align 8 dereferenceable(8) %3, ptr noundef nonnull align 8 dereferenceable(8) %4) #3
  br i1 %15, label %16, label %23

16:                                               ; preds = %14
  call void @llvm.memcpy.p0.p0.i64(ptr align 8 %6, ptr align 8 %3, i64 8, i1 false)
  call void @llvm.memcpy.p0.p0.i64(ptr align 8 %7, ptr align 8 %4, i64 8, i1 false)
  %17 = getelementptr inbounds %"class.__gnu_cxx::__normal_iterator", ptr %6, i32 0, i32 0
  %18 = load ptr, ptr %17, align 8
  %19 = getelementptr inbounds %"class.__gnu_cxx::__normal_iterator", ptr %7, i32 0, i32 0
  %20 = load ptr, ptr %19, align 8
  call void @_ZSt9iter_swapIN9__gnu_cxx17__normal_iteratorIPcNSt7__cxx1112basic_stringIcSt11char_traitsIcESaIcEEEEES9_EvT_T0_(ptr %18, ptr %20)
  %21 = call noundef nonnull align 8 dereferenceable(8) ptr @_ZN9__gnu_cxx17__normal_iteratorIPcNSt7__cxx1112basic_stringIcSt11char_traitsIcESaIcEEEEppEv(ptr noundef nonnull align 8 dereferenceable(8) %3) #3
  %22 = call noundef nonnull align 8 dereferenceable(8) ptr @_ZN9__gnu_cxx17__normal_iteratorIPcNSt7__cxx1112basic_stringIcSt11char_traitsIcESaIcEEEEmmEv(ptr noundef nonnull align 8 dereferenceable(8) %4) #3
  br label %14, !llvm.loop !9

23:                                               ; preds = %11, %14
  ret void
}

; Function Attrs: mustprogress noinline nounwind optnone uwtable
define linkonce_odr dso_local void @_ZSt19__iterator_categoryIN9__gnu_cxx17__normal_iteratorIPcNSt7__cxx1112basic_stringIcSt11char_traitsIcESaIcEEEEEENSt15iterator_traitsIT_E17iterator_categoryERKSB_(ptr noundef nonnull align 8 dereferenceable(8) %0) #6 comdat {
  %2 = alloca ptr, align 8
  store ptr %0, ptr %2, align 8
  ret void
}

; Function Attrs: mustprogress noinline nounwind optnone uwtable
define linkonce_odr dso_local noundef zeroext i1 @_ZN9__gnu_cxxeqIPcNSt7__cxx1112basic_stringIcSt11char_traitsIcESaIcEEEEEbRKNS_17__normal_iteratorIT_T0_EESD_(ptr noundef nonnull align 8 dereferenceable(8) %0, ptr noundef nonnull align 8 dereferenceable(8) %1) #6 comdat {
  %3 = alloca ptr, align 8
  %4 = alloca ptr, align 8
  store ptr %0, ptr %3, align 8
  store ptr %1, ptr %4, align 8
  %5 = load ptr, ptr %3, align 8
  %6 = call noundef nonnull align 8 dereferenceable(8) ptr @_ZNK9__gnu_cxx17__normal_iteratorIPcNSt7__cxx1112basic_stringIcSt11char_traitsIcESaIcEEEE4baseEv(ptr noundef nonnull align 8 dereferenceable(8) %5) #3
  %7 = load ptr, ptr %6, align 8
  %8 = load ptr, ptr %4, align 8
  %9 = call noundef nonnull align 8 dereferenceable(8) ptr @_ZNK9__gnu_cxx17__normal_iteratorIPcNSt7__cxx1112basic_stringIcSt11char_traitsIcESaIcEEEE4baseEv(ptr noundef nonnull align 8 dereferenceable(8) %8) #3
  %10 = load ptr, ptr %9, align 8
  %11 = icmp eq ptr %7, %10
  ret i1 %11
}

; Function Attrs: mustprogress noinline nounwind optnone uwtable
define linkonce_odr dso_local noundef nonnull align 8 dereferenceable(8) ptr @_ZN9__gnu_cxx17__normal_iteratorIPcNSt7__cxx1112basic_stringIcSt11char_traitsIcESaIcEEEEmmEv(ptr noundef nonnull align 8 dereferenceable(8) %0) #6 comdat align 2 {
  %2 = alloca ptr, align 8
  store ptr %0, ptr %2, align 8
  %3 = load ptr, ptr %2, align 8
  %4 = getelementptr inbounds %"class.__gnu_cxx::__normal_iterator", ptr %3, i32 0, i32 0
  %5 = load ptr, ptr %4, align 8
  %6 = getelementptr inbounds i8, ptr %5, i32 -1
  store ptr %6, ptr %4, align 8
  ret ptr %3
}

; Function Attrs: mustprogress noinline nounwind optnone uwtable
define linkonce_odr dso_local noundef zeroext i1 @_ZN9__gnu_cxxltIPcNSt7__cxx1112basic_stringIcSt11char_traitsIcESaIcEEEEEbRKNS_17__normal_iteratorIT_T0_EESD_(ptr noundef nonnull align 8 dereferenceable(8) %0, ptr noundef nonnull align 8 dereferenceable(8) %1) #6 comdat {
  %3 = alloca ptr, align 8
  %4 = alloca ptr, align 8
  store ptr %0, ptr %3, align 8
  store ptr %1, ptr %4, align 8
  %5 = load ptr, ptr %3, align 8
  %6 = call noundef nonnull align 8 dereferenceable(8) ptr @_ZNK9__gnu_cxx17__normal_iteratorIPcNSt7__cxx1112basic_stringIcSt11char_traitsIcESaIcEEEE4baseEv(ptr noundef nonnull align 8 dereferenceable(8) %5) #3
  %7 = load ptr, ptr %6, align 8
  %8 = load ptr, ptr %4, align 8
  %9 = call noundef nonnull align 8 dereferenceable(8) ptr @_ZNK9__gnu_cxx17__normal_iteratorIPcNSt7__cxx1112basic_stringIcSt11char_traitsIcESaIcEEEE4baseEv(ptr noundef nonnull align 8 dereferenceable(8) %8) #3
  %10 = load ptr, ptr %9, align 8
  %11 = icmp ult ptr %7, %10
  ret i1 %11
}

; Function Attrs: mustprogress noinline nounwind optnone uwtable
define linkonce_odr dso_local void @_ZSt9iter_swapIN9__gnu_cxx17__normal_iteratorIPcNSt7__cxx1112basic_stringIcSt11char_traitsIcESaIcEEEEES9_EvT_T0_(ptr %0, ptr %1) #6 comdat {
  %3 = alloca %"class.__gnu_cxx::__normal_iterator", align 8
  %4 = alloca %"class.__gnu_cxx::__normal_iterator", align 8
  %5 = getelementptr inbounds %"class.__gnu_cxx::__normal_iterator", ptr %3, i32 0, i32 0
  store ptr %0, ptr %5, align 8
  %6 = getelementptr inbounds %"class.__gnu_cxx::__normal_iterator", ptr %4, i32 0, i32 0
  store ptr %1, ptr %6, align 8
  %7 = call noundef nonnull align 1 dereferenceable(1) ptr @_ZNK9__gnu_cxx17__normal_iteratorIPcNSt7__cxx1112basic_stringIcSt11char_traitsIcESaIcEEEEdeEv(ptr noundef nonnull align 8 dereferenceable(8) %3) #3
  %8 = call noundef nonnull align 1 dereferenceable(1) ptr @_ZNK9__gnu_cxx17__normal_iteratorIPcNSt7__cxx1112basic_stringIcSt11char_traitsIcESaIcEEEEdeEv(ptr noundef nonnull align 8 dereferenceable(8) %4) #3
  call void @_ZSt4swapIcENSt9enable_ifIXsr6__and_ISt6__not_ISt15__is_tuple_likeIT_EESt21is_move_constructibleIS3_ESt18is_move_assignableIS3_EEE5valueEvE4typeERS3_SC_(ptr noundef nonnull align 1 dereferenceable(1) %7, ptr noundef nonnull align 1 dereferenceable(1) %8) #3
  ret void
}

; Function Attrs: mustprogress noinline nounwind optnone uwtable
define linkonce_odr dso_local noundef nonnull align 8 dereferenceable(8) ptr @_ZN9__gnu_cxx17__normal_iteratorIPcNSt7__cxx1112basic_stringIcSt11char_traitsIcESaIcEEEEppEv(ptr noundef nonnull align 8 dereferenceable(8) %0) #6 comdat align 2 {
  %2 = alloca ptr, align 8
  store ptr %0, ptr %2, align 8
  %3 = load ptr, ptr %2, align 8
  %4 = getelementptr inbounds %"class.__gnu_cxx::__normal_iterator", ptr %3, i32 0, i32 0
  %5 = load ptr, ptr %4, align 8
  %6 = getelementptr inbounds i8, ptr %5, i32 1
  store ptr %6, ptr %4, align 8
  ret ptr %3
}

; Function Attrs: mustprogress noinline nounwind optnone uwtable
define linkonce_odr dso_local noundef nonnull align 8 dereferenceable(8) ptr @_ZNK9__gnu_cxx17__normal_iteratorIPcNSt7__cxx1112basic_stringIcSt11char_traitsIcESaIcEEEE4baseEv(ptr noundef nonnull align 8 dereferenceable(8) %0) #6 comdat align 2 {
  %2 = alloca ptr, align 8
  store ptr %0, ptr %2, align 8
  %3 = load ptr, ptr %2, align 8
  %4 = getelementptr inbounds %"class.__gnu_cxx::__normal_iterator", ptr %3, i32 0, i32 0
  ret ptr %4
}

; Function Attrs: mustprogress noinline nounwind optnone uwtable
define linkonce_odr dso_local void @_ZSt4swapIcENSt9enable_ifIXsr6__and_ISt6__not_ISt15__is_tuple_likeIT_EESt21is_move_constructibleIS3_ESt18is_move_assignableIS3_EEE5valueEvE4typeERS3_SC_(ptr noundef nonnull align 1 dereferenceable(1) %0, ptr noundef nonnull align 1 dereferenceable(1) %1) #6 comdat {
  %3 = alloca ptr, align 8
  %4 = alloca ptr, align 8
  %5 = alloca i8, align 1
  store ptr %0, ptr %3, align 8
  store ptr %1, ptr %4, align 8
  %6 = load ptr, ptr %3, align 8
  %7 = load i8, ptr %6, align 1
  store i8 %7, ptr %5, align 1
  %8 = load ptr, ptr %4, align 8
  %9 = load i8, ptr %8, align 1
  %10 = load ptr, ptr %3, align 8
  store i8 %9, ptr %10, align 1
  %11 = load i8, ptr %5, align 1
  %12 = load ptr, ptr %4, align 8
  store i8 %11, ptr %12, align 1
  ret void
}

; Function Attrs: mustprogress noinline nounwind optnone uwtable
define linkonce_odr dso_local noundef nonnull align 1 dereferenceable(1) ptr @_ZNK9__gnu_cxx17__normal_iteratorIPcNSt7__cxx1112basic_stringIcSt11char_traitsIcESaIcEEEEdeEv(ptr noundef nonnull align 8 dereferenceable(8) %0) #6 comdat align 2 {
  %2 = alloca ptr, align 8
  store ptr %0, ptr %2, align 8
  %3 = load ptr, ptr %2, align 8
  %4 = getelementptr inbounds %"class.__gnu_cxx::__normal_iterator", ptr %3, i32 0, i32 0
  %5 = load ptr, ptr %4, align 8
  ret ptr %5
}

; Function Attrs: noinline uwtable
define internal void @_GLOBAL__sub_I_binary_addition.cpp() #0 section ".text.startup" {
  call void @__cxx_global_var_init()
  ret void
}

attributes #0 = { noinline uwtable "frame-pointer"="all" "min-legal-vector-width"="0" "no-trapping-math"="true" "stack-protector-buffer-size"="8" "target-cpu"="x86-64" "target-features"="+cx8,+fxsr,+mmx,+sse,+sse2,+x87" "tune-cpu"="generic" }
attributes #1 = { "frame-pointer"="all" "no-trapping-math"="true" "stack-protector-buffer-size"="8" "target-cpu"="x86-64" "target-features"="+cx8,+fxsr,+mmx,+sse,+sse2,+x87" "tune-cpu"="generic" }
attributes #2 = { nounwind "frame-pointer"="all" "no-trapping-math"="true" "stack-protector-buffer-size"="8" "target-cpu"="x86-64" "target-features"="+cx8,+fxsr,+mmx,+sse,+sse2,+x87" "tune-cpu"="generic" }
attributes #3 = { nounwind }
attributes #4 = { mustprogress noinline norecurse optnone uwtable "frame-pointer"="all" "min-legal-vector-width"="0" "no-trapping-math"="true" "stack-protector-buffer-size"="8" "target-cpu"="x86-64" "target-features"="+cx8,+fxsr,+mmx,+sse,+sse2,+x87" "tune-cpu"="generic" }
attributes #5 = { mustprogress noinline optnone uwtable "frame-pointer"="all" "min-legal-vector-width"="0" "no-trapping-math"="true" "stack-protector-buffer-size"="8" "target-cpu"="x86-64" "target-features"="+cx8,+fxsr,+mmx,+sse,+sse2,+x87" "tune-cpu"="generic" }
attributes #6 = { mustprogress noinline nounwind optnone uwtable "frame-pointer"="all" "min-legal-vector-width"="0" "no-trapping-math"="true" "stack-protector-buffer-size"="8" "target-cpu"="x86-64" "target-features"="+cx8,+fxsr,+mmx,+sse,+sse2,+x87" "tune-cpu"="generic" }
attributes #7 = { noreturn nounwind "frame-pointer"="all" "no-trapping-math"="true" "stack-protector-buffer-size"="8" "target-cpu"="x86-64" "target-features"="+cx8,+fxsr,+mmx,+sse,+sse2,+x87" "tune-cpu"="generic" }
attributes #8 = { argmemonly nocallback nofree nounwind willreturn }
attributes #9 = { noinline nounwind optnone uwtable "frame-pointer"="all" "min-legal-vector-width"="0" "no-trapping-math"="true" "stack-protector-buffer-size"="8" "target-cpu"="x86-64" "target-features"="+cx8,+fxsr,+mmx,+sse,+sse2,+x87" "tune-cpu"="generic" }
attributes #10 = { noreturn nounwind }

!llvm.module.flags = !{!0, !1, !2, !3, !4}
!llvm.ident = !{!5}

!0 = !{i32 1, !"wchar_size", i32 4}
!1 = !{i32 7, !"PIC Level", i32 2}
!2 = !{i32 7, !"PIE Level", i32 2}
!3 = !{i32 7, !"uwtable", i32 2}
!4 = !{i32 7, !"frame-pointer", i32 2}
!5 = !{!"Ubuntu clang version 15.0.7"}
!6 = distinct !{!6, !7}
!7 = !{!"llvm.loop.mustprogress"}
!8 = distinct !{!8, !7}
!9 = distinct !{!9, !7}
